   1              		.syntax unified
   2              		.cpu cortex-m3
   3              		.fpu softvfp
   4              		.eabi_attribute 20, 1
   5              		.eabi_attribute 21, 1
   6              		.eabi_attribute 23, 3
   7              		.eabi_attribute 24, 1
   8              		.eabi_attribute 25, 1
   9              		.eabi_attribute 26, 1
  10              		.eabi_attribute 30, 6
  11              		.eabi_attribute 34, 1
  12              		.eabi_attribute 18, 4
  13              		.thumb
  14              		.file	"dhcp.c"
  15              		.text
  16              	.Ltext0:
  17              		.cfi_sections	.debug_frame
  18              		.comm	DHCP_SIP,4,4
  19              		.comm	DHCP_SHA,6,4
  20              		.comm	OLD_SIP,4,4
  21              		.global	DHCP_allocated_ip
  22              		.section	.bss.DHCP_allocated_ip,"aw",%nobits
  23              		.align	2
  26              	DHCP_allocated_ip:
  27 0000 00000000 		.space	4
  28              		.global	DHCP_allocated_gw
  29              		.section	.bss.DHCP_allocated_gw,"aw",%nobits
  30              		.align	2
  33              	DHCP_allocated_gw:
  34 0000 00000000 		.space	4
  35              		.global	DHCP_allocated_sn
  36              		.section	.bss.DHCP_allocated_sn,"aw",%nobits
  37              		.align	2
  40              	DHCP_allocated_sn:
  41 0000 00000000 		.space	4
  42              		.global	DHCP_allocated_dns
  43              		.section	.bss.DHCP_allocated_dns,"aw",%nobits
  44              		.align	2
  47              	DHCP_allocated_dns:
  48 0000 00000000 		.space	4
  49              		.comm	DHCP_SOCKET,1,1
  50              		.global	wizchip_mac
  51              		.section	.bss.wizchip_mac,"aw",%nobits
  52              		.align	2
  55              	wizchip_mac:
  56 0000 00000000 		.space	6
  56      0000
  57              		.comm	dhcp_state,1,1
  58              		.comm	retry_count,1,1
  59              		.comm	lease_time,4,4
  60              		.comm	my_time,4,4
  61              		.comm	next_time,4,4
  62              		.comm	DHCP_XID,4,4
  63              		.comm	MSG,4,4
  64              		.global	HOST_NAME
  65              		.section	.data.HOST_NAME,"aw",%progbits
  66              		.align	2
  69              	HOST_NAME:
  70 0000 54445341 		.ascii	"TDSAST\000"
  70      535400
  71              		.global	Cip
  72              		.section	.bss.Cip,"aw",%nobits
  73              		.align	2
  76              	Cip:
  77 0000 00000000 		.space	4
  78              		.section	.text.ip_assign,"ax",%progbits
  79              		.align	2
  80              		.thumb
  81              		.thumb_func
  83              	ip_assign:
  84              	.LFB0:
  85              		.file 1 "/home/virusv/TDSAST_IOT/Internet/DHCP/dhcp.c"
   1:/home/virusv/TDSAST_IOT/Internet/DHCP/dhcp.c **** /*
   2:/home/virusv/TDSAST_IOT/Internet/DHCP/dhcp.c **** ********************************************************************************
   3:/home/virusv/TDSAST_IOT/Internet/DHCP/dhcp.c **** File Include Section
   4:/home/virusv/TDSAST_IOT/Internet/DHCP/dhcp.c **** ********************************************************************************
   5:/home/virusv/TDSAST_IOT/Internet/DHCP/dhcp.c **** */
   6:/home/virusv/TDSAST_IOT/Internet/DHCP/dhcp.c **** #include <stdio.h>
   7:/home/virusv/TDSAST_IOT/Internet/DHCP/dhcp.c **** #include <string.h>
   8:/home/virusv/TDSAST_IOT/Internet/DHCP/dhcp.c **** #include "socket.h"
   9:/home/virusv/TDSAST_IOT/Internet/DHCP/dhcp.c **** #include "dhcp.h"
  10:/home/virusv/TDSAST_IOT/Internet/DHCP/dhcp.c **** 
  11:/home/virusv/TDSAST_IOT/Internet/DHCP/dhcp.c **** /*
  12:/home/virusv/TDSAST_IOT/Internet/DHCP/dhcp.c **** ********************************************************************************
  13:/home/virusv/TDSAST_IOT/Internet/DHCP/dhcp.c **** Define Part
  14:/home/virusv/TDSAST_IOT/Internet/DHCP/dhcp.c **** ********************************************************************************
  15:/home/virusv/TDSAST_IOT/Internet/DHCP/dhcp.c **** */
  16:/home/virusv/TDSAST_IOT/Internet/DHCP/dhcp.c **** //#define _DHCP_DEBUG_
  17:/home/virusv/TDSAST_IOT/Internet/DHCP/dhcp.c **** 
  18:/home/virusv/TDSAST_IOT/Internet/DHCP/dhcp.c **** /*
  19:/home/virusv/TDSAST_IOT/Internet/DHCP/dhcp.c **** ********************************************************************************
  20:/home/virusv/TDSAST_IOT/Internet/DHCP/dhcp.c **** Function declaration Part
  21:/home/virusv/TDSAST_IOT/Internet/DHCP/dhcp.c **** ********************************************************************************
  22:/home/virusv/TDSAST_IOT/Internet/DHCP/dhcp.c **** */
  23:/home/virusv/TDSAST_IOT/Internet/DHCP/dhcp.c **** void send_DHCP_DISCOVER(void);
  24:/home/virusv/TDSAST_IOT/Internet/DHCP/dhcp.c **** void send_DHCP_REQUEST(uint8_t *Cip, uint8_t *d_addr);
  25:/home/virusv/TDSAST_IOT/Internet/DHCP/dhcp.c **** void send_DHCP_REREQUEST(void);
  26:/home/virusv/TDSAST_IOT/Internet/DHCP/dhcp.c **** void send_DHCP_RELEASE(void);
  27:/home/virusv/TDSAST_IOT/Internet/DHCP/dhcp.c **** void send_DHCP_DECLINE(void);
  28:/home/virusv/TDSAST_IOT/Internet/DHCP/dhcp.c **** 
  29:/home/virusv/TDSAST_IOT/Internet/DHCP/dhcp.c **** uint8_t check_DHCP_state(void);
  30:/home/virusv/TDSAST_IOT/Internet/DHCP/dhcp.c **** int8_t check_DHCP_leasedIP(void);
  31:/home/virusv/TDSAST_IOT/Internet/DHCP/dhcp.c **** 
  32:/home/virusv/TDSAST_IOT/Internet/DHCP/dhcp.c **** uint8_t check_DHCP_timeout(void);
  33:/home/virusv/TDSAST_IOT/Internet/DHCP/dhcp.c **** void reset_DHCP_timeout(void);
  34:/home/virusv/TDSAST_IOT/Internet/DHCP/dhcp.c **** void DHCP_timerHandler(void);
  35:/home/virusv/TDSAST_IOT/Internet/DHCP/dhcp.c **** 
  36:/home/virusv/TDSAST_IOT/Internet/DHCP/dhcp.c **** int8_t parseDHCPMSG(uint16_t length);
  37:/home/virusv/TDSAST_IOT/Internet/DHCP/dhcp.c **** 
  38:/home/virusv/TDSAST_IOT/Internet/DHCP/dhcp.c **** /*
  39:/home/virusv/TDSAST_IOT/Internet/DHCP/dhcp.c **** ********************************************************************************
  40:/home/virusv/TDSAST_IOT/Internet/DHCP/dhcp.c **** Local Variable Declaration Section
  41:/home/virusv/TDSAST_IOT/Internet/DHCP/dhcp.c **** ********************************************************************************
  42:/home/virusv/TDSAST_IOT/Internet/DHCP/dhcp.c **** */
  43:/home/virusv/TDSAST_IOT/Internet/DHCP/dhcp.c **** 
  44:/home/virusv/TDSAST_IOT/Internet/DHCP/dhcp.c **** uint8_t DHCP_SIP[4];
  45:/home/virusv/TDSAST_IOT/Internet/DHCP/dhcp.c **** uint8_t DHCP_SHA[6];
  46:/home/virusv/TDSAST_IOT/Internet/DHCP/dhcp.c **** uint8_t OLD_SIP[4];
  47:/home/virusv/TDSAST_IOT/Internet/DHCP/dhcp.c **** 
  48:/home/virusv/TDSAST_IOT/Internet/DHCP/dhcp.c **** // Network information from DHCP Server
  49:/home/virusv/TDSAST_IOT/Internet/DHCP/dhcp.c **** uint8_t DHCP_allocated_ip[4] = {0, };
  50:/home/virusv/TDSAST_IOT/Internet/DHCP/dhcp.c **** uint8_t DHCP_allocated_gw[4] = {0, };
  51:/home/virusv/TDSAST_IOT/Internet/DHCP/dhcp.c **** uint8_t DHCP_allocated_sn[4] = {0, };
  52:/home/virusv/TDSAST_IOT/Internet/DHCP/dhcp.c **** uint8_t DHCP_allocated_dns[4] = {0, };
  53:/home/virusv/TDSAST_IOT/Internet/DHCP/dhcp.c **** 
  54:/home/virusv/TDSAST_IOT/Internet/DHCP/dhcp.c **** uint8_t DHCP_SOCKET;
  55:/home/virusv/TDSAST_IOT/Internet/DHCP/dhcp.c **** 
  56:/home/virusv/TDSAST_IOT/Internet/DHCP/dhcp.c **** // Get wizchip MAC address
  57:/home/virusv/TDSAST_IOT/Internet/DHCP/dhcp.c **** uint8_t wizchip_mac[6] = {0, };
  58:/home/virusv/TDSAST_IOT/Internet/DHCP/dhcp.c **** 
  59:/home/virusv/TDSAST_IOT/Internet/DHCP/dhcp.c **** int8_t dhcp_state;
  60:/home/virusv/TDSAST_IOT/Internet/DHCP/dhcp.c **** int8_t retry_count;
  61:/home/virusv/TDSAST_IOT/Internet/DHCP/dhcp.c **** 
  62:/home/virusv/TDSAST_IOT/Internet/DHCP/dhcp.c **** un_l2cval lease_time;
  63:/home/virusv/TDSAST_IOT/Internet/DHCP/dhcp.c **** uint32_t my_time, next_time;
  64:/home/virusv/TDSAST_IOT/Internet/DHCP/dhcp.c **** 
  65:/home/virusv/TDSAST_IOT/Internet/DHCP/dhcp.c **** uint32_t DHCP_XID;
  66:/home/virusv/TDSAST_IOT/Internet/DHCP/dhcp.c **** 
  67:/home/virusv/TDSAST_IOT/Internet/DHCP/dhcp.c **** RIP_MSG*  MSG;
  68:/home/virusv/TDSAST_IOT/Internet/DHCP/dhcp.c **** 
  69:/home/virusv/TDSAST_IOT/Internet/DHCP/dhcp.c **** uint8_t HOST_NAME[] = "TDSAST";
  70:/home/virusv/TDSAST_IOT/Internet/DHCP/dhcp.c **** uint8_t Cip[4] = {0,0,0,0};
  71:/home/virusv/TDSAST_IOT/Internet/DHCP/dhcp.c **** 
  72:/home/virusv/TDSAST_IOT/Internet/DHCP/dhcp.c **** /*
  73:/home/virusv/TDSAST_IOT/Internet/DHCP/dhcp.c **** ********************************************************************************
  74:/home/virusv/TDSAST_IOT/Internet/DHCP/dhcp.c **** User's Function Implementation Part
  75:/home/virusv/TDSAST_IOT/Internet/DHCP/dhcp.c **** ********************************************************************************
  76:/home/virusv/TDSAST_IOT/Internet/DHCP/dhcp.c **** */
  77:/home/virusv/TDSAST_IOT/Internet/DHCP/dhcp.c **** 
  78:/home/virusv/TDSAST_IOT/Internet/DHCP/dhcp.c **** static void ip_assign(void) { }
  86              		.loc 1 78 0
  87              		.cfi_startproc
  88              		@ args = 0, pretend = 0, frame = 0
  89              		@ frame_needed = 1, uses_anonymous_args = 0
  90              		@ link register save eliminated.
  91 0000 80B4     		push	{r7}
  92              		.cfi_def_cfa_offset 4
  93              		.cfi_offset 7, -4
  94 0002 00AF     		add	r7, sp, #0
  95              		.cfi_def_cfa_register 7
  96              		.loc 1 78 0
  97 0004 BD46     		mov	sp, r7
  98              		.cfi_def_cfa_register 13
  99              		@ sp needed
 100 0006 5DF8047B 		ldr	r7, [sp], #4
 101              		.cfi_restore 7
 102              		.cfi_def_cfa_offset 0
 103 000a 7047     		bx	lr
 104              		.cfi_endproc
 105              	.LFE0:
 107              		.section	.text.ip_update,"ax",%progbits
 108              		.align	2
 109              		.thumb
 110              		.thumb_func
 112              	ip_update:
 113              	.LFB1:
  79:/home/virusv/TDSAST_IOT/Internet/DHCP/dhcp.c **** 
  80:/home/virusv/TDSAST_IOT/Internet/DHCP/dhcp.c **** static void ip_update(void)
  81:/home/virusv/TDSAST_IOT/Internet/DHCP/dhcp.c **** {
 114              		.loc 1 81 0
 115              		.cfi_startproc
 116              		@ args = 0, pretend = 0, frame = 0
 117              		@ frame_needed = 1, uses_anonymous_args = 0
 118 0000 80B5     		push	{r7, lr}
 119              		.cfi_def_cfa_offset 8
 120              		.cfi_offset 7, -8
 121              		.cfi_offset 14, -4
 122 0002 00AF     		add	r7, sp, #0
 123              		.cfi_def_cfa_register 7
  82:/home/virusv/TDSAST_IOT/Internet/DHCP/dhcp.c **** 	/* WIZchip Software Reset */
  83:/home/virusv/TDSAST_IOT/Internet/DHCP/dhcp.c **** 	setMR(MR_RST);
 124              		.loc 1 83 0
 125 0004 0020     		movs	r0, #0
 126 0006 8021     		movs	r1, #128
 127 0008 FFF7FEFF 		bl	WIZCHIP_WRITE
  84:/home/virusv/TDSAST_IOT/Internet/DHCP/dhcp.c **** 	getMR(); // for delay
 128              		.loc 1 84 0
 129 000c 0020     		movs	r0, #0
 130 000e FFF7FEFF 		bl	WIZCHIP_READ
  85:/home/virusv/TDSAST_IOT/Internet/DHCP/dhcp.c **** 	setSHAR(wizchip_mac);
 131              		.loc 1 85 0
 132 0012 4FF41060 		mov	r0, #2304
 133 0016 0249     		ldr	r1, .L3
 134 0018 0622     		movs	r2, #6
 135 001a FFF7FEFF 		bl	WIZCHIP_WRITE_BUF
  86:/home/virusv/TDSAST_IOT/Internet/DHCP/dhcp.c **** }
 136              		.loc 1 86 0
 137 001e 80BD     		pop	{r7, pc}
 138              	.L4:
 139              		.align	2
 140              	.L3:
 141 0020 00000000 		.word	wizchip_mac
 142              		.cfi_endproc
 143              	.LFE1:
 145              		.section	.text.ip_conflict,"ax",%progbits
 146              		.align	2
 147              		.thumb
 148              		.thumb_func
 150              	ip_conflict:
 151              	.LFB2:
  87:/home/virusv/TDSAST_IOT/Internet/DHCP/dhcp.c **** 
  88:/home/virusv/TDSAST_IOT/Internet/DHCP/dhcp.c **** static void ip_conflict(void)
  89:/home/virusv/TDSAST_IOT/Internet/DHCP/dhcp.c **** {
 152              		.loc 1 89 0
 153              		.cfi_startproc
 154              		@ args = 0, pretend = 0, frame = 0
 155              		@ frame_needed = 1, uses_anonymous_args = 0
 156 0000 80B5     		push	{r7, lr}
 157              		.cfi_def_cfa_offset 8
 158              		.cfi_offset 7, -8
 159              		.cfi_offset 14, -4
 160 0002 00AF     		add	r7, sp, #0
 161              		.cfi_def_cfa_register 7
  90:/home/virusv/TDSAST_IOT/Internet/DHCP/dhcp.c **** 	// WIZchip Software Reset
  91:/home/virusv/TDSAST_IOT/Internet/DHCP/dhcp.c **** 	setMR(MR_RST);
 162              		.loc 1 91 0
 163 0004 0020     		movs	r0, #0
 164 0006 8021     		movs	r1, #128
 165 0008 FFF7FEFF 		bl	WIZCHIP_WRITE
  92:/home/virusv/TDSAST_IOT/Internet/DHCP/dhcp.c **** 	getMR(); // for delay
 166              		.loc 1 92 0
 167 000c 0020     		movs	r0, #0
 168 000e FFF7FEFF 		bl	WIZCHIP_READ
  93:/home/virusv/TDSAST_IOT/Internet/DHCP/dhcp.c **** 	setSHAR(wizchip_mac);
 169              		.loc 1 93 0
 170 0012 4FF41060 		mov	r0, #2304
 171 0016 0949     		ldr	r1, .L6
 172 0018 0622     		movs	r2, #6
 173 001a FFF7FEFF 		bl	WIZCHIP_WRITE_BUF
  94:/home/virusv/TDSAST_IOT/Internet/DHCP/dhcp.c **** 
  95:/home/virusv/TDSAST_IOT/Internet/DHCP/dhcp.c **** 	socket(DHCP_SOCKET, Sn_MR_UDP, DHCP_CLIENT_PORT, 0x00);
 174              		.loc 1 95 0
 175 001e 084B     		ldr	r3, .L6+4
 176 0020 1B78     		ldrb	r3, [r3]	@ zero_extendqisi2
 177 0022 1846     		mov	r0, r3
 178 0024 0221     		movs	r1, #2
 179 0026 4422     		movs	r2, #68
 180 0028 0023     		movs	r3, #0
 181 002a FFF7FEFF 		bl	socket
  96:/home/virusv/TDSAST_IOT/Internet/DHCP/dhcp.c **** 	send_DHCP_DISCOVER();
 182              		.loc 1 96 0
 183 002e FFF7FEFF 		bl	send_DHCP_DISCOVER
  97:/home/virusv/TDSAST_IOT/Internet/DHCP/dhcp.c **** 	dhcp_state = STATE_DHCP_DISCOVER;
 184              		.loc 1 97 0
 185 0032 044B     		ldr	r3, .L6+8
 186 0034 0122     		movs	r2, #1
 187 0036 1A70     		strb	r2, [r3]
  98:/home/virusv/TDSAST_IOT/Internet/DHCP/dhcp.c **** }
 188              		.loc 1 98 0
 189 0038 80BD     		pop	{r7, pc}
 190              	.L7:
 191 003a 00BF     		.align	2
 192              	.L6:
 193 003c 00000000 		.word	wizchip_mac
 194 0040 00000000 		.word	DHCP_SOCKET
 195 0044 00000000 		.word	dhcp_state
 196              		.cfi_endproc
 197              	.LFE2:
 199              		.global	dhcp_ip_assign
 200              		.section	.data.dhcp_ip_assign,"aw",%progbits
 201              		.align	2
 204              	dhcp_ip_assign:
 205 0000 00000000 		.word	ip_assign
 206              		.global	dhcp_ip_update
 207              		.section	.data.dhcp_ip_update,"aw",%progbits
 208              		.align	2
 211              	dhcp_ip_update:
 212 0000 00000000 		.word	ip_update
 213              		.global	dhcp_ip_conflict
 214              		.section	.data.dhcp_ip_conflict,"aw",%progbits
 215              		.align	2
 218              	dhcp_ip_conflict:
 219 0000 00000000 		.word	ip_conflict
 220              		.section	.text.send_DHCP_DISCOVER,"ax",%progbits
 221              		.align	2
 222              		.global	send_DHCP_DISCOVER
 223              		.thumb
 224              		.thumb_func
 226              	send_DHCP_DISCOVER:
 227              	.LFB3:
  99:/home/virusv/TDSAST_IOT/Internet/DHCP/dhcp.c **** 
 100:/home/virusv/TDSAST_IOT/Internet/DHCP/dhcp.c **** void (*dhcp_ip_assign)(void) = ip_assign;		/**< handler to be called when the IP address from DHCP 
 101:/home/virusv/TDSAST_IOT/Internet/DHCP/dhcp.c **** void (*dhcp_ip_update)(void) = ip_update;		/**< handler to be called when the IP address from DHCP 
 102:/home/virusv/TDSAST_IOT/Internet/DHCP/dhcp.c **** void (*dhcp_ip_conflict)(void) = ip_conflict;		/**< handler to be called when the IP address from D
 103:/home/virusv/TDSAST_IOT/Internet/DHCP/dhcp.c **** 
 104:/home/virusv/TDSAST_IOT/Internet/DHCP/dhcp.c **** 
 105:/home/virusv/TDSAST_IOT/Internet/DHCP/dhcp.c **** /*
 106:/home/virusv/TDSAST_IOT/Internet/DHCP/dhcp.c **** ********************************************************************************
 107:/home/virusv/TDSAST_IOT/Internet/DHCP/dhcp.c **** Function Implementation Part
 108:/home/virusv/TDSAST_IOT/Internet/DHCP/dhcp.c **** ********************************************************************************
 109:/home/virusv/TDSAST_IOT/Internet/DHCP/dhcp.c **** */
 110:/home/virusv/TDSAST_IOT/Internet/DHCP/dhcp.c **** 
 111:/home/virusv/TDSAST_IOT/Internet/DHCP/dhcp.c **** /*
 112:/home/virusv/TDSAST_IOT/Internet/DHCP/dhcp.c **** ***************************************************************************************************
 113:/home/virusv/TDSAST_IOT/Internet/DHCP/dhcp.c **** *              SEND DHCP DISCOVER
 114:/home/virusv/TDSAST_IOT/Internet/DHCP/dhcp.c **** *
 115:/home/virusv/TDSAST_IOT/Internet/DHCP/dhcp.c **** * Description: This function sends DHCP DISCOVER message to DHCP server.
 116:/home/virusv/TDSAST_IOT/Internet/DHCP/dhcp.c **** * Arguments  : None.
 117:/home/virusv/TDSAST_IOT/Internet/DHCP/dhcp.c **** * Returns    : None.
 118:/home/virusv/TDSAST_IOT/Internet/DHCP/dhcp.c **** * Note       : 
 119:/home/virusv/TDSAST_IOT/Internet/DHCP/dhcp.c **** ***************************************************************************************************
 120:/home/virusv/TDSAST_IOT/Internet/DHCP/dhcp.c **** */
 121:/home/virusv/TDSAST_IOT/Internet/DHCP/dhcp.c **** void send_DHCP_DISCOVER(void)
 122:/home/virusv/TDSAST_IOT/Internet/DHCP/dhcp.c **** {
 228              		.loc 1 122 0
 229              		.cfi_startproc
 230              		@ args = 0, pretend = 0, frame = 8
 231              		@ frame_needed = 1, uses_anonymous_args = 0
 232 0000 90B5     		push	{r4, r7, lr}
 233              		.cfi_def_cfa_offset 12
 234              		.cfi_offset 4, -12
 235              		.cfi_offset 7, -8
 236              		.cfi_offset 14, -4
 237 0002 85B0     		sub	sp, sp, #20
 238              		.cfi_def_cfa_offset 32
 239 0004 02AF     		add	r7, sp, #8
 240              		.cfi_def_cfa 7, 24
 123:/home/virusv/TDSAST_IOT/Internet/DHCP/dhcp.c **** 	uint16_t i;
 124:/home/virusv/TDSAST_IOT/Internet/DHCP/dhcp.c **** 	uint8_t ip[4];
 125:/home/virusv/TDSAST_IOT/Internet/DHCP/dhcp.c **** 	uint16_t k = 0;
 241              		.loc 1 125 0
 242 0006 0023     		movs	r3, #0
 243 0008 BB80     		strh	r3, [r7, #4]	@ movhi
 126:/home/virusv/TDSAST_IOT/Internet/DHCP/dhcp.c **** 
 127:/home/virusv/TDSAST_IOT/Internet/DHCP/dhcp.c **** 	MSG->op = DHCP_BOOTREQUEST;
 244              		.loc 1 127 0
 245 000a 4F4B     		ldr	r3, .L19
 246 000c 1B68     		ldr	r3, [r3]
 247 000e 0122     		movs	r2, #1
 248 0010 1A70     		strb	r2, [r3]
 128:/home/virusv/TDSAST_IOT/Internet/DHCP/dhcp.c **** 	MSG->htype = DHCP_HTYPE10MB;
 249              		.loc 1 128 0
 250 0012 4D4B     		ldr	r3, .L19
 251 0014 1B68     		ldr	r3, [r3]
 252 0016 0122     		movs	r2, #1
 253 0018 5A70     		strb	r2, [r3, #1]
 129:/home/virusv/TDSAST_IOT/Internet/DHCP/dhcp.c **** 	MSG->hlen = DHCP_HLENETHERNET;
 254              		.loc 1 129 0
 255 001a 4B4B     		ldr	r3, .L19
 256 001c 1B68     		ldr	r3, [r3]
 257 001e 0622     		movs	r2, #6
 258 0020 9A70     		strb	r2, [r3, #2]
 130:/home/virusv/TDSAST_IOT/Internet/DHCP/dhcp.c **** 	MSG->hops = DHCP_HOPS;
 259              		.loc 1 130 0
 260 0022 494B     		ldr	r3, .L19
 261 0024 1B68     		ldr	r3, [r3]
 262 0026 0022     		movs	r2, #0
 263 0028 DA70     		strb	r2, [r3, #3]
 131:/home/virusv/TDSAST_IOT/Internet/DHCP/dhcp.c **** 	MSG->xid = DHCP_XID;
 264              		.loc 1 131 0
 265 002a 474B     		ldr	r3, .L19
 266 002c 1B68     		ldr	r3, [r3]
 267 002e 474A     		ldr	r2, .L19+4
 268 0030 1268     		ldr	r2, [r2]
 269 0032 5A60     		str	r2, [r3, #4]
 132:/home/virusv/TDSAST_IOT/Internet/DHCP/dhcp.c **** 	MSG->secs = DHCP_SECS;
 270              		.loc 1 132 0
 271 0034 444B     		ldr	r3, .L19
 272 0036 1B68     		ldr	r3, [r3]
 273 0038 0022     		movs	r2, #0
 274 003a 1A81     		strh	r2, [r3, #8]	@ movhi
 133:/home/virusv/TDSAST_IOT/Internet/DHCP/dhcp.c **** 	MSG->flags = DHCP_FLAGSBROADCAST;
 275              		.loc 1 133 0
 276 003c 424B     		ldr	r3, .L19
 277 003e 1B68     		ldr	r3, [r3]
 278 0040 8022     		movs	r2, #128
 279 0042 5A81     		strh	r2, [r3, #10]	@ movhi
 134:/home/virusv/TDSAST_IOT/Internet/DHCP/dhcp.c **** 
 135:/home/virusv/TDSAST_IOT/Internet/DHCP/dhcp.c **** 	MSG->ciaddr[0] = 0;
 280              		.loc 1 135 0
 281 0044 404B     		ldr	r3, .L19
 282 0046 1B68     		ldr	r3, [r3]
 283 0048 0022     		movs	r2, #0
 284 004a 1A73     		strb	r2, [r3, #12]
 136:/home/virusv/TDSAST_IOT/Internet/DHCP/dhcp.c **** 	MSG->ciaddr[1] = 0;
 285              		.loc 1 136 0
 286 004c 3E4B     		ldr	r3, .L19
 287 004e 1B68     		ldr	r3, [r3]
 288 0050 0022     		movs	r2, #0
 289 0052 5A73     		strb	r2, [r3, #13]
 137:/home/virusv/TDSAST_IOT/Internet/DHCP/dhcp.c **** 	MSG->ciaddr[2] = 0;
 290              		.loc 1 137 0
 291 0054 3C4B     		ldr	r3, .L19
 292 0056 1B68     		ldr	r3, [r3]
 293 0058 0022     		movs	r2, #0
 294 005a 9A73     		strb	r2, [r3, #14]
 138:/home/virusv/TDSAST_IOT/Internet/DHCP/dhcp.c **** 	MSG->ciaddr[3] = 0;
 295              		.loc 1 138 0
 296 005c 3A4B     		ldr	r3, .L19
 297 005e 1B68     		ldr	r3, [r3]
 298 0060 0022     		movs	r2, #0
 299 0062 DA73     		strb	r2, [r3, #15]
 139:/home/virusv/TDSAST_IOT/Internet/DHCP/dhcp.c **** 
 140:/home/virusv/TDSAST_IOT/Internet/DHCP/dhcp.c **** 	MSG->yiaddr[0] = 0;
 300              		.loc 1 140 0
 301 0064 384B     		ldr	r3, .L19
 302 0066 1B68     		ldr	r3, [r3]
 303 0068 0022     		movs	r2, #0
 304 006a 1A74     		strb	r2, [r3, #16]
 141:/home/virusv/TDSAST_IOT/Internet/DHCP/dhcp.c **** 	MSG->yiaddr[1] = 0;
 305              		.loc 1 141 0
 306 006c 364B     		ldr	r3, .L19
 307 006e 1B68     		ldr	r3, [r3]
 308 0070 0022     		movs	r2, #0
 309 0072 5A74     		strb	r2, [r3, #17]
 142:/home/virusv/TDSAST_IOT/Internet/DHCP/dhcp.c **** 	MSG->yiaddr[2] = 0;
 310              		.loc 1 142 0
 311 0074 344B     		ldr	r3, .L19
 312 0076 1B68     		ldr	r3, [r3]
 313 0078 0022     		movs	r2, #0
 314 007a 9A74     		strb	r2, [r3, #18]
 143:/home/virusv/TDSAST_IOT/Internet/DHCP/dhcp.c **** 	MSG->yiaddr[3] = 0;
 315              		.loc 1 143 0
 316 007c 324B     		ldr	r3, .L19
 317 007e 1B68     		ldr	r3, [r3]
 318 0080 0022     		movs	r2, #0
 319 0082 DA74     		strb	r2, [r3, #19]
 144:/home/virusv/TDSAST_IOT/Internet/DHCP/dhcp.c **** 
 145:/home/virusv/TDSAST_IOT/Internet/DHCP/dhcp.c **** 	MSG->siaddr[0] = 0;
 320              		.loc 1 145 0
 321 0084 304B     		ldr	r3, .L19
 322 0086 1B68     		ldr	r3, [r3]
 323 0088 0022     		movs	r2, #0
 324 008a 1A75     		strb	r2, [r3, #20]
 146:/home/virusv/TDSAST_IOT/Internet/DHCP/dhcp.c **** 	MSG->siaddr[1] = 0;
 325              		.loc 1 146 0
 326 008c 2E4B     		ldr	r3, .L19
 327 008e 1B68     		ldr	r3, [r3]
 328 0090 0022     		movs	r2, #0
 329 0092 5A75     		strb	r2, [r3, #21]
 147:/home/virusv/TDSAST_IOT/Internet/DHCP/dhcp.c **** 	MSG->siaddr[2] = 0;
 330              		.loc 1 147 0
 331 0094 2C4B     		ldr	r3, .L19
 332 0096 1B68     		ldr	r3, [r3]
 333 0098 0022     		movs	r2, #0
 334 009a 9A75     		strb	r2, [r3, #22]
 148:/home/virusv/TDSAST_IOT/Internet/DHCP/dhcp.c **** 	MSG->siaddr[3] = 0;
 335              		.loc 1 148 0
 336 009c 2A4B     		ldr	r3, .L19
 337 009e 1B68     		ldr	r3, [r3]
 338 00a0 0022     		movs	r2, #0
 339 00a2 DA75     		strb	r2, [r3, #23]
 149:/home/virusv/TDSAST_IOT/Internet/DHCP/dhcp.c **** 
 150:/home/virusv/TDSAST_IOT/Internet/DHCP/dhcp.c **** 	MSG->giaddr[0] = 0;
 340              		.loc 1 150 0
 341 00a4 284B     		ldr	r3, .L19
 342 00a6 1B68     		ldr	r3, [r3]
 343 00a8 0022     		movs	r2, #0
 344 00aa 1A76     		strb	r2, [r3, #24]
 151:/home/virusv/TDSAST_IOT/Internet/DHCP/dhcp.c **** 	MSG->giaddr[1] = 0;
 345              		.loc 1 151 0
 346 00ac 264B     		ldr	r3, .L19
 347 00ae 1B68     		ldr	r3, [r3]
 348 00b0 0022     		movs	r2, #0
 349 00b2 5A76     		strb	r2, [r3, #25]
 152:/home/virusv/TDSAST_IOT/Internet/DHCP/dhcp.c **** 	MSG->giaddr[2] = 0;
 350              		.loc 1 152 0
 351 00b4 244B     		ldr	r3, .L19
 352 00b6 1B68     		ldr	r3, [r3]
 353 00b8 0022     		movs	r2, #0
 354 00ba 9A76     		strb	r2, [r3, #26]
 153:/home/virusv/TDSAST_IOT/Internet/DHCP/dhcp.c **** 	MSG->giaddr[3] = 0;
 355              		.loc 1 153 0
 356 00bc 224B     		ldr	r3, .L19
 357 00be 1B68     		ldr	r3, [r3]
 358 00c0 0022     		movs	r2, #0
 359 00c2 DA76     		strb	r2, [r3, #27]
 154:/home/virusv/TDSAST_IOT/Internet/DHCP/dhcp.c **** 
 155:/home/virusv/TDSAST_IOT/Internet/DHCP/dhcp.c **** 	MSG->chaddr[0] = wizchip_mac[0];
 360              		.loc 1 155 0
 361 00c4 204B     		ldr	r3, .L19
 362 00c6 1B68     		ldr	r3, [r3]
 363 00c8 214A     		ldr	r2, .L19+8
 364 00ca 1278     		ldrb	r2, [r2]	@ zero_extendqisi2
 365 00cc 1A77     		strb	r2, [r3, #28]
 156:/home/virusv/TDSAST_IOT/Internet/DHCP/dhcp.c **** 	MSG->chaddr[1] = wizchip_mac[1];
 366              		.loc 1 156 0
 367 00ce 1E4B     		ldr	r3, .L19
 368 00d0 1B68     		ldr	r3, [r3]
 369 00d2 1F4A     		ldr	r2, .L19+8
 370 00d4 5278     		ldrb	r2, [r2, #1]	@ zero_extendqisi2
 371 00d6 5A77     		strb	r2, [r3, #29]
 157:/home/virusv/TDSAST_IOT/Internet/DHCP/dhcp.c **** 	MSG->chaddr[2] = wizchip_mac[2];
 372              		.loc 1 157 0
 373 00d8 1B4B     		ldr	r3, .L19
 374 00da 1B68     		ldr	r3, [r3]
 375 00dc 1C4A     		ldr	r2, .L19+8
 376 00de 9278     		ldrb	r2, [r2, #2]	@ zero_extendqisi2
 377 00e0 9A77     		strb	r2, [r3, #30]
 158:/home/virusv/TDSAST_IOT/Internet/DHCP/dhcp.c **** 	MSG->chaddr[3] = wizchip_mac[3];
 378              		.loc 1 158 0
 379 00e2 194B     		ldr	r3, .L19
 380 00e4 1B68     		ldr	r3, [r3]
 381 00e6 1A4A     		ldr	r2, .L19+8
 382 00e8 D278     		ldrb	r2, [r2, #3]	@ zero_extendqisi2
 383 00ea DA77     		strb	r2, [r3, #31]
 159:/home/virusv/TDSAST_IOT/Internet/DHCP/dhcp.c **** 	MSG->chaddr[4] = wizchip_mac[4];
 384              		.loc 1 159 0
 385 00ec 164B     		ldr	r3, .L19
 386 00ee 1B68     		ldr	r3, [r3]
 387 00f0 174A     		ldr	r2, .L19+8
 388 00f2 1279     		ldrb	r2, [r2, #4]	@ zero_extendqisi2
 389 00f4 83F82020 		strb	r2, [r3, #32]
 160:/home/virusv/TDSAST_IOT/Internet/DHCP/dhcp.c **** 	MSG->chaddr[5] = wizchip_mac[5];
 390              		.loc 1 160 0
 391 00f8 134B     		ldr	r3, .L19
 392 00fa 1B68     		ldr	r3, [r3]
 393 00fc 144A     		ldr	r2, .L19+8
 394 00fe 5279     		ldrb	r2, [r2, #5]	@ zero_extendqisi2
 395 0100 83F82120 		strb	r2, [r3, #33]
 161:/home/virusv/TDSAST_IOT/Internet/DHCP/dhcp.c **** 
 162:/home/virusv/TDSAST_IOT/Internet/DHCP/dhcp.c **** 	for (i = 6; i < 16; i++) MSG->chaddr[i] = 0;
 396              		.loc 1 162 0
 397 0104 0623     		movs	r3, #6
 398 0106 FB80     		strh	r3, [r7, #6]	@ movhi
 399 0108 08E0     		b	.L9
 400              	.L10:
 401              		.loc 1 162 0 is_stmt 0 discriminator 3
 402 010a 0F4B     		ldr	r3, .L19
 403 010c 1A68     		ldr	r2, [r3]
 404 010e FB88     		ldrh	r3, [r7, #6]
 405 0110 1344     		add	r3, r3, r2
 406 0112 0022     		movs	r2, #0
 407 0114 1A77     		strb	r2, [r3, #28]
 408 0116 FB88     		ldrh	r3, [r7, #6]
 409 0118 0133     		adds	r3, r3, #1
 410 011a FB80     		strh	r3, [r7, #6]	@ movhi
 411              	.L9:
 412              		.loc 1 162 0 discriminator 1
 413 011c FB88     		ldrh	r3, [r7, #6]
 414 011e 0F2B     		cmp	r3, #15
 415 0120 F3D9     		bls	.L10
 163:/home/virusv/TDSAST_IOT/Internet/DHCP/dhcp.c **** 	for (i = 0; i < 64; i++) MSG->sname[i] = 0;
 416              		.loc 1 163 0 is_stmt 1
 417 0122 0023     		movs	r3, #0
 418 0124 FB80     		strh	r3, [r7, #6]	@ movhi
 419 0126 09E0     		b	.L11
 420              	.L12:
 421              		.loc 1 163 0 is_stmt 0 discriminator 3
 422 0128 074B     		ldr	r3, .L19
 423 012a 1A68     		ldr	r2, [r3]
 424 012c FB88     		ldrh	r3, [r7, #6]
 425 012e 1344     		add	r3, r3, r2
 426 0130 0022     		movs	r2, #0
 427 0132 83F82C20 		strb	r2, [r3, #44]
 428 0136 FB88     		ldrh	r3, [r7, #6]
 429 0138 0133     		adds	r3, r3, #1
 430 013a FB80     		strh	r3, [r7, #6]	@ movhi
 431              	.L11:
 432              		.loc 1 163 0 discriminator 1
 433 013c FB88     		ldrh	r3, [r7, #6]
 434 013e 3F2B     		cmp	r3, #63
 435 0140 F2D9     		bls	.L12
 164:/home/virusv/TDSAST_IOT/Internet/DHCP/dhcp.c **** 	for (i = 0; i < 128; i++) MSG->file[i] = 0;
 436              		.loc 1 164 0 is_stmt 1
 437 0142 0023     		movs	r3, #0
 438 0144 FB80     		strh	r3, [r7, #6]	@ movhi
 439 0146 0FE0     		b	.L13
 440              	.L20:
 441              		.align	2
 442              	.L19:
 443 0148 00000000 		.word	MSG
 444 014c 00000000 		.word	DHCP_XID
 445 0150 00000000 		.word	wizchip_mac
 446              	.L14:
 447              		.loc 1 164 0 is_stmt 0 discriminator 3
 448 0154 AB4B     		ldr	r3, .L21
 449 0156 1A68     		ldr	r2, [r3]
 450 0158 FB88     		ldrh	r3, [r7, #6]
 451 015a 1344     		add	r3, r3, r2
 452 015c 0022     		movs	r2, #0
 453 015e 83F86C20 		strb	r2, [r3, #108]
 454 0162 FB88     		ldrh	r3, [r7, #6]
 455 0164 0133     		adds	r3, r3, #1
 456 0166 FB80     		strh	r3, [r7, #6]	@ movhi
 457              	.L13:
 458              		.loc 1 164 0 discriminator 1
 459 0168 FB88     		ldrh	r3, [r7, #6]
 460 016a 7F2B     		cmp	r3, #127
 461 016c F2D9     		bls	.L14
 165:/home/virusv/TDSAST_IOT/Internet/DHCP/dhcp.c **** 
 166:/home/virusv/TDSAST_IOT/Internet/DHCP/dhcp.c **** 	// MAGIC_COOKIE
 167:/home/virusv/TDSAST_IOT/Internet/DHCP/dhcp.c **** 	MSG->OPT[k++] = 0x63;
 462              		.loc 1 167 0 is_stmt 1
 463 016e A54B     		ldr	r3, .L21
 464 0170 1A68     		ldr	r2, [r3]
 465 0172 BB88     		ldrh	r3, [r7, #4]
 466 0174 591C     		adds	r1, r3, #1
 467 0176 B980     		strh	r1, [r7, #4]	@ movhi
 468 0178 1344     		add	r3, r3, r2
 469 017a 6322     		movs	r2, #99
 470 017c 83F8EC20 		strb	r2, [r3, #236]
 168:/home/virusv/TDSAST_IOT/Internet/DHCP/dhcp.c **** 	MSG->OPT[k++] = 0x82;
 471              		.loc 1 168 0
 472 0180 A04B     		ldr	r3, .L21
 473 0182 1A68     		ldr	r2, [r3]
 474 0184 BB88     		ldrh	r3, [r7, #4]
 475 0186 591C     		adds	r1, r3, #1
 476 0188 B980     		strh	r1, [r7, #4]	@ movhi
 477 018a 1344     		add	r3, r3, r2
 478 018c 8222     		movs	r2, #130
 479 018e 83F8EC20 		strb	r2, [r3, #236]
 169:/home/virusv/TDSAST_IOT/Internet/DHCP/dhcp.c **** 	MSG->OPT[k++] = 0x53;
 480              		.loc 1 169 0
 481 0192 9C4B     		ldr	r3, .L21
 482 0194 1A68     		ldr	r2, [r3]
 483 0196 BB88     		ldrh	r3, [r7, #4]
 484 0198 591C     		adds	r1, r3, #1
 485 019a B980     		strh	r1, [r7, #4]	@ movhi
 486 019c 1344     		add	r3, r3, r2
 487 019e 5322     		movs	r2, #83
 488 01a0 83F8EC20 		strb	r2, [r3, #236]
 170:/home/virusv/TDSAST_IOT/Internet/DHCP/dhcp.c **** 	MSG->OPT[k++] = 0x63;
 489              		.loc 1 170 0
 490 01a4 974B     		ldr	r3, .L21
 491 01a6 1A68     		ldr	r2, [r3]
 492 01a8 BB88     		ldrh	r3, [r7, #4]
 493 01aa 591C     		adds	r1, r3, #1
 494 01ac B980     		strh	r1, [r7, #4]	@ movhi
 495 01ae 1344     		add	r3, r3, r2
 496 01b0 6322     		movs	r2, #99
 497 01b2 83F8EC20 		strb	r2, [r3, #236]
 171:/home/virusv/TDSAST_IOT/Internet/DHCP/dhcp.c **** 
 172:/home/virusv/TDSAST_IOT/Internet/DHCP/dhcp.c **** 	// Option Request Param
 173:/home/virusv/TDSAST_IOT/Internet/DHCP/dhcp.c **** 	MSG->OPT[k++] = dhcpMessageType;
 498              		.loc 1 173 0
 499 01b6 934B     		ldr	r3, .L21
 500 01b8 1A68     		ldr	r2, [r3]
 501 01ba BB88     		ldrh	r3, [r7, #4]
 502 01bc 591C     		adds	r1, r3, #1
 503 01be B980     		strh	r1, [r7, #4]	@ movhi
 504 01c0 1344     		add	r3, r3, r2
 505 01c2 3522     		movs	r2, #53
 506 01c4 83F8EC20 		strb	r2, [r3, #236]
 174:/home/virusv/TDSAST_IOT/Internet/DHCP/dhcp.c **** 	MSG->OPT[k++] = 0x01;
 507              		.loc 1 174 0
 508 01c8 8E4B     		ldr	r3, .L21
 509 01ca 1A68     		ldr	r2, [r3]
 510 01cc BB88     		ldrh	r3, [r7, #4]
 511 01ce 591C     		adds	r1, r3, #1
 512 01d0 B980     		strh	r1, [r7, #4]	@ movhi
 513 01d2 1344     		add	r3, r3, r2
 514 01d4 0122     		movs	r2, #1
 515 01d6 83F8EC20 		strb	r2, [r3, #236]
 175:/home/virusv/TDSAST_IOT/Internet/DHCP/dhcp.c **** 	MSG->OPT[k++] = DHCP_DISCOVER;
 516              		.loc 1 175 0
 517 01da 8A4B     		ldr	r3, .L21
 518 01dc 1A68     		ldr	r2, [r3]
 519 01de BB88     		ldrh	r3, [r7, #4]
 520 01e0 591C     		adds	r1, r3, #1
 521 01e2 B980     		strh	r1, [r7, #4]	@ movhi
 522 01e4 1344     		add	r3, r3, r2
 523 01e6 0122     		movs	r2, #1
 524 01e8 83F8EC20 		strb	r2, [r3, #236]
 176:/home/virusv/TDSAST_IOT/Internet/DHCP/dhcp.c **** 	
 177:/home/virusv/TDSAST_IOT/Internet/DHCP/dhcp.c **** 	// Client identifier
 178:/home/virusv/TDSAST_IOT/Internet/DHCP/dhcp.c **** 	MSG->OPT[k++] = dhcpClientIdentifier;
 525              		.loc 1 178 0
 526 01ec 854B     		ldr	r3, .L21
 527 01ee 1A68     		ldr	r2, [r3]
 528 01f0 BB88     		ldrh	r3, [r7, #4]
 529 01f2 591C     		adds	r1, r3, #1
 530 01f4 B980     		strh	r1, [r7, #4]	@ movhi
 531 01f6 1344     		add	r3, r3, r2
 532 01f8 3D22     		movs	r2, #61
 533 01fa 83F8EC20 		strb	r2, [r3, #236]
 179:/home/virusv/TDSAST_IOT/Internet/DHCP/dhcp.c **** 	MSG->OPT[k++] = 0x07;
 534              		.loc 1 179 0
 535 01fe 814B     		ldr	r3, .L21
 536 0200 1A68     		ldr	r2, [r3]
 537 0202 BB88     		ldrh	r3, [r7, #4]
 538 0204 591C     		adds	r1, r3, #1
 539 0206 B980     		strh	r1, [r7, #4]	@ movhi
 540 0208 1344     		add	r3, r3, r2
 541 020a 0722     		movs	r2, #7
 542 020c 83F8EC20 		strb	r2, [r3, #236]
 180:/home/virusv/TDSAST_IOT/Internet/DHCP/dhcp.c **** 	MSG->OPT[k++] = 0x01;
 543              		.loc 1 180 0
 544 0210 7C4B     		ldr	r3, .L21
 545 0212 1A68     		ldr	r2, [r3]
 546 0214 BB88     		ldrh	r3, [r7, #4]
 547 0216 591C     		adds	r1, r3, #1
 548 0218 B980     		strh	r1, [r7, #4]	@ movhi
 549 021a 1344     		add	r3, r3, r2
 550 021c 0122     		movs	r2, #1
 551 021e 83F8EC20 		strb	r2, [r3, #236]
 181:/home/virusv/TDSAST_IOT/Internet/DHCP/dhcp.c **** 	MSG->OPT[k++] = wizchip_mac[0];
 552              		.loc 1 181 0
 553 0222 784B     		ldr	r3, .L21
 554 0224 1A68     		ldr	r2, [r3]
 555 0226 BB88     		ldrh	r3, [r7, #4]
 556 0228 591C     		adds	r1, r3, #1
 557 022a B980     		strh	r1, [r7, #4]	@ movhi
 558 022c 1846     		mov	r0, r3
 559 022e 764B     		ldr	r3, .L21+4
 560 0230 1978     		ldrb	r1, [r3]	@ zero_extendqisi2
 561 0232 1318     		adds	r3, r2, r0
 562 0234 0A46     		mov	r2, r1
 563 0236 83F8EC20 		strb	r2, [r3, #236]
 182:/home/virusv/TDSAST_IOT/Internet/DHCP/dhcp.c **** 	MSG->OPT[k++] = wizchip_mac[1];
 564              		.loc 1 182 0
 565 023a 724B     		ldr	r3, .L21
 566 023c 1A68     		ldr	r2, [r3]
 567 023e BB88     		ldrh	r3, [r7, #4]
 568 0240 591C     		adds	r1, r3, #1
 569 0242 B980     		strh	r1, [r7, #4]	@ movhi
 570 0244 1846     		mov	r0, r3
 571 0246 704B     		ldr	r3, .L21+4
 572 0248 5978     		ldrb	r1, [r3, #1]	@ zero_extendqisi2
 573 024a 1318     		adds	r3, r2, r0
 574 024c 0A46     		mov	r2, r1
 575 024e 83F8EC20 		strb	r2, [r3, #236]
 183:/home/virusv/TDSAST_IOT/Internet/DHCP/dhcp.c **** 	MSG->OPT[k++] = wizchip_mac[2];
 576              		.loc 1 183 0
 577 0252 6C4B     		ldr	r3, .L21
 578 0254 1A68     		ldr	r2, [r3]
 579 0256 BB88     		ldrh	r3, [r7, #4]
 580 0258 591C     		adds	r1, r3, #1
 581 025a B980     		strh	r1, [r7, #4]	@ movhi
 582 025c 1846     		mov	r0, r3
 583 025e 6A4B     		ldr	r3, .L21+4
 584 0260 9978     		ldrb	r1, [r3, #2]	@ zero_extendqisi2
 585 0262 1318     		adds	r3, r2, r0
 586 0264 0A46     		mov	r2, r1
 587 0266 83F8EC20 		strb	r2, [r3, #236]
 184:/home/virusv/TDSAST_IOT/Internet/DHCP/dhcp.c **** 	MSG->OPT[k++] = wizchip_mac[3];
 588              		.loc 1 184 0
 589 026a 664B     		ldr	r3, .L21
 590 026c 1A68     		ldr	r2, [r3]
 591 026e BB88     		ldrh	r3, [r7, #4]
 592 0270 591C     		adds	r1, r3, #1
 593 0272 B980     		strh	r1, [r7, #4]	@ movhi
 594 0274 1846     		mov	r0, r3
 595 0276 644B     		ldr	r3, .L21+4
 596 0278 D978     		ldrb	r1, [r3, #3]	@ zero_extendqisi2
 597 027a 1318     		adds	r3, r2, r0
 598 027c 0A46     		mov	r2, r1
 599 027e 83F8EC20 		strb	r2, [r3, #236]
 185:/home/virusv/TDSAST_IOT/Internet/DHCP/dhcp.c **** 	MSG->OPT[k++] = wizchip_mac[4];
 600              		.loc 1 185 0
 601 0282 604B     		ldr	r3, .L21
 602 0284 1A68     		ldr	r2, [r3]
 603 0286 BB88     		ldrh	r3, [r7, #4]
 604 0288 591C     		adds	r1, r3, #1
 605 028a B980     		strh	r1, [r7, #4]	@ movhi
 606 028c 1846     		mov	r0, r3
 607 028e 5E4B     		ldr	r3, .L21+4
 608 0290 1979     		ldrb	r1, [r3, #4]	@ zero_extendqisi2
 609 0292 1318     		adds	r3, r2, r0
 610 0294 0A46     		mov	r2, r1
 611 0296 83F8EC20 		strb	r2, [r3, #236]
 186:/home/virusv/TDSAST_IOT/Internet/DHCP/dhcp.c **** 	MSG->OPT[k++] = wizchip_mac[5];
 612              		.loc 1 186 0
 613 029a 5A4B     		ldr	r3, .L21
 614 029c 1A68     		ldr	r2, [r3]
 615 029e BB88     		ldrh	r3, [r7, #4]
 616 02a0 591C     		adds	r1, r3, #1
 617 02a2 B980     		strh	r1, [r7, #4]	@ movhi
 618 02a4 1846     		mov	r0, r3
 619 02a6 584B     		ldr	r3, .L21+4
 620 02a8 5979     		ldrb	r1, [r3, #5]	@ zero_extendqisi2
 621 02aa 1318     		adds	r3, r2, r0
 622 02ac 0A46     		mov	r2, r1
 623 02ae 83F8EC20 		strb	r2, [r3, #236]
 187:/home/virusv/TDSAST_IOT/Internet/DHCP/dhcp.c **** 	
 188:/home/virusv/TDSAST_IOT/Internet/DHCP/dhcp.c **** 	// host name
 189:/home/virusv/TDSAST_IOT/Internet/DHCP/dhcp.c **** 	MSG->OPT[k++] = hostName;
 624              		.loc 1 189 0
 625 02b2 544B     		ldr	r3, .L21
 626 02b4 1A68     		ldr	r2, [r3]
 627 02b6 BB88     		ldrh	r3, [r7, #4]
 628 02b8 591C     		adds	r1, r3, #1
 629 02ba B980     		strh	r1, [r7, #4]	@ movhi
 630 02bc 1344     		add	r3, r3, r2
 631 02be 0C22     		movs	r2, #12
 632 02c0 83F8EC20 		strb	r2, [r3, #236]
 190:/home/virusv/TDSAST_IOT/Internet/DHCP/dhcp.c **** 	MSG->OPT[k++] = 9; // length of hostname
 633              		.loc 1 190 0
 634 02c4 4F4B     		ldr	r3, .L21
 635 02c6 1A68     		ldr	r2, [r3]
 636 02c8 BB88     		ldrh	r3, [r7, #4]
 637 02ca 591C     		adds	r1, r3, #1
 638 02cc B980     		strh	r1, [r7, #4]	@ movhi
 639 02ce 1344     		add	r3, r3, r2
 640 02d0 0922     		movs	r2, #9
 641 02d2 83F8EC20 		strb	r2, [r3, #236]
 191:/home/virusv/TDSAST_IOT/Internet/DHCP/dhcp.c **** 	MSG->OPT[k++] = HOST_NAME[0];
 642              		.loc 1 191 0
 643 02d6 4B4B     		ldr	r3, .L21
 644 02d8 1A68     		ldr	r2, [r3]
 645 02da BB88     		ldrh	r3, [r7, #4]
 646 02dc 591C     		adds	r1, r3, #1
 647 02de B980     		strh	r1, [r7, #4]	@ movhi
 648 02e0 1846     		mov	r0, r3
 649 02e2 4A4B     		ldr	r3, .L21+8
 650 02e4 1978     		ldrb	r1, [r3]	@ zero_extendqisi2
 651 02e6 1318     		adds	r3, r2, r0
 652 02e8 0A46     		mov	r2, r1
 653 02ea 83F8EC20 		strb	r2, [r3, #236]
 192:/home/virusv/TDSAST_IOT/Internet/DHCP/dhcp.c **** 	MSG->OPT[k++] = HOST_NAME[1];
 654              		.loc 1 192 0
 655 02ee 454B     		ldr	r3, .L21
 656 02f0 1A68     		ldr	r2, [r3]
 657 02f2 BB88     		ldrh	r3, [r7, #4]
 658 02f4 591C     		adds	r1, r3, #1
 659 02f6 B980     		strh	r1, [r7, #4]	@ movhi
 660 02f8 1846     		mov	r0, r3
 661 02fa 444B     		ldr	r3, .L21+8
 662 02fc 5978     		ldrb	r1, [r3, #1]	@ zero_extendqisi2
 663 02fe 1318     		adds	r3, r2, r0
 664 0300 0A46     		mov	r2, r1
 665 0302 83F8EC20 		strb	r2, [r3, #236]
 193:/home/virusv/TDSAST_IOT/Internet/DHCP/dhcp.c **** 	MSG->OPT[k++] = HOST_NAME[2];
 666              		.loc 1 193 0
 667 0306 3F4B     		ldr	r3, .L21
 668 0308 1A68     		ldr	r2, [r3]
 669 030a BB88     		ldrh	r3, [r7, #4]
 670 030c 591C     		adds	r1, r3, #1
 671 030e B980     		strh	r1, [r7, #4]	@ movhi
 672 0310 1846     		mov	r0, r3
 673 0312 3E4B     		ldr	r3, .L21+8
 674 0314 9978     		ldrb	r1, [r3, #2]	@ zero_extendqisi2
 675 0316 1318     		adds	r3, r2, r0
 676 0318 0A46     		mov	r2, r1
 677 031a 83F8EC20 		strb	r2, [r3, #236]
 194:/home/virusv/TDSAST_IOT/Internet/DHCP/dhcp.c **** 	MSG->OPT[k++] = HOST_NAME[3];
 678              		.loc 1 194 0
 679 031e 394B     		ldr	r3, .L21
 680 0320 1A68     		ldr	r2, [r3]
 681 0322 BB88     		ldrh	r3, [r7, #4]
 682 0324 591C     		adds	r1, r3, #1
 683 0326 B980     		strh	r1, [r7, #4]	@ movhi
 684 0328 1846     		mov	r0, r3
 685 032a 384B     		ldr	r3, .L21+8
 686 032c D978     		ldrb	r1, [r3, #3]	@ zero_extendqisi2
 687 032e 1318     		adds	r3, r2, r0
 688 0330 0A46     		mov	r2, r1
 689 0332 83F8EC20 		strb	r2, [r3, #236]
 195:/home/virusv/TDSAST_IOT/Internet/DHCP/dhcp.c **** 	MSG->OPT[k++] = HOST_NAME[4];
 690              		.loc 1 195 0
 691 0336 334B     		ldr	r3, .L21
 692 0338 1A68     		ldr	r2, [r3]
 693 033a BB88     		ldrh	r3, [r7, #4]
 694 033c 591C     		adds	r1, r3, #1
 695 033e B980     		strh	r1, [r7, #4]	@ movhi
 696 0340 1846     		mov	r0, r3
 697 0342 324B     		ldr	r3, .L21+8
 698 0344 1979     		ldrb	r1, [r3, #4]	@ zero_extendqisi2
 699 0346 1318     		adds	r3, r2, r0
 700 0348 0A46     		mov	r2, r1
 701 034a 83F8EC20 		strb	r2, [r3, #236]
 196:/home/virusv/TDSAST_IOT/Internet/DHCP/dhcp.c **** 	MSG->OPT[k++] = HOST_NAME[5];
 702              		.loc 1 196 0
 703 034e 2D4B     		ldr	r3, .L21
 704 0350 1A68     		ldr	r2, [r3]
 705 0352 BB88     		ldrh	r3, [r7, #4]
 706 0354 591C     		adds	r1, r3, #1
 707 0356 B980     		strh	r1, [r7, #4]	@ movhi
 708 0358 1846     		mov	r0, r3
 709 035a 2C4B     		ldr	r3, .L21+8
 710 035c 5979     		ldrb	r1, [r3, #5]	@ zero_extendqisi2
 711 035e 1318     		adds	r3, r2, r0
 712 0360 0A46     		mov	r2, r1
 713 0362 83F8EC20 		strb	r2, [r3, #236]
 197:/home/virusv/TDSAST_IOT/Internet/DHCP/dhcp.c **** 	MSG->OPT[k++] = wizchip_mac[3];
 714              		.loc 1 197 0
 715 0366 274B     		ldr	r3, .L21
 716 0368 1A68     		ldr	r2, [r3]
 717 036a BB88     		ldrh	r3, [r7, #4]
 718 036c 591C     		adds	r1, r3, #1
 719 036e B980     		strh	r1, [r7, #4]	@ movhi
 720 0370 1846     		mov	r0, r3
 721 0372 254B     		ldr	r3, .L21+4
 722 0374 D978     		ldrb	r1, [r3, #3]	@ zero_extendqisi2
 723 0376 1318     		adds	r3, r2, r0
 724 0378 0A46     		mov	r2, r1
 725 037a 83F8EC20 		strb	r2, [r3, #236]
 198:/home/virusv/TDSAST_IOT/Internet/DHCP/dhcp.c **** 	MSG->OPT[k++] = wizchip_mac[4];
 726              		.loc 1 198 0
 727 037e 214B     		ldr	r3, .L21
 728 0380 1A68     		ldr	r2, [r3]
 729 0382 BB88     		ldrh	r3, [r7, #4]
 730 0384 591C     		adds	r1, r3, #1
 731 0386 B980     		strh	r1, [r7, #4]	@ movhi
 732 0388 1846     		mov	r0, r3
 733 038a 1F4B     		ldr	r3, .L21+4
 734 038c 1979     		ldrb	r1, [r3, #4]	@ zero_extendqisi2
 735 038e 1318     		adds	r3, r2, r0
 736 0390 0A46     		mov	r2, r1
 737 0392 83F8EC20 		strb	r2, [r3, #236]
 199:/home/virusv/TDSAST_IOT/Internet/DHCP/dhcp.c **** 	MSG->OPT[k++] = wizchip_mac[5];
 738              		.loc 1 199 0
 739 0396 1B4B     		ldr	r3, .L21
 740 0398 1A68     		ldr	r2, [r3]
 741 039a BB88     		ldrh	r3, [r7, #4]
 742 039c 591C     		adds	r1, r3, #1
 743 039e B980     		strh	r1, [r7, #4]	@ movhi
 744 03a0 1846     		mov	r0, r3
 745 03a2 194B     		ldr	r3, .L21+4
 746 03a4 5979     		ldrb	r1, [r3, #5]	@ zero_extendqisi2
 747 03a6 1318     		adds	r3, r2, r0
 748 03a8 0A46     		mov	r2, r1
 749 03aa 83F8EC20 		strb	r2, [r3, #236]
 200:/home/virusv/TDSAST_IOT/Internet/DHCP/dhcp.c **** 
 201:/home/virusv/TDSAST_IOT/Internet/DHCP/dhcp.c **** 
 202:/home/virusv/TDSAST_IOT/Internet/DHCP/dhcp.c **** 	MSG->OPT[k++] = dhcpParamRequest;
 750              		.loc 1 202 0
 751 03ae 154B     		ldr	r3, .L21
 752 03b0 1A68     		ldr	r2, [r3]
 753 03b2 BB88     		ldrh	r3, [r7, #4]
 754 03b4 591C     		adds	r1, r3, #1
 755 03b6 B980     		strh	r1, [r7, #4]	@ movhi
 756 03b8 1344     		add	r3, r3, r2
 757 03ba 3722     		movs	r2, #55
 758 03bc 83F8EC20 		strb	r2, [r3, #236]
 203:/home/virusv/TDSAST_IOT/Internet/DHCP/dhcp.c **** 	MSG->OPT[k++] = 0x06;	// length of request
 759              		.loc 1 203 0
 760 03c0 104B     		ldr	r3, .L21
 761 03c2 1A68     		ldr	r2, [r3]
 762 03c4 BB88     		ldrh	r3, [r7, #4]
 763 03c6 591C     		adds	r1, r3, #1
 764 03c8 B980     		strh	r1, [r7, #4]	@ movhi
 765 03ca 1344     		add	r3, r3, r2
 766 03cc 0622     		movs	r2, #6
 767 03ce 83F8EC20 		strb	r2, [r3, #236]
 204:/home/virusv/TDSAST_IOT/Internet/DHCP/dhcp.c **** 	MSG->OPT[k++] = subnetMask;
 768              		.loc 1 204 0
 769 03d2 0C4B     		ldr	r3, .L21
 770 03d4 1A68     		ldr	r2, [r3]
 771 03d6 BB88     		ldrh	r3, [r7, #4]
 772 03d8 591C     		adds	r1, r3, #1
 773 03da B980     		strh	r1, [r7, #4]	@ movhi
 774 03dc 1344     		add	r3, r3, r2
 775 03de 0122     		movs	r2, #1
 776 03e0 83F8EC20 		strb	r2, [r3, #236]
 205:/home/virusv/TDSAST_IOT/Internet/DHCP/dhcp.c **** 	MSG->OPT[k++] = routersOnSubnet;
 777              		.loc 1 205 0
 778 03e4 074B     		ldr	r3, .L21
 779 03e6 1A68     		ldr	r2, [r3]
 780 03e8 BB88     		ldrh	r3, [r7, #4]
 781 03ea 591C     		adds	r1, r3, #1
 782 03ec B980     		strh	r1, [r7, #4]	@ movhi
 783 03ee 1344     		add	r3, r3, r2
 784 03f0 0322     		movs	r2, #3
 785 03f2 83F8EC20 		strb	r2, [r3, #236]
 206:/home/virusv/TDSAST_IOT/Internet/DHCP/dhcp.c **** 	MSG->OPT[k++] = dns;
 786              		.loc 1 206 0
 787 03f6 034B     		ldr	r3, .L21
 788 03f8 1A68     		ldr	r2, [r3]
 789 03fa BB88     		ldrh	r3, [r7, #4]
 790 03fc 591C     		adds	r1, r3, #1
 791 03fe B980     		strh	r1, [r7, #4]	@ movhi
 792 0400 1344     		add	r3, r3, r2
 793 0402 05E0     		b	.L22
 794              	.L23:
 795              		.align	2
 796              	.L21:
 797 0404 00000000 		.word	MSG
 798 0408 00000000 		.word	wizchip_mac
 799 040c 00000000 		.word	HOST_NAME
 800              	.L22:
 801 0410 0622     		movs	r2, #6
 802 0412 83F8EC20 		strb	r2, [r3, #236]
 207:/home/virusv/TDSAST_IOT/Internet/DHCP/dhcp.c **** 	MSG->OPT[k++] = domainName;
 803              		.loc 1 207 0
 804 0416 2B4B     		ldr	r3, .L24
 805 0418 1A68     		ldr	r2, [r3]
 806 041a BB88     		ldrh	r3, [r7, #4]
 807 041c 591C     		adds	r1, r3, #1
 808 041e B980     		strh	r1, [r7, #4]	@ movhi
 809 0420 1344     		add	r3, r3, r2
 810 0422 0F22     		movs	r2, #15
 811 0424 83F8EC20 		strb	r2, [r3, #236]
 208:/home/virusv/TDSAST_IOT/Internet/DHCP/dhcp.c **** 	MSG->OPT[k++] = dhcpT1value;
 812              		.loc 1 208 0
 813 0428 264B     		ldr	r3, .L24
 814 042a 1A68     		ldr	r2, [r3]
 815 042c BB88     		ldrh	r3, [r7, #4]
 816 042e 591C     		adds	r1, r3, #1
 817 0430 B980     		strh	r1, [r7, #4]	@ movhi
 818 0432 1344     		add	r3, r3, r2
 819 0434 3A22     		movs	r2, #58
 820 0436 83F8EC20 		strb	r2, [r3, #236]
 209:/home/virusv/TDSAST_IOT/Internet/DHCP/dhcp.c **** 	MSG->OPT[k++] = dhcpT2value;
 821              		.loc 1 209 0
 822 043a 224B     		ldr	r3, .L24
 823 043c 1A68     		ldr	r2, [r3]
 824 043e BB88     		ldrh	r3, [r7, #4]
 825 0440 591C     		adds	r1, r3, #1
 826 0442 B980     		strh	r1, [r7, #4]	@ movhi
 827 0444 1344     		add	r3, r3, r2
 828 0446 3B22     		movs	r2, #59
 829 0448 83F8EC20 		strb	r2, [r3, #236]
 210:/home/virusv/TDSAST_IOT/Internet/DHCP/dhcp.c **** 	MSG->OPT[k++] = endOption;
 830              		.loc 1 210 0
 831 044c 1D4B     		ldr	r3, .L24
 832 044e 1A68     		ldr	r2, [r3]
 833 0450 BB88     		ldrh	r3, [r7, #4]
 834 0452 591C     		adds	r1, r3, #1
 835 0454 B980     		strh	r1, [r7, #4]	@ movhi
 836 0456 1344     		add	r3, r3, r2
 837 0458 FF22     		movs	r2, #255
 838 045a 83F8EC20 		strb	r2, [r3, #236]
 211:/home/virusv/TDSAST_IOT/Internet/DHCP/dhcp.c **** 
 212:/home/virusv/TDSAST_IOT/Internet/DHCP/dhcp.c **** 	for (i = k; i < OPT_SIZE; i++) MSG->OPT[i] = 0;
 839              		.loc 1 212 0
 840 045e BB88     		ldrh	r3, [r7, #4]	@ movhi
 841 0460 FB80     		strh	r3, [r7, #6]	@ movhi
 842 0462 09E0     		b	.L15
 843              	.L16:
 844              		.loc 1 212 0 is_stmt 0 discriminator 3
 845 0464 174B     		ldr	r3, .L24
 846 0466 1A68     		ldr	r2, [r3]
 847 0468 FB88     		ldrh	r3, [r7, #6]
 848 046a 1344     		add	r3, r3, r2
 849 046c 0022     		movs	r2, #0
 850 046e 83F8EC20 		strb	r2, [r3, #236]
 851 0472 FB88     		ldrh	r3, [r7, #6]
 852 0474 0133     		adds	r3, r3, #1
 853 0476 FB80     		strh	r3, [r7, #6]	@ movhi
 854              	.L15:
 855              		.loc 1 212 0 discriminator 1
 856 0478 FB88     		ldrh	r3, [r7, #6]
 857 047a B3F59C7F 		cmp	r3, #312
 858 047e F1D3     		bcc	.L16
 213:/home/virusv/TDSAST_IOT/Internet/DHCP/dhcp.c **** 
 214:/home/virusv/TDSAST_IOT/Internet/DHCP/dhcp.c **** 	// send broadcasting packet
 215:/home/virusv/TDSAST_IOT/Internet/DHCP/dhcp.c **** 	for (i = 0; i < 4; i++) ip[i] = 255;
 859              		.loc 1 215 0 is_stmt 1
 860 0480 0023     		movs	r3, #0
 861 0482 FB80     		strh	r3, [r7, #6]	@ movhi
 862 0484 09E0     		b	.L17
 863              	.L18:
 864              		.loc 1 215 0 is_stmt 0 discriminator 3
 865 0486 FB88     		ldrh	r3, [r7, #6]
 866 0488 07F10802 		add	r2, r7, #8
 867 048c 1344     		add	r3, r3, r2
 868 048e FF22     		movs	r2, #255
 869 0490 03F8082C 		strb	r2, [r3, #-8]
 870 0494 FB88     		ldrh	r3, [r7, #6]
 871 0496 0133     		adds	r3, r3, #1
 872 0498 FB80     		strh	r3, [r7, #6]	@ movhi
 873              	.L17:
 874              		.loc 1 215 0 discriminator 1
 875 049a FB88     		ldrh	r3, [r7, #6]
 876 049c 032B     		cmp	r3, #3
 877 049e F2D9     		bls	.L18
 216:/home/virusv/TDSAST_IOT/Internet/DHCP/dhcp.c **** 
 217:/home/virusv/TDSAST_IOT/Internet/DHCP/dhcp.c **** #ifdef _DHCP_DEBUG_
 218:/home/virusv/TDSAST_IOT/Internet/DHCP/dhcp.c **** 	printf("> Send DHCP_DISCOVER\r\n");
 219:/home/virusv/TDSAST_IOT/Internet/DHCP/dhcp.c **** #endif
 220:/home/virusv/TDSAST_IOT/Internet/DHCP/dhcp.c **** 
 221:/home/virusv/TDSAST_IOT/Internet/DHCP/dhcp.c **** 	sendto(DHCP_SOCKET, (uint8_t *)MSG, RIP_MSG_SIZE, ip, DHCP_SERVER_PORT);
 878              		.loc 1 221 0 is_stmt 1
 879 04a0 094B     		ldr	r3, .L24+4
 880 04a2 1978     		ldrb	r1, [r3]	@ zero_extendqisi2
 881 04a4 074B     		ldr	r3, .L24
 882 04a6 1A68     		ldr	r2, [r3]
 883 04a8 3C46     		mov	r4, r7
 884 04aa 4323     		movs	r3, #67
 885 04ac 0093     		str	r3, [sp]
 886 04ae 0846     		mov	r0, r1
 887 04b0 1146     		mov	r1, r2
 888 04b2 4FF40972 		mov	r2, #548
 889 04b6 2346     		mov	r3, r4
 890 04b8 FFF7FEFF 		bl	sendto
 222:/home/virusv/TDSAST_IOT/Internet/DHCP/dhcp.c **** }
 891              		.loc 1 222 0
 892 04bc 0C37     		adds	r7, r7, #12
 893              		.cfi_def_cfa_offset 12
 894 04be BD46     		mov	sp, r7
 895              		.cfi_def_cfa_register 13
 896              		@ sp needed
 897 04c0 90BD     		pop	{r4, r7, pc}
 898              	.L25:
 899 04c2 00BF     		.align	2
 900              	.L24:
 901 04c4 00000000 		.word	MSG
 902 04c8 00000000 		.word	DHCP_SOCKET
 903              		.cfi_endproc
 904              	.LFE3:
 906              		.section	.text.send_DHCP_REQUEST,"ax",%progbits
 907              		.align	2
 908              		.global	send_DHCP_REQUEST
 909              		.thumb
 910              		.thumb_func
 912              	send_DHCP_REQUEST:
 913              	.LFB4:
 223:/home/virusv/TDSAST_IOT/Internet/DHCP/dhcp.c **** 
 224:/home/virusv/TDSAST_IOT/Internet/DHCP/dhcp.c **** /*
 225:/home/virusv/TDSAST_IOT/Internet/DHCP/dhcp.c **** ***************************************************************************************************
 226:/home/virusv/TDSAST_IOT/Internet/DHCP/dhcp.c **** *              SEND DHCP REQUEST
 227:/home/virusv/TDSAST_IOT/Internet/DHCP/dhcp.c **** *
 228:/home/virusv/TDSAST_IOT/Internet/DHCP/dhcp.c **** * Description: This function sends DHCP REQUEST message to DHCP server.
 229:/home/virusv/TDSAST_IOT/Internet/DHCP/dhcp.c **** * Arguments  : Cip - Initial IP address for DHCP (0.0.0.0) or allocated IP address from DHCP (for I
 230:/home/virusv/TDSAST_IOT/Internet/DHCP/dhcp.c **** * 			   d_addr - Destination IP address
 231:/home/virusv/TDSAST_IOT/Internet/DHCP/dhcp.c **** * Returns    : None.
 232:/home/virusv/TDSAST_IOT/Internet/DHCP/dhcp.c **** * Note       : 
 233:/home/virusv/TDSAST_IOT/Internet/DHCP/dhcp.c **** ***************************************************************************************************
 234:/home/virusv/TDSAST_IOT/Internet/DHCP/dhcp.c **** */
 235:/home/virusv/TDSAST_IOT/Internet/DHCP/dhcp.c **** void send_DHCP_REQUEST(uint8_t *Cip, uint8_t *d_addr)
 236:/home/virusv/TDSAST_IOT/Internet/DHCP/dhcp.c **** {
 914              		.loc 1 236 0
 915              		.cfi_startproc
 916              		@ args = 0, pretend = 0, frame = 24
 917              		@ frame_needed = 1, uses_anonymous_args = 0
 918 0000 90B5     		push	{r4, r7, lr}
 919              		.cfi_def_cfa_offset 12
 920              		.cfi_offset 4, -12
 921              		.cfi_offset 7, -8
 922              		.cfi_offset 14, -4
 923 0002 89B0     		sub	sp, sp, #36
 924              		.cfi_def_cfa_offset 48
 925 0004 02AF     		add	r7, sp, #8
 926              		.cfi_def_cfa 7, 40
 927 0006 7860     		str	r0, [r7, #4]
 928 0008 3960     		str	r1, [r7]
 237:/home/virusv/TDSAST_IOT/Internet/DHCP/dhcp.c **** 	int i;
 238:/home/virusv/TDSAST_IOT/Internet/DHCP/dhcp.c **** 	uint8_t ip[4];
 239:/home/virusv/TDSAST_IOT/Internet/DHCP/dhcp.c **** 	uint16_t k = 0;
 929              		.loc 1 239 0
 930 000a 0023     		movs	r3, #0
 931 000c 7B82     		strh	r3, [r7, #18]	@ movhi
 240:/home/virusv/TDSAST_IOT/Internet/DHCP/dhcp.c **** 
 241:/home/virusv/TDSAST_IOT/Internet/DHCP/dhcp.c **** 	MSG->op = DHCP_BOOTREQUEST;
 932              		.loc 1 241 0
 933 000e 564B     		ldr	r3, .L40
 934 0010 1B68     		ldr	r3, [r3]
 935 0012 0122     		movs	r2, #1
 936 0014 1A70     		strb	r2, [r3]
 242:/home/virusv/TDSAST_IOT/Internet/DHCP/dhcp.c **** 	MSG->htype = DHCP_HTYPE10MB;
 937              		.loc 1 242 0
 938 0016 544B     		ldr	r3, .L40
 939 0018 1B68     		ldr	r3, [r3]
 940 001a 0122     		movs	r2, #1
 941 001c 5A70     		strb	r2, [r3, #1]
 243:/home/virusv/TDSAST_IOT/Internet/DHCP/dhcp.c **** 	MSG->hlen = DHCP_HLENETHERNET;
 942              		.loc 1 243 0
 943 001e 524B     		ldr	r3, .L40
 944 0020 1B68     		ldr	r3, [r3]
 945 0022 0622     		movs	r2, #6
 946 0024 9A70     		strb	r2, [r3, #2]
 244:/home/virusv/TDSAST_IOT/Internet/DHCP/dhcp.c **** 	MSG->hops = DHCP_HOPS;
 947              		.loc 1 244 0
 948 0026 504B     		ldr	r3, .L40
 949 0028 1B68     		ldr	r3, [r3]
 950 002a 0022     		movs	r2, #0
 951 002c DA70     		strb	r2, [r3, #3]
 245:/home/virusv/TDSAST_IOT/Internet/DHCP/dhcp.c **** 	MSG->xid = DHCP_XID;
 952              		.loc 1 245 0
 953 002e 4E4B     		ldr	r3, .L40
 954 0030 1B68     		ldr	r3, [r3]
 955 0032 4E4A     		ldr	r2, .L40+4
 956 0034 1268     		ldr	r2, [r2]
 957 0036 5A60     		str	r2, [r3, #4]
 246:/home/virusv/TDSAST_IOT/Internet/DHCP/dhcp.c **** 	MSG->secs = DHCP_SECS;
 958              		.loc 1 246 0
 959 0038 4B4B     		ldr	r3, .L40
 960 003a 1B68     		ldr	r3, [r3]
 961 003c 0022     		movs	r2, #0
 962 003e 1A81     		strh	r2, [r3, #8]	@ movhi
 247:/home/virusv/TDSAST_IOT/Internet/DHCP/dhcp.c **** 	//MSG->flags = DHCP_FLAGSBROADCAST;
 248:/home/virusv/TDSAST_IOT/Internet/DHCP/dhcp.c **** 	if (d_addr[0] == 0xff) 	MSG->flags = DHCP_FLAGSBROADCAST;
 963              		.loc 1 248 0
 964 0040 3B68     		ldr	r3, [r7]
 965 0042 1B78     		ldrb	r3, [r3]	@ zero_extendqisi2
 966 0044 FF2B     		cmp	r3, #255
 967 0046 04D1     		bne	.L27
 968              		.loc 1 248 0 is_stmt 0 discriminator 1
 969 0048 474B     		ldr	r3, .L40
 970 004a 1B68     		ldr	r3, [r3]
 971 004c 8022     		movs	r2, #128
 972 004e 5A81     		strh	r2, [r3, #10]	@ movhi
 973 0050 03E0     		b	.L28
 974              	.L27:
 249:/home/virusv/TDSAST_IOT/Internet/DHCP/dhcp.c **** 	else MSG->flags = 0;
 975              		.loc 1 249 0 is_stmt 1
 976 0052 454B     		ldr	r3, .L40
 977 0054 1B68     		ldr	r3, [r3]
 978 0056 0022     		movs	r2, #0
 979 0058 5A81     		strh	r2, [r3, #10]	@ movhi
 980              	.L28:
 250:/home/virusv/TDSAST_IOT/Internet/DHCP/dhcp.c **** 	
 251:/home/virusv/TDSAST_IOT/Internet/DHCP/dhcp.c **** 	MSG->ciaddr[0] = Cip[0];
 981              		.loc 1 251 0
 982 005a 434B     		ldr	r3, .L40
 983 005c 1B68     		ldr	r3, [r3]
 984 005e 7A68     		ldr	r2, [r7, #4]
 985 0060 1278     		ldrb	r2, [r2]	@ zero_extendqisi2
 986 0062 1A73     		strb	r2, [r3, #12]
 252:/home/virusv/TDSAST_IOT/Internet/DHCP/dhcp.c **** 	MSG->ciaddr[1] = Cip[1];
 987              		.loc 1 252 0
 988 0064 404B     		ldr	r3, .L40
 989 0066 1B68     		ldr	r3, [r3]
 990 0068 7A68     		ldr	r2, [r7, #4]
 991 006a 5278     		ldrb	r2, [r2, #1]	@ zero_extendqisi2
 992 006c 5A73     		strb	r2, [r3, #13]
 253:/home/virusv/TDSAST_IOT/Internet/DHCP/dhcp.c **** 	MSG->ciaddr[2] = Cip[2];
 993              		.loc 1 253 0
 994 006e 3E4B     		ldr	r3, .L40
 995 0070 1B68     		ldr	r3, [r3]
 996 0072 7A68     		ldr	r2, [r7, #4]
 997 0074 9278     		ldrb	r2, [r2, #2]	@ zero_extendqisi2
 998 0076 9A73     		strb	r2, [r3, #14]
 254:/home/virusv/TDSAST_IOT/Internet/DHCP/dhcp.c **** 	MSG->ciaddr[3] = Cip[3];
 999              		.loc 1 254 0
 1000 0078 3B4B     		ldr	r3, .L40
 1001 007a 1B68     		ldr	r3, [r3]
 1002 007c 7A68     		ldr	r2, [r7, #4]
 1003 007e D278     		ldrb	r2, [r2, #3]	@ zero_extendqisi2
 1004 0080 DA73     		strb	r2, [r3, #15]
 255:/home/virusv/TDSAST_IOT/Internet/DHCP/dhcp.c **** 
 256:/home/virusv/TDSAST_IOT/Internet/DHCP/dhcp.c **** 	MSG->yiaddr[0] = 0;
 1005              		.loc 1 256 0
 1006 0082 394B     		ldr	r3, .L40
 1007 0084 1B68     		ldr	r3, [r3]
 1008 0086 0022     		movs	r2, #0
 1009 0088 1A74     		strb	r2, [r3, #16]
 257:/home/virusv/TDSAST_IOT/Internet/DHCP/dhcp.c **** 	MSG->yiaddr[1] = 0;
 1010              		.loc 1 257 0
 1011 008a 374B     		ldr	r3, .L40
 1012 008c 1B68     		ldr	r3, [r3]
 1013 008e 0022     		movs	r2, #0
 1014 0090 5A74     		strb	r2, [r3, #17]
 258:/home/virusv/TDSAST_IOT/Internet/DHCP/dhcp.c **** 	MSG->yiaddr[2] = 0;
 1015              		.loc 1 258 0
 1016 0092 354B     		ldr	r3, .L40
 1017 0094 1B68     		ldr	r3, [r3]
 1018 0096 0022     		movs	r2, #0
 1019 0098 9A74     		strb	r2, [r3, #18]
 259:/home/virusv/TDSAST_IOT/Internet/DHCP/dhcp.c **** 	MSG->yiaddr[3] = 0;
 1020              		.loc 1 259 0
 1021 009a 334B     		ldr	r3, .L40
 1022 009c 1B68     		ldr	r3, [r3]
 1023 009e 0022     		movs	r2, #0
 1024 00a0 DA74     		strb	r2, [r3, #19]
 260:/home/virusv/TDSAST_IOT/Internet/DHCP/dhcp.c **** 
 261:/home/virusv/TDSAST_IOT/Internet/DHCP/dhcp.c **** 	MSG->siaddr[0] = 0;
 1025              		.loc 1 261 0
 1026 00a2 314B     		ldr	r3, .L40
 1027 00a4 1B68     		ldr	r3, [r3]
 1028 00a6 0022     		movs	r2, #0
 1029 00a8 1A75     		strb	r2, [r3, #20]
 262:/home/virusv/TDSAST_IOT/Internet/DHCP/dhcp.c **** 	MSG->siaddr[1] = 0;
 1030              		.loc 1 262 0
 1031 00aa 2F4B     		ldr	r3, .L40
 1032 00ac 1B68     		ldr	r3, [r3]
 1033 00ae 0022     		movs	r2, #0
 1034 00b0 5A75     		strb	r2, [r3, #21]
 263:/home/virusv/TDSAST_IOT/Internet/DHCP/dhcp.c **** 	MSG->siaddr[2] = 0;
 1035              		.loc 1 263 0
 1036 00b2 2D4B     		ldr	r3, .L40
 1037 00b4 1B68     		ldr	r3, [r3]
 1038 00b6 0022     		movs	r2, #0
 1039 00b8 9A75     		strb	r2, [r3, #22]
 264:/home/virusv/TDSAST_IOT/Internet/DHCP/dhcp.c **** 	MSG->siaddr[3] = 0;
 1040              		.loc 1 264 0
 1041 00ba 2B4B     		ldr	r3, .L40
 1042 00bc 1B68     		ldr	r3, [r3]
 1043 00be 0022     		movs	r2, #0
 1044 00c0 DA75     		strb	r2, [r3, #23]
 265:/home/virusv/TDSAST_IOT/Internet/DHCP/dhcp.c **** 
 266:/home/virusv/TDSAST_IOT/Internet/DHCP/dhcp.c **** 	MSG->giaddr[0] = 0;
 1045              		.loc 1 266 0
 1046 00c2 294B     		ldr	r3, .L40
 1047 00c4 1B68     		ldr	r3, [r3]
 1048 00c6 0022     		movs	r2, #0
 1049 00c8 1A76     		strb	r2, [r3, #24]
 267:/home/virusv/TDSAST_IOT/Internet/DHCP/dhcp.c **** 	MSG->giaddr[1] = 0;
 1050              		.loc 1 267 0
 1051 00ca 274B     		ldr	r3, .L40
 1052 00cc 1B68     		ldr	r3, [r3]
 1053 00ce 0022     		movs	r2, #0
 1054 00d0 5A76     		strb	r2, [r3, #25]
 268:/home/virusv/TDSAST_IOT/Internet/DHCP/dhcp.c **** 	MSG->giaddr[2] = 0;
 1055              		.loc 1 268 0
 1056 00d2 254B     		ldr	r3, .L40
 1057 00d4 1B68     		ldr	r3, [r3]
 1058 00d6 0022     		movs	r2, #0
 1059 00d8 9A76     		strb	r2, [r3, #26]
 269:/home/virusv/TDSAST_IOT/Internet/DHCP/dhcp.c **** 	MSG->giaddr[3] = 0;
 1060              		.loc 1 269 0
 1061 00da 234B     		ldr	r3, .L40
 1062 00dc 1B68     		ldr	r3, [r3]
 1063 00de 0022     		movs	r2, #0
 1064 00e0 DA76     		strb	r2, [r3, #27]
 270:/home/virusv/TDSAST_IOT/Internet/DHCP/dhcp.c **** 
 271:/home/virusv/TDSAST_IOT/Internet/DHCP/dhcp.c **** 	MSG->chaddr[0] = wizchip_mac[0];
 1065              		.loc 1 271 0
 1066 00e2 214B     		ldr	r3, .L40
 1067 00e4 1B68     		ldr	r3, [r3]
 1068 00e6 224A     		ldr	r2, .L40+8
 1069 00e8 1278     		ldrb	r2, [r2]	@ zero_extendqisi2
 1070 00ea 1A77     		strb	r2, [r3, #28]
 272:/home/virusv/TDSAST_IOT/Internet/DHCP/dhcp.c **** 	MSG->chaddr[1] = wizchip_mac[1];
 1071              		.loc 1 272 0
 1072 00ec 1E4B     		ldr	r3, .L40
 1073 00ee 1B68     		ldr	r3, [r3]
 1074 00f0 1F4A     		ldr	r2, .L40+8
 1075 00f2 5278     		ldrb	r2, [r2, #1]	@ zero_extendqisi2
 1076 00f4 5A77     		strb	r2, [r3, #29]
 273:/home/virusv/TDSAST_IOT/Internet/DHCP/dhcp.c **** 	MSG->chaddr[2] = wizchip_mac[2];
 1077              		.loc 1 273 0
 1078 00f6 1C4B     		ldr	r3, .L40
 1079 00f8 1B68     		ldr	r3, [r3]
 1080 00fa 1D4A     		ldr	r2, .L40+8
 1081 00fc 9278     		ldrb	r2, [r2, #2]	@ zero_extendqisi2
 1082 00fe 9A77     		strb	r2, [r3, #30]
 274:/home/virusv/TDSAST_IOT/Internet/DHCP/dhcp.c **** 	MSG->chaddr[3] = wizchip_mac[3];
 1083              		.loc 1 274 0
 1084 0100 194B     		ldr	r3, .L40
 1085 0102 1B68     		ldr	r3, [r3]
 1086 0104 1A4A     		ldr	r2, .L40+8
 1087 0106 D278     		ldrb	r2, [r2, #3]	@ zero_extendqisi2
 1088 0108 DA77     		strb	r2, [r3, #31]
 275:/home/virusv/TDSAST_IOT/Internet/DHCP/dhcp.c **** 	MSG->chaddr[4] = wizchip_mac[4];
 1089              		.loc 1 275 0
 1090 010a 174B     		ldr	r3, .L40
 1091 010c 1B68     		ldr	r3, [r3]
 1092 010e 184A     		ldr	r2, .L40+8
 1093 0110 1279     		ldrb	r2, [r2, #4]	@ zero_extendqisi2
 1094 0112 83F82020 		strb	r2, [r3, #32]
 276:/home/virusv/TDSAST_IOT/Internet/DHCP/dhcp.c **** 	MSG->chaddr[5] = wizchip_mac[5];
 1095              		.loc 1 276 0
 1096 0116 144B     		ldr	r3, .L40
 1097 0118 1B68     		ldr	r3, [r3]
 1098 011a 154A     		ldr	r2, .L40+8
 1099 011c 5279     		ldrb	r2, [r2, #5]	@ zero_extendqisi2
 1100 011e 83F82120 		strb	r2, [r3, #33]
 277:/home/virusv/TDSAST_IOT/Internet/DHCP/dhcp.c **** 
 278:/home/virusv/TDSAST_IOT/Internet/DHCP/dhcp.c **** 	for (i = 6; i < 16; i++) MSG->chaddr[i] = 0;
 1101              		.loc 1 278 0
 1102 0122 0623     		movs	r3, #6
 1103 0124 7B61     		str	r3, [r7, #20]
 1104 0126 09E0     		b	.L29
 1105              	.L30:
 1106              		.loc 1 278 0 is_stmt 0 discriminator 3
 1107 0128 0F4B     		ldr	r3, .L40
 1108 012a 1A68     		ldr	r2, [r3]
 1109 012c 7B69     		ldr	r3, [r7, #20]
 1110 012e 1344     		add	r3, r3, r2
 1111 0130 1833     		adds	r3, r3, #24
 1112 0132 0022     		movs	r2, #0
 1113 0134 1A71     		strb	r2, [r3, #4]
 1114 0136 7B69     		ldr	r3, [r7, #20]
 1115 0138 0133     		adds	r3, r3, #1
 1116 013a 7B61     		str	r3, [r7, #20]
 1117              	.L29:
 1118              		.loc 1 278 0 discriminator 1
 1119 013c 7B69     		ldr	r3, [r7, #20]
 1120 013e 0F2B     		cmp	r3, #15
 1121 0140 F2DD     		ble	.L30
 279:/home/virusv/TDSAST_IOT/Internet/DHCP/dhcp.c **** 	for (i = 0; i < 64; i++) MSG->sname[i] = 0;
 1122              		.loc 1 279 0 is_stmt 1
 1123 0142 0023     		movs	r3, #0
 1124 0144 7B61     		str	r3, [r7, #20]
 1125 0146 09E0     		b	.L31
 1126              	.L32:
 1127              		.loc 1 279 0 is_stmt 0 discriminator 3
 1128 0148 074B     		ldr	r3, .L40
 1129 014a 1A68     		ldr	r2, [r3]
 1130 014c 7B69     		ldr	r3, [r7, #20]
 1131 014e 1344     		add	r3, r3, r2
 1132 0150 2833     		adds	r3, r3, #40
 1133 0152 0022     		movs	r2, #0
 1134 0154 1A71     		strb	r2, [r3, #4]
 1135 0156 7B69     		ldr	r3, [r7, #20]
 1136 0158 0133     		adds	r3, r3, #1
 1137 015a 7B61     		str	r3, [r7, #20]
 1138              	.L31:
 1139              		.loc 1 279 0 discriminator 1
 1140 015c 7B69     		ldr	r3, [r7, #20]
 1141 015e 3F2B     		cmp	r3, #63
 1142 0160 F2DD     		ble	.L32
 280:/home/virusv/TDSAST_IOT/Internet/DHCP/dhcp.c **** 	for (i = 0; i < 128; i++) MSG->file[i] = 0;
 1143              		.loc 1 280 0 is_stmt 1
 1144 0162 0023     		movs	r3, #0
 1145 0164 7B61     		str	r3, [r7, #20]
 1146 0166 0FE0     		b	.L33
 1147              	.L41:
 1148              		.align	2
 1149              	.L40:
 1150 0168 00000000 		.word	MSG
 1151 016c 00000000 		.word	DHCP_XID
 1152 0170 00000000 		.word	wizchip_mac
 1153              	.L34:
 1154              		.loc 1 280 0 is_stmt 0 discriminator 3
 1155 0174 AB4B     		ldr	r3, .L42
 1156 0176 1A68     		ldr	r2, [r3]
 1157 0178 7B69     		ldr	r3, [r7, #20]
 1158 017a 1344     		add	r3, r3, r2
 1159 017c 6833     		adds	r3, r3, #104
 1160 017e 0022     		movs	r2, #0
 1161 0180 1A71     		strb	r2, [r3, #4]
 1162 0182 7B69     		ldr	r3, [r7, #20]
 1163 0184 0133     		adds	r3, r3, #1
 1164 0186 7B61     		str	r3, [r7, #20]
 1165              	.L33:
 1166              		.loc 1 280 0 discriminator 1
 1167 0188 7B69     		ldr	r3, [r7, #20]
 1168 018a 7F2B     		cmp	r3, #127
 1169 018c F2DD     		ble	.L34
 281:/home/virusv/TDSAST_IOT/Internet/DHCP/dhcp.c **** 
 282:/home/virusv/TDSAST_IOT/Internet/DHCP/dhcp.c **** 	// MAGIC_COOKIE 
 283:/home/virusv/TDSAST_IOT/Internet/DHCP/dhcp.c **** 	MSG->OPT[k++] = 0x63;
 1170              		.loc 1 283 0 is_stmt 1
 1171 018e A54B     		ldr	r3, .L42
 1172 0190 1A68     		ldr	r2, [r3]
 1173 0192 7B8A     		ldrh	r3, [r7, #18]
 1174 0194 591C     		adds	r1, r3, #1
 1175 0196 7982     		strh	r1, [r7, #18]	@ movhi
 1176 0198 1344     		add	r3, r3, r2
 1177 019a 6322     		movs	r2, #99
 1178 019c 83F8EC20 		strb	r2, [r3, #236]
 284:/home/virusv/TDSAST_IOT/Internet/DHCP/dhcp.c **** 	MSG->OPT[k++] = 0x82;
 1179              		.loc 1 284 0
 1180 01a0 A04B     		ldr	r3, .L42
 1181 01a2 1A68     		ldr	r2, [r3]
 1182 01a4 7B8A     		ldrh	r3, [r7, #18]
 1183 01a6 591C     		adds	r1, r3, #1
 1184 01a8 7982     		strh	r1, [r7, #18]	@ movhi
 1185 01aa 1344     		add	r3, r3, r2
 1186 01ac 8222     		movs	r2, #130
 1187 01ae 83F8EC20 		strb	r2, [r3, #236]
 285:/home/virusv/TDSAST_IOT/Internet/DHCP/dhcp.c **** 	MSG->OPT[k++] = 0x53;
 1188              		.loc 1 285 0
 1189 01b2 9C4B     		ldr	r3, .L42
 1190 01b4 1A68     		ldr	r2, [r3]
 1191 01b6 7B8A     		ldrh	r3, [r7, #18]
 1192 01b8 591C     		adds	r1, r3, #1
 1193 01ba 7982     		strh	r1, [r7, #18]	@ movhi
 1194 01bc 1344     		add	r3, r3, r2
 1195 01be 5322     		movs	r2, #83
 1196 01c0 83F8EC20 		strb	r2, [r3, #236]
 286:/home/virusv/TDSAST_IOT/Internet/DHCP/dhcp.c **** 	MSG->OPT[k++] = 0x63;
 1197              		.loc 1 286 0
 1198 01c4 974B     		ldr	r3, .L42
 1199 01c6 1A68     		ldr	r2, [r3]
 1200 01c8 7B8A     		ldrh	r3, [r7, #18]
 1201 01ca 591C     		adds	r1, r3, #1
 1202 01cc 7982     		strh	r1, [r7, #18]	@ movhi
 1203 01ce 1344     		add	r3, r3, r2
 1204 01d0 6322     		movs	r2, #99
 1205 01d2 83F8EC20 		strb	r2, [r3, #236]
 287:/home/virusv/TDSAST_IOT/Internet/DHCP/dhcp.c **** 
 288:/home/virusv/TDSAST_IOT/Internet/DHCP/dhcp.c **** 	// Option Request Param.
 289:/home/virusv/TDSAST_IOT/Internet/DHCP/dhcp.c **** 	MSG->OPT[k++] = dhcpMessageType;
 1206              		.loc 1 289 0
 1207 01d6 934B     		ldr	r3, .L42
 1208 01d8 1A68     		ldr	r2, [r3]
 1209 01da 7B8A     		ldrh	r3, [r7, #18]
 1210 01dc 591C     		adds	r1, r3, #1
 1211 01de 7982     		strh	r1, [r7, #18]	@ movhi
 1212 01e0 1344     		add	r3, r3, r2
 1213 01e2 3522     		movs	r2, #53
 1214 01e4 83F8EC20 		strb	r2, [r3, #236]
 290:/home/virusv/TDSAST_IOT/Internet/DHCP/dhcp.c **** 	MSG->OPT[k++] = 0x01;
 1215              		.loc 1 290 0
 1216 01e8 8E4B     		ldr	r3, .L42
 1217 01ea 1A68     		ldr	r2, [r3]
 1218 01ec 7B8A     		ldrh	r3, [r7, #18]
 1219 01ee 591C     		adds	r1, r3, #1
 1220 01f0 7982     		strh	r1, [r7, #18]	@ movhi
 1221 01f2 1344     		add	r3, r3, r2
 1222 01f4 0122     		movs	r2, #1
 1223 01f6 83F8EC20 		strb	r2, [r3, #236]
 291:/home/virusv/TDSAST_IOT/Internet/DHCP/dhcp.c **** 	MSG->OPT[k++] = DHCP_REQUEST;
 1224              		.loc 1 291 0
 1225 01fa 8A4B     		ldr	r3, .L42
 1226 01fc 1A68     		ldr	r2, [r3]
 1227 01fe 7B8A     		ldrh	r3, [r7, #18]
 1228 0200 591C     		adds	r1, r3, #1
 1229 0202 7982     		strh	r1, [r7, #18]	@ movhi
 1230 0204 1344     		add	r3, r3, r2
 1231 0206 0322     		movs	r2, #3
 1232 0208 83F8EC20 		strb	r2, [r3, #236]
 292:/home/virusv/TDSAST_IOT/Internet/DHCP/dhcp.c **** 
 293:/home/virusv/TDSAST_IOT/Internet/DHCP/dhcp.c **** 	MSG->OPT[k++] = dhcpClientIdentifier;
 1233              		.loc 1 293 0
 1234 020c 854B     		ldr	r3, .L42
 1235 020e 1A68     		ldr	r2, [r3]
 1236 0210 7B8A     		ldrh	r3, [r7, #18]
 1237 0212 591C     		adds	r1, r3, #1
 1238 0214 7982     		strh	r1, [r7, #18]	@ movhi
 1239 0216 1344     		add	r3, r3, r2
 1240 0218 3D22     		movs	r2, #61
 1241 021a 83F8EC20 		strb	r2, [r3, #236]
 294:/home/virusv/TDSAST_IOT/Internet/DHCP/dhcp.c **** 	MSG->OPT[k++] = 0x07;
 1242              		.loc 1 294 0
 1243 021e 814B     		ldr	r3, .L42
 1244 0220 1A68     		ldr	r2, [r3]
 1245 0222 7B8A     		ldrh	r3, [r7, #18]
 1246 0224 591C     		adds	r1, r3, #1
 1247 0226 7982     		strh	r1, [r7, #18]	@ movhi
 1248 0228 1344     		add	r3, r3, r2
 1249 022a 0722     		movs	r2, #7
 1250 022c 83F8EC20 		strb	r2, [r3, #236]
 295:/home/virusv/TDSAST_IOT/Internet/DHCP/dhcp.c **** 	MSG->OPT[k++] = 0x01;
 1251              		.loc 1 295 0
 1252 0230 7C4B     		ldr	r3, .L42
 1253 0232 1A68     		ldr	r2, [r3]
 1254 0234 7B8A     		ldrh	r3, [r7, #18]
 1255 0236 591C     		adds	r1, r3, #1
 1256 0238 7982     		strh	r1, [r7, #18]	@ movhi
 1257 023a 1344     		add	r3, r3, r2
 1258 023c 0122     		movs	r2, #1
 1259 023e 83F8EC20 		strb	r2, [r3, #236]
 296:/home/virusv/TDSAST_IOT/Internet/DHCP/dhcp.c **** 	MSG->OPT[k++] = wizchip_mac[0];
 1260              		.loc 1 296 0
 1261 0242 784B     		ldr	r3, .L42
 1262 0244 1A68     		ldr	r2, [r3]
 1263 0246 7B8A     		ldrh	r3, [r7, #18]
 1264 0248 591C     		adds	r1, r3, #1
 1265 024a 7982     		strh	r1, [r7, #18]	@ movhi
 1266 024c 1846     		mov	r0, r3
 1267 024e 764B     		ldr	r3, .L42+4
 1268 0250 1978     		ldrb	r1, [r3]	@ zero_extendqisi2
 1269 0252 1318     		adds	r3, r2, r0
 1270 0254 0A46     		mov	r2, r1
 1271 0256 83F8EC20 		strb	r2, [r3, #236]
 297:/home/virusv/TDSAST_IOT/Internet/DHCP/dhcp.c **** 	MSG->OPT[k++] = wizchip_mac[1];
 1272              		.loc 1 297 0
 1273 025a 724B     		ldr	r3, .L42
 1274 025c 1A68     		ldr	r2, [r3]
 1275 025e 7B8A     		ldrh	r3, [r7, #18]
 1276 0260 591C     		adds	r1, r3, #1
 1277 0262 7982     		strh	r1, [r7, #18]	@ movhi
 1278 0264 1846     		mov	r0, r3
 1279 0266 704B     		ldr	r3, .L42+4
 1280 0268 5978     		ldrb	r1, [r3, #1]	@ zero_extendqisi2
 1281 026a 1318     		adds	r3, r2, r0
 1282 026c 0A46     		mov	r2, r1
 1283 026e 83F8EC20 		strb	r2, [r3, #236]
 298:/home/virusv/TDSAST_IOT/Internet/DHCP/dhcp.c **** 	MSG->OPT[k++] = wizchip_mac[2];
 1284              		.loc 1 298 0
 1285 0272 6C4B     		ldr	r3, .L42
 1286 0274 1A68     		ldr	r2, [r3]
 1287 0276 7B8A     		ldrh	r3, [r7, #18]
 1288 0278 591C     		adds	r1, r3, #1
 1289 027a 7982     		strh	r1, [r7, #18]	@ movhi
 1290 027c 1846     		mov	r0, r3
 1291 027e 6A4B     		ldr	r3, .L42+4
 1292 0280 9978     		ldrb	r1, [r3, #2]	@ zero_extendqisi2
 1293 0282 1318     		adds	r3, r2, r0
 1294 0284 0A46     		mov	r2, r1
 1295 0286 83F8EC20 		strb	r2, [r3, #236]
 299:/home/virusv/TDSAST_IOT/Internet/DHCP/dhcp.c **** 	MSG->OPT[k++] = wizchip_mac[3];
 1296              		.loc 1 299 0
 1297 028a 664B     		ldr	r3, .L42
 1298 028c 1A68     		ldr	r2, [r3]
 1299 028e 7B8A     		ldrh	r3, [r7, #18]
 1300 0290 591C     		adds	r1, r3, #1
 1301 0292 7982     		strh	r1, [r7, #18]	@ movhi
 1302 0294 1846     		mov	r0, r3
 1303 0296 644B     		ldr	r3, .L42+4
 1304 0298 D978     		ldrb	r1, [r3, #3]	@ zero_extendqisi2
 1305 029a 1318     		adds	r3, r2, r0
 1306 029c 0A46     		mov	r2, r1
 1307 029e 83F8EC20 		strb	r2, [r3, #236]
 300:/home/virusv/TDSAST_IOT/Internet/DHCP/dhcp.c **** 	MSG->OPT[k++] = wizchip_mac[4];
 1308              		.loc 1 300 0
 1309 02a2 604B     		ldr	r3, .L42
 1310 02a4 1A68     		ldr	r2, [r3]
 1311 02a6 7B8A     		ldrh	r3, [r7, #18]
 1312 02a8 591C     		adds	r1, r3, #1
 1313 02aa 7982     		strh	r1, [r7, #18]	@ movhi
 1314 02ac 1846     		mov	r0, r3
 1315 02ae 5E4B     		ldr	r3, .L42+4
 1316 02b0 1979     		ldrb	r1, [r3, #4]	@ zero_extendqisi2
 1317 02b2 1318     		adds	r3, r2, r0
 1318 02b4 0A46     		mov	r2, r1
 1319 02b6 83F8EC20 		strb	r2, [r3, #236]
 301:/home/virusv/TDSAST_IOT/Internet/DHCP/dhcp.c **** 	MSG->OPT[k++] = wizchip_mac[5];
 1320              		.loc 1 301 0
 1321 02ba 5A4B     		ldr	r3, .L42
 1322 02bc 1A68     		ldr	r2, [r3]
 1323 02be 7B8A     		ldrh	r3, [r7, #18]
 1324 02c0 591C     		adds	r1, r3, #1
 1325 02c2 7982     		strh	r1, [r7, #18]	@ movhi
 1326 02c4 1846     		mov	r0, r3
 1327 02c6 584B     		ldr	r3, .L42+4
 1328 02c8 5979     		ldrb	r1, [r3, #5]	@ zero_extendqisi2
 1329 02ca 1318     		adds	r3, r2, r0
 1330 02cc 0A46     		mov	r2, r1
 1331 02ce 83F8EC20 		strb	r2, [r3, #236]
 302:/home/virusv/TDSAST_IOT/Internet/DHCP/dhcp.c **** 
 303:/home/virusv/TDSAST_IOT/Internet/DHCP/dhcp.c **** 	if (d_addr[0] == 0xff) {
 1332              		.loc 1 303 0
 1333 02d2 3B68     		ldr	r3, [r7]
 1334 02d4 1B78     		ldrb	r3, [r3]	@ zero_extendqisi2
 1335 02d6 FF2B     		cmp	r3, #255
 1336 02d8 40F08480 		bne	.L35
 304:/home/virusv/TDSAST_IOT/Internet/DHCP/dhcp.c **** 		MSG->OPT[k++] = dhcpRequestedIPaddr;
 1337              		.loc 1 304 0
 1338 02dc 514B     		ldr	r3, .L42
 1339 02de 1A68     		ldr	r2, [r3]
 1340 02e0 7B8A     		ldrh	r3, [r7, #18]
 1341 02e2 591C     		adds	r1, r3, #1
 1342 02e4 7982     		strh	r1, [r7, #18]	@ movhi
 1343 02e6 1344     		add	r3, r3, r2
 1344 02e8 3222     		movs	r2, #50
 1345 02ea 83F8EC20 		strb	r2, [r3, #236]
 305:/home/virusv/TDSAST_IOT/Internet/DHCP/dhcp.c **** 		MSG->OPT[k++] = 0x04;
 1346              		.loc 1 305 0
 1347 02ee 4D4B     		ldr	r3, .L42
 1348 02f0 1A68     		ldr	r2, [r3]
 1349 02f2 7B8A     		ldrh	r3, [r7, #18]
 1350 02f4 591C     		adds	r1, r3, #1
 1351 02f6 7982     		strh	r1, [r7, #18]	@ movhi
 1352 02f8 1344     		add	r3, r3, r2
 1353 02fa 0422     		movs	r2, #4
 1354 02fc 83F8EC20 		strb	r2, [r3, #236]
 306:/home/virusv/TDSAST_IOT/Internet/DHCP/dhcp.c **** 		MSG->OPT[k++] = DHCP_allocated_ip[0];
 1355              		.loc 1 306 0
 1356 0300 484B     		ldr	r3, .L42
 1357 0302 1A68     		ldr	r2, [r3]
 1358 0304 7B8A     		ldrh	r3, [r7, #18]
 1359 0306 591C     		adds	r1, r3, #1
 1360 0308 7982     		strh	r1, [r7, #18]	@ movhi
 1361 030a 1846     		mov	r0, r3
 1362 030c 474B     		ldr	r3, .L42+8
 1363 030e 1978     		ldrb	r1, [r3]	@ zero_extendqisi2
 1364 0310 1318     		adds	r3, r2, r0
 1365 0312 0A46     		mov	r2, r1
 1366 0314 83F8EC20 		strb	r2, [r3, #236]
 307:/home/virusv/TDSAST_IOT/Internet/DHCP/dhcp.c **** 		MSG->OPT[k++] = DHCP_allocated_ip[1];
 1367              		.loc 1 307 0
 1368 0318 424B     		ldr	r3, .L42
 1369 031a 1A68     		ldr	r2, [r3]
 1370 031c 7B8A     		ldrh	r3, [r7, #18]
 1371 031e 591C     		adds	r1, r3, #1
 1372 0320 7982     		strh	r1, [r7, #18]	@ movhi
 1373 0322 1846     		mov	r0, r3
 1374 0324 414B     		ldr	r3, .L42+8
 1375 0326 5978     		ldrb	r1, [r3, #1]	@ zero_extendqisi2
 1376 0328 1318     		adds	r3, r2, r0
 1377 032a 0A46     		mov	r2, r1
 1378 032c 83F8EC20 		strb	r2, [r3, #236]
 308:/home/virusv/TDSAST_IOT/Internet/DHCP/dhcp.c **** 		MSG->OPT[k++] = DHCP_allocated_ip[2];
 1379              		.loc 1 308 0
 1380 0330 3C4B     		ldr	r3, .L42
 1381 0332 1A68     		ldr	r2, [r3]
 1382 0334 7B8A     		ldrh	r3, [r7, #18]
 1383 0336 591C     		adds	r1, r3, #1
 1384 0338 7982     		strh	r1, [r7, #18]	@ movhi
 1385 033a 1846     		mov	r0, r3
 1386 033c 3B4B     		ldr	r3, .L42+8
 1387 033e 9978     		ldrb	r1, [r3, #2]	@ zero_extendqisi2
 1388 0340 1318     		adds	r3, r2, r0
 1389 0342 0A46     		mov	r2, r1
 1390 0344 83F8EC20 		strb	r2, [r3, #236]
 309:/home/virusv/TDSAST_IOT/Internet/DHCP/dhcp.c **** 		MSG->OPT[k++] = DHCP_allocated_ip[3];
 1391              		.loc 1 309 0
 1392 0348 364B     		ldr	r3, .L42
 1393 034a 1A68     		ldr	r2, [r3]
 1394 034c 7B8A     		ldrh	r3, [r7, #18]
 1395 034e 591C     		adds	r1, r3, #1
 1396 0350 7982     		strh	r1, [r7, #18]	@ movhi
 1397 0352 1846     		mov	r0, r3
 1398 0354 354B     		ldr	r3, .L42+8
 1399 0356 D978     		ldrb	r1, [r3, #3]	@ zero_extendqisi2
 1400 0358 1318     		adds	r3, r2, r0
 1401 035a 0A46     		mov	r2, r1
 1402 035c 83F8EC20 		strb	r2, [r3, #236]
 310:/home/virusv/TDSAST_IOT/Internet/DHCP/dhcp.c **** 	
 311:/home/virusv/TDSAST_IOT/Internet/DHCP/dhcp.c **** 		MSG->OPT[k++] = dhcpServerIdentifier;
 1403              		.loc 1 311 0
 1404 0360 304B     		ldr	r3, .L42
 1405 0362 1A68     		ldr	r2, [r3]
 1406 0364 7B8A     		ldrh	r3, [r7, #18]
 1407 0366 591C     		adds	r1, r3, #1
 1408 0368 7982     		strh	r1, [r7, #18]	@ movhi
 1409 036a 1344     		add	r3, r3, r2
 1410 036c 3622     		movs	r2, #54
 1411 036e 83F8EC20 		strb	r2, [r3, #236]
 312:/home/virusv/TDSAST_IOT/Internet/DHCP/dhcp.c **** 		MSG->OPT[k++] = 0x04;
 1412              		.loc 1 312 0
 1413 0372 2C4B     		ldr	r3, .L42
 1414 0374 1A68     		ldr	r2, [r3]
 1415 0376 7B8A     		ldrh	r3, [r7, #18]
 1416 0378 591C     		adds	r1, r3, #1
 1417 037a 7982     		strh	r1, [r7, #18]	@ movhi
 1418 037c 1344     		add	r3, r3, r2
 1419 037e 0422     		movs	r2, #4
 1420 0380 83F8EC20 		strb	r2, [r3, #236]
 313:/home/virusv/TDSAST_IOT/Internet/DHCP/dhcp.c **** 		MSG->OPT[k++] = DHCP_SIP[0];
 1421              		.loc 1 313 0
 1422 0384 274B     		ldr	r3, .L42
 1423 0386 1A68     		ldr	r2, [r3]
 1424 0388 7B8A     		ldrh	r3, [r7, #18]
 1425 038a 591C     		adds	r1, r3, #1
 1426 038c 7982     		strh	r1, [r7, #18]	@ movhi
 1427 038e 1846     		mov	r0, r3
 1428 0390 274B     		ldr	r3, .L42+12
 1429 0392 1978     		ldrb	r1, [r3]	@ zero_extendqisi2
 1430 0394 1318     		adds	r3, r2, r0
 1431 0396 0A46     		mov	r2, r1
 1432 0398 83F8EC20 		strb	r2, [r3, #236]
 314:/home/virusv/TDSAST_IOT/Internet/DHCP/dhcp.c **** 		MSG->OPT[k++] = DHCP_SIP[1];
 1433              		.loc 1 314 0
 1434 039c 214B     		ldr	r3, .L42
 1435 039e 1A68     		ldr	r2, [r3]
 1436 03a0 7B8A     		ldrh	r3, [r7, #18]
 1437 03a2 591C     		adds	r1, r3, #1
 1438 03a4 7982     		strh	r1, [r7, #18]	@ movhi
 1439 03a6 1846     		mov	r0, r3
 1440 03a8 214B     		ldr	r3, .L42+12
 1441 03aa 5978     		ldrb	r1, [r3, #1]	@ zero_extendqisi2
 1442 03ac 1318     		adds	r3, r2, r0
 1443 03ae 0A46     		mov	r2, r1
 1444 03b0 83F8EC20 		strb	r2, [r3, #236]
 315:/home/virusv/TDSAST_IOT/Internet/DHCP/dhcp.c **** 		MSG->OPT[k++] = DHCP_SIP[2];
 1445              		.loc 1 315 0
 1446 03b4 1B4B     		ldr	r3, .L42
 1447 03b6 1A68     		ldr	r2, [r3]
 1448 03b8 7B8A     		ldrh	r3, [r7, #18]
 1449 03ba 591C     		adds	r1, r3, #1
 1450 03bc 7982     		strh	r1, [r7, #18]	@ movhi
 1451 03be 1846     		mov	r0, r3
 1452 03c0 1B4B     		ldr	r3, .L42+12
 1453 03c2 9978     		ldrb	r1, [r3, #2]	@ zero_extendqisi2
 1454 03c4 1318     		adds	r3, r2, r0
 1455 03c6 0A46     		mov	r2, r1
 1456 03c8 83F8EC20 		strb	r2, [r3, #236]
 316:/home/virusv/TDSAST_IOT/Internet/DHCP/dhcp.c **** 		MSG->OPT[k++] = DHCP_SIP[3];
 1457              		.loc 1 316 0
 1458 03cc 154B     		ldr	r3, .L42
 1459 03ce 1A68     		ldr	r2, [r3]
 1460 03d0 7B8A     		ldrh	r3, [r7, #18]
 1461 03d2 591C     		adds	r1, r3, #1
 1462 03d4 7982     		strh	r1, [r7, #18]	@ movhi
 1463 03d6 1846     		mov	r0, r3
 1464 03d8 154B     		ldr	r3, .L42+12
 1465 03da D978     		ldrb	r1, [r3, #3]	@ zero_extendqisi2
 1466 03dc 1318     		adds	r3, r2, r0
 1467 03de 0A46     		mov	r2, r1
 1468 03e0 83F8EC20 		strb	r2, [r3, #236]
 1469              	.L35:
 317:/home/virusv/TDSAST_IOT/Internet/DHCP/dhcp.c **** 	}
 318:/home/virusv/TDSAST_IOT/Internet/DHCP/dhcp.c **** 
 319:/home/virusv/TDSAST_IOT/Internet/DHCP/dhcp.c **** 	// host name
 320:/home/virusv/TDSAST_IOT/Internet/DHCP/dhcp.c **** 	MSG->OPT[k++] = hostName;
 1470              		.loc 1 320 0
 1471 03e4 0F4B     		ldr	r3, .L42
 1472 03e6 1A68     		ldr	r2, [r3]
 1473 03e8 7B8A     		ldrh	r3, [r7, #18]
 1474 03ea 591C     		adds	r1, r3, #1
 1475 03ec 7982     		strh	r1, [r7, #18]	@ movhi
 1476 03ee 1344     		add	r3, r3, r2
 1477 03f0 0C22     		movs	r2, #12
 1478 03f2 83F8EC20 		strb	r2, [r3, #236]
 321:/home/virusv/TDSAST_IOT/Internet/DHCP/dhcp.c **** 	MSG->OPT[k++] = 9; // length of hostname
 1479              		.loc 1 321 0
 1480 03f6 0B4B     		ldr	r3, .L42
 1481 03f8 1A68     		ldr	r2, [r3]
 1482 03fa 7B8A     		ldrh	r3, [r7, #18]
 1483 03fc 591C     		adds	r1, r3, #1
 1484 03fe 7982     		strh	r1, [r7, #18]	@ movhi
 1485 0400 1344     		add	r3, r3, r2
 1486 0402 0922     		movs	r2, #9
 1487 0404 83F8EC20 		strb	r2, [r3, #236]
 322:/home/virusv/TDSAST_IOT/Internet/DHCP/dhcp.c **** 	MSG->OPT[k++] = HOST_NAME[0];
 1488              		.loc 1 322 0
 1489 0408 064B     		ldr	r3, .L42
 1490 040a 1A68     		ldr	r2, [r3]
 1491 040c 7B8A     		ldrh	r3, [r7, #18]
 1492 040e 591C     		adds	r1, r3, #1
 1493 0410 7982     		strh	r1, [r7, #18]	@ movhi
 1494 0412 1846     		mov	r0, r3
 1495 0414 074B     		ldr	r3, .L42+16
 1496 0416 1978     		ldrb	r1, [r3]	@ zero_extendqisi2
 1497 0418 1318     		adds	r3, r2, r0
 1498 041a 0A46     		mov	r2, r1
 1499 041c 83F8EC20 		strb	r2, [r3, #236]
 1500 0420 0AE0     		b	.L43
 1501              	.L44:
 1502 0422 00BF     		.align	2
 1503              	.L42:
 1504 0424 00000000 		.word	MSG
 1505 0428 00000000 		.word	wizchip_mac
 1506 042c 00000000 		.word	DHCP_allocated_ip
 1507 0430 00000000 		.word	DHCP_SIP
 1508 0434 00000000 		.word	HOST_NAME
 1509              	.L43:
 323:/home/virusv/TDSAST_IOT/Internet/DHCP/dhcp.c **** 	MSG->OPT[k++] = HOST_NAME[1];
 1510              		.loc 1 323 0
 1511 0438 7C4B     		ldr	r3, .L45
 1512 043a 1A68     		ldr	r2, [r3]
 1513 043c 7B8A     		ldrh	r3, [r7, #18]
 1514 043e 591C     		adds	r1, r3, #1
 1515 0440 7982     		strh	r1, [r7, #18]	@ movhi
 1516 0442 1846     		mov	r0, r3
 1517 0444 7A4B     		ldr	r3, .L45+4
 1518 0446 5978     		ldrb	r1, [r3, #1]	@ zero_extendqisi2
 1519 0448 1318     		adds	r3, r2, r0
 1520 044a 0A46     		mov	r2, r1
 1521 044c 83F8EC20 		strb	r2, [r3, #236]
 324:/home/virusv/TDSAST_IOT/Internet/DHCP/dhcp.c **** 	MSG->OPT[k++] = HOST_NAME[2];
 1522              		.loc 1 324 0
 1523 0450 764B     		ldr	r3, .L45
 1524 0452 1A68     		ldr	r2, [r3]
 1525 0454 7B8A     		ldrh	r3, [r7, #18]
 1526 0456 591C     		adds	r1, r3, #1
 1527 0458 7982     		strh	r1, [r7, #18]	@ movhi
 1528 045a 1846     		mov	r0, r3
 1529 045c 744B     		ldr	r3, .L45+4
 1530 045e 9978     		ldrb	r1, [r3, #2]	@ zero_extendqisi2
 1531 0460 1318     		adds	r3, r2, r0
 1532 0462 0A46     		mov	r2, r1
 1533 0464 83F8EC20 		strb	r2, [r3, #236]
 325:/home/virusv/TDSAST_IOT/Internet/DHCP/dhcp.c **** 	MSG->OPT[k++] = HOST_NAME[3];
 1534              		.loc 1 325 0
 1535 0468 704B     		ldr	r3, .L45
 1536 046a 1A68     		ldr	r2, [r3]
 1537 046c 7B8A     		ldrh	r3, [r7, #18]
 1538 046e 591C     		adds	r1, r3, #1
 1539 0470 7982     		strh	r1, [r7, #18]	@ movhi
 1540 0472 1846     		mov	r0, r3
 1541 0474 6E4B     		ldr	r3, .L45+4
 1542 0476 D978     		ldrb	r1, [r3, #3]	@ zero_extendqisi2
 1543 0478 1318     		adds	r3, r2, r0
 1544 047a 0A46     		mov	r2, r1
 1545 047c 83F8EC20 		strb	r2, [r3, #236]
 326:/home/virusv/TDSAST_IOT/Internet/DHCP/dhcp.c **** 	MSG->OPT[k++] = HOST_NAME[4];
 1546              		.loc 1 326 0
 1547 0480 6A4B     		ldr	r3, .L45
 1548 0482 1A68     		ldr	r2, [r3]
 1549 0484 7B8A     		ldrh	r3, [r7, #18]
 1550 0486 591C     		adds	r1, r3, #1
 1551 0488 7982     		strh	r1, [r7, #18]	@ movhi
 1552 048a 1846     		mov	r0, r3
 1553 048c 684B     		ldr	r3, .L45+4
 1554 048e 1979     		ldrb	r1, [r3, #4]	@ zero_extendqisi2
 1555 0490 1318     		adds	r3, r2, r0
 1556 0492 0A46     		mov	r2, r1
 1557 0494 83F8EC20 		strb	r2, [r3, #236]
 327:/home/virusv/TDSAST_IOT/Internet/DHCP/dhcp.c **** 	MSG->OPT[k++] = HOST_NAME[5];
 1558              		.loc 1 327 0
 1559 0498 644B     		ldr	r3, .L45
 1560 049a 1A68     		ldr	r2, [r3]
 1561 049c 7B8A     		ldrh	r3, [r7, #18]
 1562 049e 591C     		adds	r1, r3, #1
 1563 04a0 7982     		strh	r1, [r7, #18]	@ movhi
 1564 04a2 1846     		mov	r0, r3
 1565 04a4 624B     		ldr	r3, .L45+4
 1566 04a6 5979     		ldrb	r1, [r3, #5]	@ zero_extendqisi2
 1567 04a8 1318     		adds	r3, r2, r0
 1568 04aa 0A46     		mov	r2, r1
 1569 04ac 83F8EC20 		strb	r2, [r3, #236]
 328:/home/virusv/TDSAST_IOT/Internet/DHCP/dhcp.c **** 	MSG->OPT[k++] = wizchip_mac[3];
 1570              		.loc 1 328 0
 1571 04b0 5E4B     		ldr	r3, .L45
 1572 04b2 1A68     		ldr	r2, [r3]
 1573 04b4 7B8A     		ldrh	r3, [r7, #18]
 1574 04b6 591C     		adds	r1, r3, #1
 1575 04b8 7982     		strh	r1, [r7, #18]	@ movhi
 1576 04ba 1846     		mov	r0, r3
 1577 04bc 5D4B     		ldr	r3, .L45+8
 1578 04be D978     		ldrb	r1, [r3, #3]	@ zero_extendqisi2
 1579 04c0 1318     		adds	r3, r2, r0
 1580 04c2 0A46     		mov	r2, r1
 1581 04c4 83F8EC20 		strb	r2, [r3, #236]
 329:/home/virusv/TDSAST_IOT/Internet/DHCP/dhcp.c **** 	MSG->OPT[k++] = wizchip_mac[4];
 1582              		.loc 1 329 0
 1583 04c8 584B     		ldr	r3, .L45
 1584 04ca 1A68     		ldr	r2, [r3]
 1585 04cc 7B8A     		ldrh	r3, [r7, #18]
 1586 04ce 591C     		adds	r1, r3, #1
 1587 04d0 7982     		strh	r1, [r7, #18]	@ movhi
 1588 04d2 1846     		mov	r0, r3
 1589 04d4 574B     		ldr	r3, .L45+8
 1590 04d6 1979     		ldrb	r1, [r3, #4]	@ zero_extendqisi2
 1591 04d8 1318     		adds	r3, r2, r0
 1592 04da 0A46     		mov	r2, r1
 1593 04dc 83F8EC20 		strb	r2, [r3, #236]
 330:/home/virusv/TDSAST_IOT/Internet/DHCP/dhcp.c **** 	MSG->OPT[k++] = wizchip_mac[5];
 1594              		.loc 1 330 0
 1595 04e0 524B     		ldr	r3, .L45
 1596 04e2 1A68     		ldr	r2, [r3]
 1597 04e4 7B8A     		ldrh	r3, [r7, #18]
 1598 04e6 591C     		adds	r1, r3, #1
 1599 04e8 7982     		strh	r1, [r7, #18]	@ movhi
 1600 04ea 1846     		mov	r0, r3
 1601 04ec 514B     		ldr	r3, .L45+8
 1602 04ee 5979     		ldrb	r1, [r3, #5]	@ zero_extendqisi2
 1603 04f0 1318     		adds	r3, r2, r0
 1604 04f2 0A46     		mov	r2, r1
 1605 04f4 83F8EC20 		strb	r2, [r3, #236]
 331:/home/virusv/TDSAST_IOT/Internet/DHCP/dhcp.c **** 	
 332:/home/virusv/TDSAST_IOT/Internet/DHCP/dhcp.c **** 	MSG->OPT[k++] = dhcpParamRequest;
 1606              		.loc 1 332 0
 1607 04f8 4C4B     		ldr	r3, .L45
 1608 04fa 1A68     		ldr	r2, [r3]
 1609 04fc 7B8A     		ldrh	r3, [r7, #18]
 1610 04fe 591C     		adds	r1, r3, #1
 1611 0500 7982     		strh	r1, [r7, #18]	@ movhi
 1612 0502 1344     		add	r3, r3, r2
 1613 0504 3722     		movs	r2, #55
 1614 0506 83F8EC20 		strb	r2, [r3, #236]
 333:/home/virusv/TDSAST_IOT/Internet/DHCP/dhcp.c **** 	MSG->OPT[k++] = 0x08;
 1615              		.loc 1 333 0
 1616 050a 484B     		ldr	r3, .L45
 1617 050c 1A68     		ldr	r2, [r3]
 1618 050e 7B8A     		ldrh	r3, [r7, #18]
 1619 0510 591C     		adds	r1, r3, #1
 1620 0512 7982     		strh	r1, [r7, #18]	@ movhi
 1621 0514 1344     		add	r3, r3, r2
 1622 0516 0822     		movs	r2, #8
 1623 0518 83F8EC20 		strb	r2, [r3, #236]
 334:/home/virusv/TDSAST_IOT/Internet/DHCP/dhcp.c **** 	MSG->OPT[k++] = subnetMask;
 1624              		.loc 1 334 0
 1625 051c 434B     		ldr	r3, .L45
 1626 051e 1A68     		ldr	r2, [r3]
 1627 0520 7B8A     		ldrh	r3, [r7, #18]
 1628 0522 591C     		adds	r1, r3, #1
 1629 0524 7982     		strh	r1, [r7, #18]	@ movhi
 1630 0526 1344     		add	r3, r3, r2
 1631 0528 0122     		movs	r2, #1
 1632 052a 83F8EC20 		strb	r2, [r3, #236]
 335:/home/virusv/TDSAST_IOT/Internet/DHCP/dhcp.c **** 	MSG->OPT[k++] = routersOnSubnet;
 1633              		.loc 1 335 0
 1634 052e 3F4B     		ldr	r3, .L45
 1635 0530 1A68     		ldr	r2, [r3]
 1636 0532 7B8A     		ldrh	r3, [r7, #18]
 1637 0534 591C     		adds	r1, r3, #1
 1638 0536 7982     		strh	r1, [r7, #18]	@ movhi
 1639 0538 1344     		add	r3, r3, r2
 1640 053a 0322     		movs	r2, #3
 1641 053c 83F8EC20 		strb	r2, [r3, #236]
 336:/home/virusv/TDSAST_IOT/Internet/DHCP/dhcp.c **** 	MSG->OPT[k++] = dns;
 1642              		.loc 1 336 0
 1643 0540 3A4B     		ldr	r3, .L45
 1644 0542 1A68     		ldr	r2, [r3]
 1645 0544 7B8A     		ldrh	r3, [r7, #18]
 1646 0546 591C     		adds	r1, r3, #1
 1647 0548 7982     		strh	r1, [r7, #18]	@ movhi
 1648 054a 1344     		add	r3, r3, r2
 1649 054c 0622     		movs	r2, #6
 1650 054e 83F8EC20 		strb	r2, [r3, #236]
 337:/home/virusv/TDSAST_IOT/Internet/DHCP/dhcp.c **** 	MSG->OPT[k++] = domainName;
 1651              		.loc 1 337 0
 1652 0552 364B     		ldr	r3, .L45
 1653 0554 1A68     		ldr	r2, [r3]
 1654 0556 7B8A     		ldrh	r3, [r7, #18]
 1655 0558 591C     		adds	r1, r3, #1
 1656 055a 7982     		strh	r1, [r7, #18]	@ movhi
 1657 055c 1344     		add	r3, r3, r2
 1658 055e 0F22     		movs	r2, #15
 1659 0560 83F8EC20 		strb	r2, [r3, #236]
 338:/home/virusv/TDSAST_IOT/Internet/DHCP/dhcp.c **** 	MSG->OPT[k++] = dhcpT1value;
 1660              		.loc 1 338 0
 1661 0564 314B     		ldr	r3, .L45
 1662 0566 1A68     		ldr	r2, [r3]
 1663 0568 7B8A     		ldrh	r3, [r7, #18]
 1664 056a 591C     		adds	r1, r3, #1
 1665 056c 7982     		strh	r1, [r7, #18]	@ movhi
 1666 056e 1344     		add	r3, r3, r2
 1667 0570 3A22     		movs	r2, #58
 1668 0572 83F8EC20 		strb	r2, [r3, #236]
 339:/home/virusv/TDSAST_IOT/Internet/DHCP/dhcp.c **** 	MSG->OPT[k++] = dhcpT2value;
 1669              		.loc 1 339 0
 1670 0576 2D4B     		ldr	r3, .L45
 1671 0578 1A68     		ldr	r2, [r3]
 1672 057a 7B8A     		ldrh	r3, [r7, #18]
 1673 057c 591C     		adds	r1, r3, #1
 1674 057e 7982     		strh	r1, [r7, #18]	@ movhi
 1675 0580 1344     		add	r3, r3, r2
 1676 0582 3B22     		movs	r2, #59
 1677 0584 83F8EC20 		strb	r2, [r3, #236]
 340:/home/virusv/TDSAST_IOT/Internet/DHCP/dhcp.c **** 	MSG->OPT[k++] = performRouterDiscovery;
 1678              		.loc 1 340 0
 1679 0588 284B     		ldr	r3, .L45
 1680 058a 1A68     		ldr	r2, [r3]
 1681 058c 7B8A     		ldrh	r3, [r7, #18]
 1682 058e 591C     		adds	r1, r3, #1
 1683 0590 7982     		strh	r1, [r7, #18]	@ movhi
 1684 0592 1344     		add	r3, r3, r2
 1685 0594 1F22     		movs	r2, #31
 1686 0596 83F8EC20 		strb	r2, [r3, #236]
 341:/home/virusv/TDSAST_IOT/Internet/DHCP/dhcp.c **** 	MSG->OPT[k++] = staticRoute;
 1687              		.loc 1 341 0
 1688 059a 244B     		ldr	r3, .L45
 1689 059c 1A68     		ldr	r2, [r3]
 1690 059e 7B8A     		ldrh	r3, [r7, #18]
 1691 05a0 591C     		adds	r1, r3, #1
 1692 05a2 7982     		strh	r1, [r7, #18]	@ movhi
 1693 05a4 1344     		add	r3, r3, r2
 1694 05a6 2122     		movs	r2, #33
 1695 05a8 83F8EC20 		strb	r2, [r3, #236]
 342:/home/virusv/TDSAST_IOT/Internet/DHCP/dhcp.c **** 	MSG->OPT[k++] = endOption;
 1696              		.loc 1 342 0
 1697 05ac 1F4B     		ldr	r3, .L45
 1698 05ae 1A68     		ldr	r2, [r3]
 1699 05b0 7B8A     		ldrh	r3, [r7, #18]
 1700 05b2 591C     		adds	r1, r3, #1
 1701 05b4 7982     		strh	r1, [r7, #18]	@ movhi
 1702 05b6 1344     		add	r3, r3, r2
 1703 05b8 FF22     		movs	r2, #255
 1704 05ba 83F8EC20 		strb	r2, [r3, #236]
 343:/home/virusv/TDSAST_IOT/Internet/DHCP/dhcp.c **** 
 344:/home/virusv/TDSAST_IOT/Internet/DHCP/dhcp.c **** 	for (i = k; i < OPT_SIZE; i++) MSG->OPT[i] = 0;
 1705              		.loc 1 344 0
 1706 05be 7B8A     		ldrh	r3, [r7, #18]
 1707 05c0 7B61     		str	r3, [r7, #20]
 1708 05c2 09E0     		b	.L36
 1709              	.L37:
 1710              		.loc 1 344 0 is_stmt 0 discriminator 3
 1711 05c4 194B     		ldr	r3, .L45
 1712 05c6 1A68     		ldr	r2, [r3]
 1713 05c8 7B69     		ldr	r3, [r7, #20]
 1714 05ca 1344     		add	r3, r3, r2
 1715 05cc E833     		adds	r3, r3, #232
 1716 05ce 0022     		movs	r2, #0
 1717 05d0 1A71     		strb	r2, [r3, #4]
 1718 05d2 7B69     		ldr	r3, [r7, #20]
 1719 05d4 0133     		adds	r3, r3, #1
 1720 05d6 7B61     		str	r3, [r7, #20]
 1721              	.L36:
 1722              		.loc 1 344 0 discriminator 1
 1723 05d8 7B69     		ldr	r3, [r7, #20]
 1724 05da B3F59C7F 		cmp	r3, #312
 1725 05de F1DB     		blt	.L37
 345:/home/virusv/TDSAST_IOT/Internet/DHCP/dhcp.c **** 
 346:/home/virusv/TDSAST_IOT/Internet/DHCP/dhcp.c **** 	// send broadcasting packet
 347:/home/virusv/TDSAST_IOT/Internet/DHCP/dhcp.c **** 	for (i = 0; i < 4; i++) ip[i] = d_addr[i];
 1726              		.loc 1 347 0 is_stmt 1
 1727 05e0 0023     		movs	r3, #0
 1728 05e2 7B61     		str	r3, [r7, #20]
 1729 05e4 0CE0     		b	.L38
 1730              	.L39:
 1731              		.loc 1 347 0 is_stmt 0 discriminator 3
 1732 05e6 7B69     		ldr	r3, [r7, #20]
 1733 05e8 3A68     		ldr	r2, [r7]
 1734 05ea 1344     		add	r3, r3, r2
 1735 05ec 1978     		ldrb	r1, [r3]	@ zero_extendqisi2
 1736 05ee 07F10C02 		add	r2, r7, #12
 1737 05f2 7B69     		ldr	r3, [r7, #20]
 1738 05f4 1344     		add	r3, r3, r2
 1739 05f6 0A46     		mov	r2, r1
 1740 05f8 1A70     		strb	r2, [r3]
 1741 05fa 7B69     		ldr	r3, [r7, #20]
 1742 05fc 0133     		adds	r3, r3, #1
 1743 05fe 7B61     		str	r3, [r7, #20]
 1744              	.L38:
 1745              		.loc 1 347 0 discriminator 1
 1746 0600 7B69     		ldr	r3, [r7, #20]
 1747 0602 032B     		cmp	r3, #3
 1748 0604 EFDD     		ble	.L39
 348:/home/virusv/TDSAST_IOT/Internet/DHCP/dhcp.c **** 
 349:/home/virusv/TDSAST_IOT/Internet/DHCP/dhcp.c **** #ifdef _DHCP_DEBUG_
 350:/home/virusv/TDSAST_IOT/Internet/DHCP/dhcp.c **** 	printf("> Send DHCP_REQUEST\r\n");
 351:/home/virusv/TDSAST_IOT/Internet/DHCP/dhcp.c **** #endif
 352:/home/virusv/TDSAST_IOT/Internet/DHCP/dhcp.c **** 	
 353:/home/virusv/TDSAST_IOT/Internet/DHCP/dhcp.c **** 	sendto(DHCP_SOCKET, (uint8_t *)MSG, RIP_MSG_SIZE, ip, DHCP_SERVER_PORT);
 1749              		.loc 1 353 0 is_stmt 1
 1750 0606 0C4B     		ldr	r3, .L45+12
 1751 0608 1978     		ldrb	r1, [r3]	@ zero_extendqisi2
 1752 060a 084B     		ldr	r3, .L45
 1753 060c 1A68     		ldr	r2, [r3]
 1754 060e 07F10C04 		add	r4, r7, #12
 1755 0612 4323     		movs	r3, #67
 1756 0614 0093     		str	r3, [sp]
 1757 0616 0846     		mov	r0, r1
 1758 0618 1146     		mov	r1, r2
 1759 061a 4FF40972 		mov	r2, #548
 1760 061e 2346     		mov	r3, r4
 1761 0620 FFF7FEFF 		bl	sendto
 354:/home/virusv/TDSAST_IOT/Internet/DHCP/dhcp.c **** 
 355:/home/virusv/TDSAST_IOT/Internet/DHCP/dhcp.c **** }
 1762              		.loc 1 355 0
 1763 0624 1C37     		adds	r7, r7, #28
 1764              		.cfi_def_cfa_offset 12
 1765 0626 BD46     		mov	sp, r7
 1766              		.cfi_def_cfa_register 13
 1767              		@ sp needed
 1768 0628 90BD     		pop	{r4, r7, pc}
 1769              	.L46:
 1770 062a 00BF     		.align	2
 1771              	.L45:
 1772 062c 00000000 		.word	MSG
 1773 0630 00000000 		.word	HOST_NAME
 1774 0634 00000000 		.word	wizchip_mac
 1775 0638 00000000 		.word	DHCP_SOCKET
 1776              		.cfi_endproc
 1777              	.LFE4:
 1779              		.section	.text.send_DHCP_DECLINE,"ax",%progbits
 1780              		.align	2
 1781              		.global	send_DHCP_DECLINE
 1782              		.thumb
 1783              		.thumb_func
 1785              	send_DHCP_DECLINE:
 1786              	.LFB5:
 356:/home/virusv/TDSAST_IOT/Internet/DHCP/dhcp.c **** 
 357:/home/virusv/TDSAST_IOT/Internet/DHCP/dhcp.c **** /*
 358:/home/virusv/TDSAST_IOT/Internet/DHCP/dhcp.c **** ***************************************************************************************************
 359:/home/virusv/TDSAST_IOT/Internet/DHCP/dhcp.c **** *              SEND DHCP DHCPDECLINE
 360:/home/virusv/TDSAST_IOT/Internet/DHCP/dhcp.c **** *
 361:/home/virusv/TDSAST_IOT/Internet/DHCP/dhcp.c **** * Description: This function sends DHCP RELEASE message to DHCP server.
 362:/home/virusv/TDSAST_IOT/Internet/DHCP/dhcp.c **** * Arguments  : s - is a socket number.
 363:/home/virusv/TDSAST_IOT/Internet/DHCP/dhcp.c **** * Returns    : None.
 364:/home/virusv/TDSAST_IOT/Internet/DHCP/dhcp.c **** * Note       : 
 365:/home/virusv/TDSAST_IOT/Internet/DHCP/dhcp.c **** ***************************************************************************************************
 366:/home/virusv/TDSAST_IOT/Internet/DHCP/dhcp.c **** */
 367:/home/virusv/TDSAST_IOT/Internet/DHCP/dhcp.c **** void send_DHCP_DECLINE(void)
 368:/home/virusv/TDSAST_IOT/Internet/DHCP/dhcp.c **** {
 1787              		.loc 1 368 0
 1788              		.cfi_startproc
 1789              		@ args = 0, pretend = 0, frame = 16
 1790              		@ frame_needed = 1, uses_anonymous_args = 0
 1791 0000 90B5     		push	{r4, r7, lr}
 1792              		.cfi_def_cfa_offset 12
 1793              		.cfi_offset 4, -12
 1794              		.cfi_offset 7, -8
 1795              		.cfi_offset 14, -4
 1796 0002 87B0     		sub	sp, sp, #28
 1797              		.cfi_def_cfa_offset 40
 1798 0004 02AF     		add	r7, sp, #8
 1799              		.cfi_def_cfa 7, 32
 369:/home/virusv/TDSAST_IOT/Internet/DHCP/dhcp.c **** 	int i;
 370:/home/virusv/TDSAST_IOT/Internet/DHCP/dhcp.c **** 	uint8_t ip[4];
 371:/home/virusv/TDSAST_IOT/Internet/DHCP/dhcp.c **** 	uint16_t k = 0;
 1800              		.loc 1 371 0
 1801 0006 0023     		movs	r3, #0
 1802 0008 7B81     		strh	r3, [r7, #10]	@ movhi
 372:/home/virusv/TDSAST_IOT/Internet/DHCP/dhcp.c **** 
 373:/home/virusv/TDSAST_IOT/Internet/DHCP/dhcp.c **** 	MSG->op = DHCP_BOOTREQUEST;
 1803              		.loc 1 373 0
 1804 000a 504B     		ldr	r3, .L56
 1805 000c 1B68     		ldr	r3, [r3]
 1806 000e 0122     		movs	r2, #1
 1807 0010 1A70     		strb	r2, [r3]
 374:/home/virusv/TDSAST_IOT/Internet/DHCP/dhcp.c **** 	MSG->htype = DHCP_HTYPE10MB;
 1808              		.loc 1 374 0
 1809 0012 4E4B     		ldr	r3, .L56
 1810 0014 1B68     		ldr	r3, [r3]
 1811 0016 0122     		movs	r2, #1
 1812 0018 5A70     		strb	r2, [r3, #1]
 375:/home/virusv/TDSAST_IOT/Internet/DHCP/dhcp.c **** 	MSG->hlen = DHCP_HLENETHERNET;
 1813              		.loc 1 375 0
 1814 001a 4C4B     		ldr	r3, .L56
 1815 001c 1B68     		ldr	r3, [r3]
 1816 001e 0622     		movs	r2, #6
 1817 0020 9A70     		strb	r2, [r3, #2]
 376:/home/virusv/TDSAST_IOT/Internet/DHCP/dhcp.c **** 	MSG->hops = DHCP_HOPS;
 1818              		.loc 1 376 0
 1819 0022 4A4B     		ldr	r3, .L56
 1820 0024 1B68     		ldr	r3, [r3]
 1821 0026 0022     		movs	r2, #0
 1822 0028 DA70     		strb	r2, [r3, #3]
 377:/home/virusv/TDSAST_IOT/Internet/DHCP/dhcp.c **** 	MSG->xid = DHCP_XID;
 1823              		.loc 1 377 0
 1824 002a 484B     		ldr	r3, .L56
 1825 002c 1B68     		ldr	r3, [r3]
 1826 002e 484A     		ldr	r2, .L56+4
 1827 0030 1268     		ldr	r2, [r2]
 1828 0032 5A60     		str	r2, [r3, #4]
 378:/home/virusv/TDSAST_IOT/Internet/DHCP/dhcp.c **** 	MSG->secs = DHCP_SECS;
 1829              		.loc 1 378 0
 1830 0034 454B     		ldr	r3, .L56
 1831 0036 1B68     		ldr	r3, [r3]
 1832 0038 0022     		movs	r2, #0
 1833 003a 1A81     		strh	r2, [r3, #8]	@ movhi
 379:/home/virusv/TDSAST_IOT/Internet/DHCP/dhcp.c **** 	MSG->flags = 0;
 1834              		.loc 1 379 0
 1835 003c 434B     		ldr	r3, .L56
 1836 003e 1B68     		ldr	r3, [r3]
 1837 0040 0022     		movs	r2, #0
 1838 0042 5A81     		strh	r2, [r3, #10]	@ movhi
 380:/home/virusv/TDSAST_IOT/Internet/DHCP/dhcp.c **** 
 381:/home/virusv/TDSAST_IOT/Internet/DHCP/dhcp.c **** 	MSG->ciaddr[0] = 0;
 1839              		.loc 1 381 0
 1840 0044 414B     		ldr	r3, .L56
 1841 0046 1B68     		ldr	r3, [r3]
 1842 0048 0022     		movs	r2, #0
 1843 004a 1A73     		strb	r2, [r3, #12]
 382:/home/virusv/TDSAST_IOT/Internet/DHCP/dhcp.c **** 	MSG->ciaddr[1] = 0;
 1844              		.loc 1 382 0
 1845 004c 3F4B     		ldr	r3, .L56
 1846 004e 1B68     		ldr	r3, [r3]
 1847 0050 0022     		movs	r2, #0
 1848 0052 5A73     		strb	r2, [r3, #13]
 383:/home/virusv/TDSAST_IOT/Internet/DHCP/dhcp.c **** 	MSG->ciaddr[2] = 0;
 1849              		.loc 1 383 0
 1850 0054 3D4B     		ldr	r3, .L56
 1851 0056 1B68     		ldr	r3, [r3]
 1852 0058 0022     		movs	r2, #0
 1853 005a 9A73     		strb	r2, [r3, #14]
 384:/home/virusv/TDSAST_IOT/Internet/DHCP/dhcp.c **** 	MSG->ciaddr[3] = 0;
 1854              		.loc 1 384 0
 1855 005c 3B4B     		ldr	r3, .L56
 1856 005e 1B68     		ldr	r3, [r3]
 1857 0060 0022     		movs	r2, #0
 1858 0062 DA73     		strb	r2, [r3, #15]
 385:/home/virusv/TDSAST_IOT/Internet/DHCP/dhcp.c **** 
 386:/home/virusv/TDSAST_IOT/Internet/DHCP/dhcp.c **** 	MSG->yiaddr[0] = 0;
 1859              		.loc 1 386 0
 1860 0064 394B     		ldr	r3, .L56
 1861 0066 1B68     		ldr	r3, [r3]
 1862 0068 0022     		movs	r2, #0
 1863 006a 1A74     		strb	r2, [r3, #16]
 387:/home/virusv/TDSAST_IOT/Internet/DHCP/dhcp.c **** 	MSG->yiaddr[1] = 0;
 1864              		.loc 1 387 0
 1865 006c 374B     		ldr	r3, .L56
 1866 006e 1B68     		ldr	r3, [r3]
 1867 0070 0022     		movs	r2, #0
 1868 0072 5A74     		strb	r2, [r3, #17]
 388:/home/virusv/TDSAST_IOT/Internet/DHCP/dhcp.c **** 	MSG->yiaddr[2] = 0;
 1869              		.loc 1 388 0
 1870 0074 354B     		ldr	r3, .L56
 1871 0076 1B68     		ldr	r3, [r3]
 1872 0078 0022     		movs	r2, #0
 1873 007a 9A74     		strb	r2, [r3, #18]
 389:/home/virusv/TDSAST_IOT/Internet/DHCP/dhcp.c **** 	MSG->yiaddr[3] = 0;
 1874              		.loc 1 389 0
 1875 007c 334B     		ldr	r3, .L56
 1876 007e 1B68     		ldr	r3, [r3]
 1877 0080 0022     		movs	r2, #0
 1878 0082 DA74     		strb	r2, [r3, #19]
 390:/home/virusv/TDSAST_IOT/Internet/DHCP/dhcp.c **** 
 391:/home/virusv/TDSAST_IOT/Internet/DHCP/dhcp.c **** 	MSG->siaddr[0] = 0;
 1879              		.loc 1 391 0
 1880 0084 314B     		ldr	r3, .L56
 1881 0086 1B68     		ldr	r3, [r3]
 1882 0088 0022     		movs	r2, #0
 1883 008a 1A75     		strb	r2, [r3, #20]
 392:/home/virusv/TDSAST_IOT/Internet/DHCP/dhcp.c **** 	MSG->siaddr[1] = 0;
 1884              		.loc 1 392 0
 1885 008c 2F4B     		ldr	r3, .L56
 1886 008e 1B68     		ldr	r3, [r3]
 1887 0090 0022     		movs	r2, #0
 1888 0092 5A75     		strb	r2, [r3, #21]
 393:/home/virusv/TDSAST_IOT/Internet/DHCP/dhcp.c **** 	MSG->siaddr[2] = 0;
 1889              		.loc 1 393 0
 1890 0094 2D4B     		ldr	r3, .L56
 1891 0096 1B68     		ldr	r3, [r3]
 1892 0098 0022     		movs	r2, #0
 1893 009a 9A75     		strb	r2, [r3, #22]
 394:/home/virusv/TDSAST_IOT/Internet/DHCP/dhcp.c **** 	MSG->siaddr[3] = 0;
 1894              		.loc 1 394 0
 1895 009c 2B4B     		ldr	r3, .L56
 1896 009e 1B68     		ldr	r3, [r3]
 1897 00a0 0022     		movs	r2, #0
 1898 00a2 DA75     		strb	r2, [r3, #23]
 395:/home/virusv/TDSAST_IOT/Internet/DHCP/dhcp.c **** 
 396:/home/virusv/TDSAST_IOT/Internet/DHCP/dhcp.c **** 	MSG->giaddr[0] = 0;
 1899              		.loc 1 396 0
 1900 00a4 294B     		ldr	r3, .L56
 1901 00a6 1B68     		ldr	r3, [r3]
 1902 00a8 0022     		movs	r2, #0
 1903 00aa 1A76     		strb	r2, [r3, #24]
 397:/home/virusv/TDSAST_IOT/Internet/DHCP/dhcp.c **** 	MSG->giaddr[1] = 0;
 1904              		.loc 1 397 0
 1905 00ac 274B     		ldr	r3, .L56
 1906 00ae 1B68     		ldr	r3, [r3]
 1907 00b0 0022     		movs	r2, #0
 1908 00b2 5A76     		strb	r2, [r3, #25]
 398:/home/virusv/TDSAST_IOT/Internet/DHCP/dhcp.c **** 	MSG->giaddr[2] = 0;
 1909              		.loc 1 398 0
 1910 00b4 254B     		ldr	r3, .L56
 1911 00b6 1B68     		ldr	r3, [r3]
 1912 00b8 0022     		movs	r2, #0
 1913 00ba 9A76     		strb	r2, [r3, #26]
 399:/home/virusv/TDSAST_IOT/Internet/DHCP/dhcp.c **** 	MSG->giaddr[3] = 0;
 1914              		.loc 1 399 0
 1915 00bc 234B     		ldr	r3, .L56
 1916 00be 1B68     		ldr	r3, [r3]
 1917 00c0 0022     		movs	r2, #0
 1918 00c2 DA76     		strb	r2, [r3, #27]
 400:/home/virusv/TDSAST_IOT/Internet/DHCP/dhcp.c **** 
 401:/home/virusv/TDSAST_IOT/Internet/DHCP/dhcp.c **** 	MSG->chaddr[0] = wizchip_mac[0];
 1919              		.loc 1 401 0
 1920 00c4 214B     		ldr	r3, .L56
 1921 00c6 1B68     		ldr	r3, [r3]
 1922 00c8 224A     		ldr	r2, .L56+8
 1923 00ca 1278     		ldrb	r2, [r2]	@ zero_extendqisi2
 1924 00cc 1A77     		strb	r2, [r3, #28]
 402:/home/virusv/TDSAST_IOT/Internet/DHCP/dhcp.c **** 	MSG->chaddr[1] = wizchip_mac[1];
 1925              		.loc 1 402 0
 1926 00ce 1F4B     		ldr	r3, .L56
 1927 00d0 1B68     		ldr	r3, [r3]
 1928 00d2 204A     		ldr	r2, .L56+8
 1929 00d4 5278     		ldrb	r2, [r2, #1]	@ zero_extendqisi2
 1930 00d6 5A77     		strb	r2, [r3, #29]
 403:/home/virusv/TDSAST_IOT/Internet/DHCP/dhcp.c **** 	MSG->chaddr[2] = wizchip_mac[2];
 1931              		.loc 1 403 0
 1932 00d8 1C4B     		ldr	r3, .L56
 1933 00da 1B68     		ldr	r3, [r3]
 1934 00dc 1D4A     		ldr	r2, .L56+8
 1935 00de 9278     		ldrb	r2, [r2, #2]	@ zero_extendqisi2
 1936 00e0 9A77     		strb	r2, [r3, #30]
 404:/home/virusv/TDSAST_IOT/Internet/DHCP/dhcp.c **** 	MSG->chaddr[3] = wizchip_mac[3];
 1937              		.loc 1 404 0
 1938 00e2 1A4B     		ldr	r3, .L56
 1939 00e4 1B68     		ldr	r3, [r3]
 1940 00e6 1B4A     		ldr	r2, .L56+8
 1941 00e8 D278     		ldrb	r2, [r2, #3]	@ zero_extendqisi2
 1942 00ea DA77     		strb	r2, [r3, #31]
 405:/home/virusv/TDSAST_IOT/Internet/DHCP/dhcp.c **** 	MSG->chaddr[4] = wizchip_mac[4];
 1943              		.loc 1 405 0
 1944 00ec 174B     		ldr	r3, .L56
 1945 00ee 1B68     		ldr	r3, [r3]
 1946 00f0 184A     		ldr	r2, .L56+8
 1947 00f2 1279     		ldrb	r2, [r2, #4]	@ zero_extendqisi2
 1948 00f4 83F82020 		strb	r2, [r3, #32]
 406:/home/virusv/TDSAST_IOT/Internet/DHCP/dhcp.c **** 	MSG->chaddr[5] = wizchip_mac[5];
 1949              		.loc 1 406 0
 1950 00f8 144B     		ldr	r3, .L56
 1951 00fa 1B68     		ldr	r3, [r3]
 1952 00fc 154A     		ldr	r2, .L56+8
 1953 00fe 5279     		ldrb	r2, [r2, #5]	@ zero_extendqisi2
 1954 0100 83F82120 		strb	r2, [r3, #33]
 407:/home/virusv/TDSAST_IOT/Internet/DHCP/dhcp.c **** 
 408:/home/virusv/TDSAST_IOT/Internet/DHCP/dhcp.c **** 	for (i = 6; i < 16; i++) MSG->chaddr[i] = 0;
 1955              		.loc 1 408 0
 1956 0104 0623     		movs	r3, #6
 1957 0106 FB60     		str	r3, [r7, #12]
 1958 0108 09E0     		b	.L48
 1959              	.L49:
 1960              		.loc 1 408 0 is_stmt 0 discriminator 3
 1961 010a 104B     		ldr	r3, .L56
 1962 010c 1A68     		ldr	r2, [r3]
 1963 010e FB68     		ldr	r3, [r7, #12]
 1964 0110 1344     		add	r3, r3, r2
 1965 0112 1833     		adds	r3, r3, #24
 1966 0114 0022     		movs	r2, #0
 1967 0116 1A71     		strb	r2, [r3, #4]
 1968 0118 FB68     		ldr	r3, [r7, #12]
 1969 011a 0133     		adds	r3, r3, #1
 1970 011c FB60     		str	r3, [r7, #12]
 1971              	.L48:
 1972              		.loc 1 408 0 discriminator 1
 1973 011e FB68     		ldr	r3, [r7, #12]
 1974 0120 0F2B     		cmp	r3, #15
 1975 0122 F2DD     		ble	.L49
 409:/home/virusv/TDSAST_IOT/Internet/DHCP/dhcp.c **** 	for (i = 0; i < 64; i++) MSG->sname[i] = 0;
 1976              		.loc 1 409 0 is_stmt 1
 1977 0124 0023     		movs	r3, #0
 1978 0126 FB60     		str	r3, [r7, #12]
 1979 0128 09E0     		b	.L50
 1980              	.L51:
 1981              		.loc 1 409 0 is_stmt 0 discriminator 3
 1982 012a 084B     		ldr	r3, .L56
 1983 012c 1A68     		ldr	r2, [r3]
 1984 012e FB68     		ldr	r3, [r7, #12]
 1985 0130 1344     		add	r3, r3, r2
 1986 0132 2833     		adds	r3, r3, #40
 1987 0134 0022     		movs	r2, #0
 1988 0136 1A71     		strb	r2, [r3, #4]
 1989 0138 FB68     		ldr	r3, [r7, #12]
 1990 013a 0133     		adds	r3, r3, #1
 1991 013c FB60     		str	r3, [r7, #12]
 1992              	.L50:
 1993              		.loc 1 409 0 discriminator 1
 1994 013e FB68     		ldr	r3, [r7, #12]
 1995 0140 3F2B     		cmp	r3, #63
 1996 0142 F2DD     		ble	.L51
 410:/home/virusv/TDSAST_IOT/Internet/DHCP/dhcp.c **** 	for (i = 0; i < 128; i++) MSG->file[i] = 0;
 1997              		.loc 1 410 0 is_stmt 1
 1998 0144 0023     		movs	r3, #0
 1999 0146 FB60     		str	r3, [r7, #12]
 2000 0148 10E0     		b	.L52
 2001              	.L57:
 2002 014a 00BF     		.align	2
 2003              	.L56:
 2004 014c 00000000 		.word	MSG
 2005 0150 00000000 		.word	DHCP_XID
 2006 0154 00000000 		.word	wizchip_mac
 2007              	.L53:
 2008              		.loc 1 410 0 is_stmt 0 discriminator 3
 2009 0158 9F4B     		ldr	r3, .L58
 2010 015a 1A68     		ldr	r2, [r3]
 2011 015c FB68     		ldr	r3, [r7, #12]
 2012 015e 1344     		add	r3, r3, r2
 2013 0160 6833     		adds	r3, r3, #104
 2014 0162 0022     		movs	r2, #0
 2015 0164 1A71     		strb	r2, [r3, #4]
 2016 0166 FB68     		ldr	r3, [r7, #12]
 2017 0168 0133     		adds	r3, r3, #1
 2018 016a FB60     		str	r3, [r7, #12]
 2019              	.L52:
 2020              		.loc 1 410 0 discriminator 1
 2021 016c FB68     		ldr	r3, [r7, #12]
 2022 016e 7F2B     		cmp	r3, #127
 2023 0170 F2DD     		ble	.L53
 411:/home/virusv/TDSAST_IOT/Internet/DHCP/dhcp.c **** 
 412:/home/virusv/TDSAST_IOT/Internet/DHCP/dhcp.c **** 	// MAGIC_COOKIE
 413:/home/virusv/TDSAST_IOT/Internet/DHCP/dhcp.c **** 	MSG->OPT[k++] = 0x63;
 2024              		.loc 1 413 0 is_stmt 1
 2025 0172 994B     		ldr	r3, .L58
 2026 0174 1A68     		ldr	r2, [r3]
 2027 0176 7B89     		ldrh	r3, [r7, #10]
 2028 0178 591C     		adds	r1, r3, #1
 2029 017a 7981     		strh	r1, [r7, #10]	@ movhi
 2030 017c 1344     		add	r3, r3, r2
 2031 017e 6322     		movs	r2, #99
 2032 0180 83F8EC20 		strb	r2, [r3, #236]
 414:/home/virusv/TDSAST_IOT/Internet/DHCP/dhcp.c **** 	MSG->OPT[k++] = 0x82;
 2033              		.loc 1 414 0
 2034 0184 944B     		ldr	r3, .L58
 2035 0186 1A68     		ldr	r2, [r3]
 2036 0188 7B89     		ldrh	r3, [r7, #10]
 2037 018a 591C     		adds	r1, r3, #1
 2038 018c 7981     		strh	r1, [r7, #10]	@ movhi
 2039 018e 1344     		add	r3, r3, r2
 2040 0190 8222     		movs	r2, #130
 2041 0192 83F8EC20 		strb	r2, [r3, #236]
 415:/home/virusv/TDSAST_IOT/Internet/DHCP/dhcp.c **** 	MSG->OPT[k++] = 0x53;
 2042              		.loc 1 415 0
 2043 0196 904B     		ldr	r3, .L58
 2044 0198 1A68     		ldr	r2, [r3]
 2045 019a 7B89     		ldrh	r3, [r7, #10]
 2046 019c 591C     		adds	r1, r3, #1
 2047 019e 7981     		strh	r1, [r7, #10]	@ movhi
 2048 01a0 1344     		add	r3, r3, r2
 2049 01a2 5322     		movs	r2, #83
 2050 01a4 83F8EC20 		strb	r2, [r3, #236]
 416:/home/virusv/TDSAST_IOT/Internet/DHCP/dhcp.c **** 	MSG->OPT[k++] = 0x63;
 2051              		.loc 1 416 0
 2052 01a8 8B4B     		ldr	r3, .L58
 2053 01aa 1A68     		ldr	r2, [r3]
 2054 01ac 7B89     		ldrh	r3, [r7, #10]
 2055 01ae 591C     		adds	r1, r3, #1
 2056 01b0 7981     		strh	r1, [r7, #10]	@ movhi
 2057 01b2 1344     		add	r3, r3, r2
 2058 01b4 6322     		movs	r2, #99
 2059 01b6 83F8EC20 		strb	r2, [r3, #236]
 417:/home/virusv/TDSAST_IOT/Internet/DHCP/dhcp.c **** 
 418:/home/virusv/TDSAST_IOT/Internet/DHCP/dhcp.c **** 	// Option Request Param.
 419:/home/virusv/TDSAST_IOT/Internet/DHCP/dhcp.c **** 	MSG->OPT[k++] = dhcpMessageType;
 2060              		.loc 1 419 0
 2061 01ba 874B     		ldr	r3, .L58
 2062 01bc 1A68     		ldr	r2, [r3]
 2063 01be 7B89     		ldrh	r3, [r7, #10]
 2064 01c0 591C     		adds	r1, r3, #1
 2065 01c2 7981     		strh	r1, [r7, #10]	@ movhi
 2066 01c4 1344     		add	r3, r3, r2
 2067 01c6 3522     		movs	r2, #53
 2068 01c8 83F8EC20 		strb	r2, [r3, #236]
 420:/home/virusv/TDSAST_IOT/Internet/DHCP/dhcp.c **** 	MSG->OPT[k++] = 0x01;
 2069              		.loc 1 420 0
 2070 01cc 824B     		ldr	r3, .L58
 2071 01ce 1A68     		ldr	r2, [r3]
 2072 01d0 7B89     		ldrh	r3, [r7, #10]
 2073 01d2 591C     		adds	r1, r3, #1
 2074 01d4 7981     		strh	r1, [r7, #10]	@ movhi
 2075 01d6 1344     		add	r3, r3, r2
 2076 01d8 0122     		movs	r2, #1
 2077 01da 83F8EC20 		strb	r2, [r3, #236]
 421:/home/virusv/TDSAST_IOT/Internet/DHCP/dhcp.c **** 	MSG->OPT[k++] = DHCP_DECLINE;
 2078              		.loc 1 421 0
 2079 01de 7E4B     		ldr	r3, .L58
 2080 01e0 1A68     		ldr	r2, [r3]
 2081 01e2 7B89     		ldrh	r3, [r7, #10]
 2082 01e4 591C     		adds	r1, r3, #1
 2083 01e6 7981     		strh	r1, [r7, #10]	@ movhi
 2084 01e8 1344     		add	r3, r3, r2
 2085 01ea 0422     		movs	r2, #4
 2086 01ec 83F8EC20 		strb	r2, [r3, #236]
 422:/home/virusv/TDSAST_IOT/Internet/DHCP/dhcp.c **** 
 423:/home/virusv/TDSAST_IOT/Internet/DHCP/dhcp.c **** 	MSG->OPT[k++] = dhcpClientIdentifier;
 2087              		.loc 1 423 0
 2088 01f0 794B     		ldr	r3, .L58
 2089 01f2 1A68     		ldr	r2, [r3]
 2090 01f4 7B89     		ldrh	r3, [r7, #10]
 2091 01f6 591C     		adds	r1, r3, #1
 2092 01f8 7981     		strh	r1, [r7, #10]	@ movhi
 2093 01fa 1344     		add	r3, r3, r2
 2094 01fc 3D22     		movs	r2, #61
 2095 01fe 83F8EC20 		strb	r2, [r3, #236]
 424:/home/virusv/TDSAST_IOT/Internet/DHCP/dhcp.c **** 	MSG->OPT[k++] = 0x07;
 2096              		.loc 1 424 0
 2097 0202 754B     		ldr	r3, .L58
 2098 0204 1A68     		ldr	r2, [r3]
 2099 0206 7B89     		ldrh	r3, [r7, #10]
 2100 0208 591C     		adds	r1, r3, #1
 2101 020a 7981     		strh	r1, [r7, #10]	@ movhi
 2102 020c 1344     		add	r3, r3, r2
 2103 020e 0722     		movs	r2, #7
 2104 0210 83F8EC20 		strb	r2, [r3, #236]
 425:/home/virusv/TDSAST_IOT/Internet/DHCP/dhcp.c **** 	MSG->OPT[k++] = 0x01;
 2105              		.loc 1 425 0
 2106 0214 704B     		ldr	r3, .L58
 2107 0216 1A68     		ldr	r2, [r3]
 2108 0218 7B89     		ldrh	r3, [r7, #10]
 2109 021a 591C     		adds	r1, r3, #1
 2110 021c 7981     		strh	r1, [r7, #10]	@ movhi
 2111 021e 1344     		add	r3, r3, r2
 2112 0220 0122     		movs	r2, #1
 2113 0222 83F8EC20 		strb	r2, [r3, #236]
 426:/home/virusv/TDSAST_IOT/Internet/DHCP/dhcp.c **** 	MSG->OPT[k++] = wizchip_mac[0];
 2114              		.loc 1 426 0
 2115 0226 6C4B     		ldr	r3, .L58
 2116 0228 1A68     		ldr	r2, [r3]
 2117 022a 7B89     		ldrh	r3, [r7, #10]
 2118 022c 591C     		adds	r1, r3, #1
 2119 022e 7981     		strh	r1, [r7, #10]	@ movhi
 2120 0230 1846     		mov	r0, r3
 2121 0232 6A4B     		ldr	r3, .L58+4
 2122 0234 1978     		ldrb	r1, [r3]	@ zero_extendqisi2
 2123 0236 1318     		adds	r3, r2, r0
 2124 0238 0A46     		mov	r2, r1
 2125 023a 83F8EC20 		strb	r2, [r3, #236]
 427:/home/virusv/TDSAST_IOT/Internet/DHCP/dhcp.c **** 	MSG->OPT[k++] = wizchip_mac[1];
 2126              		.loc 1 427 0
 2127 023e 664B     		ldr	r3, .L58
 2128 0240 1A68     		ldr	r2, [r3]
 2129 0242 7B89     		ldrh	r3, [r7, #10]
 2130 0244 591C     		adds	r1, r3, #1
 2131 0246 7981     		strh	r1, [r7, #10]	@ movhi
 2132 0248 1846     		mov	r0, r3
 2133 024a 644B     		ldr	r3, .L58+4
 2134 024c 5978     		ldrb	r1, [r3, #1]	@ zero_extendqisi2
 2135 024e 1318     		adds	r3, r2, r0
 2136 0250 0A46     		mov	r2, r1
 2137 0252 83F8EC20 		strb	r2, [r3, #236]
 428:/home/virusv/TDSAST_IOT/Internet/DHCP/dhcp.c **** 	MSG->OPT[k++] = wizchip_mac[2];
 2138              		.loc 1 428 0
 2139 0256 604B     		ldr	r3, .L58
 2140 0258 1A68     		ldr	r2, [r3]
 2141 025a 7B89     		ldrh	r3, [r7, #10]
 2142 025c 591C     		adds	r1, r3, #1
 2143 025e 7981     		strh	r1, [r7, #10]	@ movhi
 2144 0260 1846     		mov	r0, r3
 2145 0262 5E4B     		ldr	r3, .L58+4
 2146 0264 9978     		ldrb	r1, [r3, #2]	@ zero_extendqisi2
 2147 0266 1318     		adds	r3, r2, r0
 2148 0268 0A46     		mov	r2, r1
 2149 026a 83F8EC20 		strb	r2, [r3, #236]
 429:/home/virusv/TDSAST_IOT/Internet/DHCP/dhcp.c **** 	MSG->OPT[k++] = wizchip_mac[3];
 2150              		.loc 1 429 0
 2151 026e 5A4B     		ldr	r3, .L58
 2152 0270 1A68     		ldr	r2, [r3]
 2153 0272 7B89     		ldrh	r3, [r7, #10]
 2154 0274 591C     		adds	r1, r3, #1
 2155 0276 7981     		strh	r1, [r7, #10]	@ movhi
 2156 0278 1846     		mov	r0, r3
 2157 027a 584B     		ldr	r3, .L58+4
 2158 027c D978     		ldrb	r1, [r3, #3]	@ zero_extendqisi2
 2159 027e 1318     		adds	r3, r2, r0
 2160 0280 0A46     		mov	r2, r1
 2161 0282 83F8EC20 		strb	r2, [r3, #236]
 430:/home/virusv/TDSAST_IOT/Internet/DHCP/dhcp.c **** 	MSG->OPT[k++] = wizchip_mac[4];
 2162              		.loc 1 430 0
 2163 0286 544B     		ldr	r3, .L58
 2164 0288 1A68     		ldr	r2, [r3]
 2165 028a 7B89     		ldrh	r3, [r7, #10]
 2166 028c 591C     		adds	r1, r3, #1
 2167 028e 7981     		strh	r1, [r7, #10]	@ movhi
 2168 0290 1846     		mov	r0, r3
 2169 0292 524B     		ldr	r3, .L58+4
 2170 0294 1979     		ldrb	r1, [r3, #4]	@ zero_extendqisi2
 2171 0296 1318     		adds	r3, r2, r0
 2172 0298 0A46     		mov	r2, r1
 2173 029a 83F8EC20 		strb	r2, [r3, #236]
 431:/home/virusv/TDSAST_IOT/Internet/DHCP/dhcp.c **** 	MSG->OPT[k++] = wizchip_mac[5];
 2174              		.loc 1 431 0
 2175 029e 4E4B     		ldr	r3, .L58
 2176 02a0 1A68     		ldr	r2, [r3]
 2177 02a2 7B89     		ldrh	r3, [r7, #10]
 2178 02a4 591C     		adds	r1, r3, #1
 2179 02a6 7981     		strh	r1, [r7, #10]	@ movhi
 2180 02a8 1846     		mov	r0, r3
 2181 02aa 4C4B     		ldr	r3, .L58+4
 2182 02ac 5979     		ldrb	r1, [r3, #5]	@ zero_extendqisi2
 2183 02ae 1318     		adds	r3, r2, r0
 2184 02b0 0A46     		mov	r2, r1
 2185 02b2 83F8EC20 		strb	r2, [r3, #236]
 432:/home/virusv/TDSAST_IOT/Internet/DHCP/dhcp.c **** 
 433:/home/virusv/TDSAST_IOT/Internet/DHCP/dhcp.c **** 	MSG->OPT[k++] = dhcpRequestedIPaddr;
 2186              		.loc 1 433 0
 2187 02b6 484B     		ldr	r3, .L58
 2188 02b8 1A68     		ldr	r2, [r3]
 2189 02ba 7B89     		ldrh	r3, [r7, #10]
 2190 02bc 591C     		adds	r1, r3, #1
 2191 02be 7981     		strh	r1, [r7, #10]	@ movhi
 2192 02c0 1344     		add	r3, r3, r2
 2193 02c2 3222     		movs	r2, #50
 2194 02c4 83F8EC20 		strb	r2, [r3, #236]
 434:/home/virusv/TDSAST_IOT/Internet/DHCP/dhcp.c **** 	MSG->OPT[k++] = 0x04;
 2195              		.loc 1 434 0
 2196 02c8 434B     		ldr	r3, .L58
 2197 02ca 1A68     		ldr	r2, [r3]
 2198 02cc 7B89     		ldrh	r3, [r7, #10]
 2199 02ce 591C     		adds	r1, r3, #1
 2200 02d0 7981     		strh	r1, [r7, #10]	@ movhi
 2201 02d2 1344     		add	r3, r3, r2
 2202 02d4 0422     		movs	r2, #4
 2203 02d6 83F8EC20 		strb	r2, [r3, #236]
 435:/home/virusv/TDSAST_IOT/Internet/DHCP/dhcp.c **** 	MSG->OPT[k++] = DHCP_allocated_ip[0];
 2204              		.loc 1 435 0
 2205 02da 3F4B     		ldr	r3, .L58
 2206 02dc 1A68     		ldr	r2, [r3]
 2207 02de 7B89     		ldrh	r3, [r7, #10]
 2208 02e0 591C     		adds	r1, r3, #1
 2209 02e2 7981     		strh	r1, [r7, #10]	@ movhi
 2210 02e4 1846     		mov	r0, r3
 2211 02e6 3E4B     		ldr	r3, .L58+8
 2212 02e8 1978     		ldrb	r1, [r3]	@ zero_extendqisi2
 2213 02ea 1318     		adds	r3, r2, r0
 2214 02ec 0A46     		mov	r2, r1
 2215 02ee 83F8EC20 		strb	r2, [r3, #236]
 436:/home/virusv/TDSAST_IOT/Internet/DHCP/dhcp.c **** 	MSG->OPT[k++] = DHCP_allocated_ip[1];
 2216              		.loc 1 436 0
 2217 02f2 394B     		ldr	r3, .L58
 2218 02f4 1A68     		ldr	r2, [r3]
 2219 02f6 7B89     		ldrh	r3, [r7, #10]
 2220 02f8 591C     		adds	r1, r3, #1
 2221 02fa 7981     		strh	r1, [r7, #10]	@ movhi
 2222 02fc 1846     		mov	r0, r3
 2223 02fe 384B     		ldr	r3, .L58+8
 2224 0300 5978     		ldrb	r1, [r3, #1]	@ zero_extendqisi2
 2225 0302 1318     		adds	r3, r2, r0
 2226 0304 0A46     		mov	r2, r1
 2227 0306 83F8EC20 		strb	r2, [r3, #236]
 437:/home/virusv/TDSAST_IOT/Internet/DHCP/dhcp.c **** 	MSG->OPT[k++] = DHCP_allocated_ip[2];
 2228              		.loc 1 437 0
 2229 030a 334B     		ldr	r3, .L58
 2230 030c 1A68     		ldr	r2, [r3]
 2231 030e 7B89     		ldrh	r3, [r7, #10]
 2232 0310 591C     		adds	r1, r3, #1
 2233 0312 7981     		strh	r1, [r7, #10]	@ movhi
 2234 0314 1846     		mov	r0, r3
 2235 0316 324B     		ldr	r3, .L58+8
 2236 0318 9978     		ldrb	r1, [r3, #2]	@ zero_extendqisi2
 2237 031a 1318     		adds	r3, r2, r0
 2238 031c 0A46     		mov	r2, r1
 2239 031e 83F8EC20 		strb	r2, [r3, #236]
 438:/home/virusv/TDSAST_IOT/Internet/DHCP/dhcp.c **** 	MSG->OPT[k++] = DHCP_allocated_ip[3];
 2240              		.loc 1 438 0
 2241 0322 2D4B     		ldr	r3, .L58
 2242 0324 1A68     		ldr	r2, [r3]
 2243 0326 7B89     		ldrh	r3, [r7, #10]
 2244 0328 591C     		adds	r1, r3, #1
 2245 032a 7981     		strh	r1, [r7, #10]	@ movhi
 2246 032c 1846     		mov	r0, r3
 2247 032e 2C4B     		ldr	r3, .L58+8
 2248 0330 D978     		ldrb	r1, [r3, #3]	@ zero_extendqisi2
 2249 0332 1318     		adds	r3, r2, r0
 2250 0334 0A46     		mov	r2, r1
 2251 0336 83F8EC20 		strb	r2, [r3, #236]
 439:/home/virusv/TDSAST_IOT/Internet/DHCP/dhcp.c **** 
 440:/home/virusv/TDSAST_IOT/Internet/DHCP/dhcp.c **** 	MSG->OPT[k++] = dhcpServerIdentifier;
 2252              		.loc 1 440 0
 2253 033a 274B     		ldr	r3, .L58
 2254 033c 1A68     		ldr	r2, [r3]
 2255 033e 7B89     		ldrh	r3, [r7, #10]
 2256 0340 591C     		adds	r1, r3, #1
 2257 0342 7981     		strh	r1, [r7, #10]	@ movhi
 2258 0344 1344     		add	r3, r3, r2
 2259 0346 3622     		movs	r2, #54
 2260 0348 83F8EC20 		strb	r2, [r3, #236]
 441:/home/virusv/TDSAST_IOT/Internet/DHCP/dhcp.c **** 	MSG->OPT[k++] = 0x04;
 2261              		.loc 1 441 0
 2262 034c 224B     		ldr	r3, .L58
 2263 034e 1A68     		ldr	r2, [r3]
 2264 0350 7B89     		ldrh	r3, [r7, #10]
 2265 0352 591C     		adds	r1, r3, #1
 2266 0354 7981     		strh	r1, [r7, #10]	@ movhi
 2267 0356 1344     		add	r3, r3, r2
 2268 0358 0422     		movs	r2, #4
 2269 035a 83F8EC20 		strb	r2, [r3, #236]
 442:/home/virusv/TDSAST_IOT/Internet/DHCP/dhcp.c **** 	MSG->OPT[k++] = DHCP_SIP[0];
 2270              		.loc 1 442 0
 2271 035e 1E4B     		ldr	r3, .L58
 2272 0360 1A68     		ldr	r2, [r3]
 2273 0362 7B89     		ldrh	r3, [r7, #10]
 2274 0364 591C     		adds	r1, r3, #1
 2275 0366 7981     		strh	r1, [r7, #10]	@ movhi
 2276 0368 1846     		mov	r0, r3
 2277 036a 1E4B     		ldr	r3, .L58+12
 2278 036c 1978     		ldrb	r1, [r3]	@ zero_extendqisi2
 2279 036e 1318     		adds	r3, r2, r0
 2280 0370 0A46     		mov	r2, r1
 2281 0372 83F8EC20 		strb	r2, [r3, #236]
 443:/home/virusv/TDSAST_IOT/Internet/DHCP/dhcp.c **** 	MSG->OPT[k++] = DHCP_SIP[1];
 2282              		.loc 1 443 0
 2283 0376 184B     		ldr	r3, .L58
 2284 0378 1A68     		ldr	r2, [r3]
 2285 037a 7B89     		ldrh	r3, [r7, #10]
 2286 037c 591C     		adds	r1, r3, #1
 2287 037e 7981     		strh	r1, [r7, #10]	@ movhi
 2288 0380 1846     		mov	r0, r3
 2289 0382 184B     		ldr	r3, .L58+12
 2290 0384 5978     		ldrb	r1, [r3, #1]	@ zero_extendqisi2
 2291 0386 1318     		adds	r3, r2, r0
 2292 0388 0A46     		mov	r2, r1
 2293 038a 83F8EC20 		strb	r2, [r3, #236]
 444:/home/virusv/TDSAST_IOT/Internet/DHCP/dhcp.c **** 	MSG->OPT[k++] = DHCP_SIP[2];
 2294              		.loc 1 444 0
 2295 038e 124B     		ldr	r3, .L58
 2296 0390 1A68     		ldr	r2, [r3]
 2297 0392 7B89     		ldrh	r3, [r7, #10]
 2298 0394 591C     		adds	r1, r3, #1
 2299 0396 7981     		strh	r1, [r7, #10]	@ movhi
 2300 0398 1846     		mov	r0, r3
 2301 039a 124B     		ldr	r3, .L58+12
 2302 039c 9978     		ldrb	r1, [r3, #2]	@ zero_extendqisi2
 2303 039e 1318     		adds	r3, r2, r0
 2304 03a0 0A46     		mov	r2, r1
 2305 03a2 83F8EC20 		strb	r2, [r3, #236]
 445:/home/virusv/TDSAST_IOT/Internet/DHCP/dhcp.c **** 	MSG->OPT[k++] = DHCP_SIP[3];
 2306              		.loc 1 445 0
 2307 03a6 0C4B     		ldr	r3, .L58
 2308 03a8 1A68     		ldr	r2, [r3]
 2309 03aa 7B89     		ldrh	r3, [r7, #10]
 2310 03ac 591C     		adds	r1, r3, #1
 2311 03ae 7981     		strh	r1, [r7, #10]	@ movhi
 2312 03b0 1846     		mov	r0, r3
 2313 03b2 0C4B     		ldr	r3, .L58+12
 2314 03b4 D978     		ldrb	r1, [r3, #3]	@ zero_extendqisi2
 2315 03b6 1318     		adds	r3, r2, r0
 2316 03b8 0A46     		mov	r2, r1
 2317 03ba 83F8EC20 		strb	r2, [r3, #236]
 446:/home/virusv/TDSAST_IOT/Internet/DHCP/dhcp.c **** 
 447:/home/virusv/TDSAST_IOT/Internet/DHCP/dhcp.c **** 	MSG->OPT[k++] = endOption;
 2318              		.loc 1 447 0
 2319 03be 064B     		ldr	r3, .L58
 2320 03c0 1A68     		ldr	r2, [r3]
 2321 03c2 7B89     		ldrh	r3, [r7, #10]
 2322 03c4 591C     		adds	r1, r3, #1
 2323 03c6 7981     		strh	r1, [r7, #10]	@ movhi
 2324 03c8 1344     		add	r3, r3, r2
 2325 03ca FF22     		movs	r2, #255
 2326 03cc 83F8EC20 		strb	r2, [r3, #236]
 448:/home/virusv/TDSAST_IOT/Internet/DHCP/dhcp.c **** 
 449:/home/virusv/TDSAST_IOT/Internet/DHCP/dhcp.c **** 	for (i = k; i < OPT_SIZE; i++) MSG->OPT[i] = 0;
 2327              		.loc 1 449 0
 2328 03d0 7B89     		ldrh	r3, [r7, #10]
 2329 03d2 FB60     		str	r3, [r7, #12]
 2330 03d4 12E0     		b	.L54
 2331              	.L59:
 2332 03d6 00BF     		.align	2
 2333              	.L58:
 2334 03d8 00000000 		.word	MSG
 2335 03dc 00000000 		.word	wizchip_mac
 2336 03e0 00000000 		.word	DHCP_allocated_ip
 2337 03e4 00000000 		.word	DHCP_SIP
 2338              	.L55:
 2339              		.loc 1 449 0 is_stmt 0 discriminator 3
 2340 03e8 134B     		ldr	r3, .L60
 2341 03ea 1A68     		ldr	r2, [r3]
 2342 03ec FB68     		ldr	r3, [r7, #12]
 2343 03ee 1344     		add	r3, r3, r2
 2344 03f0 E833     		adds	r3, r3, #232
 2345 03f2 0022     		movs	r2, #0
 2346 03f4 1A71     		strb	r2, [r3, #4]
 2347 03f6 FB68     		ldr	r3, [r7, #12]
 2348 03f8 0133     		adds	r3, r3, #1
 2349 03fa FB60     		str	r3, [r7, #12]
 2350              	.L54:
 2351              		.loc 1 449 0 discriminator 1
 2352 03fc FB68     		ldr	r3, [r7, #12]
 2353 03fe B3F59C7F 		cmp	r3, #312
 2354 0402 F1DB     		blt	.L55
 450:/home/virusv/TDSAST_IOT/Internet/DHCP/dhcp.c **** 
 451:/home/virusv/TDSAST_IOT/Internet/DHCP/dhcp.c **** 	//send broadcasting packet
 452:/home/virusv/TDSAST_IOT/Internet/DHCP/dhcp.c **** 	ip[0] = 0xFF;
 2355              		.loc 1 452 0 is_stmt 1
 2356 0404 FF23     		movs	r3, #255
 2357 0406 3B71     		strb	r3, [r7, #4]
 453:/home/virusv/TDSAST_IOT/Internet/DHCP/dhcp.c **** 	ip[1] = 0xFF;
 2358              		.loc 1 453 0
 2359 0408 FF23     		movs	r3, #255
 2360 040a 7B71     		strb	r3, [r7, #5]
 454:/home/virusv/TDSAST_IOT/Internet/DHCP/dhcp.c **** 	ip[2] = 0xFF;
 2361              		.loc 1 454 0
 2362 040c FF23     		movs	r3, #255
 2363 040e BB71     		strb	r3, [r7, #6]
 455:/home/virusv/TDSAST_IOT/Internet/DHCP/dhcp.c **** 	ip[3] = 0xFF;
 2364              		.loc 1 455 0
 2365 0410 FF23     		movs	r3, #255
 2366 0412 FB71     		strb	r3, [r7, #7]
 456:/home/virusv/TDSAST_IOT/Internet/DHCP/dhcp.c **** 
 457:/home/virusv/TDSAST_IOT/Internet/DHCP/dhcp.c **** #ifdef _DHCP_DEBUG_
 458:/home/virusv/TDSAST_IOT/Internet/DHCP/dhcp.c **** 	printf("\r\n> Send DHCP_DECLINE\r\n");
 459:/home/virusv/TDSAST_IOT/Internet/DHCP/dhcp.c **** #endif
 460:/home/virusv/TDSAST_IOT/Internet/DHCP/dhcp.c **** 
 461:/home/virusv/TDSAST_IOT/Internet/DHCP/dhcp.c **** 	sendto(DHCP_SOCKET, (uint8_t *)MSG, RIP_MSG_SIZE, ip, DHCP_SERVER_PORT);
 2367              		.loc 1 461 0
 2368 0414 094B     		ldr	r3, .L60+4
 2369 0416 1978     		ldrb	r1, [r3]	@ zero_extendqisi2
 2370 0418 074B     		ldr	r3, .L60
 2371 041a 1A68     		ldr	r2, [r3]
 2372 041c 3C1D     		adds	r4, r7, #4
 2373 041e 4323     		movs	r3, #67
 2374 0420 0093     		str	r3, [sp]
 2375 0422 0846     		mov	r0, r1
 2376 0424 1146     		mov	r1, r2
 2377 0426 4FF40972 		mov	r2, #548
 2378 042a 2346     		mov	r3, r4
 2379 042c FFF7FEFF 		bl	sendto
 462:/home/virusv/TDSAST_IOT/Internet/DHCP/dhcp.c **** 
 463:/home/virusv/TDSAST_IOT/Internet/DHCP/dhcp.c **** }
 2380              		.loc 1 463 0
 2381 0430 1437     		adds	r7, r7, #20
 2382              		.cfi_def_cfa_offset 12
 2383 0432 BD46     		mov	sp, r7
 2384              		.cfi_def_cfa_register 13
 2385              		@ sp needed
 2386 0434 90BD     		pop	{r4, r7, pc}
 2387              	.L61:
 2388 0436 00BF     		.align	2
 2389              	.L60:
 2390 0438 00000000 		.word	MSG
 2391 043c 00000000 		.word	DHCP_SOCKET
 2392              		.cfi_endproc
 2393              	.LFE5:
 2395              		.section	.text.parseDHCPMSG,"ax",%progbits
 2396              		.align	2
 2397              		.global	parseDHCPMSG
 2398              		.thumb
 2399              		.thumb_func
 2401              	parseDHCPMSG:
 2402              	.LFB6:
 464:/home/virusv/TDSAST_IOT/Internet/DHCP/dhcp.c **** 
 465:/home/virusv/TDSAST_IOT/Internet/DHCP/dhcp.c **** /*
 466:/home/virusv/TDSAST_IOT/Internet/DHCP/dhcp.c **** ***************************************************************************************************
 467:/home/virusv/TDSAST_IOT/Internet/DHCP/dhcp.c **** *              PARSE REPLY MSG
 468:/home/virusv/TDSAST_IOT/Internet/DHCP/dhcp.c **** *
 469:/home/virusv/TDSAST_IOT/Internet/DHCP/dhcp.c **** * Description: This function parses the reply message from DHCP server.
 470:/home/virusv/TDSAST_IOT/Internet/DHCP/dhcp.c **** * Arguments  : s      - is a socket number.
 471:/home/virusv/TDSAST_IOT/Internet/DHCP/dhcp.c **** *              length - is a size data to receive.
 472:/home/virusv/TDSAST_IOT/Internet/DHCP/dhcp.c **** * Returns    : None.
 473:/home/virusv/TDSAST_IOT/Internet/DHCP/dhcp.c **** * Note       : 
 474:/home/virusv/TDSAST_IOT/Internet/DHCP/dhcp.c **** ***************************************************************************************************
 475:/home/virusv/TDSAST_IOT/Internet/DHCP/dhcp.c **** */
 476:/home/virusv/TDSAST_IOT/Internet/DHCP/dhcp.c **** int8_t parseDHCPMSG(uint16_t length)
 477:/home/virusv/TDSAST_IOT/Internet/DHCP/dhcp.c **** {
 2403              		.loc 1 477 0
 2404              		.cfi_startproc
 2405              		@ args = 0, pretend = 0, frame = 40
 2406              		@ frame_needed = 1, uses_anonymous_args = 0
 2407 0000 90B5     		push	{r4, r7, lr}
 2408              		.cfi_def_cfa_offset 12
 2409              		.cfi_offset 4, -12
 2410              		.cfi_offset 7, -8
 2411              		.cfi_offset 14, -4
 2412 0002 8DB0     		sub	sp, sp, #52
 2413              		.cfi_def_cfa_offset 64
 2414 0004 02AF     		add	r7, sp, #8
 2415              		.cfi_def_cfa 7, 56
 2416 0006 0346     		mov	r3, r0
 2417 0008 FB80     		strh	r3, [r7, #6]	@ movhi
 478:/home/virusv/TDSAST_IOT/Internet/DHCP/dhcp.c **** 	uint8_t svr_addr[6];
 479:/home/virusv/TDSAST_IOT/Internet/DHCP/dhcp.c **** 	uint16_t  svr_port;
 480:/home/virusv/TDSAST_IOT/Internet/DHCP/dhcp.c **** 
 481:/home/virusv/TDSAST_IOT/Internet/DHCP/dhcp.c **** 	uint16_t i, len;
 482:/home/virusv/TDSAST_IOT/Internet/DHCP/dhcp.c **** 	uint8_t * p;
 483:/home/virusv/TDSAST_IOT/Internet/DHCP/dhcp.c **** 	uint8_t * e;
 484:/home/virusv/TDSAST_IOT/Internet/DHCP/dhcp.c **** 	uint8_t type = 0;
 2418              		.loc 1 484 0
 2419 000a 0023     		movs	r3, #0
 2420 000c FB77     		strb	r3, [r7, #31]
 485:/home/virusv/TDSAST_IOT/Internet/DHCP/dhcp.c **** 	uint8_t opt_len;
 486:/home/virusv/TDSAST_IOT/Internet/DHCP/dhcp.c **** 
 487:/home/virusv/TDSAST_IOT/Internet/DHCP/dhcp.c **** 	len = recvfrom(DHCP_SOCKET, (uint8_t *)MSG, length, svr_addr, &svr_port);
 2421              		.loc 1 487 0
 2422 000e 9A4B     		ldr	r3, .L94
 2423 0010 1878     		ldrb	r0, [r3]	@ zero_extendqisi2
 2424 0012 9A4B     		ldr	r3, .L94+4
 2425 0014 1968     		ldr	r1, [r3]
 2426 0016 FA88     		ldrh	r2, [r7, #6]
 2427 0018 07F11004 		add	r4, r7, #16
 2428 001c 07F10E03 		add	r3, r7, #14
 2429 0020 0093     		str	r3, [sp]
 2430 0022 2346     		mov	r3, r4
 2431 0024 FFF7FEFF 		bl	recvfrom
 2432 0028 0346     		mov	r3, r0
 2433 002a BB83     		strh	r3, [r7, #28]	@ movhi
 488:/home/virusv/TDSAST_IOT/Internet/DHCP/dhcp.c **** 
 489:/home/virusv/TDSAST_IOT/Internet/DHCP/dhcp.c **** 	if (svr_port == DHCP_SERVER_PORT) {
 2434              		.loc 1 489 0
 2435 002c FB89     		ldrh	r3, [r7, #14]
 2436 002e 432B     		cmp	r3, #67
 2437 0030 40F01B81 		bne	.L63
 490:/home/virusv/TDSAST_IOT/Internet/DHCP/dhcp.c **** 
 491:/home/virusv/TDSAST_IOT/Internet/DHCP/dhcp.c **** 		for (i = 0; i < 6; i++)
 2438              		.loc 1 491 0
 2439 0034 0023     		movs	r3, #0
 2440 0036 FB84     		strh	r3, [r7, #38]	@ movhi
 2441 0038 0FE0     		b	.L64
 2442              	.L66:
 492:/home/virusv/TDSAST_IOT/Internet/DHCP/dhcp.c **** 			if (MSG->chaddr[i] != wizchip_mac[i]) {
 2443              		.loc 1 492 0
 2444 003a 904B     		ldr	r3, .L94+4
 2445 003c 1A68     		ldr	r2, [r3]
 2446 003e FB8C     		ldrh	r3, [r7, #38]
 2447 0040 1344     		add	r3, r3, r2
 2448 0042 1A7F     		ldrb	r2, [r3, #28]	@ zero_extendqisi2
 2449 0044 FB8C     		ldrh	r3, [r7, #38]
 2450 0046 8E49     		ldr	r1, .L94+8
 2451 0048 CB5C     		ldrb	r3, [r1, r3]	@ zero_extendqisi2
 2452 004a 9A42     		cmp	r2, r3
 2453 004c 02D0     		beq	.L65
 493:/home/virusv/TDSAST_IOT/Internet/DHCP/dhcp.c **** 				type = 0;
 2454              		.loc 1 493 0
 2455 004e 0023     		movs	r3, #0
 2456 0050 FB77     		strb	r3, [r7, #31]
 494:/home/virusv/TDSAST_IOT/Internet/DHCP/dhcp.c **** 				goto PARSE_END;
 2457              		.loc 1 494 0
 2458 0052 0AE1     		b	.L63
 2459              	.L65:
 491:/home/virusv/TDSAST_IOT/Internet/DHCP/dhcp.c **** 			if (MSG->chaddr[i] != wizchip_mac[i]) {
 2460              		.loc 1 491 0 discriminator 2
 2461 0054 FB8C     		ldrh	r3, [r7, #38]
 2462 0056 0133     		adds	r3, r3, #1
 2463 0058 FB84     		strh	r3, [r7, #38]	@ movhi
 2464              	.L64:
 491:/home/virusv/TDSAST_IOT/Internet/DHCP/dhcp.c **** 			if (MSG->chaddr[i] != wizchip_mac[i]) {
 2465              		.loc 1 491 0 is_stmt 0 discriminator 1
 2466 005a FB8C     		ldrh	r3, [r7, #38]
 2467 005c 052B     		cmp	r3, #5
 2468 005e ECD9     		bls	.L66
 495:/home/virusv/TDSAST_IOT/Internet/DHCP/dhcp.c **** 			}
 496:/home/virusv/TDSAST_IOT/Internet/DHCP/dhcp.c **** 
 497:/home/virusv/TDSAST_IOT/Internet/DHCP/dhcp.c **** 		for (i = 0; i < 4; i++) {
 2469              		.loc 1 497 0 is_stmt 1
 2470 0060 0023     		movs	r3, #0
 2471 0062 FB84     		strh	r3, [r7, #38]	@ movhi
 2472 0064 0AE0     		b	.L67
 2473              	.L68:
 498:/home/virusv/TDSAST_IOT/Internet/DHCP/dhcp.c **** 			DHCP_allocated_ip[i] = MSG->yiaddr[i];
 2474              		.loc 1 498 0 discriminator 3
 2475 0066 FB8C     		ldrh	r3, [r7, #38]
 2476 0068 844A     		ldr	r2, .L94+4
 2477 006a 1168     		ldr	r1, [r2]
 2478 006c FA8C     		ldrh	r2, [r7, #38]
 2479 006e 0A44     		add	r2, r2, r1
 2480 0070 117C     		ldrb	r1, [r2, #16]	@ zero_extendqisi2
 2481 0072 844A     		ldr	r2, .L94+12
 2482 0074 D154     		strb	r1, [r2, r3]
 497:/home/virusv/TDSAST_IOT/Internet/DHCP/dhcp.c **** 			DHCP_allocated_ip[i] = MSG->yiaddr[i];
 2483              		.loc 1 497 0 discriminator 3
 2484 0076 FB8C     		ldrh	r3, [r7, #38]
 2485 0078 0133     		adds	r3, r3, #1
 2486 007a FB84     		strh	r3, [r7, #38]	@ movhi
 2487              	.L67:
 497:/home/virusv/TDSAST_IOT/Internet/DHCP/dhcp.c **** 			DHCP_allocated_ip[i] = MSG->yiaddr[i];
 2488              		.loc 1 497 0 is_stmt 0 discriminator 1
 2489 007c FB8C     		ldrh	r3, [r7, #38]
 2490 007e 032B     		cmp	r3, #3
 2491 0080 F1D9     		bls	.L68
 499:/home/virusv/TDSAST_IOT/Internet/DHCP/dhcp.c **** 		}
 500:/home/virusv/TDSAST_IOT/Internet/DHCP/dhcp.c **** 		
 501:/home/virusv/TDSAST_IOT/Internet/DHCP/dhcp.c **** 		type = 0;
 2492              		.loc 1 501 0 is_stmt 1
 2493 0082 0023     		movs	r3, #0
 2494 0084 FB77     		strb	r3, [r7, #31]
 502:/home/virusv/TDSAST_IOT/Internet/DHCP/dhcp.c **** 		p = (uint8_t *)(&MSG->op);
 2495              		.loc 1 502 0
 2496 0086 7D4B     		ldr	r3, .L94+4
 2497 0088 1B68     		ldr	r3, [r3]
 2498 008a 3B62     		str	r3, [r7, #32]
 503:/home/virusv/TDSAST_IOT/Internet/DHCP/dhcp.c **** 		p = p + 240;
 2499              		.loc 1 503 0
 2500 008c 3B6A     		ldr	r3, [r7, #32]
 2501 008e F033     		adds	r3, r3, #240
 2502 0090 3B62     		str	r3, [r7, #32]
 504:/home/virusv/TDSAST_IOT/Internet/DHCP/dhcp.c **** 		e = p + (len - 240);
 2503              		.loc 1 504 0
 2504 0092 BB8B     		ldrh	r3, [r7, #28]
 2505 0094 F03B     		subs	r3, r3, #240
 2506 0096 3A6A     		ldr	r2, [r7, #32]
 2507 0098 1344     		add	r3, r3, r2
 2508 009a BB61     		str	r3, [r7, #24]
 505:/home/virusv/TDSAST_IOT/Internet/DHCP/dhcp.c **** 
 506:/home/virusv/TDSAST_IOT/Internet/DHCP/dhcp.c **** 		while ( p < e ) {
 2509              		.loc 1 506 0
 2510 009c DEE0     		b	.L69
 2511              	.L91:
 507:/home/virusv/TDSAST_IOT/Internet/DHCP/dhcp.c **** 
 508:/home/virusv/TDSAST_IOT/Internet/DHCP/dhcp.c **** 			switch ( *p ) {
 2512              		.loc 1 508 0
 2513 009e 3B6A     		ldr	r3, [r7, #32]
 2514 00a0 1B78     		ldrb	r3, [r3]	@ zero_extendqisi2
 2515 00a2 062B     		cmp	r3, #6
 2516 00a4 64D0     		beq	.L71
 2517 00a6 062B     		cmp	r3, #6
 2518 00a8 06DC     		bgt	.L72
 2519 00aa 012B     		cmp	r3, #1
 2520 00ac 22D0     		beq	.L73
 2521 00ae 032B     		cmp	r3, #3
 2522 00b0 37D0     		beq	.L74
 2523 00b2 002B     		cmp	r3, #0
 2524 00b4 0ED0     		beq	.L75
 2525 00b6 C4E0     		b	.L70
 2526              	.L72:
 2527 00b8 352B     		cmp	r3, #53
 2528 00ba 0FD0     		beq	.L76
 2529 00bc 352B     		cmp	r3, #53
 2530 00be 02DC     		bgt	.L77
 2531 00c0 332B     		cmp	r3, #51
 2532 00c2 7CD0     		beq	.L78
 2533 00c4 BDE0     		b	.L70
 2534              	.L77:
 2535 00c6 362B     		cmp	r3, #54
 2536 00c8 00F09A80 		beq	.L79
 2537 00cc FF2B     		cmp	r3, #255
 2538 00ce 00F0CB80 		beq	.L93
 2539 00d2 B6E0     		b	.L70
 2540              	.L75:
 509:/home/virusv/TDSAST_IOT/Internet/DHCP/dhcp.c **** 
 510:/home/virusv/TDSAST_IOT/Internet/DHCP/dhcp.c **** 			case endOption :
 511:/home/virusv/TDSAST_IOT/Internet/DHCP/dhcp.c **** 				goto PARSE_END;
 512:/home/virusv/TDSAST_IOT/Internet/DHCP/dhcp.c ****        			case padOption :
 513:/home/virusv/TDSAST_IOT/Internet/DHCP/dhcp.c **** 				p++;
 2541              		.loc 1 513 0
 2542 00d4 3B6A     		ldr	r3, [r7, #32]
 2543 00d6 0133     		adds	r3, r3, #1
 2544 00d8 3B62     		str	r3, [r7, #32]
 514:/home/virusv/TDSAST_IOT/Internet/DHCP/dhcp.c **** 				break;
 2545              		.loc 1 514 0
 2546 00da BFE0     		b	.L69
 2547              	.L76:
 515:/home/virusv/TDSAST_IOT/Internet/DHCP/dhcp.c **** 			case dhcpMessageType :
 516:/home/virusv/TDSAST_IOT/Internet/DHCP/dhcp.c **** 				p++;
 2548              		.loc 1 516 0
 2549 00dc 3B6A     		ldr	r3, [r7, #32]
 2550 00de 0133     		adds	r3, r3, #1
 2551 00e0 3B62     		str	r3, [r7, #32]
 517:/home/virusv/TDSAST_IOT/Internet/DHCP/dhcp.c **** 				p++;
 2552              		.loc 1 517 0
 2553 00e2 3B6A     		ldr	r3, [r7, #32]
 2554 00e4 0133     		adds	r3, r3, #1
 2555 00e6 3B62     		str	r3, [r7, #32]
 518:/home/virusv/TDSAST_IOT/Internet/DHCP/dhcp.c **** 				type = *p++;
 2556              		.loc 1 518 0
 2557 00e8 3B6A     		ldr	r3, [r7, #32]
 2558 00ea 5A1C     		adds	r2, r3, #1
 2559 00ec 3A62     		str	r2, [r7, #32]
 2560 00ee 1B78     		ldrb	r3, [r3]
 2561 00f0 FB77     		strb	r3, [r7, #31]
 519:/home/virusv/TDSAST_IOT/Internet/DHCP/dhcp.c **** 				break;
 2562              		.loc 1 519 0
 2563 00f2 B3E0     		b	.L69
 2564              	.L73:
 520:/home/virusv/TDSAST_IOT/Internet/DHCP/dhcp.c **** 			case subnetMask :
 521:/home/virusv/TDSAST_IOT/Internet/DHCP/dhcp.c **** 				p++;
 2565              		.loc 1 521 0
 2566 00f4 3B6A     		ldr	r3, [r7, #32]
 2567 00f6 0133     		adds	r3, r3, #1
 2568 00f8 3B62     		str	r3, [r7, #32]
 522:/home/virusv/TDSAST_IOT/Internet/DHCP/dhcp.c **** 				p++;
 2569              		.loc 1 522 0
 2570 00fa 3B6A     		ldr	r3, [r7, #32]
 2571 00fc 0133     		adds	r3, r3, #1
 2572 00fe 3B62     		str	r3, [r7, #32]
 523:/home/virusv/TDSAST_IOT/Internet/DHCP/dhcp.c **** 				for (i = 0; i < 4; i++)	 DHCP_allocated_sn[i] = *p++;
 2573              		.loc 1 523 0
 2574 0100 0023     		movs	r3, #0
 2575 0102 FB84     		strh	r3, [r7, #38]	@ movhi
 2576 0104 09E0     		b	.L81
 2577              	.L82:
 2578              		.loc 1 523 0 is_stmt 0 discriminator 3
 2579 0106 FA8C     		ldrh	r2, [r7, #38]
 2580 0108 3B6A     		ldr	r3, [r7, #32]
 2581 010a 591C     		adds	r1, r3, #1
 2582 010c 3962     		str	r1, [r7, #32]
 2583 010e 1978     		ldrb	r1, [r3]	@ zero_extendqisi2
 2584 0110 5D4B     		ldr	r3, .L94+16
 2585 0112 9954     		strb	r1, [r3, r2]
 2586 0114 FB8C     		ldrh	r3, [r7, #38]
 2587 0116 0133     		adds	r3, r3, #1
 2588 0118 FB84     		strh	r3, [r7, #38]	@ movhi
 2589              	.L81:
 2590              		.loc 1 523 0 discriminator 1
 2591 011a FB8C     		ldrh	r3, [r7, #38]
 2592 011c 032B     		cmp	r3, #3
 2593 011e F2D9     		bls	.L82
 524:/home/virusv/TDSAST_IOT/Internet/DHCP/dhcp.c **** 				break;
 2594              		.loc 1 524 0 is_stmt 1
 2595 0120 9CE0     		b	.L69
 2596              	.L74:
 525:/home/virusv/TDSAST_IOT/Internet/DHCP/dhcp.c **** 			case routersOnSubnet :
 526:/home/virusv/TDSAST_IOT/Internet/DHCP/dhcp.c **** 				p++;
 2597              		.loc 1 526 0
 2598 0122 3B6A     		ldr	r3, [r7, #32]
 2599 0124 0133     		adds	r3, r3, #1
 2600 0126 3B62     		str	r3, [r7, #32]
 527:/home/virusv/TDSAST_IOT/Internet/DHCP/dhcp.c **** 				opt_len = *p++;       
 2601              		.loc 1 527 0
 2602 0128 3B6A     		ldr	r3, [r7, #32]
 2603 012a 5A1C     		adds	r2, r3, #1
 2604 012c 3A62     		str	r2, [r7, #32]
 2605 012e 1B78     		ldrb	r3, [r3]
 2606 0130 FB75     		strb	r3, [r7, #23]
 528:/home/virusv/TDSAST_IOT/Internet/DHCP/dhcp.c **** 				for (i = 0; i < 4; i++)	DHCP_allocated_gw[i] = *p++;
 2607              		.loc 1 528 0
 2608 0132 0023     		movs	r3, #0
 2609 0134 FB84     		strh	r3, [r7, #38]	@ movhi
 2610 0136 09E0     		b	.L83
 2611              	.L84:
 2612              		.loc 1 528 0 is_stmt 0 discriminator 3
 2613 0138 FA8C     		ldrh	r2, [r7, #38]
 2614 013a 3B6A     		ldr	r3, [r7, #32]
 2615 013c 591C     		adds	r1, r3, #1
 2616 013e 3962     		str	r1, [r7, #32]
 2617 0140 1978     		ldrb	r1, [r3]	@ zero_extendqisi2
 2618 0142 524B     		ldr	r3, .L94+20
 2619 0144 9954     		strb	r1, [r3, r2]
 2620 0146 FB8C     		ldrh	r3, [r7, #38]
 2621 0148 0133     		adds	r3, r3, #1
 2622 014a FB84     		strh	r3, [r7, #38]	@ movhi
 2623              	.L83:
 2624              		.loc 1 528 0 discriminator 1
 2625 014c FB8C     		ldrh	r3, [r7, #38]
 2626 014e 032B     		cmp	r3, #3
 2627 0150 F2D9     		bls	.L84
 529:/home/virusv/TDSAST_IOT/Internet/DHCP/dhcp.c **** 				for (i = 0; i < (opt_len-4); i++) p++;
 2628              		.loc 1 529 0 is_stmt 1
 2629 0152 0023     		movs	r3, #0
 2630 0154 FB84     		strh	r3, [r7, #38]	@ movhi
 2631 0156 05E0     		b	.L85
 2632              	.L86:
 2633              		.loc 1 529 0 is_stmt 0 discriminator 3
 2634 0158 3B6A     		ldr	r3, [r7, #32]
 2635 015a 0133     		adds	r3, r3, #1
 2636 015c 3B62     		str	r3, [r7, #32]
 2637 015e FB8C     		ldrh	r3, [r7, #38]
 2638 0160 0133     		adds	r3, r3, #1
 2639 0162 FB84     		strh	r3, [r7, #38]	@ movhi
 2640              	.L85:
 2641              		.loc 1 529 0 discriminator 1
 2642 0164 FA8C     		ldrh	r2, [r7, #38]
 2643 0166 FB7D     		ldrb	r3, [r7, #23]	@ zero_extendqisi2
 2644 0168 043B     		subs	r3, r3, #4
 2645 016a 9A42     		cmp	r2, r3
 2646 016c F4DB     		blt	.L86
 530:/home/virusv/TDSAST_IOT/Internet/DHCP/dhcp.c **** 				break;
 2647              		.loc 1 530 0 is_stmt 1
 2648 016e 75E0     		b	.L69
 2649              	.L71:
 531:/home/virusv/TDSAST_IOT/Internet/DHCP/dhcp.c **** 			
 532:/home/virusv/TDSAST_IOT/Internet/DHCP/dhcp.c **** 			case dns :
 533:/home/virusv/TDSAST_IOT/Internet/DHCP/dhcp.c **** 				p++;                  
 2650              		.loc 1 533 0
 2651 0170 3B6A     		ldr	r3, [r7, #32]
 2652 0172 0133     		adds	r3, r3, #1
 2653 0174 3B62     		str	r3, [r7, #32]
 534:/home/virusv/TDSAST_IOT/Internet/DHCP/dhcp.c **** 				opt_len = *p++;       
 2654              		.loc 1 534 0
 2655 0176 3B6A     		ldr	r3, [r7, #32]
 2656 0178 5A1C     		adds	r2, r3, #1
 2657 017a 3A62     		str	r2, [r7, #32]
 2658 017c 1B78     		ldrb	r3, [r3]
 2659 017e FB75     		strb	r3, [r7, #23]
 535:/home/virusv/TDSAST_IOT/Internet/DHCP/dhcp.c **** 				for (i = 0; i < 4; i++)	DHCP_allocated_dns[i] = *p++;
 2660              		.loc 1 535 0
 2661 0180 0023     		movs	r3, #0
 2662 0182 FB84     		strh	r3, [r7, #38]	@ movhi
 2663 0184 09E0     		b	.L87
 2664              	.L88:
 2665              		.loc 1 535 0 is_stmt 0 discriminator 3
 2666 0186 FA8C     		ldrh	r2, [r7, #38]
 2667 0188 3B6A     		ldr	r3, [r7, #32]
 2668 018a 591C     		adds	r1, r3, #1
 2669 018c 3962     		str	r1, [r7, #32]
 2670 018e 1978     		ldrb	r1, [r3]	@ zero_extendqisi2
 2671 0190 3F4B     		ldr	r3, .L94+24
 2672 0192 9954     		strb	r1, [r3, r2]
 2673 0194 FB8C     		ldrh	r3, [r7, #38]
 2674 0196 0133     		adds	r3, r3, #1
 2675 0198 FB84     		strh	r3, [r7, #38]	@ movhi
 2676              	.L87:
 2677              		.loc 1 535 0 discriminator 1
 2678 019a FB8C     		ldrh	r3, [r7, #38]
 2679 019c 032B     		cmp	r3, #3
 2680 019e F2D9     		bls	.L88
 536:/home/virusv/TDSAST_IOT/Internet/DHCP/dhcp.c **** 				for (i = 0; i < (opt_len-4); i++) p++;
 2681              		.loc 1 536 0 is_stmt 1
 2682 01a0 0023     		movs	r3, #0
 2683 01a2 FB84     		strh	r3, [r7, #38]	@ movhi
 2684 01a4 05E0     		b	.L89
 2685              	.L90:
 2686              		.loc 1 536 0 is_stmt 0 discriminator 3
 2687 01a6 3B6A     		ldr	r3, [r7, #32]
 2688 01a8 0133     		adds	r3, r3, #1
 2689 01aa 3B62     		str	r3, [r7, #32]
 2690 01ac FB8C     		ldrh	r3, [r7, #38]
 2691 01ae 0133     		adds	r3, r3, #1
 2692 01b0 FB84     		strh	r3, [r7, #38]	@ movhi
 2693              	.L89:
 2694              		.loc 1 536 0 discriminator 1
 2695 01b2 FA8C     		ldrh	r2, [r7, #38]
 2696 01b4 FB7D     		ldrb	r3, [r7, #23]	@ zero_extendqisi2
 2697 01b6 043B     		subs	r3, r3, #4
 2698 01b8 9A42     		cmp	r2, r3
 2699 01ba F4DB     		blt	.L90
 537:/home/virusv/TDSAST_IOT/Internet/DHCP/dhcp.c **** 				break;
 2700              		.loc 1 537 0 is_stmt 1
 2701 01bc 4EE0     		b	.L69
 2702              	.L78:
 538:/home/virusv/TDSAST_IOT/Internet/DHCP/dhcp.c **** 				
 539:/home/virusv/TDSAST_IOT/Internet/DHCP/dhcp.c **** 				
 540:/home/virusv/TDSAST_IOT/Internet/DHCP/dhcp.c **** 			case dhcpIPaddrLeaseTime :
 541:/home/virusv/TDSAST_IOT/Internet/DHCP/dhcp.c **** 				p++;
 2703              		.loc 1 541 0
 2704 01be 3B6A     		ldr	r3, [r7, #32]
 2705 01c0 0133     		adds	r3, r3, #1
 2706 01c2 3B62     		str	r3, [r7, #32]
 542:/home/virusv/TDSAST_IOT/Internet/DHCP/dhcp.c **** 				opt_len = *p++;
 2707              		.loc 1 542 0
 2708 01c4 3B6A     		ldr	r3, [r7, #32]
 2709 01c6 5A1C     		adds	r2, r3, #1
 2710 01c8 3A62     		str	r2, [r7, #32]
 2711 01ca 1B78     		ldrb	r3, [r3]
 2712 01cc FB75     		strb	r3, [r7, #23]
 543:/home/virusv/TDSAST_IOT/Internet/DHCP/dhcp.c **** 				lease_time.cVal[3] = *p++;
 2713              		.loc 1 543 0
 2714 01ce 3B6A     		ldr	r3, [r7, #32]
 2715 01d0 5A1C     		adds	r2, r3, #1
 2716 01d2 3A62     		str	r2, [r7, #32]
 2717 01d4 1A78     		ldrb	r2, [r3]	@ zero_extendqisi2
 2718 01d6 2F4B     		ldr	r3, .L94+28
 2719 01d8 DA70     		strb	r2, [r3, #3]
 544:/home/virusv/TDSAST_IOT/Internet/DHCP/dhcp.c **** 				lease_time.cVal[2] = *p++;
 2720              		.loc 1 544 0
 2721 01da 3B6A     		ldr	r3, [r7, #32]
 2722 01dc 5A1C     		adds	r2, r3, #1
 2723 01de 3A62     		str	r2, [r7, #32]
 2724 01e0 1A78     		ldrb	r2, [r3]	@ zero_extendqisi2
 2725 01e2 2C4B     		ldr	r3, .L94+28
 2726 01e4 9A70     		strb	r2, [r3, #2]
 545:/home/virusv/TDSAST_IOT/Internet/DHCP/dhcp.c **** 				lease_time.cVal[1] = *p++;
 2727              		.loc 1 545 0
 2728 01e6 3B6A     		ldr	r3, [r7, #32]
 2729 01e8 5A1C     		adds	r2, r3, #1
 2730 01ea 3A62     		str	r2, [r7, #32]
 2731 01ec 1A78     		ldrb	r2, [r3]	@ zero_extendqisi2
 2732 01ee 294B     		ldr	r3, .L94+28
 2733 01f0 5A70     		strb	r2, [r3, #1]
 546:/home/virusv/TDSAST_IOT/Internet/DHCP/dhcp.c **** 				lease_time.cVal[0] = *p++;
 2734              		.loc 1 546 0
 2735 01f2 3B6A     		ldr	r3, [r7, #32]
 2736 01f4 5A1C     		adds	r2, r3, #1
 2737 01f6 3A62     		str	r2, [r7, #32]
 2738 01f8 1A78     		ldrb	r2, [r3]	@ zero_extendqisi2
 2739 01fa 264B     		ldr	r3, .L94+28
 2740 01fc 1A70     		strb	r2, [r3]
 547:/home/virusv/TDSAST_IOT/Internet/DHCP/dhcp.c **** 				break;
 2741              		.loc 1 547 0
 2742 01fe 2DE0     		b	.L69
 2743              	.L79:
 548:/home/virusv/TDSAST_IOT/Internet/DHCP/dhcp.c **** 
 549:/home/virusv/TDSAST_IOT/Internet/DHCP/dhcp.c **** 			case dhcpServerIdentifier :
 550:/home/virusv/TDSAST_IOT/Internet/DHCP/dhcp.c **** 				p++;
 2744              		.loc 1 550 0
 2745 0200 3B6A     		ldr	r3, [r7, #32]
 2746 0202 0133     		adds	r3, r3, #1
 2747 0204 3B62     		str	r3, [r7, #32]
 551:/home/virusv/TDSAST_IOT/Internet/DHCP/dhcp.c **** 				opt_len = *p++;
 2748              		.loc 1 551 0
 2749 0206 3B6A     		ldr	r3, [r7, #32]
 2750 0208 5A1C     		adds	r2, r3, #1
 2751 020a 3A62     		str	r2, [r7, #32]
 2752 020c 1B78     		ldrb	r3, [r3]
 2753 020e FB75     		strb	r3, [r7, #23]
 552:/home/virusv/TDSAST_IOT/Internet/DHCP/dhcp.c **** 				DHCP_SIP[0] = *p++;
 2754              		.loc 1 552 0
 2755 0210 3B6A     		ldr	r3, [r7, #32]
 2756 0212 5A1C     		adds	r2, r3, #1
 2757 0214 3A62     		str	r2, [r7, #32]
 2758 0216 1A78     		ldrb	r2, [r3]	@ zero_extendqisi2
 2759 0218 1F4B     		ldr	r3, .L94+32
 2760 021a 1A70     		strb	r2, [r3]
 553:/home/virusv/TDSAST_IOT/Internet/DHCP/dhcp.c **** 				DHCP_SIP[1] = *p++;
 2761              		.loc 1 553 0
 2762 021c 3B6A     		ldr	r3, [r7, #32]
 2763 021e 5A1C     		adds	r2, r3, #1
 2764 0220 3A62     		str	r2, [r7, #32]
 2765 0222 1A78     		ldrb	r2, [r3]	@ zero_extendqisi2
 2766 0224 1C4B     		ldr	r3, .L94+32
 2767 0226 5A70     		strb	r2, [r3, #1]
 554:/home/virusv/TDSAST_IOT/Internet/DHCP/dhcp.c **** 				DHCP_SIP[2] = *p++;
 2768              		.loc 1 554 0
 2769 0228 3B6A     		ldr	r3, [r7, #32]
 2770 022a 5A1C     		adds	r2, r3, #1
 2771 022c 3A62     		str	r2, [r7, #32]
 2772 022e 1A78     		ldrb	r2, [r3]	@ zero_extendqisi2
 2773 0230 194B     		ldr	r3, .L94+32
 2774 0232 9A70     		strb	r2, [r3, #2]
 555:/home/virusv/TDSAST_IOT/Internet/DHCP/dhcp.c **** 				DHCP_SIP[3] = *p++;
 2775              		.loc 1 555 0
 2776 0234 3B6A     		ldr	r3, [r7, #32]
 2777 0236 5A1C     		adds	r2, r3, #1
 2778 0238 3A62     		str	r2, [r7, #32]
 2779 023a 1A78     		ldrb	r2, [r3]	@ zero_extendqisi2
 2780 023c 164B     		ldr	r3, .L94+32
 2781 023e DA70     		strb	r2, [r3, #3]
 556:/home/virusv/TDSAST_IOT/Internet/DHCP/dhcp.c **** 				break;
 2782              		.loc 1 556 0
 2783 0240 0CE0     		b	.L69
 2784              	.L70:
 557:/home/virusv/TDSAST_IOT/Internet/DHCP/dhcp.c **** 
 558:/home/virusv/TDSAST_IOT/Internet/DHCP/dhcp.c **** 			default :
 559:/home/virusv/TDSAST_IOT/Internet/DHCP/dhcp.c **** 				p++;
 2785              		.loc 1 559 0
 2786 0242 3B6A     		ldr	r3, [r7, #32]
 2787 0244 0133     		adds	r3, r3, #1
 2788 0246 3B62     		str	r3, [r7, #32]
 560:/home/virusv/TDSAST_IOT/Internet/DHCP/dhcp.c **** 				opt_len = *p++;
 2789              		.loc 1 560 0
 2790 0248 3B6A     		ldr	r3, [r7, #32]
 2791 024a 5A1C     		adds	r2, r3, #1
 2792 024c 3A62     		str	r2, [r7, #32]
 2793 024e 1B78     		ldrb	r3, [r3]
 2794 0250 FB75     		strb	r3, [r7, #23]
 561:/home/virusv/TDSAST_IOT/Internet/DHCP/dhcp.c **** 				p += opt_len;
 2795              		.loc 1 561 0
 2796 0252 FB7D     		ldrb	r3, [r7, #23]	@ zero_extendqisi2
 2797 0254 3A6A     		ldr	r2, [r7, #32]
 2798 0256 1344     		add	r3, r3, r2
 2799 0258 3B62     		str	r3, [r7, #32]
 562:/home/virusv/TDSAST_IOT/Internet/DHCP/dhcp.c **** 				break;
 2800              		.loc 1 562 0
 2801 025a 00BF     		nop
 2802              	.L69:
 506:/home/virusv/TDSAST_IOT/Internet/DHCP/dhcp.c **** 
 2803              		.loc 1 506 0
 2804 025c 3A6A     		ldr	r2, [r7, #32]
 2805 025e BB69     		ldr	r3, [r7, #24]
 2806 0260 9A42     		cmp	r2, r3
 2807 0262 FFF41CAF 		bcc	.L91
 2808 0266 00E0     		b	.L63
 2809              	.L93:
 511:/home/virusv/TDSAST_IOT/Internet/DHCP/dhcp.c ****        			case padOption :
 2810              		.loc 1 511 0
 2811 0268 00BF     		nop
 2812              	.L63:
 563:/home/virusv/TDSAST_IOT/Internet/DHCP/dhcp.c **** 			} // switch
 564:/home/virusv/TDSAST_IOT/Internet/DHCP/dhcp.c **** 		} // while
 565:/home/virusv/TDSAST_IOT/Internet/DHCP/dhcp.c **** 	} // if
 566:/home/virusv/TDSAST_IOT/Internet/DHCP/dhcp.c **** 
 567:/home/virusv/TDSAST_IOT/Internet/DHCP/dhcp.c **** PARSE_END :
 568:/home/virusv/TDSAST_IOT/Internet/DHCP/dhcp.c **** 	return	type;
 2813              		.loc 1 568 0
 2814 026a FB7F     		ldrb	r3, [r7, #31]	@ zero_extendqisi2
 2815 026c 5BB2     		sxtb	r3, r3
 569:/home/virusv/TDSAST_IOT/Internet/DHCP/dhcp.c **** }
 2816              		.loc 1 569 0
 2817 026e 1846     		mov	r0, r3
 2818 0270 2C37     		adds	r7, r7, #44
 2819              		.cfi_def_cfa_offset 12
 2820 0272 BD46     		mov	sp, r7
 2821              		.cfi_def_cfa_register 13
 2822              		@ sp needed
 2823 0274 90BD     		pop	{r4, r7, pc}
 2824              	.L95:
 2825 0276 00BF     		.align	2
 2826              	.L94:
 2827 0278 00000000 		.word	DHCP_SOCKET
 2828 027c 00000000 		.word	MSG
 2829 0280 00000000 		.word	wizchip_mac
 2830 0284 00000000 		.word	DHCP_allocated_ip
 2831 0288 00000000 		.word	DHCP_allocated_sn
 2832 028c 00000000 		.word	DHCP_allocated_gw
 2833 0290 00000000 		.word	DHCP_allocated_dns
 2834 0294 00000000 		.word	lease_time
 2835 0298 00000000 		.word	DHCP_SIP
 2836              		.cfi_endproc
 2837              	.LFE6:
 2839              		.section	.text.check_DHCP_state,"ax",%progbits
 2840              		.align	2
 2841              		.global	check_DHCP_state
 2842              		.thumb
 2843              		.thumb_func
 2845              	check_DHCP_state:
 2846              	.LFB7:
 570:/home/virusv/TDSAST_IOT/Internet/DHCP/dhcp.c **** 
 571:/home/virusv/TDSAST_IOT/Internet/DHCP/dhcp.c **** /*
 572:/home/virusv/TDSAST_IOT/Internet/DHCP/dhcp.c **** ***************************************************************************************************
 573:/home/virusv/TDSAST_IOT/Internet/DHCP/dhcp.c **** *              CHECK DHCP STATE
 574:/home/virusv/TDSAST_IOT/Internet/DHCP/dhcp.c **** *
 575:/home/virusv/TDSAST_IOT/Internet/DHCP/dhcp.c **** * Description: This function checks the state of DHCP.
 576:/home/virusv/TDSAST_IOT/Internet/DHCP/dhcp.c **** * Arguments  : None.
 577:/home/virusv/TDSAST_IOT/Internet/DHCP/dhcp.c **** * Returns    :  DHCP_FAILED
 578:/home/virusv/TDSAST_IOT/Internet/DHCP/dhcp.c **** * 				DHCP_SUCCESS
 579:/home/virusv/TDSAST_IOT/Internet/DHCP/dhcp.c **** * 				DHCP_IP_LEASED
 580:/home/virusv/TDSAST_IOT/Internet/DHCP/dhcp.c **** * 				DHCP_RUNNING
 581:/home/virusv/TDSAST_IOT/Internet/DHCP/dhcp.c **** * 				DHCP_IP_CHANGED
 582:/home/virusv/TDSAST_IOT/Internet/DHCP/dhcp.c **** * Note       : 
 583:/home/virusv/TDSAST_IOT/Internet/DHCP/dhcp.c **** ***************************************************************************************************
 584:/home/virusv/TDSAST_IOT/Internet/DHCP/dhcp.c **** */
 585:/home/virusv/TDSAST_IOT/Internet/DHCP/dhcp.c **** uint8_t check_DHCP_state(void)
 586:/home/virusv/TDSAST_IOT/Internet/DHCP/dhcp.c **** {
 2847              		.loc 1 586 0
 2848              		.cfi_startproc
 2849              		@ args = 0, pretend = 0, frame = 16
 2850              		@ frame_needed = 1, uses_anonymous_args = 0
 2851 0000 80B5     		push	{r7, lr}
 2852              		.cfi_def_cfa_offset 8
 2853              		.cfi_offset 7, -8
 2854              		.cfi_offset 14, -4
 2855 0002 84B0     		sub	sp, sp, #16
 2856              		.cfi_def_cfa_offset 24
 2857 0004 00AF     		add	r7, sp, #0
 2858              		.cfi_def_cfa_register 7
 587:/home/virusv/TDSAST_IOT/Internet/DHCP/dhcp.c **** 	uint16_t len, i;
 588:/home/virusv/TDSAST_IOT/Internet/DHCP/dhcp.c **** 	uint8_t type, DHCP_ip_changed_flag;
 589:/home/virusv/TDSAST_IOT/Internet/DHCP/dhcp.c **** 	uint8_t d_addr[4];
 590:/home/virusv/TDSAST_IOT/Internet/DHCP/dhcp.c **** 	uint8_t ret;
 591:/home/virusv/TDSAST_IOT/Internet/DHCP/dhcp.c **** 	
 592:/home/virusv/TDSAST_IOT/Internet/DHCP/dhcp.c **** 	ret = DHCP_RUNNING;
 2859              		.loc 1 592 0
 2860 0006 0423     		movs	r3, #4
 2861 0008 FB72     		strb	r3, [r7, #11]
 593:/home/virusv/TDSAST_IOT/Internet/DHCP/dhcp.c **** 	type = 0;
 2862              		.loc 1 593 0
 2863 000a 0023     		movs	r3, #0
 2864 000c 7B73     		strb	r3, [r7, #13]
 594:/home/virusv/TDSAST_IOT/Internet/DHCP/dhcp.c **** 	
 595:/home/virusv/TDSAST_IOT/Internet/DHCP/dhcp.c **** 	if ((len = getSn_RX_RSR(DHCP_SOCKET)) > 0) {
 2865              		.loc 1 595 0
 2866 000e 7B4B     		ldr	r3, .L131
 2867 0010 1B78     		ldrb	r3, [r3]	@ zero_extendqisi2
 2868 0012 1846     		mov	r0, r3
 2869 0014 FFF7FEFF 		bl	getSn_RX_RSR
 2870 0018 0346     		mov	r3, r0
 2871 001a 3B81     		strh	r3, [r7, #8]	@ movhi
 2872 001c 3B89     		ldrh	r3, [r7, #8]
 2873 001e 002B     		cmp	r3, #0
 2874 0020 05D0     		beq	.L97
 596:/home/virusv/TDSAST_IOT/Internet/DHCP/dhcp.c **** 		type = parseDHCPMSG(len);
 2875              		.loc 1 596 0
 2876 0022 3B89     		ldrh	r3, [r7, #8]
 2877 0024 1846     		mov	r0, r3
 2878 0026 FFF7FEFF 		bl	parseDHCPMSG
 2879 002a 0346     		mov	r3, r0
 2880 002c 7B73     		strb	r3, [r7, #13]
 2881              	.L97:
 597:/home/virusv/TDSAST_IOT/Internet/DHCP/dhcp.c **** 	}
 598:/home/virusv/TDSAST_IOT/Internet/DHCP/dhcp.c **** 	switch ( dhcp_state ) {
 2882              		.loc 1 598 0
 2883 002e 744B     		ldr	r3, .L131+4
 2884 0030 1B78     		ldrb	r3, [r3]	@ zero_extendqisi2
 2885 0032 5BB2     		sxtb	r3, r3
 2886 0034 013B     		subs	r3, r3, #1
 2887 0036 042B     		cmp	r3, #4
 2888 0038 00F2DA80 		bhi	.L130
 2889 003c 01A2     		adr	r2, .L100
 2890 003e 52F823F0 		ldr	pc, [r2, r3, lsl #2]
 2891 0042 00BF     		.p2align 2
 2892              	.L100:
 2893 0044 59000000 		.word	.L99+1
 2894 0048 9B000000 		.word	.L101+1
 2895 004c EB000000 		.word	.L102+1
 2896 0050 7F010000 		.word	.L103+1
 2897 0054 F1010000 		.word	.L130+1
 2898              		.p2align 1
 2899              	.L99:
 599:/home/virusv/TDSAST_IOT/Internet/DHCP/dhcp.c **** 		case STATE_DHCP_DISCOVER :
 600:/home/virusv/TDSAST_IOT/Internet/DHCP/dhcp.c **** 			if (type == DHCP_OFFER) {
 2900              		.loc 1 600 0
 2901 0058 7B7B     		ldrb	r3, [r7, #13]	@ zero_extendqisi2
 2902 005a 022B     		cmp	r3, #2
 2903 005c 18D1     		bne	.L105
 601:/home/virusv/TDSAST_IOT/Internet/DHCP/dhcp.c **** 
 602:/home/virusv/TDSAST_IOT/Internet/DHCP/dhcp.c **** #ifdef _DHCP_DEBUG_
 603:/home/virusv/TDSAST_IOT/Internet/DHCP/dhcp.c **** 				printf("> Receive DHCP_OFFER\r\n");
 604:/home/virusv/TDSAST_IOT/Internet/DHCP/dhcp.c **** #endif
 605:/home/virusv/TDSAST_IOT/Internet/DHCP/dhcp.c **** 				
 606:/home/virusv/TDSAST_IOT/Internet/DHCP/dhcp.c **** 				for (i = 0; i < 4; i++) d_addr[i] = 0xff;
 2904              		.loc 1 606 0
 2905 005e 0023     		movs	r3, #0
 2906 0060 FB81     		strh	r3, [r7, #14]	@ movhi
 2907 0062 09E0     		b	.L106
 2908              	.L107:
 2909              		.loc 1 606 0 is_stmt 0 discriminator 3
 2910 0064 FB89     		ldrh	r3, [r7, #14]
 2911 0066 07F11002 		add	r2, r7, #16
 2912 006a 1344     		add	r3, r3, r2
 2913 006c FF22     		movs	r2, #255
 2914 006e 03F80C2C 		strb	r2, [r3, #-12]
 2915 0072 FB89     		ldrh	r3, [r7, #14]
 2916 0074 0133     		adds	r3, r3, #1
 2917 0076 FB81     		strh	r3, [r7, #14]	@ movhi
 2918              	.L106:
 2919              		.loc 1 606 0 discriminator 1
 2920 0078 FB89     		ldrh	r3, [r7, #14]
 2921 007a 032B     		cmp	r3, #3
 2922 007c F2D9     		bls	.L107
 607:/home/virusv/TDSAST_IOT/Internet/DHCP/dhcp.c **** 				send_DHCP_REQUEST(Cip, d_addr);
 2923              		.loc 1 607 0 is_stmt 1
 2924 007e 3B1D     		adds	r3, r7, #4
 2925 0080 6048     		ldr	r0, .L131+8
 2926 0082 1946     		mov	r1, r3
 2927 0084 FFF7FEFF 		bl	send_DHCP_REQUEST
 608:/home/virusv/TDSAST_IOT/Internet/DHCP/dhcp.c **** 				
 609:/home/virusv/TDSAST_IOT/Internet/DHCP/dhcp.c **** 				dhcp_state = STATE_DHCP_REQUEST;
 2928              		.loc 1 609 0
 2929 0088 5D4B     		ldr	r3, .L131+4
 2930 008a 0222     		movs	r2, #2
 2931 008c 1A70     		strb	r2, [r3]
 610:/home/virusv/TDSAST_IOT/Internet/DHCP/dhcp.c **** 			} else ret = check_DHCP_timeout();
 611:/home/virusv/TDSAST_IOT/Internet/DHCP/dhcp.c **** 		break;
 2932              		.loc 1 611 0
 2933 008e B0E0     		b	.L109
 2934              	.L105:
 610:/home/virusv/TDSAST_IOT/Internet/DHCP/dhcp.c **** 			} else ret = check_DHCP_timeout();
 2935              		.loc 1 610 0
 2936 0090 FFF7FEFF 		bl	check_DHCP_timeout
 2937 0094 0346     		mov	r3, r0
 2938 0096 FB72     		strb	r3, [r7, #11]
 2939              		.loc 1 611 0
 2940 0098 ABE0     		b	.L109
 2941              	.L101:
 612:/home/virusv/TDSAST_IOT/Internet/DHCP/dhcp.c **** 
 613:/home/virusv/TDSAST_IOT/Internet/DHCP/dhcp.c **** 		case STATE_DHCP_REQUEST :
 614:/home/virusv/TDSAST_IOT/Internet/DHCP/dhcp.c **** 			if (type == DHCP_ACK) {
 2942              		.loc 1 614 0
 2943 009a 7B7B     		ldrb	r3, [r7, #13]	@ zero_extendqisi2
 2944 009c 052B     		cmp	r3, #5
 2945 009e 15D1     		bne	.L110
 615:/home/virusv/TDSAST_IOT/Internet/DHCP/dhcp.c **** 
 616:/home/virusv/TDSAST_IOT/Internet/DHCP/dhcp.c **** #ifdef _DHCP_DEBUG_
 617:/home/virusv/TDSAST_IOT/Internet/DHCP/dhcp.c **** 				printf("> Receive DHCP_ACK\r\n");
 618:/home/virusv/TDSAST_IOT/Internet/DHCP/dhcp.c **** #endif
 619:/home/virusv/TDSAST_IOT/Internet/DHCP/dhcp.c **** 				
 620:/home/virusv/TDSAST_IOT/Internet/DHCP/dhcp.c **** 				if (check_DHCP_leasedIP()) {
 2946              		.loc 1 620 0
 2947 00a0 FFF7FEFF 		bl	check_DHCP_leasedIP
 2948 00a4 0346     		mov	r3, r0
 2949 00a6 002B     		cmp	r3, #0
 2950 00a8 0AD0     		beq	.L111
 621:/home/virusv/TDSAST_IOT/Internet/DHCP/dhcp.c **** 					// Network info assignment from DHCP
 622:/home/virusv/TDSAST_IOT/Internet/DHCP/dhcp.c **** 					dhcp_ip_assign();
 2951              		.loc 1 622 0
 2952 00aa 574B     		ldr	r3, .L131+12
 2953 00ac 1B68     		ldr	r3, [r3]
 2954 00ae 9847     		blx	r3
 623:/home/virusv/TDSAST_IOT/Internet/DHCP/dhcp.c **** 					reset_DHCP_timeout();
 2955              		.loc 1 623 0
 2956 00b0 FFF7FEFF 		bl	reset_DHCP_timeout
 624:/home/virusv/TDSAST_IOT/Internet/DHCP/dhcp.c **** 
 625:/home/virusv/TDSAST_IOT/Internet/DHCP/dhcp.c **** 					dhcp_state = STATE_DHCP_LEASED;
 2957              		.loc 1 625 0
 2958 00b4 524B     		ldr	r3, .L131+4
 2959 00b6 0322     		movs	r2, #3
 2960 00b8 1A70     		strb	r2, [r3]
 626:/home/virusv/TDSAST_IOT/Internet/DHCP/dhcp.c **** 					ret = DHCP_SUCCESS;
 2961              		.loc 1 626 0
 2962 00ba 0123     		movs	r3, #1
 2963 00bc FB72     		strb	r3, [r7, #11]
 2964 00be 13E0     		b	.L113
 2965              	.L111:
 627:/home/virusv/TDSAST_IOT/Internet/DHCP/dhcp.c **** 				} else {
 628:/home/virusv/TDSAST_IOT/Internet/DHCP/dhcp.c **** 					// IP address conflict occurred
 629:/home/virusv/TDSAST_IOT/Internet/DHCP/dhcp.c **** 					reset_DHCP_timeout();
 2966              		.loc 1 629 0
 2967 00c0 FFF7FEFF 		bl	reset_DHCP_timeout
 630:/home/virusv/TDSAST_IOT/Internet/DHCP/dhcp.c **** 					dhcp_ip_conflict();
 2968              		.loc 1 630 0
 2969 00c4 514B     		ldr	r3, .L131+16
 2970 00c6 1B68     		ldr	r3, [r3]
 2971 00c8 9847     		blx	r3
 631:/home/virusv/TDSAST_IOT/Internet/DHCP/dhcp.c **** 				}
 632:/home/virusv/TDSAST_IOT/Internet/DHCP/dhcp.c **** 			} else if (type == DHCP_NAK) {
 633:/home/virusv/TDSAST_IOT/Internet/DHCP/dhcp.c **** 
 634:/home/virusv/TDSAST_IOT/Internet/DHCP/dhcp.c **** #ifdef _DHCP_DEBUG_
 635:/home/virusv/TDSAST_IOT/Internet/DHCP/dhcp.c **** 				printf("> Receive DHCP_NACK\r\n");
 636:/home/virusv/TDSAST_IOT/Internet/DHCP/dhcp.c **** #endif
 637:/home/virusv/TDSAST_IOT/Internet/DHCP/dhcp.c **** 
 638:/home/virusv/TDSAST_IOT/Internet/DHCP/dhcp.c **** 				reset_DHCP_timeout();
 639:/home/virusv/TDSAST_IOT/Internet/DHCP/dhcp.c **** 
 640:/home/virusv/TDSAST_IOT/Internet/DHCP/dhcp.c **** 				dhcp_state = STATE_DHCP_DISCOVER;
 641:/home/virusv/TDSAST_IOT/Internet/DHCP/dhcp.c **** 			} else ret = check_DHCP_timeout();
 642:/home/virusv/TDSAST_IOT/Internet/DHCP/dhcp.c **** 		break;
 2972              		.loc 1 642 0
 2973 00ca 92E0     		b	.L109
 2974              	.L110:
 632:/home/virusv/TDSAST_IOT/Internet/DHCP/dhcp.c **** 
 2975              		.loc 1 632 0
 2976 00cc 7B7B     		ldrb	r3, [r7, #13]	@ zero_extendqisi2
 2977 00ce 062B     		cmp	r3, #6
 2978 00d0 05D1     		bne	.L114
 638:/home/virusv/TDSAST_IOT/Internet/DHCP/dhcp.c **** 
 2979              		.loc 1 638 0
 2980 00d2 FFF7FEFF 		bl	reset_DHCP_timeout
 640:/home/virusv/TDSAST_IOT/Internet/DHCP/dhcp.c **** 			} else ret = check_DHCP_timeout();
 2981              		.loc 1 640 0
 2982 00d6 4A4B     		ldr	r3, .L131+4
 2983 00d8 0122     		movs	r2, #1
 2984 00da 1A70     		strb	r2, [r3]
 2985 00dc 04E0     		b	.L113
 2986              	.L114:
 641:/home/virusv/TDSAST_IOT/Internet/DHCP/dhcp.c **** 		break;
 2987              		.loc 1 641 0
 2988 00de FFF7FEFF 		bl	check_DHCP_timeout
 2989 00e2 0346     		mov	r3, r0
 2990 00e4 FB72     		strb	r3, [r7, #11]
 2991              		.loc 1 642 0
 2992 00e6 84E0     		b	.L109
 2993              	.L113:
 2994              		.loc 1 642 0 is_stmt 0 discriminator 1
 2995 00e8 83E0     		b	.L109
 2996              	.L102:
 643:/home/virusv/TDSAST_IOT/Internet/DHCP/dhcp.c **** 
 644:/home/virusv/TDSAST_IOT/Internet/DHCP/dhcp.c **** 		case STATE_DHCP_LEASED :
 645:/home/virusv/TDSAST_IOT/Internet/DHCP/dhcp.c **** 			if ((lease_time.lVal != 0xffffffff) && ((lease_time.lVal/2) < my_time)) {
 2997              		.loc 1 645 0 is_stmt 1
 2998 00ea 494B     		ldr	r3, .L131+20
 2999 00ec 1B68     		ldr	r3, [r3]
 3000 00ee B3F1FF3F 		cmp	r3, #-1
 3001 00f2 41D0     		beq	.L115
 3002              		.loc 1 645 0 is_stmt 0 discriminator 1
 3003 00f4 464B     		ldr	r3, .L131+20
 3004 00f6 1B68     		ldr	r3, [r3]
 3005 00f8 5A08     		lsrs	r2, r3, #1
 3006 00fa 464B     		ldr	r3, .L131+24
 3007 00fc 1B68     		ldr	r3, [r3]
 3008 00fe 9A42     		cmp	r2, r3
 3009 0100 3AD2     		bcs	.L115
 646:/home/virusv/TDSAST_IOT/Internet/DHCP/dhcp.c **** 				
 647:/home/virusv/TDSAST_IOT/Internet/DHCP/dhcp.c **** #ifdef _DHCP_DEBUG_
 648:/home/virusv/TDSAST_IOT/Internet/DHCP/dhcp.c ****  				printf("> Renewal IP address \r\n");
 649:/home/virusv/TDSAST_IOT/Internet/DHCP/dhcp.c **** #endif
 650:/home/virusv/TDSAST_IOT/Internet/DHCP/dhcp.c **** 
 651:/home/virusv/TDSAST_IOT/Internet/DHCP/dhcp.c **** 				type = 0;
 3010              		.loc 1 651 0 is_stmt 1
 3011 0102 0023     		movs	r3, #0
 3012 0104 7B73     		strb	r3, [r7, #13]
 652:/home/virusv/TDSAST_IOT/Internet/DHCP/dhcp.c **** 				for (i = 0; i < 4; i++)	OLD_SIP[i] = DHCP_allocated_ip[i];
 3013              		.loc 1 652 0
 3014 0106 0023     		movs	r3, #0
 3015 0108 FB81     		strh	r3, [r7, #14]	@ movhi
 3016 010a 08E0     		b	.L116
 3017              	.L117:
 3018              		.loc 1 652 0 is_stmt 0 discriminator 3
 3019 010c FB89     		ldrh	r3, [r7, #14]
 3020 010e FA89     		ldrh	r2, [r7, #14]
 3021 0110 4149     		ldr	r1, .L131+28
 3022 0112 895C     		ldrb	r1, [r1, r2]	@ zero_extendqisi2
 3023 0114 414A     		ldr	r2, .L131+32
 3024 0116 D154     		strb	r1, [r2, r3]
 3025 0118 FB89     		ldrh	r3, [r7, #14]
 3026 011a 0133     		adds	r3, r3, #1
 3027 011c FB81     		strh	r3, [r7, #14]	@ movhi
 3028              	.L116:
 3029              		.loc 1 652 0 discriminator 1
 3030 011e FB89     		ldrh	r3, [r7, #14]
 3031 0120 032B     		cmp	r3, #3
 3032 0122 F3D9     		bls	.L117
 653:/home/virusv/TDSAST_IOT/Internet/DHCP/dhcp.c **** 				for (i = 0; i < 4; i++)	d_addr[i] = DHCP_SIP[i];
 3033              		.loc 1 653 0 is_stmt 1
 3034 0124 0023     		movs	r3, #0
 3035 0126 FB81     		strh	r3, [r7, #14]	@ movhi
 3036 0128 0BE0     		b	.L118
 3037              	.L119:
 3038              		.loc 1 653 0 is_stmt 0 discriminator 3
 3039 012a FB89     		ldrh	r3, [r7, #14]
 3040 012c FA89     		ldrh	r2, [r7, #14]
 3041 012e 3C49     		ldr	r1, .L131+36
 3042 0130 8A5C     		ldrb	r2, [r1, r2]	@ zero_extendqisi2
 3043 0132 07F11001 		add	r1, r7, #16
 3044 0136 0B44     		add	r3, r3, r1
 3045 0138 03F80C2C 		strb	r2, [r3, #-12]
 3046 013c FB89     		ldrh	r3, [r7, #14]
 3047 013e 0133     		adds	r3, r3, #1
 3048 0140 FB81     		strh	r3, [r7, #14]	@ movhi
 3049              	.L118:
 3050              		.loc 1 653 0 discriminator 1
 3051 0142 FB89     		ldrh	r3, [r7, #14]
 3052 0144 032B     		cmp	r3, #3
 3053 0146 F0D9     		bls	.L119
 654:/home/virusv/TDSAST_IOT/Internet/DHCP/dhcp.c **** 				
 655:/home/virusv/TDSAST_IOT/Internet/DHCP/dhcp.c **** 				DHCP_XID++;
 3054              		.loc 1 655 0 is_stmt 1
 3055 0148 364B     		ldr	r3, .L131+40
 3056 014a 1B68     		ldr	r3, [r3]
 3057 014c 0133     		adds	r3, r3, #1
 3058 014e 354A     		ldr	r2, .L131+40
 3059 0150 1360     		str	r3, [r2]
 656:/home/virusv/TDSAST_IOT/Internet/DHCP/dhcp.c **** 
 657:/home/virusv/TDSAST_IOT/Internet/DHCP/dhcp.c **** 				socket(DHCP_SOCKET, Sn_MR_UDP, DHCP_CLIENT_PORT, 0x00); // added
 3060              		.loc 1 657 0
 3061 0152 2A4B     		ldr	r3, .L131
 3062 0154 1B78     		ldrb	r3, [r3]	@ zero_extendqisi2
 3063 0156 1846     		mov	r0, r3
 3064 0158 0221     		movs	r1, #2
 3065 015a 4422     		movs	r2, #68
 3066 015c 0023     		movs	r3, #0
 3067 015e FFF7FEFF 		bl	socket
 658:/home/virusv/TDSAST_IOT/Internet/DHCP/dhcp.c **** 				send_DHCP_REQUEST(DHCP_allocated_ip, d_addr);
 3068              		.loc 1 658 0
 3069 0162 3B1D     		adds	r3, r7, #4
 3070 0164 2C48     		ldr	r0, .L131+28
 3071 0166 1946     		mov	r1, r3
 3072 0168 FFF7FEFF 		bl	send_DHCP_REQUEST
 659:/home/virusv/TDSAST_IOT/Internet/DHCP/dhcp.c **** 
 660:/home/virusv/TDSAST_IOT/Internet/DHCP/dhcp.c **** 				reset_DHCP_timeout();
 3073              		.loc 1 660 0
 3074 016c FFF7FEFF 		bl	reset_DHCP_timeout
 661:/home/virusv/TDSAST_IOT/Internet/DHCP/dhcp.c **** 
 662:/home/virusv/TDSAST_IOT/Internet/DHCP/dhcp.c **** 				dhcp_state = STATE_DHCP_REREQUEST;
 3075              		.loc 1 662 0
 3076 0170 234B     		ldr	r3, .L131+4
 3077 0172 0422     		movs	r2, #4
 3078 0174 1A70     		strb	r2, [r3]
 663:/home/virusv/TDSAST_IOT/Internet/DHCP/dhcp.c **** 			} else {
 664:/home/virusv/TDSAST_IOT/Internet/DHCP/dhcp.c **** 				ret = DHCP_IP_LEASED;
 665:/home/virusv/TDSAST_IOT/Internet/DHCP/dhcp.c **** 			}
 666:/home/virusv/TDSAST_IOT/Internet/DHCP/dhcp.c **** 		break;
 3079              		.loc 1 666 0
 3080 0176 3CE0     		b	.L109
 3081              	.L115:
 664:/home/virusv/TDSAST_IOT/Internet/DHCP/dhcp.c **** 			}
 3082              		.loc 1 664 0
 3083 0178 0323     		movs	r3, #3
 3084 017a FB72     		strb	r3, [r7, #11]
 3085              		.loc 1 666 0
 3086 017c 39E0     		b	.L109
 3087              	.L103:
 667:/home/virusv/TDSAST_IOT/Internet/DHCP/dhcp.c **** 
 668:/home/virusv/TDSAST_IOT/Internet/DHCP/dhcp.c **** 		case STATE_DHCP_REREQUEST :
 669:/home/virusv/TDSAST_IOT/Internet/DHCP/dhcp.c **** 			if (type == DHCP_ACK) {
 3088              		.loc 1 669 0
 3089 017e 7B7B     		ldrb	r3, [r7, #13]	@ zero_extendqisi2
 3090 0180 052B     		cmp	r3, #5
 3091 0182 26D1     		bne	.L121
 670:/home/virusv/TDSAST_IOT/Internet/DHCP/dhcp.c **** 
 671:/home/virusv/TDSAST_IOT/Internet/DHCP/dhcp.c **** #ifdef _DHCP_DEBUG_
 672:/home/virusv/TDSAST_IOT/Internet/DHCP/dhcp.c **** 				printf("> Receive DHCP_ACK, IP Renewal Success\r\n");
 673:/home/virusv/TDSAST_IOT/Internet/DHCP/dhcp.c **** #endif
 674:/home/virusv/TDSAST_IOT/Internet/DHCP/dhcp.c **** 
 675:/home/virusv/TDSAST_IOT/Internet/DHCP/dhcp.c **** 				retry_count = 0;
 3092              		.loc 1 675 0
 3093 0184 284B     		ldr	r3, .L131+44
 3094 0186 0022     		movs	r2, #0
 3095 0188 1A70     		strb	r2, [r3]
 676:/home/virusv/TDSAST_IOT/Internet/DHCP/dhcp.c **** 				DHCP_ip_changed_flag = 0;
 3096              		.loc 1 676 0
 3097 018a 0023     		movs	r3, #0
 3098 018c 3B73     		strb	r3, [r7, #12]
 677:/home/virusv/TDSAST_IOT/Internet/DHCP/dhcp.c **** 
 678:/home/virusv/TDSAST_IOT/Internet/DHCP/dhcp.c **** 				for (i = 0; i < 4; i++)	{
 3099              		.loc 1 678 0
 3100 018e 0023     		movs	r3, #0
 3101 0190 FB81     		strh	r3, [r7, #14]	@ movhi
 3102 0192 0DE0     		b	.L122
 3103              	.L125:
 679:/home/virusv/TDSAST_IOT/Internet/DHCP/dhcp.c **** 					if (OLD_SIP[i] != DHCP_allocated_ip[i]) {
 3104              		.loc 1 679 0
 3105 0194 FB89     		ldrh	r3, [r7, #14]
 3106 0196 214A     		ldr	r2, .L131+32
 3107 0198 D25C     		ldrb	r2, [r2, r3]	@ zero_extendqisi2
 3108 019a FB89     		ldrh	r3, [r7, #14]
 3109 019c 1E49     		ldr	r1, .L131+28
 3110 019e CB5C     		ldrb	r3, [r1, r3]	@ zero_extendqisi2
 3111 01a0 9A42     		cmp	r2, r3
 3112 01a2 02D0     		beq	.L123
 680:/home/virusv/TDSAST_IOT/Internet/DHCP/dhcp.c **** 						DHCP_ip_changed_flag = 1;
 3113              		.loc 1 680 0
 3114 01a4 0123     		movs	r3, #1
 3115 01a6 3B73     		strb	r3, [r7, #12]
 681:/home/virusv/TDSAST_IOT/Internet/DHCP/dhcp.c **** 						break;
 3116              		.loc 1 681 0
 3117 01a8 05E0     		b	.L124
 3118              	.L123:
 678:/home/virusv/TDSAST_IOT/Internet/DHCP/dhcp.c **** 					if (OLD_SIP[i] != DHCP_allocated_ip[i]) {
 3119              		.loc 1 678 0 discriminator 2
 3120 01aa FB89     		ldrh	r3, [r7, #14]
 3121 01ac 0133     		adds	r3, r3, #1
 3122 01ae FB81     		strh	r3, [r7, #14]	@ movhi
 3123              	.L122:
 678:/home/virusv/TDSAST_IOT/Internet/DHCP/dhcp.c **** 					if (OLD_SIP[i] != DHCP_allocated_ip[i]) {
 3124              		.loc 1 678 0 is_stmt 0 discriminator 1
 3125 01b0 FB89     		ldrh	r3, [r7, #14]
 3126 01b2 032B     		cmp	r3, #3
 3127 01b4 EED9     		bls	.L125
 3128              	.L124:
 682:/home/virusv/TDSAST_IOT/Internet/DHCP/dhcp.c **** 					}
 683:/home/virusv/TDSAST_IOT/Internet/DHCP/dhcp.c **** 				}
 684:/home/virusv/TDSAST_IOT/Internet/DHCP/dhcp.c **** 
 685:/home/virusv/TDSAST_IOT/Internet/DHCP/dhcp.c **** 				// change to new IP address
 686:/home/virusv/TDSAST_IOT/Internet/DHCP/dhcp.c **** 				if (DHCP_ip_changed_flag) {
 3129              		.loc 1 686 0 is_stmt 1
 3130 01b6 3B7B     		ldrb	r3, [r7, #12]	@ zero_extendqisi2
 3131 01b8 002B     		cmp	r3, #0
 3132 01ba 04D0     		beq	.L126
 687:/home/virusv/TDSAST_IOT/Internet/DHCP/dhcp.c **** 					ret = DHCP_IP_CHANGED;
 3133              		.loc 1 687 0
 3134 01bc 0223     		movs	r3, #2
 3135 01be FB72     		strb	r3, [r7, #11]
 688:/home/virusv/TDSAST_IOT/Internet/DHCP/dhcp.c **** 					dhcp_ip_update();
 3136              		.loc 1 688 0
 3137 01c0 1A4B     		ldr	r3, .L131+48
 3138 01c2 1B68     		ldr	r3, [r3]
 3139 01c4 9847     		blx	r3
 3140              	.L126:
 689:/home/virusv/TDSAST_IOT/Internet/DHCP/dhcp.c **** 				}
 690:/home/virusv/TDSAST_IOT/Internet/DHCP/dhcp.c **** 				reset_DHCP_timeout();
 3141              		.loc 1 690 0
 3142 01c6 FFF7FEFF 		bl	reset_DHCP_timeout
 691:/home/virusv/TDSAST_IOT/Internet/DHCP/dhcp.c **** 
 692:/home/virusv/TDSAST_IOT/Internet/DHCP/dhcp.c **** 				dhcp_state = STATE_DHCP_LEASED;
 3143              		.loc 1 692 0
 3144 01ca 0D4B     		ldr	r3, .L131+4
 3145 01cc 0322     		movs	r2, #3
 3146 01ce 1A70     		strb	r2, [r3]
 3147 01d0 0DE0     		b	.L127
 3148              	.L121:
 693:/home/virusv/TDSAST_IOT/Internet/DHCP/dhcp.c **** 			} else if (type == DHCP_NAK) {
 3149              		.loc 1 693 0
 3150 01d2 7B7B     		ldrb	r3, [r7, #13]	@ zero_extendqisi2
 3151 01d4 062B     		cmp	r3, #6
 3152 01d6 05D1     		bne	.L128
 694:/home/virusv/TDSAST_IOT/Internet/DHCP/dhcp.c **** 
 695:/home/virusv/TDSAST_IOT/Internet/DHCP/dhcp.c **** #ifdef _DHCP_DEBUG_
 696:/home/virusv/TDSAST_IOT/Internet/DHCP/dhcp.c **** 				printf("> Receive DHCP_NACK, IP Renewal Failed\r\n");
 697:/home/virusv/TDSAST_IOT/Internet/DHCP/dhcp.c **** #endif
 698:/home/virusv/TDSAST_IOT/Internet/DHCP/dhcp.c **** 
 699:/home/virusv/TDSAST_IOT/Internet/DHCP/dhcp.c **** 				reset_DHCP_timeout();
 3153              		.loc 1 699 0
 3154 01d8 FFF7FEFF 		bl	reset_DHCP_timeout
 700:/home/virusv/TDSAST_IOT/Internet/DHCP/dhcp.c **** 
 701:/home/virusv/TDSAST_IOT/Internet/DHCP/dhcp.c **** 				dhcp_state = STATE_DHCP_DISCOVER;
 3155              		.loc 1 701 0
 3156 01dc 084B     		ldr	r3, .L131+4
 3157 01de 0122     		movs	r2, #1
 3158 01e0 1A70     		strb	r2, [r3]
 3159 01e2 04E0     		b	.L127
 3160              	.L128:
 702:/home/virusv/TDSAST_IOT/Internet/DHCP/dhcp.c **** 			} else ret = check_DHCP_timeout();
 3161              		.loc 1 702 0
 3162 01e4 FFF7FEFF 		bl	check_DHCP_timeout
 3163 01e8 0346     		mov	r3, r0
 3164 01ea FB72     		strb	r3, [r7, #11]
 703:/home/virusv/TDSAST_IOT/Internet/DHCP/dhcp.c **** 		break;
 3165              		.loc 1 703 0
 3166 01ec 01E0     		b	.L109
 3167              	.L127:
 3168 01ee 00E0     		b	.L109
 3169              	.L130:
 704:/home/virusv/TDSAST_IOT/Internet/DHCP/dhcp.c **** 
 705:/home/virusv/TDSAST_IOT/Internet/DHCP/dhcp.c **** 		case STATE_DHCP_RELEASE :
 706:/home/virusv/TDSAST_IOT/Internet/DHCP/dhcp.c **** 		break;
 707:/home/virusv/TDSAST_IOT/Internet/DHCP/dhcp.c **** 
 708:/home/virusv/TDSAST_IOT/Internet/DHCP/dhcp.c **** 		default :
 709:/home/virusv/TDSAST_IOT/Internet/DHCP/dhcp.c **** 		break;
 3170              		.loc 1 709 0
 3171 01f0 00BF     		nop
 3172              	.L109:
 710:/home/virusv/TDSAST_IOT/Internet/DHCP/dhcp.c **** 	}
 711:/home/virusv/TDSAST_IOT/Internet/DHCP/dhcp.c **** 
 712:/home/virusv/TDSAST_IOT/Internet/DHCP/dhcp.c **** 	return ret;
 3173              		.loc 1 712 0
 3174 01f2 FB7A     		ldrb	r3, [r7, #11]	@ zero_extendqisi2
 713:/home/virusv/TDSAST_IOT/Internet/DHCP/dhcp.c **** }
 3175              		.loc 1 713 0
 3176 01f4 1846     		mov	r0, r3
 3177 01f6 1037     		adds	r7, r7, #16
 3178              		.cfi_def_cfa_offset 8
 3179 01f8 BD46     		mov	sp, r7
 3180              		.cfi_def_cfa_register 13
 3181              		@ sp needed
 3182 01fa 80BD     		pop	{r7, pc}
 3183              	.L132:
 3184              		.align	2
 3185              	.L131:
 3186 01fc 00000000 		.word	DHCP_SOCKET
 3187 0200 00000000 		.word	dhcp_state
 3188 0204 00000000 		.word	Cip
 3189 0208 00000000 		.word	dhcp_ip_assign
 3190 020c 00000000 		.word	dhcp_ip_conflict
 3191 0210 00000000 		.word	lease_time
 3192 0214 00000000 		.word	my_time
 3193 0218 00000000 		.word	DHCP_allocated_ip
 3194 021c 00000000 		.word	OLD_SIP
 3195 0220 00000000 		.word	DHCP_SIP
 3196 0224 00000000 		.word	DHCP_XID
 3197 0228 00000000 		.word	retry_count
 3198 022c 00000000 		.word	dhcp_ip_update
 3199              		.cfi_endproc
 3200              	.LFE7:
 3202              		.section	.text.check_DHCP_timeout,"ax",%progbits
 3203              		.align	2
 3204              		.global	check_DHCP_timeout
 3205              		.thumb
 3206              		.thumb_func
 3208              	check_DHCP_timeout:
 3209              	.LFB8:
 714:/home/virusv/TDSAST_IOT/Internet/DHCP/dhcp.c **** 
 715:/home/virusv/TDSAST_IOT/Internet/DHCP/dhcp.c **** /*
 716:/home/virusv/TDSAST_IOT/Internet/DHCP/dhcp.c **** ***************************************************************************************************
 717:/home/virusv/TDSAST_IOT/Internet/DHCP/dhcp.c **** *              CHECK DHCP TIMEOUT
 718:/home/virusv/TDSAST_IOT/Internet/DHCP/dhcp.c **** *
 719:/home/virusv/TDSAST_IOT/Internet/DHCP/dhcp.c **** * Description: This function checks the timeout of DHCP in each state.
 720:/home/virusv/TDSAST_IOT/Internet/DHCP/dhcp.c **** * Arguments  : None.
 721:/home/virusv/TDSAST_IOT/Internet/DHCP/dhcp.c **** * Returns    : DHCP_FAILED 	- Timeout occurred,
 722:/home/virusv/TDSAST_IOT/Internet/DHCP/dhcp.c **** * 			   DHCP_RUNNING - No timeout
 723:/home/virusv/TDSAST_IOT/Internet/DHCP/dhcp.c **** * Note       : 
 724:/home/virusv/TDSAST_IOT/Internet/DHCP/dhcp.c **** ***************************************************************************************************
 725:/home/virusv/TDSAST_IOT/Internet/DHCP/dhcp.c **** */
 726:/home/virusv/TDSAST_IOT/Internet/DHCP/dhcp.c **** uint8_t check_DHCP_timeout(void)
 727:/home/virusv/TDSAST_IOT/Internet/DHCP/dhcp.c **** {
 3210              		.loc 1 727 0
 3211              		.cfi_startproc
 3212              		@ args = 0, pretend = 0, frame = 8
 3213              		@ frame_needed = 1, uses_anonymous_args = 0
 3214 0000 80B5     		push	{r7, lr}
 3215              		.cfi_def_cfa_offset 8
 3216              		.cfi_offset 7, -8
 3217              		.cfi_offset 14, -4
 3218 0002 82B0     		sub	sp, sp, #8
 3219              		.cfi_def_cfa_offset 16
 3220 0004 00AF     		add	r7, sp, #0
 3221              		.cfi_def_cfa_register 7
 728:/home/virusv/TDSAST_IOT/Internet/DHCP/dhcp.c **** 	uint8_t i, d_addr[4];
 729:/home/virusv/TDSAST_IOT/Internet/DHCP/dhcp.c **** 	uint8_t ret = DHCP_RUNNING;
 3222              		.loc 1 729 0
 3223 0006 0423     		movs	r3, #4
 3224 0008 BB71     		strb	r3, [r7, #6]
 730:/home/virusv/TDSAST_IOT/Internet/DHCP/dhcp.c **** 	
 731:/home/virusv/TDSAST_IOT/Internet/DHCP/dhcp.c **** 	if (retry_count < MAX_DHCP_RETRY) {
 3225              		.loc 1 731 0
 3226 000a 3A4B     		ldr	r3, .L151
 3227 000c 1B78     		ldrb	r3, [r3]	@ zero_extendqisi2
 3228 000e 5BB2     		sxtb	r3, r3
 3229 0010 012B     		cmp	r3, #1
 3230 0012 52DC     		bgt	.L134
 732:/home/virusv/TDSAST_IOT/Internet/DHCP/dhcp.c **** 		if (next_time < my_time) {
 3231              		.loc 1 732 0
 3232 0014 384B     		ldr	r3, .L151+4
 3233 0016 1A68     		ldr	r2, [r3]
 3234 0018 384B     		ldr	r3, .L151+8
 3235 001a 1B68     		ldr	r3, [r3]
 3236 001c 9A42     		cmp	r2, r3
 3237 001e 64D2     		bcs	.L145
 733:/home/virusv/TDSAST_IOT/Internet/DHCP/dhcp.c **** 
 734:/home/virusv/TDSAST_IOT/Internet/DHCP/dhcp.c **** 			switch ( dhcp_state ) {
 3238              		.loc 1 734 0
 3239 0020 374B     		ldr	r3, .L151+12
 3240 0022 1B78     		ldrb	r3, [r3]	@ zero_extendqisi2
 3241 0024 5BB2     		sxtb	r3, r3
 3242 0026 022B     		cmp	r3, #2
 3243 0028 07D0     		beq	.L137
 3244 002a 042B     		cmp	r3, #4
 3245 002c 1BD0     		beq	.L138
 3246 002e 012B     		cmp	r3, #1
 3247 0030 00D0     		beq	.L139
 735:/home/virusv/TDSAST_IOT/Internet/DHCP/dhcp.c **** 				case STATE_DHCP_DISCOVER :
 736:/home/virusv/TDSAST_IOT/Internet/DHCP/dhcp.c **** //					printf("<<timeout>> state : STATE_DHCP_DISCOVER\r\n");
 737:/home/virusv/TDSAST_IOT/Internet/DHCP/dhcp.c **** 					send_DHCP_DISCOVER();
 738:/home/virusv/TDSAST_IOT/Internet/DHCP/dhcp.c **** 				break;
 739:/home/virusv/TDSAST_IOT/Internet/DHCP/dhcp.c **** 		
 740:/home/virusv/TDSAST_IOT/Internet/DHCP/dhcp.c **** 				case STATE_DHCP_REQUEST :
 741:/home/virusv/TDSAST_IOT/Internet/DHCP/dhcp.c **** //					printf("<<timeout>> state : STATE_DHCP_REQUEST\r\n");
 742:/home/virusv/TDSAST_IOT/Internet/DHCP/dhcp.c **** 
 743:/home/virusv/TDSAST_IOT/Internet/DHCP/dhcp.c **** 					for (i = 0; i < 4; i++) d_addr[i] = 0xff;
 744:/home/virusv/TDSAST_IOT/Internet/DHCP/dhcp.c **** 					send_DHCP_REQUEST(Cip, d_addr);
 745:/home/virusv/TDSAST_IOT/Internet/DHCP/dhcp.c **** 				break;
 746:/home/virusv/TDSAST_IOT/Internet/DHCP/dhcp.c **** 
 747:/home/virusv/TDSAST_IOT/Internet/DHCP/dhcp.c **** 				case STATE_DHCP_REREQUEST :
 748:/home/virusv/TDSAST_IOT/Internet/DHCP/dhcp.c **** //					printf("<<timeout>> state : STATE_DHCP_REREQUEST\r\n");
 749:/home/virusv/TDSAST_IOT/Internet/DHCP/dhcp.c **** 					
 750:/home/virusv/TDSAST_IOT/Internet/DHCP/dhcp.c **** 					for (i = 0; i < 4; i++)	d_addr[i] = DHCP_SIP[i];
 751:/home/virusv/TDSAST_IOT/Internet/DHCP/dhcp.c **** 					send_DHCP_REQUEST(DHCP_allocated_ip, d_addr);
 752:/home/virusv/TDSAST_IOT/Internet/DHCP/dhcp.c **** 				break;
 753:/home/virusv/TDSAST_IOT/Internet/DHCP/dhcp.c **** 		
 754:/home/virusv/TDSAST_IOT/Internet/DHCP/dhcp.c **** 				default :
 755:/home/virusv/TDSAST_IOT/Internet/DHCP/dhcp.c **** 				break;
 3248              		.loc 1 755 0
 3249 0032 30E0     		b	.L140
 3250              	.L139:
 737:/home/virusv/TDSAST_IOT/Internet/DHCP/dhcp.c **** 				break;
 3251              		.loc 1 737 0
 3252 0034 FFF7FEFF 		bl	send_DHCP_DISCOVER
 738:/home/virusv/TDSAST_IOT/Internet/DHCP/dhcp.c **** 		
 3253              		.loc 1 738 0
 3254 0038 2DE0     		b	.L140
 3255              	.L137:
 743:/home/virusv/TDSAST_IOT/Internet/DHCP/dhcp.c **** 					send_DHCP_REQUEST(Cip, d_addr);
 3256              		.loc 1 743 0
 3257 003a 0023     		movs	r3, #0
 3258 003c FB71     		strb	r3, [r7, #7]
 3259 003e 09E0     		b	.L141
 3260              	.L142:
 743:/home/virusv/TDSAST_IOT/Internet/DHCP/dhcp.c **** 					send_DHCP_REQUEST(Cip, d_addr);
 3261              		.loc 1 743 0 is_stmt 0 discriminator 3
 3262 0040 FB79     		ldrb	r3, [r7, #7]	@ zero_extendqisi2
 3263 0042 07F10802 		add	r2, r7, #8
 3264 0046 1344     		add	r3, r3, r2
 3265 0048 FF22     		movs	r2, #255
 3266 004a 03F8082C 		strb	r2, [r3, #-8]
 3267 004e FB79     		ldrb	r3, [r7, #7]	@ zero_extendqisi2
 3268 0050 0133     		adds	r3, r3, #1
 3269 0052 FB71     		strb	r3, [r7, #7]
 3270              	.L141:
 743:/home/virusv/TDSAST_IOT/Internet/DHCP/dhcp.c **** 					send_DHCP_REQUEST(Cip, d_addr);
 3271              		.loc 1 743 0 discriminator 1
 3272 0054 FB79     		ldrb	r3, [r7, #7]	@ zero_extendqisi2
 3273 0056 032B     		cmp	r3, #3
 3274 0058 F2D9     		bls	.L142
 744:/home/virusv/TDSAST_IOT/Internet/DHCP/dhcp.c **** 				break;
 3275              		.loc 1 744 0 is_stmt 1
 3276 005a 3B46     		mov	r3, r7
 3277 005c 2948     		ldr	r0, .L151+16
 3278 005e 1946     		mov	r1, r3
 3279 0060 FFF7FEFF 		bl	send_DHCP_REQUEST
 745:/home/virusv/TDSAST_IOT/Internet/DHCP/dhcp.c **** 
 3280              		.loc 1 745 0
 3281 0064 17E0     		b	.L140
 3282              	.L138:
 750:/home/virusv/TDSAST_IOT/Internet/DHCP/dhcp.c **** 					send_DHCP_REQUEST(DHCP_allocated_ip, d_addr);
 3283              		.loc 1 750 0
 3284 0066 0023     		movs	r3, #0
 3285 0068 FB71     		strb	r3, [r7, #7]
 3286 006a 0BE0     		b	.L143
 3287              	.L144:
 750:/home/virusv/TDSAST_IOT/Internet/DHCP/dhcp.c **** 					send_DHCP_REQUEST(DHCP_allocated_ip, d_addr);
 3288              		.loc 1 750 0 is_stmt 0 discriminator 3
 3289 006c FB79     		ldrb	r3, [r7, #7]	@ zero_extendqisi2
 3290 006e FA79     		ldrb	r2, [r7, #7]	@ zero_extendqisi2
 3291 0070 2549     		ldr	r1, .L151+20
 3292 0072 8A5C     		ldrb	r2, [r1, r2]	@ zero_extendqisi2
 3293 0074 07F10801 		add	r1, r7, #8
 3294 0078 0B44     		add	r3, r3, r1
 3295 007a 03F8082C 		strb	r2, [r3, #-8]
 3296 007e FB79     		ldrb	r3, [r7, #7]	@ zero_extendqisi2
 3297 0080 0133     		adds	r3, r3, #1
 3298 0082 FB71     		strb	r3, [r7, #7]
 3299              	.L143:
 750:/home/virusv/TDSAST_IOT/Internet/DHCP/dhcp.c **** 					send_DHCP_REQUEST(DHCP_allocated_ip, d_addr);
 3300              		.loc 1 750 0 discriminator 1
 3301 0084 FB79     		ldrb	r3, [r7, #7]	@ zero_extendqisi2
 3302 0086 032B     		cmp	r3, #3
 3303 0088 F0D9     		bls	.L144
 751:/home/virusv/TDSAST_IOT/Internet/DHCP/dhcp.c **** 				break;
 3304              		.loc 1 751 0 is_stmt 1
 3305 008a 3B46     		mov	r3, r7
 3306 008c 1F48     		ldr	r0, .L151+24
 3307 008e 1946     		mov	r1, r3
 3308 0090 FFF7FEFF 		bl	send_DHCP_REQUEST
 752:/home/virusv/TDSAST_IOT/Internet/DHCP/dhcp.c **** 		
 3309              		.loc 1 752 0
 3310 0094 00BF     		nop
 3311              	.L140:
 756:/home/virusv/TDSAST_IOT/Internet/DHCP/dhcp.c **** 			}
 757:/home/virusv/TDSAST_IOT/Internet/DHCP/dhcp.c **** 
 758:/home/virusv/TDSAST_IOT/Internet/DHCP/dhcp.c **** 			my_time = 0;
 3312              		.loc 1 758 0
 3313 0096 194B     		ldr	r3, .L151+8
 3314 0098 0022     		movs	r2, #0
 3315 009a 1A60     		str	r2, [r3]
 759:/home/virusv/TDSAST_IOT/Internet/DHCP/dhcp.c **** 			next_time = my_time + DHCP_WAIT_TIME;
 3316              		.loc 1 759 0
 3317 009c 174B     		ldr	r3, .L151+8
 3318 009e 1B68     		ldr	r3, [r3]
 3319 00a0 0A33     		adds	r3, r3, #10
 3320 00a2 154A     		ldr	r2, .L151+4
 3321 00a4 1360     		str	r3, [r2]
 760:/home/virusv/TDSAST_IOT/Internet/DHCP/dhcp.c **** 			retry_count++;
 3322              		.loc 1 760 0
 3323 00a6 134B     		ldr	r3, .L151
 3324 00a8 1B78     		ldrb	r3, [r3]	@ zero_extendqisi2
 3325 00aa DBB2     		uxtb	r3, r3
 3326 00ac DBB2     		uxtb	r3, r3
 3327 00ae 0133     		adds	r3, r3, #1
 3328 00b0 DBB2     		uxtb	r3, r3
 3329 00b2 DAB2     		uxtb	r2, r3
 3330 00b4 0F4B     		ldr	r3, .L151
 3331 00b6 1A70     		strb	r2, [r3]
 3332 00b8 17E0     		b	.L145
 3333              	.L134:
 761:/home/virusv/TDSAST_IOT/Internet/DHCP/dhcp.c **** 		}
 762:/home/virusv/TDSAST_IOT/Internet/DHCP/dhcp.c **** 	} else { // timeout occurred
 763:/home/virusv/TDSAST_IOT/Internet/DHCP/dhcp.c **** 
 764:/home/virusv/TDSAST_IOT/Internet/DHCP/dhcp.c **** 		switch(dhcp_state) {
 3334              		.loc 1 764 0
 3335 00ba 114B     		ldr	r3, .L151+12
 3336 00bc 1B78     		ldrb	r3, [r3]	@ zero_extendqisi2
 3337 00be 5BB2     		sxtb	r3, r3
 3338 00c0 022B     		cmp	r3, #2
 3339 00c2 0AD0     		beq	.L147
 3340 00c4 042B     		cmp	r3, #4
 3341 00c6 08D0     		beq	.L147
 3342 00c8 012B     		cmp	r3, #1
 3343 00ca 00D0     		beq	.L148
 765:/home/virusv/TDSAST_IOT/Internet/DHCP/dhcp.c **** 			case STATE_DHCP_DISCOVER:
 766:/home/virusv/TDSAST_IOT/Internet/DHCP/dhcp.c **** 				dhcp_state = STATE_DHCP_INIT;
 767:/home/virusv/TDSAST_IOT/Internet/DHCP/dhcp.c **** 				ret = DHCP_FAILED;
 768:/home/virusv/TDSAST_IOT/Internet/DHCP/dhcp.c **** 				break;
 769:/home/virusv/TDSAST_IOT/Internet/DHCP/dhcp.c **** 			case STATE_DHCP_REQUEST:
 770:/home/virusv/TDSAST_IOT/Internet/DHCP/dhcp.c **** 			case STATE_DHCP_REREQUEST:
 771:/home/virusv/TDSAST_IOT/Internet/DHCP/dhcp.c **** 				send_DHCP_DISCOVER();
 772:/home/virusv/TDSAST_IOT/Internet/DHCP/dhcp.c **** 				dhcp_state = STATE_DHCP_DISCOVER;
 773:/home/virusv/TDSAST_IOT/Internet/DHCP/dhcp.c **** 				break;
 774:/home/virusv/TDSAST_IOT/Internet/DHCP/dhcp.c **** 			default :
 775:/home/virusv/TDSAST_IOT/Internet/DHCP/dhcp.c **** 				break;
 3344              		.loc 1 775 0
 3345 00cc 0BE0     		b	.L149
 3346              	.L148:
 766:/home/virusv/TDSAST_IOT/Internet/DHCP/dhcp.c **** 				ret = DHCP_FAILED;
 3347              		.loc 1 766 0
 3348 00ce 0C4B     		ldr	r3, .L151+12
 3349 00d0 0022     		movs	r2, #0
 3350 00d2 1A70     		strb	r2, [r3]
 767:/home/virusv/TDSAST_IOT/Internet/DHCP/dhcp.c **** 				break;
 3351              		.loc 1 767 0
 3352 00d4 0023     		movs	r3, #0
 3353 00d6 BB71     		strb	r3, [r7, #6]
 768:/home/virusv/TDSAST_IOT/Internet/DHCP/dhcp.c **** 			case STATE_DHCP_REQUEST:
 3354              		.loc 1 768 0
 3355 00d8 05E0     		b	.L149
 3356              	.L147:
 771:/home/virusv/TDSAST_IOT/Internet/DHCP/dhcp.c **** 				dhcp_state = STATE_DHCP_DISCOVER;
 3357              		.loc 1 771 0
 3358 00da FFF7FEFF 		bl	send_DHCP_DISCOVER
 772:/home/virusv/TDSAST_IOT/Internet/DHCP/dhcp.c **** 				break;
 3359              		.loc 1 772 0
 3360 00de 084B     		ldr	r3, .L151+12
 3361 00e0 0122     		movs	r2, #1
 3362 00e2 1A70     		strb	r2, [r3]
 773:/home/virusv/TDSAST_IOT/Internet/DHCP/dhcp.c **** 			default :
 3363              		.loc 1 773 0
 3364 00e4 00BF     		nop
 3365              	.L149:
 776:/home/virusv/TDSAST_IOT/Internet/DHCP/dhcp.c **** 		}
 777:/home/virusv/TDSAST_IOT/Internet/DHCP/dhcp.c **** 		reset_DHCP_timeout();
 3366              		.loc 1 777 0
 3367 00e6 FFF7FEFF 		bl	reset_DHCP_timeout
 3368              	.L145:
 778:/home/virusv/TDSAST_IOT/Internet/DHCP/dhcp.c **** 	}
 779:/home/virusv/TDSAST_IOT/Internet/DHCP/dhcp.c **** 	return ret;
 3369              		.loc 1 779 0
 3370 00ea BB79     		ldrb	r3, [r7, #6]	@ zero_extendqisi2
 780:/home/virusv/TDSAST_IOT/Internet/DHCP/dhcp.c **** }
 3371              		.loc 1 780 0
 3372 00ec 1846     		mov	r0, r3
 3373 00ee 0837     		adds	r7, r7, #8
 3374              		.cfi_def_cfa_offset 8
 3375 00f0 BD46     		mov	sp, r7
 3376              		.cfi_def_cfa_register 13
 3377              		@ sp needed
 3378 00f2 80BD     		pop	{r7, pc}
 3379              	.L152:
 3380              		.align	2
 3381              	.L151:
 3382 00f4 00000000 		.word	retry_count
 3383 00f8 00000000 		.word	next_time
 3384 00fc 00000000 		.word	my_time
 3385 0100 00000000 		.word	dhcp_state
 3386 0104 00000000 		.word	Cip
 3387 0108 00000000 		.word	DHCP_SIP
 3388 010c 00000000 		.word	DHCP_allocated_ip
 3389              		.cfi_endproc
 3390              	.LFE8:
 3392              		.section	.rodata
 3393              		.align	2
 3394              	.LC0:
 3395 0000 43484543 		.ascii	"CHECK_IP_CONFLICT\000"
 3395      4B5F4950 
 3395      5F434F4E 
 3395      464C4943 
 3395      5400
 3396              		.section	.text.check_DHCP_leasedIP,"ax",%progbits
 3397              		.align	2
 3398              		.global	check_DHCP_leasedIP
 3399              		.thumb
 3400              		.thumb_func
 3402              	check_DHCP_leasedIP:
 3403              	.LFB9:
 781:/home/virusv/TDSAST_IOT/Internet/DHCP/dhcp.c **** 
 782:/home/virusv/TDSAST_IOT/Internet/DHCP/dhcp.c **** /*
 783:/home/virusv/TDSAST_IOT/Internet/DHCP/dhcp.c **** ***************************************************************************************************
 784:/home/virusv/TDSAST_IOT/Internet/DHCP/dhcp.c **** *              CHECK DHCP TIMEOUT
 785:/home/virusv/TDSAST_IOT/Internet/DHCP/dhcp.c **** *
 786:/home/virusv/TDSAST_IOT/Internet/DHCP/dhcp.c **** * Description: This function checks if a leased IP is valid
 787:/home/virusv/TDSAST_IOT/Internet/DHCP/dhcp.c **** * Arguments  : None.
 788:/home/virusv/TDSAST_IOT/Internet/DHCP/dhcp.c **** * Returns    : 1 - leased IP OK,
 789:/home/virusv/TDSAST_IOT/Internet/DHCP/dhcp.c **** * 			   0 - IP conflict occurred
 790:/home/virusv/TDSAST_IOT/Internet/DHCP/dhcp.c **** * Note       :
 791:/home/virusv/TDSAST_IOT/Internet/DHCP/dhcp.c **** ***************************************************************************************************
 792:/home/virusv/TDSAST_IOT/Internet/DHCP/dhcp.c **** */
 793:/home/virusv/TDSAST_IOT/Internet/DHCP/dhcp.c **** //
 794:/home/virusv/TDSAST_IOT/Internet/DHCP/dhcp.c **** int8_t check_DHCP_leasedIP(void)
 795:/home/virusv/TDSAST_IOT/Internet/DHCP/dhcp.c **** {
 3404              		.loc 1 795 0
 3405              		.cfi_startproc
 3406              		@ args = 0, pretend = 0, frame = 8
 3407              		@ frame_needed = 1, uses_anonymous_args = 0
 3408 0000 80B5     		push	{r7, lr}
 3409              		.cfi_def_cfa_offset 8
 3410              		.cfi_offset 7, -8
 3411              		.cfi_offset 14, -4
 3412 0002 84B0     		sub	sp, sp, #16
 3413              		.cfi_def_cfa_offset 24
 3414 0004 02AF     		add	r7, sp, #8
 3415              		.cfi_def_cfa 7, 16
 796:/home/virusv/TDSAST_IOT/Internet/DHCP/dhcp.c **** 	uint8_t tmp;
 797:/home/virusv/TDSAST_IOT/Internet/DHCP/dhcp.c **** 	int32_t ret;
 798:/home/virusv/TDSAST_IOT/Internet/DHCP/dhcp.c **** 
 799:/home/virusv/TDSAST_IOT/Internet/DHCP/dhcp.c **** 	//WIZchip RCR value changed for ARP Timeout count control
 800:/home/virusv/TDSAST_IOT/Internet/DHCP/dhcp.c **** 	tmp = getRCR();
 3416              		.loc 1 800 0
 3417 0006 4FF4D850 		mov	r0, #6912
 3418 000a FFF7FEFF 		bl	WIZCHIP_READ
 3419 000e 0346     		mov	r3, r0
 3420 0010 FB71     		strb	r3, [r7, #7]
 801:/home/virusv/TDSAST_IOT/Internet/DHCP/dhcp.c **** 	setRCR(0x03);
 3421              		.loc 1 801 0
 3422 0012 4FF4D850 		mov	r0, #6912
 3423 0016 0321     		movs	r1, #3
 3424 0018 FFF7FEFF 		bl	WIZCHIP_WRITE
 802:/home/virusv/TDSAST_IOT/Internet/DHCP/dhcp.c **** 
 803:/home/virusv/TDSAST_IOT/Internet/DHCP/dhcp.c **** 	// IP conflict detection : ARP request - ARP reply
 804:/home/virusv/TDSAST_IOT/Internet/DHCP/dhcp.c **** 	// Broadcasting ARP Request for check the IP conflict using UDP sendto() function
 805:/home/virusv/TDSAST_IOT/Internet/DHCP/dhcp.c **** 	ret = sendto(DHCP_SOCKET, (uint8_t *)"CHECK_IP_CONFLICT", 17, DHCP_allocated_ip, 5000);
 3425              		.loc 1 805 0
 3426 001c 154B     		ldr	r3, .L158
 3427 001e 1A78     		ldrb	r2, [r3]	@ zero_extendqisi2
 3428 0020 41F28833 		movw	r3, #5000
 3429 0024 0093     		str	r3, [sp]
 3430 0026 1046     		mov	r0, r2
 3431 0028 1349     		ldr	r1, .L158+4
 3432 002a 1122     		movs	r2, #17
 3433 002c 134B     		ldr	r3, .L158+8
 3434 002e FFF7FEFF 		bl	sendto
 3435 0032 3860     		str	r0, [r7]
 806:/home/virusv/TDSAST_IOT/Internet/DHCP/dhcp.c **** 
 807:/home/virusv/TDSAST_IOT/Internet/DHCP/dhcp.c **** 	// RCR value restore
 808:/home/virusv/TDSAST_IOT/Internet/DHCP/dhcp.c **** 	setRCR(tmp);
 3436              		.loc 1 808 0
 3437 0034 FB79     		ldrb	r3, [r7, #7]	@ zero_extendqisi2
 3438 0036 4FF4D850 		mov	r0, #6912
 3439 003a 1946     		mov	r1, r3
 3440 003c FFF7FEFF 		bl	WIZCHIP_WRITE
 809:/home/virusv/TDSAST_IOT/Internet/DHCP/dhcp.c **** 
 810:/home/virusv/TDSAST_IOT/Internet/DHCP/dhcp.c **** 	if(ret == SOCKERR_TIMEOUT) {
 3441              		.loc 1 810 0
 3442 0040 3B68     		ldr	r3, [r7]
 3443 0042 13F10D0F 		cmn	r3, #13
 3444 0046 01D1     		bne	.L154
 811:/home/virusv/TDSAST_IOT/Internet/DHCP/dhcp.c **** 		// UDP send Timeout occurred : allocated IP address is unique, DHCP Success
 812:/home/virusv/TDSAST_IOT/Internet/DHCP/dhcp.c **** 
 813:/home/virusv/TDSAST_IOT/Internet/DHCP/dhcp.c **** #ifdef _DHCP_DEBUG_
 814:/home/virusv/TDSAST_IOT/Internet/DHCP/dhcp.c **** 		printf("\r\n> Check leased IP - OK\r\n");
 815:/home/virusv/TDSAST_IOT/Internet/DHCP/dhcp.c **** #endif
 816:/home/virusv/TDSAST_IOT/Internet/DHCP/dhcp.c **** 
 817:/home/virusv/TDSAST_IOT/Internet/DHCP/dhcp.c **** 		return 1;
 3445              		.loc 1 817 0
 3446 0048 0123     		movs	r3, #1
 3447 004a 0EE0     		b	.L155
 3448              	.L154:
 818:/home/virusv/TDSAST_IOT/Internet/DHCP/dhcp.c **** 	} else {
 819:/home/virusv/TDSAST_IOT/Internet/DHCP/dhcp.c **** 		// Received ARP reply or etc : IP address conflict occur, DHCP Failed
 820:/home/virusv/TDSAST_IOT/Internet/DHCP/dhcp.c **** 		send_DHCP_DECLINE();
 3449              		.loc 1 820 0
 3450 004c FFF7FEFF 		bl	send_DHCP_DECLINE
 821:/home/virusv/TDSAST_IOT/Internet/DHCP/dhcp.c **** 		for(tmp = 0; tmp < 10; tmp++) getMR(); // for delay
 3451              		.loc 1 821 0
 3452 0050 0023     		movs	r3, #0
 3453 0052 FB71     		strb	r3, [r7, #7]
 3454 0054 05E0     		b	.L156
 3455              	.L157:
 3456              		.loc 1 821 0 is_stmt 0 discriminator 3
 3457 0056 0020     		movs	r0, #0
 3458 0058 FFF7FEFF 		bl	WIZCHIP_READ
 3459 005c FB79     		ldrb	r3, [r7, #7]	@ zero_extendqisi2
 3460 005e 0133     		adds	r3, r3, #1
 3461 0060 FB71     		strb	r3, [r7, #7]
 3462              	.L156:
 3463              		.loc 1 821 0 discriminator 1
 3464 0062 FB79     		ldrb	r3, [r7, #7]	@ zero_extendqisi2
 3465 0064 092B     		cmp	r3, #9
 3466 0066 F6D9     		bls	.L157
 822:/home/virusv/TDSAST_IOT/Internet/DHCP/dhcp.c **** 		return 0;
 3467              		.loc 1 822 0 is_stmt 1
 3468 0068 0023     		movs	r3, #0
 3469              	.L155:
 3470 006a 5BB2     		sxtb	r3, r3
 823:/home/virusv/TDSAST_IOT/Internet/DHCP/dhcp.c **** 	}
 824:/home/virusv/TDSAST_IOT/Internet/DHCP/dhcp.c **** }	
 3471              		.loc 1 824 0
 3472 006c 1846     		mov	r0, r3
 3473 006e 0837     		adds	r7, r7, #8
 3474              		.cfi_def_cfa_offset 8
 3475 0070 BD46     		mov	sp, r7
 3476              		.cfi_def_cfa_register 13
 3477              		@ sp needed
 3478 0072 80BD     		pop	{r7, pc}
 3479              	.L159:
 3480              		.align	2
 3481              	.L158:
 3482 0074 00000000 		.word	DHCP_SOCKET
 3483 0078 00000000 		.word	.LC0
 3484 007c 00000000 		.word	DHCP_allocated_ip
 3485              		.cfi_endproc
 3486              	.LFE9:
 3488              		.section	.text.DHCP_init,"ax",%progbits
 3489              		.align	2
 3490              		.global	DHCP_init
 3491              		.thumb
 3492              		.thumb_func
 3494              	DHCP_init:
 3495              	.LFB10:
 825:/home/virusv/TDSAST_IOT/Internet/DHCP/dhcp.c **** 
 826:/home/virusv/TDSAST_IOT/Internet/DHCP/dhcp.c **** /*
 827:/home/virusv/TDSAST_IOT/Internet/DHCP/dhcp.c **** ***************************************************************************************************
 828:/home/virusv/TDSAST_IOT/Internet/DHCP/dhcp.c **** *              DHCP INIT
 829:/home/virusv/TDSAST_IOT/Internet/DHCP/dhcp.c **** *
 830:/home/virusv/TDSAST_IOT/Internet/DHCP/dhcp.c **** * Description: this function initialize DHCP client.
 831:/home/virusv/TDSAST_IOT/Internet/DHCP/dhcp.c **** * Arguments  : s 	- is a socket number,
 832:/home/virusv/TDSAST_IOT/Internet/DHCP/dhcp.c **** * 			   buf  - is memory space for DHCP message.
 833:/home/virusv/TDSAST_IOT/Internet/DHCP/dhcp.c **** * Returns    : None.
 834:/home/virusv/TDSAST_IOT/Internet/DHCP/dhcp.c **** * Note       : 
 835:/home/virusv/TDSAST_IOT/Internet/DHCP/dhcp.c **** ***************************************************************************************************
 836:/home/virusv/TDSAST_IOT/Internet/DHCP/dhcp.c **** */
 837:/home/virusv/TDSAST_IOT/Internet/DHCP/dhcp.c **** 
 838:/home/virusv/TDSAST_IOT/Internet/DHCP/dhcp.c **** void DHCP_init(uint8_t s, uint8_t * buf)
 839:/home/virusv/TDSAST_IOT/Internet/DHCP/dhcp.c **** {
 3496              		.loc 1 839 0
 3497              		.cfi_startproc
 3498              		@ args = 0, pretend = 0, frame = 8
 3499              		@ frame_needed = 1, uses_anonymous_args = 0
 3500 0000 80B5     		push	{r7, lr}
 3501              		.cfi_def_cfa_offset 8
 3502              		.cfi_offset 7, -8
 3503              		.cfi_offset 14, -4
 3504 0002 82B0     		sub	sp, sp, #8
 3505              		.cfi_def_cfa_offset 16
 3506 0004 00AF     		add	r7, sp, #0
 3507              		.cfi_def_cfa_register 7
 3508 0006 0346     		mov	r3, r0
 3509 0008 3960     		str	r1, [r7]
 3510 000a FB71     		strb	r3, [r7, #7]
 840:/home/virusv/TDSAST_IOT/Internet/DHCP/dhcp.c **** 	DHCP_SOCKET = s; // SOCK_DHCP
 3511              		.loc 1 840 0
 3512 000c 174A     		ldr	r2, .L161
 3513 000e FB79     		ldrb	r3, [r7, #7]
 3514 0010 1370     		strb	r3, [r2]
 841:/home/virusv/TDSAST_IOT/Internet/DHCP/dhcp.c **** 	MSG = (RIP_MSG*)buf;
 3515              		.loc 1 841 0
 3516 0012 174A     		ldr	r2, .L161+4
 3517 0014 3B68     		ldr	r3, [r7]
 3518 0016 1360     		str	r3, [r2]
 842:/home/virusv/TDSAST_IOT/Internet/DHCP/dhcp.c **** 	DHCP_XID = 0x12345678;
 3519              		.loc 1 842 0
 3520 0018 164B     		ldr	r3, .L161+8
 3521 001a 174A     		ldr	r2, .L161+12
 3522 001c 1A60     		str	r2, [r3]
 843:/home/virusv/TDSAST_IOT/Internet/DHCP/dhcp.c **** 
 844:/home/virusv/TDSAST_IOT/Internet/DHCP/dhcp.c **** 	// Get the MAC address
 845:/home/virusv/TDSAST_IOT/Internet/DHCP/dhcp.c **** 	getSHAR(wizchip_mac);
 3523              		.loc 1 845 0
 3524 001e 4FF41060 		mov	r0, #2304
 3525 0022 1649     		ldr	r1, .L161+16
 3526 0024 0622     		movs	r2, #6
 3527 0026 FFF7FEFF 		bl	WIZCHIP_READ_BUF
 846:/home/virusv/TDSAST_IOT/Internet/DHCP/dhcp.c **** 
 847:/home/virusv/TDSAST_IOT/Internet/DHCP/dhcp.c **** 	// WIZchip Netinfo Clear
 848:/home/virusv/TDSAST_IOT/Internet/DHCP/dhcp.c **** 	setSIPR(Cip);
 3528              		.loc 1 848 0
 3529 002a 4FF47060 		mov	r0, #3840
 3530 002e 1449     		ldr	r1, .L161+20
 3531 0030 0422     		movs	r2, #4
 3532 0032 FFF7FEFF 		bl	WIZCHIP_WRITE_BUF
 849:/home/virusv/TDSAST_IOT/Internet/DHCP/dhcp.c **** 	setSIPR(Cip);
 3533              		.loc 1 849 0
 3534 0036 4FF47060 		mov	r0, #3840
 3535 003a 1149     		ldr	r1, .L161+20
 3536 003c 0422     		movs	r2, #4
 3537 003e FFF7FEFF 		bl	WIZCHIP_WRITE_BUF
 850:/home/virusv/TDSAST_IOT/Internet/DHCP/dhcp.c **** 	setGAR(Cip);
 3538              		.loc 1 850 0
 3539 0042 4FF48070 		mov	r0, #256
 3540 0046 0E49     		ldr	r1, .L161+20
 3541 0048 0422     		movs	r2, #4
 3542 004a FFF7FEFF 		bl	WIZCHIP_WRITE_BUF
 851:/home/virusv/TDSAST_IOT/Internet/DHCP/dhcp.c **** 
 852:/home/virusv/TDSAST_IOT/Internet/DHCP/dhcp.c **** 	dhcp_state = STATE_DHCP_INIT;
 3543              		.loc 1 852 0
 3544 004e 0D4B     		ldr	r3, .L161+24
 3545 0050 0022     		movs	r2, #0
 3546 0052 1A70     		strb	r2, [r3]
 853:/home/virusv/TDSAST_IOT/Internet/DHCP/dhcp.c **** 	socket(DHCP_SOCKET, Sn_MR_UDP, DHCP_CLIENT_PORT, 0x00);
 3547              		.loc 1 853 0
 3548 0054 054B     		ldr	r3, .L161
 3549 0056 1B78     		ldrb	r3, [r3]	@ zero_extendqisi2
 3550 0058 1846     		mov	r0, r3
 3551 005a 0221     		movs	r1, #2
 3552 005c 4422     		movs	r2, #68
 3553 005e 0023     		movs	r3, #0
 3554 0060 FFF7FEFF 		bl	socket
 854:/home/virusv/TDSAST_IOT/Internet/DHCP/dhcp.c **** }
 3555              		.loc 1 854 0
 3556 0064 0837     		adds	r7, r7, #8
 3557              		.cfi_def_cfa_offset 8
 3558 0066 BD46     		mov	sp, r7
 3559              		.cfi_def_cfa_register 13
 3560              		@ sp needed
 3561 0068 80BD     		pop	{r7, pc}
 3562              	.L162:
 3563 006a 00BF     		.align	2
 3564              	.L161:
 3565 006c 00000000 		.word	DHCP_SOCKET
 3566 0070 00000000 		.word	MSG
 3567 0074 00000000 		.word	DHCP_XID
 3568 0078 78563412 		.word	305419896
 3569 007c 00000000 		.word	wizchip_mac
 3570 0080 00000000 		.word	Cip
 3571 0084 00000000 		.word	dhcp_state
 3572              		.cfi_endproc
 3573              	.LFE10:
 3575              		.section	.text.DHCP_run,"ax",%progbits
 3576              		.align	2
 3577              		.global	DHCP_run
 3578              		.thumb
 3579              		.thumb_func
 3581              	DHCP_run:
 3582              	.LFB11:
 855:/home/virusv/TDSAST_IOT/Internet/DHCP/dhcp.c **** 
 856:/home/virusv/TDSAST_IOT/Internet/DHCP/dhcp.c **** /*
 857:/home/virusv/TDSAST_IOT/Internet/DHCP/dhcp.c **** ***************************************************************************************************
 858:/home/virusv/TDSAST_IOT/Internet/DHCP/dhcp.c **** *				DHCP RUN
 859:/home/virusv/TDSAST_IOT/Internet/DHCP/dhcp.c **** *
 860:/home/virusv/TDSAST_IOT/Internet/DHCP/dhcp.c **** * Description: this function get an IP from the DHCP server and check the DHCP lease time in main l
 861:/home/virusv/TDSAST_IOT/Internet/DHCP/dhcp.c **** * Arguments  : None.
 862:/home/virusv/TDSAST_IOT/Internet/DHCP/dhcp.c **** * Returns    : 	DHCP_FAILED
 863:/home/virusv/TDSAST_IOT/Internet/DHCP/dhcp.c **** * 				DHCP_SUCCESS
 864:/home/virusv/TDSAST_IOT/Internet/DHCP/dhcp.c **** * 				DHCP_IP_LEASED
 865:/home/virusv/TDSAST_IOT/Internet/DHCP/dhcp.c **** * 				DHCP_RUNNING
 866:/home/virusv/TDSAST_IOT/Internet/DHCP/dhcp.c **** * 				DHCP_IP_CHANGED
 867:/home/virusv/TDSAST_IOT/Internet/DHCP/dhcp.c **** * Note       :
 868:/home/virusv/TDSAST_IOT/Internet/DHCP/dhcp.c **** ***************************************************************************************************
 869:/home/virusv/TDSAST_IOT/Internet/DHCP/dhcp.c **** */
 870:/home/virusv/TDSAST_IOT/Internet/DHCP/dhcp.c **** 
 871:/home/virusv/TDSAST_IOT/Internet/DHCP/dhcp.c **** uint8_t DHCP_run(void)
 872:/home/virusv/TDSAST_IOT/Internet/DHCP/dhcp.c **** {
 3583              		.loc 1 872 0
 3584              		.cfi_startproc
 3585              		@ args = 0, pretend = 0, frame = 0
 3586              		@ frame_needed = 1, uses_anonymous_args = 0
 3587 0000 80B5     		push	{r7, lr}
 3588              		.cfi_def_cfa_offset 8
 3589              		.cfi_offset 7, -8
 3590              		.cfi_offset 14, -4
 3591 0002 00AF     		add	r7, sp, #0
 3592              		.cfi_def_cfa_register 7
 873:/home/virusv/TDSAST_IOT/Internet/DHCP/dhcp.c **** 	if(dhcp_state == STATE_DHCP_INIT) {
 3593              		.loc 1 873 0
 3594 0004 074B     		ldr	r3, .L166
 3595 0006 1B78     		ldrb	r3, [r3]	@ zero_extendqisi2
 3596 0008 002B     		cmp	r3, #0
 3597 000a 06D1     		bne	.L164
 874:/home/virusv/TDSAST_IOT/Internet/DHCP/dhcp.c **** 		send_DHCP_DISCOVER();
 3598              		.loc 1 874 0
 3599 000c FFF7FEFF 		bl	send_DHCP_DISCOVER
 875:/home/virusv/TDSAST_IOT/Internet/DHCP/dhcp.c **** 		dhcp_state = STATE_DHCP_DISCOVER;
 3600              		.loc 1 875 0
 3601 0010 044B     		ldr	r3, .L166
 3602 0012 0122     		movs	r2, #1
 3603 0014 1A70     		strb	r2, [r3]
 876:/home/virusv/TDSAST_IOT/Internet/DHCP/dhcp.c **** 		reset_DHCP_timeout();
 3604              		.loc 1 876 0
 3605 0016 FFF7FEFF 		bl	reset_DHCP_timeout
 3606              	.L164:
 877:/home/virusv/TDSAST_IOT/Internet/DHCP/dhcp.c **** 	}
 878:/home/virusv/TDSAST_IOT/Internet/DHCP/dhcp.c **** 
 879:/home/virusv/TDSAST_IOT/Internet/DHCP/dhcp.c **** 	return check_DHCP_state();
 3607              		.loc 1 879 0
 3608 001a FFF7FEFF 		bl	check_DHCP_state
 3609 001e 0346     		mov	r3, r0
 880:/home/virusv/TDSAST_IOT/Internet/DHCP/dhcp.c **** }
 3610              		.loc 1 880 0
 3611 0020 1846     		mov	r0, r3
 3612 0022 80BD     		pop	{r7, pc}
 3613              	.L167:
 3614              		.align	2
 3615              	.L166:
 3616 0024 00000000 		.word	dhcp_state
 3617              		.cfi_endproc
 3618              	.LFE11:
 3620              		.section	.text.reset_DHCP_timeout,"ax",%progbits
 3621              		.align	2
 3622              		.global	reset_DHCP_timeout
 3623              		.thumb
 3624              		.thumb_func
 3626              	reset_DHCP_timeout:
 3627              	.LFB12:
 881:/home/virusv/TDSAST_IOT/Internet/DHCP/dhcp.c **** 
 882:/home/virusv/TDSAST_IOT/Internet/DHCP/dhcp.c **** 
 883:/home/virusv/TDSAST_IOT/Internet/DHCP/dhcp.c **** /*
 884:/home/virusv/TDSAST_IOT/Internet/DHCP/dhcp.c **** ***************************************************************************************************
 885:/home/virusv/TDSAST_IOT/Internet/DHCP/dhcp.c **** *				RESET DHCP TIMEOUT
 886:/home/virusv/TDSAST_IOT/Internet/DHCP/dhcp.c **** *
 887:/home/virusv/TDSAST_IOT/Internet/DHCP/dhcp.c **** * Description: this function reset the DHCP timeout count and retry count.
 888:/home/virusv/TDSAST_IOT/Internet/DHCP/dhcp.c **** * Arguments  : None.
 889:/home/virusv/TDSAST_IOT/Internet/DHCP/dhcp.c **** * Returns    : None.
 890:/home/virusv/TDSAST_IOT/Internet/DHCP/dhcp.c **** * Note       :
 891:/home/virusv/TDSAST_IOT/Internet/DHCP/dhcp.c **** ***************************************************************************************************
 892:/home/virusv/TDSAST_IOT/Internet/DHCP/dhcp.c **** */
 893:/home/virusv/TDSAST_IOT/Internet/DHCP/dhcp.c **** void reset_DHCP_timeout(void)
 894:/home/virusv/TDSAST_IOT/Internet/DHCP/dhcp.c **** {
 3628              		.loc 1 894 0
 3629              		.cfi_startproc
 3630              		@ args = 0, pretend = 0, frame = 0
 3631              		@ frame_needed = 1, uses_anonymous_args = 0
 3632              		@ link register save eliminated.
 3633 0000 80B4     		push	{r7}
 3634              		.cfi_def_cfa_offset 4
 3635              		.cfi_offset 7, -4
 3636 0002 00AF     		add	r7, sp, #0
 3637              		.cfi_def_cfa_register 7
 895:/home/virusv/TDSAST_IOT/Internet/DHCP/dhcp.c **** 	my_time = 0;
 3638              		.loc 1 895 0
 3639 0004 064B     		ldr	r3, .L169
 3640 0006 0022     		movs	r2, #0
 3641 0008 1A60     		str	r2, [r3]
 896:/home/virusv/TDSAST_IOT/Internet/DHCP/dhcp.c **** 	next_time = DHCP_WAIT_TIME;
 3642              		.loc 1 896 0
 3643 000a 064B     		ldr	r3, .L169+4
 3644 000c 0A22     		movs	r2, #10
 3645 000e 1A60     		str	r2, [r3]
 897:/home/virusv/TDSAST_IOT/Internet/DHCP/dhcp.c **** 	retry_count = 0;
 3646              		.loc 1 897 0
 3647 0010 054B     		ldr	r3, .L169+8
 3648 0012 0022     		movs	r2, #0
 3649 0014 1A70     		strb	r2, [r3]
 898:/home/virusv/TDSAST_IOT/Internet/DHCP/dhcp.c **** }
 3650              		.loc 1 898 0
 3651 0016 BD46     		mov	sp, r7
 3652              		.cfi_def_cfa_register 13
 3653              		@ sp needed
 3654 0018 5DF8047B 		ldr	r7, [sp], #4
 3655              		.cfi_restore 7
 3656              		.cfi_def_cfa_offset 0
 3657 001c 7047     		bx	lr
 3658              	.L170:
 3659 001e 00BF     		.align	2
 3660              	.L169:
 3661 0020 00000000 		.word	my_time
 3662 0024 00000000 		.word	next_time
 3663 0028 00000000 		.word	retry_count
 3664              		.cfi_endproc
 3665              	.LFE12:
 3667              		.section	.text.DHCP_timerHandler,"ax",%progbits
 3668              		.align	2
 3669              		.global	DHCP_timerHandler
 3670              		.thumb
 3671              		.thumb_func
 3673              	DHCP_timerHandler:
 3674              	.LFB13:
 899:/home/virusv/TDSAST_IOT/Internet/DHCP/dhcp.c **** 
 900:/home/virusv/TDSAST_IOT/Internet/DHCP/dhcp.c **** /*
 901:/home/virusv/TDSAST_IOT/Internet/DHCP/dhcp.c **** ***************************************************************************************************
 902:/home/virusv/TDSAST_IOT/Internet/DHCP/dhcp.c **** *				DHCP TIMER HANDLER
 903:/home/virusv/TDSAST_IOT/Internet/DHCP/dhcp.c **** *
 904:/home/virusv/TDSAST_IOT/Internet/DHCP/dhcp.c **** * Description: This function must be called once per second in the timer interrupt handler.
 905:/home/virusv/TDSAST_IOT/Internet/DHCP/dhcp.c **** * Arguments  : None.
 906:/home/virusv/TDSAST_IOT/Internet/DHCP/dhcp.c **** * Returns    : None.
 907:/home/virusv/TDSAST_IOT/Internet/DHCP/dhcp.c **** * Note       :
 908:/home/virusv/TDSAST_IOT/Internet/DHCP/dhcp.c **** ***************************************************************************************************
 909:/home/virusv/TDSAST_IOT/Internet/DHCP/dhcp.c **** */
 910:/home/virusv/TDSAST_IOT/Internet/DHCP/dhcp.c **** void DHCP_timerHandler(void)
 911:/home/virusv/TDSAST_IOT/Internet/DHCP/dhcp.c **** {
 3675              		.loc 1 911 0
 3676              		.cfi_startproc
 3677              		@ args = 0, pretend = 0, frame = 0
 3678              		@ frame_needed = 1, uses_anonymous_args = 0
 3679              		@ link register save eliminated.
 3680 0000 80B4     		push	{r7}
 3681              		.cfi_def_cfa_offset 4
 3682              		.cfi_offset 7, -4
 3683 0002 00AF     		add	r7, sp, #0
 3684              		.cfi_def_cfa_register 7
 912:/home/virusv/TDSAST_IOT/Internet/DHCP/dhcp.c **** 	my_time++;
 3685              		.loc 1 912 0
 3686 0004 044B     		ldr	r3, .L172
 3687 0006 1B68     		ldr	r3, [r3]
 3688 0008 0133     		adds	r3, r3, #1
 3689 000a 034A     		ldr	r2, .L172
 3690 000c 1360     		str	r3, [r2]
 913:/home/virusv/TDSAST_IOT/Internet/DHCP/dhcp.c **** }
 3691              		.loc 1 913 0
 3692 000e BD46     		mov	sp, r7
 3693              		.cfi_def_cfa_register 13
 3694              		@ sp needed
 3695 0010 5DF8047B 		ldr	r7, [sp], #4
 3696              		.cfi_restore 7
 3697              		.cfi_def_cfa_offset 0
 3698 0014 7047     		bx	lr
 3699              	.L173:
 3700 0016 00BF     		.align	2
 3701              	.L172:
 3702 0018 00000000 		.word	my_time
 3703              		.cfi_endproc
 3704              	.LFE13:
 3706              		.section	.text.getIPfromDHCP,"ax",%progbits
 3707              		.align	2
 3708              		.global	getIPfromDHCP
 3709              		.thumb
 3710              		.thumb_func
 3712              	getIPfromDHCP:
 3713              	.LFB14:
 914:/home/virusv/TDSAST_IOT/Internet/DHCP/dhcp.c **** 
 915:/home/virusv/TDSAST_IOT/Internet/DHCP/dhcp.c **** /*
 916:/home/virusv/TDSAST_IOT/Internet/DHCP/dhcp.c **** ***************************************************************************************************
 917:/home/virusv/TDSAST_IOT/Internet/DHCP/dhcp.c **** *				GET NETWORK INFORMATION FROM DHCP
 918:/home/virusv/TDSAST_IOT/Internet/DHCP/dhcp.c **** *
 919:/home/virusv/TDSAST_IOT/Internet/DHCP/dhcp.c **** * Description: These functions get the DHCP server assigned network information.
 920:/home/virusv/TDSAST_IOT/Internet/DHCP/dhcp.c **** * Arguments  : Netinfo array
 921:/home/virusv/TDSAST_IOT/Internet/DHCP/dhcp.c **** * Returns    : None.
 922:/home/virusv/TDSAST_IOT/Internet/DHCP/dhcp.c **** * Note       : getIPfromDHCP,
 923:/home/virusv/TDSAST_IOT/Internet/DHCP/dhcp.c **** * 			   getGWfromDHCP,
 924:/home/virusv/TDSAST_IOT/Internet/DHCP/dhcp.c **** * 			   getSNfromDHCP,
 925:/home/virusv/TDSAST_IOT/Internet/DHCP/dhcp.c **** * 			   getDNSfromDHCP
 926:/home/virusv/TDSAST_IOT/Internet/DHCP/dhcp.c **** ***************************************************************************************************
 927:/home/virusv/TDSAST_IOT/Internet/DHCP/dhcp.c **** */
 928:/home/virusv/TDSAST_IOT/Internet/DHCP/dhcp.c **** void getIPfromDHCP(uint8_t * ip)
 929:/home/virusv/TDSAST_IOT/Internet/DHCP/dhcp.c **** {
 3714              		.loc 1 929 0
 3715              		.cfi_startproc
 3716              		@ args = 0, pretend = 0, frame = 8
 3717              		@ frame_needed = 1, uses_anonymous_args = 0
 3718              		@ link register save eliminated.
 3719 0000 80B4     		push	{r7}
 3720              		.cfi_def_cfa_offset 4
 3721              		.cfi_offset 7, -4
 3722 0002 83B0     		sub	sp, sp, #12
 3723              		.cfi_def_cfa_offset 16
 3724 0004 00AF     		add	r7, sp, #0
 3725              		.cfi_def_cfa_register 7
 3726 0006 7860     		str	r0, [r7, #4]
 930:/home/virusv/TDSAST_IOT/Internet/DHCP/dhcp.c **** 	ip[0] = DHCP_allocated_ip[0];
 3727              		.loc 1 930 0
 3728 0008 0B4B     		ldr	r3, .L175
 3729 000a 1A78     		ldrb	r2, [r3]	@ zero_extendqisi2
 3730 000c 7B68     		ldr	r3, [r7, #4]
 3731 000e 1A70     		strb	r2, [r3]
 931:/home/virusv/TDSAST_IOT/Internet/DHCP/dhcp.c **** 	ip[1] = DHCP_allocated_ip[1];
 3732              		.loc 1 931 0
 3733 0010 7B68     		ldr	r3, [r7, #4]
 3734 0012 0133     		adds	r3, r3, #1
 3735 0014 084A     		ldr	r2, .L175
 3736 0016 5278     		ldrb	r2, [r2, #1]	@ zero_extendqisi2
 3737 0018 1A70     		strb	r2, [r3]
 932:/home/virusv/TDSAST_IOT/Internet/DHCP/dhcp.c **** 	ip[2] = DHCP_allocated_ip[2];
 3738              		.loc 1 932 0
 3739 001a 7B68     		ldr	r3, [r7, #4]
 3740 001c 0233     		adds	r3, r3, #2
 3741 001e 064A     		ldr	r2, .L175
 3742 0020 9278     		ldrb	r2, [r2, #2]	@ zero_extendqisi2
 3743 0022 1A70     		strb	r2, [r3]
 933:/home/virusv/TDSAST_IOT/Internet/DHCP/dhcp.c **** 	ip[3] = DHCP_allocated_ip[3];
 3744              		.loc 1 933 0
 3745 0024 7B68     		ldr	r3, [r7, #4]
 3746 0026 0333     		adds	r3, r3, #3
 3747 0028 034A     		ldr	r2, .L175
 3748 002a D278     		ldrb	r2, [r2, #3]	@ zero_extendqisi2
 3749 002c 1A70     		strb	r2, [r3]
 934:/home/virusv/TDSAST_IOT/Internet/DHCP/dhcp.c **** }
 3750              		.loc 1 934 0
 3751 002e 0C37     		adds	r7, r7, #12
 3752              		.cfi_def_cfa_offset 4
 3753 0030 BD46     		mov	sp, r7
 3754              		.cfi_def_cfa_register 13
 3755              		@ sp needed
 3756 0032 5DF8047B 		ldr	r7, [sp], #4
 3757              		.cfi_restore 7
 3758              		.cfi_def_cfa_offset 0
 3759 0036 7047     		bx	lr
 3760              	.L176:
 3761              		.align	2
 3762              	.L175:
 3763 0038 00000000 		.word	DHCP_allocated_ip
 3764              		.cfi_endproc
 3765              	.LFE14:
 3767              		.section	.text.getGWfromDHCP,"ax",%progbits
 3768              		.align	2
 3769              		.global	getGWfromDHCP
 3770              		.thumb
 3771              		.thumb_func
 3773              	getGWfromDHCP:
 3774              	.LFB15:
 935:/home/virusv/TDSAST_IOT/Internet/DHCP/dhcp.c **** 
 936:/home/virusv/TDSAST_IOT/Internet/DHCP/dhcp.c **** void getGWfromDHCP(uint8_t * gw)
 937:/home/virusv/TDSAST_IOT/Internet/DHCP/dhcp.c **** {
 3775              		.loc 1 937 0
 3776              		.cfi_startproc
 3777              		@ args = 0, pretend = 0, frame = 8
 3778              		@ frame_needed = 1, uses_anonymous_args = 0
 3779              		@ link register save eliminated.
 3780 0000 80B4     		push	{r7}
 3781              		.cfi_def_cfa_offset 4
 3782              		.cfi_offset 7, -4
 3783 0002 83B0     		sub	sp, sp, #12
 3784              		.cfi_def_cfa_offset 16
 3785 0004 00AF     		add	r7, sp, #0
 3786              		.cfi_def_cfa_register 7
 3787 0006 7860     		str	r0, [r7, #4]
 938:/home/virusv/TDSAST_IOT/Internet/DHCP/dhcp.c **** 	gw[0] = DHCP_allocated_gw[0];
 3788              		.loc 1 938 0
 3789 0008 0B4B     		ldr	r3, .L178
 3790 000a 1A78     		ldrb	r2, [r3]	@ zero_extendqisi2
 3791 000c 7B68     		ldr	r3, [r7, #4]
 3792 000e 1A70     		strb	r2, [r3]
 939:/home/virusv/TDSAST_IOT/Internet/DHCP/dhcp.c **** 	gw[1] = DHCP_allocated_gw[1];
 3793              		.loc 1 939 0
 3794 0010 7B68     		ldr	r3, [r7, #4]
 3795 0012 0133     		adds	r3, r3, #1
 3796 0014 084A     		ldr	r2, .L178
 3797 0016 5278     		ldrb	r2, [r2, #1]	@ zero_extendqisi2
 3798 0018 1A70     		strb	r2, [r3]
 940:/home/virusv/TDSAST_IOT/Internet/DHCP/dhcp.c **** 	gw[2] = DHCP_allocated_gw[2];
 3799              		.loc 1 940 0
 3800 001a 7B68     		ldr	r3, [r7, #4]
 3801 001c 0233     		adds	r3, r3, #2
 3802 001e 064A     		ldr	r2, .L178
 3803 0020 9278     		ldrb	r2, [r2, #2]	@ zero_extendqisi2
 3804 0022 1A70     		strb	r2, [r3]
 941:/home/virusv/TDSAST_IOT/Internet/DHCP/dhcp.c **** 	gw[3] = DHCP_allocated_gw[3];
 3805              		.loc 1 941 0
 3806 0024 7B68     		ldr	r3, [r7, #4]
 3807 0026 0333     		adds	r3, r3, #3
 3808 0028 034A     		ldr	r2, .L178
 3809 002a D278     		ldrb	r2, [r2, #3]	@ zero_extendqisi2
 3810 002c 1A70     		strb	r2, [r3]
 942:/home/virusv/TDSAST_IOT/Internet/DHCP/dhcp.c **** }
 3811              		.loc 1 942 0
 3812 002e 0C37     		adds	r7, r7, #12
 3813              		.cfi_def_cfa_offset 4
 3814 0030 BD46     		mov	sp, r7
 3815              		.cfi_def_cfa_register 13
 3816              		@ sp needed
 3817 0032 5DF8047B 		ldr	r7, [sp], #4
 3818              		.cfi_restore 7
 3819              		.cfi_def_cfa_offset 0
 3820 0036 7047     		bx	lr
 3821              	.L179:
 3822              		.align	2
 3823              	.L178:
 3824 0038 00000000 		.word	DHCP_allocated_gw
 3825              		.cfi_endproc
 3826              	.LFE15:
 3828              		.section	.text.getSNfromDHCP,"ax",%progbits
 3829              		.align	2
 3830              		.global	getSNfromDHCP
 3831              		.thumb
 3832              		.thumb_func
 3834              	getSNfromDHCP:
 3835              	.LFB16:
 943:/home/virusv/TDSAST_IOT/Internet/DHCP/dhcp.c **** 
 944:/home/virusv/TDSAST_IOT/Internet/DHCP/dhcp.c **** void getSNfromDHCP(uint8_t * sn)
 945:/home/virusv/TDSAST_IOT/Internet/DHCP/dhcp.c **** {
 3836              		.loc 1 945 0
 3837              		.cfi_startproc
 3838              		@ args = 0, pretend = 0, frame = 8
 3839              		@ frame_needed = 1, uses_anonymous_args = 0
 3840              		@ link register save eliminated.
 3841 0000 80B4     		push	{r7}
 3842              		.cfi_def_cfa_offset 4
 3843              		.cfi_offset 7, -4
 3844 0002 83B0     		sub	sp, sp, #12
 3845              		.cfi_def_cfa_offset 16
 3846 0004 00AF     		add	r7, sp, #0
 3847              		.cfi_def_cfa_register 7
 3848 0006 7860     		str	r0, [r7, #4]
 946:/home/virusv/TDSAST_IOT/Internet/DHCP/dhcp.c **** 	sn[0] = DHCP_allocated_sn[0];
 3849              		.loc 1 946 0
 3850 0008 0B4B     		ldr	r3, .L181
 3851 000a 1A78     		ldrb	r2, [r3]	@ zero_extendqisi2
 3852 000c 7B68     		ldr	r3, [r7, #4]
 3853 000e 1A70     		strb	r2, [r3]
 947:/home/virusv/TDSAST_IOT/Internet/DHCP/dhcp.c **** 	sn[1] = DHCP_allocated_sn[1];
 3854              		.loc 1 947 0
 3855 0010 7B68     		ldr	r3, [r7, #4]
 3856 0012 0133     		adds	r3, r3, #1
 3857 0014 084A     		ldr	r2, .L181
 3858 0016 5278     		ldrb	r2, [r2, #1]	@ zero_extendqisi2
 3859 0018 1A70     		strb	r2, [r3]
 948:/home/virusv/TDSAST_IOT/Internet/DHCP/dhcp.c **** 	sn[2] = DHCP_allocated_sn[2];
 3860              		.loc 1 948 0
 3861 001a 7B68     		ldr	r3, [r7, #4]
 3862 001c 0233     		adds	r3, r3, #2
 3863 001e 064A     		ldr	r2, .L181
 3864 0020 9278     		ldrb	r2, [r2, #2]	@ zero_extendqisi2
 3865 0022 1A70     		strb	r2, [r3]
 949:/home/virusv/TDSAST_IOT/Internet/DHCP/dhcp.c **** 	sn[3] = DHCP_allocated_sn[3];
 3866              		.loc 1 949 0
 3867 0024 7B68     		ldr	r3, [r7, #4]
 3868 0026 0333     		adds	r3, r3, #3
 3869 0028 034A     		ldr	r2, .L181
 3870 002a D278     		ldrb	r2, [r2, #3]	@ zero_extendqisi2
 3871 002c 1A70     		strb	r2, [r3]
 950:/home/virusv/TDSAST_IOT/Internet/DHCP/dhcp.c **** }
 3872              		.loc 1 950 0
 3873 002e 0C37     		adds	r7, r7, #12
 3874              		.cfi_def_cfa_offset 4
 3875 0030 BD46     		mov	sp, r7
 3876              		.cfi_def_cfa_register 13
 3877              		@ sp needed
 3878 0032 5DF8047B 		ldr	r7, [sp], #4
 3879              		.cfi_restore 7
 3880              		.cfi_def_cfa_offset 0
 3881 0036 7047     		bx	lr
 3882              	.L182:
 3883              		.align	2
 3884              	.L181:
 3885 0038 00000000 		.word	DHCP_allocated_sn
 3886              		.cfi_endproc
 3887              	.LFE16:
 3889              		.section	.text.getDNSfromDHCP,"ax",%progbits
 3890              		.align	2
 3891              		.global	getDNSfromDHCP
 3892              		.thumb
 3893              		.thumb_func
 3895              	getDNSfromDHCP:
 3896              	.LFB17:
 951:/home/virusv/TDSAST_IOT/Internet/DHCP/dhcp.c **** 
 952:/home/virusv/TDSAST_IOT/Internet/DHCP/dhcp.c **** void getDNSfromDHCP(uint8_t * dns)
 953:/home/virusv/TDSAST_IOT/Internet/DHCP/dhcp.c **** {
 3897              		.loc 1 953 0
 3898              		.cfi_startproc
 3899              		@ args = 0, pretend = 0, frame = 8
 3900              		@ frame_needed = 1, uses_anonymous_args = 0
 3901              		@ link register save eliminated.
 3902 0000 80B4     		push	{r7}
 3903              		.cfi_def_cfa_offset 4
 3904              		.cfi_offset 7, -4
 3905 0002 83B0     		sub	sp, sp, #12
 3906              		.cfi_def_cfa_offset 16
 3907 0004 00AF     		add	r7, sp, #0
 3908              		.cfi_def_cfa_register 7
 3909 0006 7860     		str	r0, [r7, #4]
 954:/home/virusv/TDSAST_IOT/Internet/DHCP/dhcp.c **** 	dns[0] = DHCP_allocated_dns[0];
 3910              		.loc 1 954 0
 3911 0008 0B4B     		ldr	r3, .L184
 3912 000a 1A78     		ldrb	r2, [r3]	@ zero_extendqisi2
 3913 000c 7B68     		ldr	r3, [r7, #4]
 3914 000e 1A70     		strb	r2, [r3]
 955:/home/virusv/TDSAST_IOT/Internet/DHCP/dhcp.c **** 	dns[1] = DHCP_allocated_dns[1];
 3915              		.loc 1 955 0
 3916 0010 7B68     		ldr	r3, [r7, #4]
 3917 0012 0133     		adds	r3, r3, #1
 3918 0014 084A     		ldr	r2, .L184
 3919 0016 5278     		ldrb	r2, [r2, #1]	@ zero_extendqisi2
 3920 0018 1A70     		strb	r2, [r3]
 956:/home/virusv/TDSAST_IOT/Internet/DHCP/dhcp.c **** 	dns[2] = DHCP_allocated_dns[2];
 3921              		.loc 1 956 0
 3922 001a 7B68     		ldr	r3, [r7, #4]
 3923 001c 0233     		adds	r3, r3, #2
 3924 001e 064A     		ldr	r2, .L184
 3925 0020 9278     		ldrb	r2, [r2, #2]	@ zero_extendqisi2
 3926 0022 1A70     		strb	r2, [r3]
 957:/home/virusv/TDSAST_IOT/Internet/DHCP/dhcp.c **** 	dns[3] = DHCP_allocated_dns[3];
 3927              		.loc 1 957 0
 3928 0024 7B68     		ldr	r3, [r7, #4]
 3929 0026 0333     		adds	r3, r3, #3
 3930 0028 034A     		ldr	r2, .L184
 3931 002a D278     		ldrb	r2, [r2, #3]	@ zero_extendqisi2
 3932 002c 1A70     		strb	r2, [r3]
 958:/home/virusv/TDSAST_IOT/Internet/DHCP/dhcp.c **** }
 3933              		.loc 1 958 0
 3934 002e 0C37     		adds	r7, r7, #12
 3935              		.cfi_def_cfa_offset 4
 3936 0030 BD46     		mov	sp, r7
 3937              		.cfi_def_cfa_register 13
 3938              		@ sp needed
 3939 0032 5DF8047B 		ldr	r7, [sp], #4
 3940              		.cfi_restore 7
 3941              		.cfi_def_cfa_offset 0
 3942 0036 7047     		bx	lr
 3943              	.L185:
 3944              		.align	2
 3945              	.L184:
 3946 0038 00000000 		.word	DHCP_allocated_dns
 3947              		.cfi_endproc
 3948              	.LFE17:
 3950              		.section	.text.getDHCPLeasetime,"ax",%progbits
 3951              		.align	2
 3952              		.global	getDHCPLeasetime
 3953              		.thumb
 3954              		.thumb_func
 3956              	getDHCPLeasetime:
 3957              	.LFB18:
 959:/home/virusv/TDSAST_IOT/Internet/DHCP/dhcp.c **** 
 960:/home/virusv/TDSAST_IOT/Internet/DHCP/dhcp.c **** /*
 961:/home/virusv/TDSAST_IOT/Internet/DHCP/dhcp.c **** ***************************************************************************************************
 962:/home/virusv/TDSAST_IOT/Internet/DHCP/dhcp.c **** *				GET DHCP LEASEDTIME
 963:/home/virusv/TDSAST_IOT/Internet/DHCP/dhcp.c **** *
 964:/home/virusv/TDSAST_IOT/Internet/DHCP/dhcp.c **** * Description: These functions get the DHCP IP leased time.
 965:/home/virusv/TDSAST_IOT/Internet/DHCP/dhcp.c **** * Arguments  : None.
 966:/home/virusv/TDSAST_IOT/Internet/DHCP/dhcp.c **** * Returns    : uint32_t DHCPleaseTime
 967:/home/virusv/TDSAST_IOT/Internet/DHCP/dhcp.c **** * Note       :
 968:/home/virusv/TDSAST_IOT/Internet/DHCP/dhcp.c **** ***************************************************************************************************
 969:/home/virusv/TDSAST_IOT/Internet/DHCP/dhcp.c **** */
 970:/home/virusv/TDSAST_IOT/Internet/DHCP/dhcp.c **** uint32_t getDHCPLeasetime(void)
 971:/home/virusv/TDSAST_IOT/Internet/DHCP/dhcp.c **** {
 3958              		.loc 1 971 0
 3959              		.cfi_startproc
 3960              		@ args = 0, pretend = 0, frame = 0
 3961              		@ frame_needed = 1, uses_anonymous_args = 0
 3962              		@ link register save eliminated.
 3963 0000 80B4     		push	{r7}
 3964              		.cfi_def_cfa_offset 4
 3965              		.cfi_offset 7, -4
 3966 0002 00AF     		add	r7, sp, #0
 3967              		.cfi_def_cfa_register 7
 972:/home/virusv/TDSAST_IOT/Internet/DHCP/dhcp.c **** 	return lease_time.lVal;
 3968              		.loc 1 972 0
 3969 0004 034B     		ldr	r3, .L188
 3970 0006 1B68     		ldr	r3, [r3]
 973:/home/virusv/TDSAST_IOT/Internet/DHCP/dhcp.c **** }
 3971              		.loc 1 973 0
 3972 0008 1846     		mov	r0, r3
 3973 000a BD46     		mov	sp, r7
 3974              		.cfi_def_cfa_register 13
 3975              		@ sp needed
 3976 000c 5DF8047B 		ldr	r7, [sp], #4
 3977              		.cfi_restore 7
 3978              		.cfi_def_cfa_offset 0
 3979 0010 7047     		bx	lr
 3980              	.L189:
 3981 0012 00BF     		.align	2
 3982              	.L188:
 3983 0014 00000000 		.word	lease_time
 3984              		.cfi_endproc
 3985              	.LFE18:
 3987              		.text
 3988              	.Letext0:
 3989              		.file 2 "/usr/include/newlib/machine/_default_types.h"
 3990              		.file 3 "/usr/include/newlib/sys/_stdint.h"
 3991              		.file 4 "/home/virusv/TDSAST_IOT/Internet/DHCP/dhcp.h"