   1              		.syntax unified
   2              		.cpu cortex-m3
   3              		.fpu softvfp
   4              		.eabi_attribute 20, 1
   5              		.eabi_attribute 21, 1
   6              		.eabi_attribute 23, 3
   7              		.eabi_attribute 24, 1
   8              		.eabi_attribute 25, 1
   9              		.eabi_attribute 26, 1
  10              		.eabi_attribute 30, 6
  11              		.eabi_attribute 34, 1
  12              		.eabi_attribute 18, 4
  13              		.thumb
  14              		.file	"stm32f10x_i2c.c"
  15              		.text
  16              	.Ltext0:
  17              		.cfi_sections	.debug_frame
  18              		.section	.text.I2C_DeInit,"ax",%progbits
  19              		.align	2
  20              		.global	I2C_DeInit
  21              		.thumb
  22              		.thumb_func
  24              	I2C_DeInit:
  25              	.LFB29:
  26              		.file 1 "/home/virusv/TDSAST_IOT/Libraries/src/stm32f10x_i2c.c"
   1:/home/virusv/TDSAST_IOT/Libraries/src/stm32f10x_i2c.c **** /**
   2:/home/virusv/TDSAST_IOT/Libraries/src/stm32f10x_i2c.c ****   ******************************************************************************
   3:/home/virusv/TDSAST_IOT/Libraries/src/stm32f10x_i2c.c ****   * @file    stm32f10x_i2c.c
   4:/home/virusv/TDSAST_IOT/Libraries/src/stm32f10x_i2c.c ****   * @author  MCD Application Team
   5:/home/virusv/TDSAST_IOT/Libraries/src/stm32f10x_i2c.c ****   * @version V3.5.0
   6:/home/virusv/TDSAST_IOT/Libraries/src/stm32f10x_i2c.c ****   * @date    11-March-2011
   7:/home/virusv/TDSAST_IOT/Libraries/src/stm32f10x_i2c.c ****   * @brief   This file provides all the I2C firmware functions.
   8:/home/virusv/TDSAST_IOT/Libraries/src/stm32f10x_i2c.c ****   ******************************************************************************
   9:/home/virusv/TDSAST_IOT/Libraries/src/stm32f10x_i2c.c ****   * @attention
  10:/home/virusv/TDSAST_IOT/Libraries/src/stm32f10x_i2c.c ****   *
  11:/home/virusv/TDSAST_IOT/Libraries/src/stm32f10x_i2c.c ****   * THE PRESENT FIRMWARE WHICH IS FOR GUIDANCE ONLY AIMS AT PROVIDING CUSTOMERS
  12:/home/virusv/TDSAST_IOT/Libraries/src/stm32f10x_i2c.c ****   * WITH CODING INFORMATION REGARDING THEIR PRODUCTS IN ORDER FOR THEM TO SAVE
  13:/home/virusv/TDSAST_IOT/Libraries/src/stm32f10x_i2c.c ****   * TIME. AS A RESULT, STMICROELECTRONICS SHALL NOT BE HELD LIABLE FOR ANY
  14:/home/virusv/TDSAST_IOT/Libraries/src/stm32f10x_i2c.c ****   * DIRECT, INDIRECT OR CONSEQUENTIAL DAMAGES WITH RESPECT TO ANY CLAIMS ARISING
  15:/home/virusv/TDSAST_IOT/Libraries/src/stm32f10x_i2c.c ****   * FROM THE CONTENT OF SUCH FIRMWARE AND/OR THE USE MADE BY CUSTOMERS OF THE
  16:/home/virusv/TDSAST_IOT/Libraries/src/stm32f10x_i2c.c ****   * CODING INFORMATION CONTAINED HEREIN IN CONNECTION WITH THEIR PRODUCTS.
  17:/home/virusv/TDSAST_IOT/Libraries/src/stm32f10x_i2c.c ****   *
  18:/home/virusv/TDSAST_IOT/Libraries/src/stm32f10x_i2c.c ****   * <h2><center>&copy; COPYRIGHT 2011 STMicroelectronics</center></h2>
  19:/home/virusv/TDSAST_IOT/Libraries/src/stm32f10x_i2c.c ****   ******************************************************************************
  20:/home/virusv/TDSAST_IOT/Libraries/src/stm32f10x_i2c.c ****   */
  21:/home/virusv/TDSAST_IOT/Libraries/src/stm32f10x_i2c.c **** 
  22:/home/virusv/TDSAST_IOT/Libraries/src/stm32f10x_i2c.c **** /* Includes ------------------------------------------------------------------*/
  23:/home/virusv/TDSAST_IOT/Libraries/src/stm32f10x_i2c.c **** #include "stm32f10x_i2c.h"
  24:/home/virusv/TDSAST_IOT/Libraries/src/stm32f10x_i2c.c **** #include "stm32f10x_rcc.h"
  25:/home/virusv/TDSAST_IOT/Libraries/src/stm32f10x_i2c.c **** 
  26:/home/virusv/TDSAST_IOT/Libraries/src/stm32f10x_i2c.c **** 
  27:/home/virusv/TDSAST_IOT/Libraries/src/stm32f10x_i2c.c **** /** @addtogroup STM32F10x_StdPeriph_Driver
  28:/home/virusv/TDSAST_IOT/Libraries/src/stm32f10x_i2c.c ****   * @{
  29:/home/virusv/TDSAST_IOT/Libraries/src/stm32f10x_i2c.c ****   */
  30:/home/virusv/TDSAST_IOT/Libraries/src/stm32f10x_i2c.c **** 
  31:/home/virusv/TDSAST_IOT/Libraries/src/stm32f10x_i2c.c **** /** @defgroup I2C 
  32:/home/virusv/TDSAST_IOT/Libraries/src/stm32f10x_i2c.c ****   * @brief I2C driver modules
  33:/home/virusv/TDSAST_IOT/Libraries/src/stm32f10x_i2c.c ****   * @{
  34:/home/virusv/TDSAST_IOT/Libraries/src/stm32f10x_i2c.c ****   */ 
  35:/home/virusv/TDSAST_IOT/Libraries/src/stm32f10x_i2c.c **** 
  36:/home/virusv/TDSAST_IOT/Libraries/src/stm32f10x_i2c.c **** /** @defgroup I2C_Private_TypesDefinitions
  37:/home/virusv/TDSAST_IOT/Libraries/src/stm32f10x_i2c.c ****   * @{
  38:/home/virusv/TDSAST_IOT/Libraries/src/stm32f10x_i2c.c ****   */
  39:/home/virusv/TDSAST_IOT/Libraries/src/stm32f10x_i2c.c **** 
  40:/home/virusv/TDSAST_IOT/Libraries/src/stm32f10x_i2c.c **** /**
  41:/home/virusv/TDSAST_IOT/Libraries/src/stm32f10x_i2c.c ****   * @}
  42:/home/virusv/TDSAST_IOT/Libraries/src/stm32f10x_i2c.c ****   */
  43:/home/virusv/TDSAST_IOT/Libraries/src/stm32f10x_i2c.c **** 
  44:/home/virusv/TDSAST_IOT/Libraries/src/stm32f10x_i2c.c **** /** @defgroup I2C_Private_Defines
  45:/home/virusv/TDSAST_IOT/Libraries/src/stm32f10x_i2c.c ****   * @{
  46:/home/virusv/TDSAST_IOT/Libraries/src/stm32f10x_i2c.c ****   */
  47:/home/virusv/TDSAST_IOT/Libraries/src/stm32f10x_i2c.c **** 
  48:/home/virusv/TDSAST_IOT/Libraries/src/stm32f10x_i2c.c **** /* I2C SPE mask */
  49:/home/virusv/TDSAST_IOT/Libraries/src/stm32f10x_i2c.c **** #define CR1_PE_Set              ((uint16_t)0x0001)
  50:/home/virusv/TDSAST_IOT/Libraries/src/stm32f10x_i2c.c **** #define CR1_PE_Reset            ((uint16_t)0xFFFE)
  51:/home/virusv/TDSAST_IOT/Libraries/src/stm32f10x_i2c.c **** 
  52:/home/virusv/TDSAST_IOT/Libraries/src/stm32f10x_i2c.c **** /* I2C START mask */
  53:/home/virusv/TDSAST_IOT/Libraries/src/stm32f10x_i2c.c **** #define CR1_START_Set           ((uint16_t)0x0100)
  54:/home/virusv/TDSAST_IOT/Libraries/src/stm32f10x_i2c.c **** #define CR1_START_Reset         ((uint16_t)0xFEFF)
  55:/home/virusv/TDSAST_IOT/Libraries/src/stm32f10x_i2c.c **** 
  56:/home/virusv/TDSAST_IOT/Libraries/src/stm32f10x_i2c.c **** /* I2C STOP mask */
  57:/home/virusv/TDSAST_IOT/Libraries/src/stm32f10x_i2c.c **** #define CR1_STOP_Set            ((uint16_t)0x0200)
  58:/home/virusv/TDSAST_IOT/Libraries/src/stm32f10x_i2c.c **** #define CR1_STOP_Reset          ((uint16_t)0xFDFF)
  59:/home/virusv/TDSAST_IOT/Libraries/src/stm32f10x_i2c.c **** 
  60:/home/virusv/TDSAST_IOT/Libraries/src/stm32f10x_i2c.c **** /* I2C ACK mask */
  61:/home/virusv/TDSAST_IOT/Libraries/src/stm32f10x_i2c.c **** #define CR1_ACK_Set             ((uint16_t)0x0400)
  62:/home/virusv/TDSAST_IOT/Libraries/src/stm32f10x_i2c.c **** #define CR1_ACK_Reset           ((uint16_t)0xFBFF)
  63:/home/virusv/TDSAST_IOT/Libraries/src/stm32f10x_i2c.c **** 
  64:/home/virusv/TDSAST_IOT/Libraries/src/stm32f10x_i2c.c **** /* I2C ENGC mask */
  65:/home/virusv/TDSAST_IOT/Libraries/src/stm32f10x_i2c.c **** #define CR1_ENGC_Set            ((uint16_t)0x0040)
  66:/home/virusv/TDSAST_IOT/Libraries/src/stm32f10x_i2c.c **** #define CR1_ENGC_Reset          ((uint16_t)0xFFBF)
  67:/home/virusv/TDSAST_IOT/Libraries/src/stm32f10x_i2c.c **** 
  68:/home/virusv/TDSAST_IOT/Libraries/src/stm32f10x_i2c.c **** /* I2C SWRST mask */
  69:/home/virusv/TDSAST_IOT/Libraries/src/stm32f10x_i2c.c **** #define CR1_SWRST_Set           ((uint16_t)0x8000)
  70:/home/virusv/TDSAST_IOT/Libraries/src/stm32f10x_i2c.c **** #define CR1_SWRST_Reset         ((uint16_t)0x7FFF)
  71:/home/virusv/TDSAST_IOT/Libraries/src/stm32f10x_i2c.c **** 
  72:/home/virusv/TDSAST_IOT/Libraries/src/stm32f10x_i2c.c **** /* I2C PEC mask */
  73:/home/virusv/TDSAST_IOT/Libraries/src/stm32f10x_i2c.c **** #define CR1_PEC_Set             ((uint16_t)0x1000)
  74:/home/virusv/TDSAST_IOT/Libraries/src/stm32f10x_i2c.c **** #define CR1_PEC_Reset           ((uint16_t)0xEFFF)
  75:/home/virusv/TDSAST_IOT/Libraries/src/stm32f10x_i2c.c **** 
  76:/home/virusv/TDSAST_IOT/Libraries/src/stm32f10x_i2c.c **** /* I2C ENPEC mask */
  77:/home/virusv/TDSAST_IOT/Libraries/src/stm32f10x_i2c.c **** #define CR1_ENPEC_Set           ((uint16_t)0x0020)
  78:/home/virusv/TDSAST_IOT/Libraries/src/stm32f10x_i2c.c **** #define CR1_ENPEC_Reset         ((uint16_t)0xFFDF)
  79:/home/virusv/TDSAST_IOT/Libraries/src/stm32f10x_i2c.c **** 
  80:/home/virusv/TDSAST_IOT/Libraries/src/stm32f10x_i2c.c **** /* I2C ENARP mask */
  81:/home/virusv/TDSAST_IOT/Libraries/src/stm32f10x_i2c.c **** #define CR1_ENARP_Set           ((uint16_t)0x0010)
  82:/home/virusv/TDSAST_IOT/Libraries/src/stm32f10x_i2c.c **** #define CR1_ENARP_Reset         ((uint16_t)0xFFEF)
  83:/home/virusv/TDSAST_IOT/Libraries/src/stm32f10x_i2c.c **** 
  84:/home/virusv/TDSAST_IOT/Libraries/src/stm32f10x_i2c.c **** /* I2C NOSTRETCH mask */
  85:/home/virusv/TDSAST_IOT/Libraries/src/stm32f10x_i2c.c **** #define CR1_NOSTRETCH_Set       ((uint16_t)0x0080)
  86:/home/virusv/TDSAST_IOT/Libraries/src/stm32f10x_i2c.c **** #define CR1_NOSTRETCH_Reset     ((uint16_t)0xFF7F)
  87:/home/virusv/TDSAST_IOT/Libraries/src/stm32f10x_i2c.c **** 
  88:/home/virusv/TDSAST_IOT/Libraries/src/stm32f10x_i2c.c **** /* I2C registers Masks */
  89:/home/virusv/TDSAST_IOT/Libraries/src/stm32f10x_i2c.c **** #define CR1_CLEAR_Mask          ((uint16_t)0xFBF5)
  90:/home/virusv/TDSAST_IOT/Libraries/src/stm32f10x_i2c.c **** 
  91:/home/virusv/TDSAST_IOT/Libraries/src/stm32f10x_i2c.c **** /* I2C DMAEN mask */
  92:/home/virusv/TDSAST_IOT/Libraries/src/stm32f10x_i2c.c **** #define CR2_DMAEN_Set           ((uint16_t)0x0800)
  93:/home/virusv/TDSAST_IOT/Libraries/src/stm32f10x_i2c.c **** #define CR2_DMAEN_Reset         ((uint16_t)0xF7FF)
  94:/home/virusv/TDSAST_IOT/Libraries/src/stm32f10x_i2c.c **** 
  95:/home/virusv/TDSAST_IOT/Libraries/src/stm32f10x_i2c.c **** /* I2C LAST mask */
  96:/home/virusv/TDSAST_IOT/Libraries/src/stm32f10x_i2c.c **** #define CR2_LAST_Set            ((uint16_t)0x1000)
  97:/home/virusv/TDSAST_IOT/Libraries/src/stm32f10x_i2c.c **** #define CR2_LAST_Reset          ((uint16_t)0xEFFF)
  98:/home/virusv/TDSAST_IOT/Libraries/src/stm32f10x_i2c.c **** 
  99:/home/virusv/TDSAST_IOT/Libraries/src/stm32f10x_i2c.c **** /* I2C FREQ mask */
 100:/home/virusv/TDSAST_IOT/Libraries/src/stm32f10x_i2c.c **** #define CR2_FREQ_Reset          ((uint16_t)0xFFC0)
 101:/home/virusv/TDSAST_IOT/Libraries/src/stm32f10x_i2c.c **** 
 102:/home/virusv/TDSAST_IOT/Libraries/src/stm32f10x_i2c.c **** /* I2C ADD0 mask */
 103:/home/virusv/TDSAST_IOT/Libraries/src/stm32f10x_i2c.c **** #define OAR1_ADD0_Set           ((uint16_t)0x0001)
 104:/home/virusv/TDSAST_IOT/Libraries/src/stm32f10x_i2c.c **** #define OAR1_ADD0_Reset         ((uint16_t)0xFFFE)
 105:/home/virusv/TDSAST_IOT/Libraries/src/stm32f10x_i2c.c **** 
 106:/home/virusv/TDSAST_IOT/Libraries/src/stm32f10x_i2c.c **** /* I2C ENDUAL mask */
 107:/home/virusv/TDSAST_IOT/Libraries/src/stm32f10x_i2c.c **** #define OAR2_ENDUAL_Set         ((uint16_t)0x0001)
 108:/home/virusv/TDSAST_IOT/Libraries/src/stm32f10x_i2c.c **** #define OAR2_ENDUAL_Reset       ((uint16_t)0xFFFE)
 109:/home/virusv/TDSAST_IOT/Libraries/src/stm32f10x_i2c.c **** 
 110:/home/virusv/TDSAST_IOT/Libraries/src/stm32f10x_i2c.c **** /* I2C ADD2 mask */
 111:/home/virusv/TDSAST_IOT/Libraries/src/stm32f10x_i2c.c **** #define OAR2_ADD2_Reset         ((uint16_t)0xFF01)
 112:/home/virusv/TDSAST_IOT/Libraries/src/stm32f10x_i2c.c **** 
 113:/home/virusv/TDSAST_IOT/Libraries/src/stm32f10x_i2c.c **** /* I2C F/S mask */
 114:/home/virusv/TDSAST_IOT/Libraries/src/stm32f10x_i2c.c **** #define CCR_FS_Set              ((uint16_t)0x8000)
 115:/home/virusv/TDSAST_IOT/Libraries/src/stm32f10x_i2c.c **** 
 116:/home/virusv/TDSAST_IOT/Libraries/src/stm32f10x_i2c.c **** /* I2C CCR mask */
 117:/home/virusv/TDSAST_IOT/Libraries/src/stm32f10x_i2c.c **** #define CCR_CCR_Set             ((uint16_t)0x0FFF)
 118:/home/virusv/TDSAST_IOT/Libraries/src/stm32f10x_i2c.c **** 
 119:/home/virusv/TDSAST_IOT/Libraries/src/stm32f10x_i2c.c **** /* I2C FLAG mask */
 120:/home/virusv/TDSAST_IOT/Libraries/src/stm32f10x_i2c.c **** #define FLAG_Mask               ((uint32_t)0x00FFFFFF)
 121:/home/virusv/TDSAST_IOT/Libraries/src/stm32f10x_i2c.c **** 
 122:/home/virusv/TDSAST_IOT/Libraries/src/stm32f10x_i2c.c **** /* I2C Interrupt Enable mask */
 123:/home/virusv/TDSAST_IOT/Libraries/src/stm32f10x_i2c.c **** #define ITEN_Mask               ((uint32_t)0x07000000)
 124:/home/virusv/TDSAST_IOT/Libraries/src/stm32f10x_i2c.c **** 
 125:/home/virusv/TDSAST_IOT/Libraries/src/stm32f10x_i2c.c **** /**
 126:/home/virusv/TDSAST_IOT/Libraries/src/stm32f10x_i2c.c ****   * @}
 127:/home/virusv/TDSAST_IOT/Libraries/src/stm32f10x_i2c.c ****   */
 128:/home/virusv/TDSAST_IOT/Libraries/src/stm32f10x_i2c.c **** 
 129:/home/virusv/TDSAST_IOT/Libraries/src/stm32f10x_i2c.c **** /** @defgroup I2C_Private_Macros
 130:/home/virusv/TDSAST_IOT/Libraries/src/stm32f10x_i2c.c ****   * @{
 131:/home/virusv/TDSAST_IOT/Libraries/src/stm32f10x_i2c.c ****   */
 132:/home/virusv/TDSAST_IOT/Libraries/src/stm32f10x_i2c.c **** 
 133:/home/virusv/TDSAST_IOT/Libraries/src/stm32f10x_i2c.c **** /**
 134:/home/virusv/TDSAST_IOT/Libraries/src/stm32f10x_i2c.c ****   * @}
 135:/home/virusv/TDSAST_IOT/Libraries/src/stm32f10x_i2c.c ****   */
 136:/home/virusv/TDSAST_IOT/Libraries/src/stm32f10x_i2c.c **** 
 137:/home/virusv/TDSAST_IOT/Libraries/src/stm32f10x_i2c.c **** /** @defgroup I2C_Private_Variables
 138:/home/virusv/TDSAST_IOT/Libraries/src/stm32f10x_i2c.c ****   * @{
 139:/home/virusv/TDSAST_IOT/Libraries/src/stm32f10x_i2c.c ****   */
 140:/home/virusv/TDSAST_IOT/Libraries/src/stm32f10x_i2c.c **** 
 141:/home/virusv/TDSAST_IOT/Libraries/src/stm32f10x_i2c.c **** /**
 142:/home/virusv/TDSAST_IOT/Libraries/src/stm32f10x_i2c.c ****   * @}
 143:/home/virusv/TDSAST_IOT/Libraries/src/stm32f10x_i2c.c ****   */
 144:/home/virusv/TDSAST_IOT/Libraries/src/stm32f10x_i2c.c **** 
 145:/home/virusv/TDSAST_IOT/Libraries/src/stm32f10x_i2c.c **** /** @defgroup I2C_Private_FunctionPrototypes
 146:/home/virusv/TDSAST_IOT/Libraries/src/stm32f10x_i2c.c ****   * @{
 147:/home/virusv/TDSAST_IOT/Libraries/src/stm32f10x_i2c.c ****   */
 148:/home/virusv/TDSAST_IOT/Libraries/src/stm32f10x_i2c.c **** 
 149:/home/virusv/TDSAST_IOT/Libraries/src/stm32f10x_i2c.c **** /**
 150:/home/virusv/TDSAST_IOT/Libraries/src/stm32f10x_i2c.c ****   * @}
 151:/home/virusv/TDSAST_IOT/Libraries/src/stm32f10x_i2c.c ****   */
 152:/home/virusv/TDSAST_IOT/Libraries/src/stm32f10x_i2c.c **** 
 153:/home/virusv/TDSAST_IOT/Libraries/src/stm32f10x_i2c.c **** /** @defgroup I2C_Private_Functions
 154:/home/virusv/TDSAST_IOT/Libraries/src/stm32f10x_i2c.c ****   * @{
 155:/home/virusv/TDSAST_IOT/Libraries/src/stm32f10x_i2c.c ****   */
 156:/home/virusv/TDSAST_IOT/Libraries/src/stm32f10x_i2c.c **** 
 157:/home/virusv/TDSAST_IOT/Libraries/src/stm32f10x_i2c.c **** /**
 158:/home/virusv/TDSAST_IOT/Libraries/src/stm32f10x_i2c.c ****   * @brief  Deinitializes the I2Cx peripheral registers to their default reset values.
 159:/home/virusv/TDSAST_IOT/Libraries/src/stm32f10x_i2c.c ****   * @param  I2Cx: where x can be 1 or 2 to select the I2C peripheral.
 160:/home/virusv/TDSAST_IOT/Libraries/src/stm32f10x_i2c.c ****   * @retval None
 161:/home/virusv/TDSAST_IOT/Libraries/src/stm32f10x_i2c.c ****   */
 162:/home/virusv/TDSAST_IOT/Libraries/src/stm32f10x_i2c.c **** void I2C_DeInit(I2C_TypeDef* I2Cx)
 163:/home/virusv/TDSAST_IOT/Libraries/src/stm32f10x_i2c.c **** {
  27              		.loc 1 163 0
  28              		.cfi_startproc
  29              		@ args = 0, pretend = 0, frame = 8
  30              		@ frame_needed = 1, uses_anonymous_args = 0
  31 0000 80B5     		push	{r7, lr}
  32              		.cfi_def_cfa_offset 8
  33              		.cfi_offset 7, -8
  34              		.cfi_offset 14, -4
  35 0002 82B0     		sub	sp, sp, #8
  36              		.cfi_def_cfa_offset 16
  37 0004 00AF     		add	r7, sp, #0
  38              		.cfi_def_cfa_register 7
  39 0006 7860     		str	r0, [r7, #4]
 164:/home/virusv/TDSAST_IOT/Libraries/src/stm32f10x_i2c.c ****   /* Check the parameters */
 165:/home/virusv/TDSAST_IOT/Libraries/src/stm32f10x_i2c.c ****   assert_param(IS_I2C_ALL_PERIPH(I2Cx));
 166:/home/virusv/TDSAST_IOT/Libraries/src/stm32f10x_i2c.c **** 
 167:/home/virusv/TDSAST_IOT/Libraries/src/stm32f10x_i2c.c ****   if (I2Cx == I2C1)
  40              		.loc 1 167 0
  41 0008 7B68     		ldr	r3, [r7, #4]
  42 000a 0D4A     		ldr	r2, .L4
  43 000c 9342     		cmp	r3, r2
  44 000e 0AD1     		bne	.L2
 168:/home/virusv/TDSAST_IOT/Libraries/src/stm32f10x_i2c.c ****   {
 169:/home/virusv/TDSAST_IOT/Libraries/src/stm32f10x_i2c.c ****     /* Enable I2C1 reset state */
 170:/home/virusv/TDSAST_IOT/Libraries/src/stm32f10x_i2c.c ****     RCC_APB1PeriphResetCmd(RCC_APB1Periph_I2C1, ENABLE);
  45              		.loc 1 170 0
  46 0010 4FF40010 		mov	r0, #2097152
  47 0014 0121     		movs	r1, #1
  48 0016 FFF7FEFF 		bl	RCC_APB1PeriphResetCmd
 171:/home/virusv/TDSAST_IOT/Libraries/src/stm32f10x_i2c.c ****     /* Release I2C1 from reset state */
 172:/home/virusv/TDSAST_IOT/Libraries/src/stm32f10x_i2c.c ****     RCC_APB1PeriphResetCmd(RCC_APB1Periph_I2C1, DISABLE);
  49              		.loc 1 172 0
  50 001a 4FF40010 		mov	r0, #2097152
  51 001e 0021     		movs	r1, #0
  52 0020 FFF7FEFF 		bl	RCC_APB1PeriphResetCmd
  53 0024 09E0     		b	.L1
  54              	.L2:
 173:/home/virusv/TDSAST_IOT/Libraries/src/stm32f10x_i2c.c ****   }
 174:/home/virusv/TDSAST_IOT/Libraries/src/stm32f10x_i2c.c ****   else
 175:/home/virusv/TDSAST_IOT/Libraries/src/stm32f10x_i2c.c ****   {
 176:/home/virusv/TDSAST_IOT/Libraries/src/stm32f10x_i2c.c ****     /* Enable I2C2 reset state */
 177:/home/virusv/TDSAST_IOT/Libraries/src/stm32f10x_i2c.c ****     RCC_APB1PeriphResetCmd(RCC_APB1Periph_I2C2, ENABLE);
  55              		.loc 1 177 0
  56 0026 4FF48000 		mov	r0, #4194304
  57 002a 0121     		movs	r1, #1
  58 002c FFF7FEFF 		bl	RCC_APB1PeriphResetCmd
 178:/home/virusv/TDSAST_IOT/Libraries/src/stm32f10x_i2c.c ****     /* Release I2C2 from reset state */
 179:/home/virusv/TDSAST_IOT/Libraries/src/stm32f10x_i2c.c ****     RCC_APB1PeriphResetCmd(RCC_APB1Periph_I2C2, DISABLE);
  59              		.loc 1 179 0
  60 0030 4FF48000 		mov	r0, #4194304
  61 0034 0021     		movs	r1, #0
  62 0036 FFF7FEFF 		bl	RCC_APB1PeriphResetCmd
  63              	.L1:
 180:/home/virusv/TDSAST_IOT/Libraries/src/stm32f10x_i2c.c ****   }
 181:/home/virusv/TDSAST_IOT/Libraries/src/stm32f10x_i2c.c **** }
  64              		.loc 1 181 0
  65 003a 0837     		adds	r7, r7, #8
  66              		.cfi_def_cfa_offset 8
  67 003c BD46     		mov	sp, r7
  68              		.cfi_def_cfa_register 13
  69              		@ sp needed
  70 003e 80BD     		pop	{r7, pc}
  71              	.L5:
  72              		.align	2
  73              	.L4:
  74 0040 00540040 		.word	1073763328
  75              		.cfi_endproc
  76              	.LFE29:
  78              		.section	.text.I2C_Init,"ax",%progbits
  79              		.align	2
  80              		.global	I2C_Init
  81              		.thumb
  82              		.thumb_func
  84              	I2C_Init:
  85              	.LFB30:
 182:/home/virusv/TDSAST_IOT/Libraries/src/stm32f10x_i2c.c **** 
 183:/home/virusv/TDSAST_IOT/Libraries/src/stm32f10x_i2c.c **** /**
 184:/home/virusv/TDSAST_IOT/Libraries/src/stm32f10x_i2c.c ****   * @brief  Initializes the I2Cx peripheral according to the specified 
 185:/home/virusv/TDSAST_IOT/Libraries/src/stm32f10x_i2c.c ****   *   parameters in the I2C_InitStruct.
 186:/home/virusv/TDSAST_IOT/Libraries/src/stm32f10x_i2c.c ****   * @param  I2Cx: where x can be 1 or 2 to select the I2C peripheral.
 187:/home/virusv/TDSAST_IOT/Libraries/src/stm32f10x_i2c.c ****   * @param  I2C_InitStruct: pointer to a I2C_InitTypeDef structure that
 188:/home/virusv/TDSAST_IOT/Libraries/src/stm32f10x_i2c.c ****   *   contains the configuration information for the specified I2C peripheral.
 189:/home/virusv/TDSAST_IOT/Libraries/src/stm32f10x_i2c.c ****   * @retval None
 190:/home/virusv/TDSAST_IOT/Libraries/src/stm32f10x_i2c.c ****   */
 191:/home/virusv/TDSAST_IOT/Libraries/src/stm32f10x_i2c.c **** void I2C_Init(I2C_TypeDef* I2Cx, I2C_InitTypeDef* I2C_InitStruct)
 192:/home/virusv/TDSAST_IOT/Libraries/src/stm32f10x_i2c.c **** {
  86              		.loc 1 192 0
  87              		.cfi_startproc
  88              		@ args = 0, pretend = 0, frame = 40
  89              		@ frame_needed = 1, uses_anonymous_args = 0
  90 0000 80B5     		push	{r7, lr}
  91              		.cfi_def_cfa_offset 8
  92              		.cfi_offset 7, -8
  93              		.cfi_offset 14, -4
  94 0002 8AB0     		sub	sp, sp, #40
  95              		.cfi_def_cfa_offset 48
  96 0004 00AF     		add	r7, sp, #0
  97              		.cfi_def_cfa_register 7
  98 0006 7860     		str	r0, [r7, #4]
  99 0008 3960     		str	r1, [r7]
 193:/home/virusv/TDSAST_IOT/Libraries/src/stm32f10x_i2c.c ****   uint16_t tmpreg = 0, freqrange = 0;
 100              		.loc 1 193 0
 101 000a 0023     		movs	r3, #0
 102 000c FB84     		strh	r3, [r7, #38]	@ movhi
 103 000e 0023     		movs	r3, #0
 104 0010 7B84     		strh	r3, [r7, #34]	@ movhi
 194:/home/virusv/TDSAST_IOT/Libraries/src/stm32f10x_i2c.c ****   uint16_t result = 0x04;
 105              		.loc 1 194 0
 106 0012 0423     		movs	r3, #4
 107 0014 BB84     		strh	r3, [r7, #36]	@ movhi
 195:/home/virusv/TDSAST_IOT/Libraries/src/stm32f10x_i2c.c ****   uint32_t pclk1 = 8000000;
 108              		.loc 1 195 0
 109 0016 574B     		ldr	r3, .L13
 110 0018 FB61     		str	r3, [r7, #28]
 196:/home/virusv/TDSAST_IOT/Libraries/src/stm32f10x_i2c.c ****   RCC_ClocksTypeDef  rcc_clocks;
 197:/home/virusv/TDSAST_IOT/Libraries/src/stm32f10x_i2c.c ****   /* Check the parameters */
 198:/home/virusv/TDSAST_IOT/Libraries/src/stm32f10x_i2c.c ****   assert_param(IS_I2C_ALL_PERIPH(I2Cx));
 199:/home/virusv/TDSAST_IOT/Libraries/src/stm32f10x_i2c.c ****   assert_param(IS_I2C_CLOCK_SPEED(I2C_InitStruct->I2C_ClockSpeed));
 200:/home/virusv/TDSAST_IOT/Libraries/src/stm32f10x_i2c.c ****   assert_param(IS_I2C_MODE(I2C_InitStruct->I2C_Mode));
 201:/home/virusv/TDSAST_IOT/Libraries/src/stm32f10x_i2c.c ****   assert_param(IS_I2C_DUTY_CYCLE(I2C_InitStruct->I2C_DutyCycle));
 202:/home/virusv/TDSAST_IOT/Libraries/src/stm32f10x_i2c.c ****   assert_param(IS_I2C_OWN_ADDRESS1(I2C_InitStruct->I2C_OwnAddress1));
 203:/home/virusv/TDSAST_IOT/Libraries/src/stm32f10x_i2c.c ****   assert_param(IS_I2C_ACK_STATE(I2C_InitStruct->I2C_Ack));
 204:/home/virusv/TDSAST_IOT/Libraries/src/stm32f10x_i2c.c ****   assert_param(IS_I2C_ACKNOWLEDGE_ADDRESS(I2C_InitStruct->I2C_AcknowledgedAddress));
 205:/home/virusv/TDSAST_IOT/Libraries/src/stm32f10x_i2c.c **** 
 206:/home/virusv/TDSAST_IOT/Libraries/src/stm32f10x_i2c.c **** /*---------------------------- I2Cx CR2 Configuration ------------------------*/
 207:/home/virusv/TDSAST_IOT/Libraries/src/stm32f10x_i2c.c ****   /* Get the I2Cx CR2 value */
 208:/home/virusv/TDSAST_IOT/Libraries/src/stm32f10x_i2c.c ****   tmpreg = I2Cx->CR2;
 111              		.loc 1 208 0
 112 001a 7B68     		ldr	r3, [r7, #4]
 113 001c 9B88     		ldrh	r3, [r3, #4]	@ movhi
 114 001e FB84     		strh	r3, [r7, #38]	@ movhi
 209:/home/virusv/TDSAST_IOT/Libraries/src/stm32f10x_i2c.c ****   /* Clear frequency FREQ[5:0] bits */
 210:/home/virusv/TDSAST_IOT/Libraries/src/stm32f10x_i2c.c ****   tmpreg &= CR2_FREQ_Reset;
 115              		.loc 1 210 0
 116 0020 FB8C     		ldrh	r3, [r7, #38]	@ movhi
 117 0022 23F03F03 		bic	r3, r3, #63
 118 0026 FB84     		strh	r3, [r7, #38]	@ movhi
 211:/home/virusv/TDSAST_IOT/Libraries/src/stm32f10x_i2c.c ****   /* Get pclk1 frequency value */
 212:/home/virusv/TDSAST_IOT/Libraries/src/stm32f10x_i2c.c ****   RCC_GetClocksFreq(&rcc_clocks);
 119              		.loc 1 212 0
 120 0028 07F10803 		add	r3, r7, #8
 121 002c 1846     		mov	r0, r3
 122 002e FFF7FEFF 		bl	RCC_GetClocksFreq
 213:/home/virusv/TDSAST_IOT/Libraries/src/stm32f10x_i2c.c ****   pclk1 = rcc_clocks.PCLK1_Frequency;
 123              		.loc 1 213 0
 124 0032 3B69     		ldr	r3, [r7, #16]
 125 0034 FB61     		str	r3, [r7, #28]
 214:/home/virusv/TDSAST_IOT/Libraries/src/stm32f10x_i2c.c ****   /* Set frequency bits depending on pclk1 value */
 215:/home/virusv/TDSAST_IOT/Libraries/src/stm32f10x_i2c.c ****   freqrange = (uint16_t)(pclk1 / 1000000);
 126              		.loc 1 215 0
 127 0036 FB69     		ldr	r3, [r7, #28]
 128 0038 4F4A     		ldr	r2, .L13+4
 129 003a A2FB0323 		umull	r2, r3, r2, r3
 130 003e 9B0C     		lsrs	r3, r3, #18
 131 0040 7B84     		strh	r3, [r7, #34]	@ movhi
 216:/home/virusv/TDSAST_IOT/Libraries/src/stm32f10x_i2c.c ****   tmpreg |= freqrange;
 132              		.loc 1 216 0
 133 0042 FA8C     		ldrh	r2, [r7, #38]	@ movhi
 134 0044 7B8C     		ldrh	r3, [r7, #34]	@ movhi
 135 0046 1343     		orrs	r3, r3, r2
 136 0048 FB84     		strh	r3, [r7, #38]	@ movhi
 217:/home/virusv/TDSAST_IOT/Libraries/src/stm32f10x_i2c.c ****   /* Write to I2Cx CR2 */
 218:/home/virusv/TDSAST_IOT/Libraries/src/stm32f10x_i2c.c ****   I2Cx->CR2 = tmpreg;
 137              		.loc 1 218 0
 138 004a 7B68     		ldr	r3, [r7, #4]
 139 004c FA8C     		ldrh	r2, [r7, #38]	@ movhi
 140 004e 9A80     		strh	r2, [r3, #4]	@ movhi
 219:/home/virusv/TDSAST_IOT/Libraries/src/stm32f10x_i2c.c **** 
 220:/home/virusv/TDSAST_IOT/Libraries/src/stm32f10x_i2c.c **** /*---------------------------- I2Cx CCR Configuration ------------------------*/
 221:/home/virusv/TDSAST_IOT/Libraries/src/stm32f10x_i2c.c ****   /* Disable the selected I2C peripheral to configure TRISE */
 222:/home/virusv/TDSAST_IOT/Libraries/src/stm32f10x_i2c.c ****   I2Cx->CR1 &= CR1_PE_Reset;
 141              		.loc 1 222 0
 142 0050 7B68     		ldr	r3, [r7, #4]
 143 0052 1B88     		ldrh	r3, [r3]	@ movhi
 144 0054 9BB2     		uxth	r3, r3
 145 0056 23F00103 		bic	r3, r3, #1
 146 005a 9AB2     		uxth	r2, r3
 147 005c 7B68     		ldr	r3, [r7, #4]
 148 005e 1A80     		strh	r2, [r3]	@ movhi
 223:/home/virusv/TDSAST_IOT/Libraries/src/stm32f10x_i2c.c ****   /* Reset tmpreg value */
 224:/home/virusv/TDSAST_IOT/Libraries/src/stm32f10x_i2c.c ****   /* Clear F/S, DUTY and CCR[11:0] bits */
 225:/home/virusv/TDSAST_IOT/Libraries/src/stm32f10x_i2c.c ****   tmpreg = 0;
 149              		.loc 1 225 0
 150 0060 0023     		movs	r3, #0
 151 0062 FB84     		strh	r3, [r7, #38]	@ movhi
 226:/home/virusv/TDSAST_IOT/Libraries/src/stm32f10x_i2c.c **** 
 227:/home/virusv/TDSAST_IOT/Libraries/src/stm32f10x_i2c.c ****   /* Configure speed in standard mode */
 228:/home/virusv/TDSAST_IOT/Libraries/src/stm32f10x_i2c.c ****   if (I2C_InitStruct->I2C_ClockSpeed <= 100000)
 152              		.loc 1 228 0
 153 0064 3B68     		ldr	r3, [r7]
 154 0066 1B68     		ldr	r3, [r3]
 155 0068 444A     		ldr	r2, .L13+8
 156 006a 9342     		cmp	r3, r2
 157 006c 15D8     		bhi	.L7
 229:/home/virusv/TDSAST_IOT/Libraries/src/stm32f10x_i2c.c ****   {
 230:/home/virusv/TDSAST_IOT/Libraries/src/stm32f10x_i2c.c ****     /* Standard mode speed calculate */
 231:/home/virusv/TDSAST_IOT/Libraries/src/stm32f10x_i2c.c ****     result = (uint16_t)(pclk1 / (I2C_InitStruct->I2C_ClockSpeed << 1));
 158              		.loc 1 231 0
 159 006e 3B68     		ldr	r3, [r7]
 160 0070 1B68     		ldr	r3, [r3]
 161 0072 5B00     		lsls	r3, r3, #1
 162 0074 FA69     		ldr	r2, [r7, #28]
 163 0076 B2FBF3F3 		udiv	r3, r2, r3
 164 007a BB84     		strh	r3, [r7, #36]	@ movhi
 232:/home/virusv/TDSAST_IOT/Libraries/src/stm32f10x_i2c.c ****     /* Test if CCR value is under 0x4*/
 233:/home/virusv/TDSAST_IOT/Libraries/src/stm32f10x_i2c.c ****     if (result < 0x04)
 165              		.loc 1 233 0
 166 007c BB8C     		ldrh	r3, [r7, #36]
 167 007e 032B     		cmp	r3, #3
 168 0080 01D8     		bhi	.L8
 234:/home/virusv/TDSAST_IOT/Libraries/src/stm32f10x_i2c.c ****     {
 235:/home/virusv/TDSAST_IOT/Libraries/src/stm32f10x_i2c.c ****       /* Set minimum allowed value */
 236:/home/virusv/TDSAST_IOT/Libraries/src/stm32f10x_i2c.c ****       result = 0x04;  
 169              		.loc 1 236 0
 170 0082 0423     		movs	r3, #4
 171 0084 BB84     		strh	r3, [r7, #36]	@ movhi
 172              	.L8:
 237:/home/virusv/TDSAST_IOT/Libraries/src/stm32f10x_i2c.c ****     }
 238:/home/virusv/TDSAST_IOT/Libraries/src/stm32f10x_i2c.c ****     /* Set speed value for standard mode */
 239:/home/virusv/TDSAST_IOT/Libraries/src/stm32f10x_i2c.c ****     tmpreg |= result;	  
 173              		.loc 1 239 0
 174 0086 FA8C     		ldrh	r2, [r7, #38]	@ movhi
 175 0088 BB8C     		ldrh	r3, [r7, #36]	@ movhi
 176 008a 1343     		orrs	r3, r3, r2
 177 008c FB84     		strh	r3, [r7, #38]	@ movhi
 240:/home/virusv/TDSAST_IOT/Libraries/src/stm32f10x_i2c.c ****     /* Set Maximum Rise Time for standard mode */
 241:/home/virusv/TDSAST_IOT/Libraries/src/stm32f10x_i2c.c ****     I2Cx->TRISE = freqrange + 1; 
 178              		.loc 1 241 0
 179 008e 7B8C     		ldrh	r3, [r7, #34]	@ movhi
 180 0090 0133     		adds	r3, r3, #1
 181 0092 9AB2     		uxth	r2, r3
 182 0094 7B68     		ldr	r3, [r7, #4]
 183 0096 1A84     		strh	r2, [r3, #32]	@ movhi
 184 0098 40E0     		b	.L9
 185              	.L7:
 242:/home/virusv/TDSAST_IOT/Libraries/src/stm32f10x_i2c.c ****   }
 243:/home/virusv/TDSAST_IOT/Libraries/src/stm32f10x_i2c.c ****   /* Configure speed in fast mode */
 244:/home/virusv/TDSAST_IOT/Libraries/src/stm32f10x_i2c.c ****   else /*(I2C_InitStruct->I2C_ClockSpeed <= 400000)*/
 245:/home/virusv/TDSAST_IOT/Libraries/src/stm32f10x_i2c.c ****   {
 246:/home/virusv/TDSAST_IOT/Libraries/src/stm32f10x_i2c.c ****     if (I2C_InitStruct->I2C_DutyCycle == I2C_DutyCycle_2)
 186              		.loc 1 246 0
 187 009a 3B68     		ldr	r3, [r7]
 188 009c DB88     		ldrh	r3, [r3, #6]
 189 009e 4BF6FF72 		movw	r2, #49151
 190 00a2 9342     		cmp	r3, r2
 191 00a4 09D1     		bne	.L10
 247:/home/virusv/TDSAST_IOT/Libraries/src/stm32f10x_i2c.c ****     {
 248:/home/virusv/TDSAST_IOT/Libraries/src/stm32f10x_i2c.c ****       /* Fast mode speed calculate: Tlow/Thigh = 2 */
 249:/home/virusv/TDSAST_IOT/Libraries/src/stm32f10x_i2c.c ****       result = (uint16_t)(pclk1 / (I2C_InitStruct->I2C_ClockSpeed * 3));
 192              		.loc 1 249 0
 193 00a6 3B68     		ldr	r3, [r7]
 194 00a8 1A68     		ldr	r2, [r3]
 195 00aa 1346     		mov	r3, r2
 196 00ac 5B00     		lsls	r3, r3, #1
 197 00ae 1344     		add	r3, r3, r2
 198 00b0 FA69     		ldr	r2, [r7, #28]
 199 00b2 B2FBF3F3 		udiv	r3, r2, r3
 200 00b6 BB84     		strh	r3, [r7, #36]	@ movhi
 201 00b8 0EE0     		b	.L11
 202              	.L10:
 250:/home/virusv/TDSAST_IOT/Libraries/src/stm32f10x_i2c.c ****     }
 251:/home/virusv/TDSAST_IOT/Libraries/src/stm32f10x_i2c.c ****     else /*I2C_InitStruct->I2C_DutyCycle == I2C_DutyCycle_16_9*/
 252:/home/virusv/TDSAST_IOT/Libraries/src/stm32f10x_i2c.c ****     {
 253:/home/virusv/TDSAST_IOT/Libraries/src/stm32f10x_i2c.c ****       /* Fast mode speed calculate: Tlow/Thigh = 16/9 */
 254:/home/virusv/TDSAST_IOT/Libraries/src/stm32f10x_i2c.c ****       result = (uint16_t)(pclk1 / (I2C_InitStruct->I2C_ClockSpeed * 25));
 203              		.loc 1 254 0
 204 00ba 3B68     		ldr	r3, [r7]
 205 00bc 1A68     		ldr	r2, [r3]
 206 00be 1346     		mov	r3, r2
 207 00c0 9B00     		lsls	r3, r3, #2
 208 00c2 1344     		add	r3, r3, r2
 209 00c4 9A00     		lsls	r2, r3, #2
 210 00c6 1344     		add	r3, r3, r2
 211 00c8 FA69     		ldr	r2, [r7, #28]
 212 00ca B2FBF3F3 		udiv	r3, r2, r3
 213 00ce BB84     		strh	r3, [r7, #36]	@ movhi
 255:/home/virusv/TDSAST_IOT/Libraries/src/stm32f10x_i2c.c ****       /* Set DUTY bit */
 256:/home/virusv/TDSAST_IOT/Libraries/src/stm32f10x_i2c.c ****       result |= I2C_DutyCycle_16_9;
 214              		.loc 1 256 0
 215 00d0 BB8C     		ldrh	r3, [r7, #36]	@ movhi
 216 00d2 43F48043 		orr	r3, r3, #16384
 217 00d6 BB84     		strh	r3, [r7, #36]	@ movhi
 218              	.L11:
 257:/home/virusv/TDSAST_IOT/Libraries/src/stm32f10x_i2c.c ****     }
 258:/home/virusv/TDSAST_IOT/Libraries/src/stm32f10x_i2c.c **** 
 259:/home/virusv/TDSAST_IOT/Libraries/src/stm32f10x_i2c.c ****     /* Test if CCR value is under 0x1*/
 260:/home/virusv/TDSAST_IOT/Libraries/src/stm32f10x_i2c.c ****     if ((result & CCR_CCR_Set) == 0)
 219              		.loc 1 260 0
 220 00d8 BB8C     		ldrh	r3, [r7, #36]
 221 00da C3F30B03 		ubfx	r3, r3, #0, #12
 222 00de 002B     		cmp	r3, #0
 223 00e0 03D1     		bne	.L12
 261:/home/virusv/TDSAST_IOT/Libraries/src/stm32f10x_i2c.c ****     {
 262:/home/virusv/TDSAST_IOT/Libraries/src/stm32f10x_i2c.c ****       /* Set minimum allowed value */
 263:/home/virusv/TDSAST_IOT/Libraries/src/stm32f10x_i2c.c ****       result |= (uint16_t)0x0001;  
 224              		.loc 1 263 0
 225 00e2 BB8C     		ldrh	r3, [r7, #36]	@ movhi
 226 00e4 43F00103 		orr	r3, r3, #1
 227 00e8 BB84     		strh	r3, [r7, #36]	@ movhi
 228              	.L12:
 264:/home/virusv/TDSAST_IOT/Libraries/src/stm32f10x_i2c.c ****     }
 265:/home/virusv/TDSAST_IOT/Libraries/src/stm32f10x_i2c.c ****     /* Set speed value and set F/S bit for fast mode */
 266:/home/virusv/TDSAST_IOT/Libraries/src/stm32f10x_i2c.c ****     tmpreg |= (uint16_t)(result | CCR_FS_Set);
 229              		.loc 1 266 0
 230 00ea BA8C     		ldrh	r2, [r7, #36]	@ movhi
 231 00ec FB8C     		ldrh	r3, [r7, #38]	@ movhi
 232 00ee 1343     		orrs	r3, r3, r2
 233 00f0 9BB2     		uxth	r3, r3
 234 00f2 6FEA4343 		mvn	r3, r3, lsl #17
 235 00f6 6FEA5343 		mvn	r3, r3, lsr #17
 236 00fa FB84     		strh	r3, [r7, #38]	@ movhi
 267:/home/virusv/TDSAST_IOT/Libraries/src/stm32f10x_i2c.c ****     /* Set Maximum Rise Time for fast mode */
 268:/home/virusv/TDSAST_IOT/Libraries/src/stm32f10x_i2c.c ****     I2Cx->TRISE = (uint16_t)(((freqrange * (uint16_t)300) / (uint16_t)1000) + (uint16_t)1);  
 237              		.loc 1 268 0
 238 00fc 7B8C     		ldrh	r3, [r7, #34]
 239 00fe 4FF49672 		mov	r2, #300
 240 0102 02FB03F3 		mul	r3, r2, r3
 241 0106 1E4A     		ldr	r2, .L13+12
 242 0108 82FB0312 		smull	r1, r2, r2, r3
 243 010c 9211     		asrs	r2, r2, #6
 244 010e DB17     		asrs	r3, r3, #31
 245 0110 D31A     		subs	r3, r2, r3
 246 0112 9BB2     		uxth	r3, r3
 247 0114 0133     		adds	r3, r3, #1
 248 0116 9AB2     		uxth	r2, r3
 249 0118 7B68     		ldr	r3, [r7, #4]
 250 011a 1A84     		strh	r2, [r3, #32]	@ movhi
 251              	.L9:
 269:/home/virusv/TDSAST_IOT/Libraries/src/stm32f10x_i2c.c ****   }
 270:/home/virusv/TDSAST_IOT/Libraries/src/stm32f10x_i2c.c **** 
 271:/home/virusv/TDSAST_IOT/Libraries/src/stm32f10x_i2c.c ****   /* Write to I2Cx CCR */
 272:/home/virusv/TDSAST_IOT/Libraries/src/stm32f10x_i2c.c ****   I2Cx->CCR = tmpreg;
 252              		.loc 1 272 0
 253 011c 7B68     		ldr	r3, [r7, #4]
 254 011e FA8C     		ldrh	r2, [r7, #38]	@ movhi
 255 0120 9A83     		strh	r2, [r3, #28]	@ movhi
 273:/home/virusv/TDSAST_IOT/Libraries/src/stm32f10x_i2c.c ****   /* Enable the selected I2C peripheral */
 274:/home/virusv/TDSAST_IOT/Libraries/src/stm32f10x_i2c.c ****   I2Cx->CR1 |= CR1_PE_Set;
 256              		.loc 1 274 0
 257 0122 7B68     		ldr	r3, [r7, #4]
 258 0124 1B88     		ldrh	r3, [r3]	@ movhi
 259 0126 9BB2     		uxth	r3, r3
 260 0128 43F00103 		orr	r3, r3, #1
 261 012c 9AB2     		uxth	r2, r3
 262 012e 7B68     		ldr	r3, [r7, #4]
 263 0130 1A80     		strh	r2, [r3]	@ movhi
 275:/home/virusv/TDSAST_IOT/Libraries/src/stm32f10x_i2c.c **** 
 276:/home/virusv/TDSAST_IOT/Libraries/src/stm32f10x_i2c.c **** /*---------------------------- I2Cx CR1 Configuration ------------------------*/
 277:/home/virusv/TDSAST_IOT/Libraries/src/stm32f10x_i2c.c ****   /* Get the I2Cx CR1 value */
 278:/home/virusv/TDSAST_IOT/Libraries/src/stm32f10x_i2c.c ****   tmpreg = I2Cx->CR1;
 264              		.loc 1 278 0
 265 0132 7B68     		ldr	r3, [r7, #4]
 266 0134 1B88     		ldrh	r3, [r3]	@ movhi
 267 0136 FB84     		strh	r3, [r7, #38]	@ movhi
 279:/home/virusv/TDSAST_IOT/Libraries/src/stm32f10x_i2c.c ****   /* Clear ACK, SMBTYPE and  SMBUS bits */
 280:/home/virusv/TDSAST_IOT/Libraries/src/stm32f10x_i2c.c ****   tmpreg &= CR1_CLEAR_Mask;
 268              		.loc 1 280 0
 269 0138 FB8C     		ldrh	r3, [r7, #38]	@ movhi
 270 013a 23F48163 		bic	r3, r3, #1032
 271 013e 23F00203 		bic	r3, r3, #2
 272 0142 FB84     		strh	r3, [r7, #38]	@ movhi
 281:/home/virusv/TDSAST_IOT/Libraries/src/stm32f10x_i2c.c ****   /* Configure I2Cx: mode and acknowledgement */
 282:/home/virusv/TDSAST_IOT/Libraries/src/stm32f10x_i2c.c ****   /* Set SMBTYPE and SMBUS bits according to I2C_Mode value */
 283:/home/virusv/TDSAST_IOT/Libraries/src/stm32f10x_i2c.c ****   /* Set ACK bit according to I2C_Ack value */
 284:/home/virusv/TDSAST_IOT/Libraries/src/stm32f10x_i2c.c ****   tmpreg |= (uint16_t)((uint32_t)I2C_InitStruct->I2C_Mode | I2C_InitStruct->I2C_Ack);
 273              		.loc 1 284 0
 274 0144 3B68     		ldr	r3, [r7]
 275 0146 9A88     		ldrh	r2, [r3, #4]
 276 0148 3B68     		ldr	r3, [r7]
 277 014a 5B89     		ldrh	r3, [r3, #10]
 278 014c 1343     		orrs	r3, r3, r2
 279 014e 9AB2     		uxth	r2, r3
 280 0150 FB8C     		ldrh	r3, [r7, #38]	@ movhi
 281 0152 1343     		orrs	r3, r3, r2
 282 0154 FB84     		strh	r3, [r7, #38]	@ movhi
 285:/home/virusv/TDSAST_IOT/Libraries/src/stm32f10x_i2c.c ****   /* Write to I2Cx CR1 */
 286:/home/virusv/TDSAST_IOT/Libraries/src/stm32f10x_i2c.c ****   I2Cx->CR1 = tmpreg;
 283              		.loc 1 286 0
 284 0156 7B68     		ldr	r3, [r7, #4]
 285 0158 FA8C     		ldrh	r2, [r7, #38]	@ movhi
 286 015a 1A80     		strh	r2, [r3]	@ movhi
 287:/home/virusv/TDSAST_IOT/Libraries/src/stm32f10x_i2c.c **** 
 288:/home/virusv/TDSAST_IOT/Libraries/src/stm32f10x_i2c.c **** /*---------------------------- I2Cx OAR1 Configuration -----------------------*/
 289:/home/virusv/TDSAST_IOT/Libraries/src/stm32f10x_i2c.c ****   /* Set I2Cx Own Address1 and acknowledged address */
 290:/home/virusv/TDSAST_IOT/Libraries/src/stm32f10x_i2c.c ****   I2Cx->OAR1 = (I2C_InitStruct->I2C_AcknowledgedAddress | I2C_InitStruct->I2C_OwnAddress1);
 287              		.loc 1 290 0
 288 015c 3B68     		ldr	r3, [r7]
 289 015e 9A89     		ldrh	r2, [r3, #12]
 290 0160 3B68     		ldr	r3, [r7]
 291 0162 1B89     		ldrh	r3, [r3, #8]
 292 0164 1343     		orrs	r3, r3, r2
 293 0166 9AB2     		uxth	r2, r3
 294 0168 7B68     		ldr	r3, [r7, #4]
 295 016a 1A81     		strh	r2, [r3, #8]	@ movhi
 291:/home/virusv/TDSAST_IOT/Libraries/src/stm32f10x_i2c.c **** }
 296              		.loc 1 291 0
 297 016c 2837     		adds	r7, r7, #40
 298              		.cfi_def_cfa_offset 8
 299 016e BD46     		mov	sp, r7
 300              		.cfi_def_cfa_register 13
 301              		@ sp needed
 302 0170 80BD     		pop	{r7, pc}
 303              	.L14:
 304 0172 00BF     		.align	2
 305              	.L13:
 306 0174 00127A00 		.word	8000000
 307 0178 83DE1B43 		.word	1125899907
 308 017c A0860100 		.word	100000
 309 0180 D34D6210 		.word	274877907
 310              		.cfi_endproc
 311              	.LFE30:
 313              		.section	.text.I2C_StructInit,"ax",%progbits
 314              		.align	2
 315              		.global	I2C_StructInit
 316              		.thumb
 317              		.thumb_func
 319              	I2C_StructInit:
 320              	.LFB31:
 292:/home/virusv/TDSAST_IOT/Libraries/src/stm32f10x_i2c.c **** 
 293:/home/virusv/TDSAST_IOT/Libraries/src/stm32f10x_i2c.c **** /**
 294:/home/virusv/TDSAST_IOT/Libraries/src/stm32f10x_i2c.c ****   * @brief  Fills each I2C_InitStruct member with its default value.
 295:/home/virusv/TDSAST_IOT/Libraries/src/stm32f10x_i2c.c ****   * @param  I2C_InitStruct: pointer to an I2C_InitTypeDef structure which will be initialized.
 296:/home/virusv/TDSAST_IOT/Libraries/src/stm32f10x_i2c.c ****   * @retval None
 297:/home/virusv/TDSAST_IOT/Libraries/src/stm32f10x_i2c.c ****   */
 298:/home/virusv/TDSAST_IOT/Libraries/src/stm32f10x_i2c.c **** void I2C_StructInit(I2C_InitTypeDef* I2C_InitStruct)
 299:/home/virusv/TDSAST_IOT/Libraries/src/stm32f10x_i2c.c **** {
 321              		.loc 1 299 0
 322              		.cfi_startproc
 323              		@ args = 0, pretend = 0, frame = 8
 324              		@ frame_needed = 1, uses_anonymous_args = 0
 325              		@ link register save eliminated.
 326 0000 80B4     		push	{r7}
 327              		.cfi_def_cfa_offset 4
 328              		.cfi_offset 7, -4
 329 0002 83B0     		sub	sp, sp, #12
 330              		.cfi_def_cfa_offset 16
 331 0004 00AF     		add	r7, sp, #0
 332              		.cfi_def_cfa_register 7
 333 0006 7860     		str	r0, [r7, #4]
 300:/home/virusv/TDSAST_IOT/Libraries/src/stm32f10x_i2c.c **** /*---------------- Reset I2C init structure parameters values ----------------*/
 301:/home/virusv/TDSAST_IOT/Libraries/src/stm32f10x_i2c.c ****   /* initialize the I2C_ClockSpeed member */
 302:/home/virusv/TDSAST_IOT/Libraries/src/stm32f10x_i2c.c ****   I2C_InitStruct->I2C_ClockSpeed = 5000;
 334              		.loc 1 302 0
 335 0008 7B68     		ldr	r3, [r7, #4]
 336 000a 41F28832 		movw	r2, #5000
 337 000e 1A60     		str	r2, [r3]
 303:/home/virusv/TDSAST_IOT/Libraries/src/stm32f10x_i2c.c ****   /* Initialize the I2C_Mode member */
 304:/home/virusv/TDSAST_IOT/Libraries/src/stm32f10x_i2c.c ****   I2C_InitStruct->I2C_Mode = I2C_Mode_I2C;
 338              		.loc 1 304 0
 339 0010 7B68     		ldr	r3, [r7, #4]
 340 0012 0022     		movs	r2, #0
 341 0014 9A80     		strh	r2, [r3, #4]	@ movhi
 305:/home/virusv/TDSAST_IOT/Libraries/src/stm32f10x_i2c.c ****   /* Initialize the I2C_DutyCycle member */
 306:/home/virusv/TDSAST_IOT/Libraries/src/stm32f10x_i2c.c ****   I2C_InitStruct->I2C_DutyCycle = I2C_DutyCycle_2;
 342              		.loc 1 306 0
 343 0016 7B68     		ldr	r3, [r7, #4]
 344 0018 4BF6FF72 		movw	r2, #49151
 345 001c DA80     		strh	r2, [r3, #6]	@ movhi
 307:/home/virusv/TDSAST_IOT/Libraries/src/stm32f10x_i2c.c ****   /* Initialize the I2C_OwnAddress1 member */
 308:/home/virusv/TDSAST_IOT/Libraries/src/stm32f10x_i2c.c ****   I2C_InitStruct->I2C_OwnAddress1 = 0;
 346              		.loc 1 308 0
 347 001e 7B68     		ldr	r3, [r7, #4]
 348 0020 0022     		movs	r2, #0
 349 0022 1A81     		strh	r2, [r3, #8]	@ movhi
 309:/home/virusv/TDSAST_IOT/Libraries/src/stm32f10x_i2c.c ****   /* Initialize the I2C_Ack member */
 310:/home/virusv/TDSAST_IOT/Libraries/src/stm32f10x_i2c.c ****   I2C_InitStruct->I2C_Ack = I2C_Ack_Disable;
 350              		.loc 1 310 0
 351 0024 7B68     		ldr	r3, [r7, #4]
 352 0026 0022     		movs	r2, #0
 353 0028 5A81     		strh	r2, [r3, #10]	@ movhi
 311:/home/virusv/TDSAST_IOT/Libraries/src/stm32f10x_i2c.c ****   /* Initialize the I2C_AcknowledgedAddress member */
 312:/home/virusv/TDSAST_IOT/Libraries/src/stm32f10x_i2c.c ****   I2C_InitStruct->I2C_AcknowledgedAddress = I2C_AcknowledgedAddress_7bit;
 354              		.loc 1 312 0
 355 002a 7B68     		ldr	r3, [r7, #4]
 356 002c 4FF48042 		mov	r2, #16384
 357 0030 9A81     		strh	r2, [r3, #12]	@ movhi
 313:/home/virusv/TDSAST_IOT/Libraries/src/stm32f10x_i2c.c **** }
 358              		.loc 1 313 0
 359 0032 0C37     		adds	r7, r7, #12
 360              		.cfi_def_cfa_offset 4
 361 0034 BD46     		mov	sp, r7
 362              		.cfi_def_cfa_register 13
 363              		@ sp needed
 364 0036 5DF8047B 		ldr	r7, [sp], #4
 365              		.cfi_restore 7
 366              		.cfi_def_cfa_offset 0
 367 003a 7047     		bx	lr
 368              		.cfi_endproc
 369              	.LFE31:
 371              		.section	.text.I2C_Cmd,"ax",%progbits
 372              		.align	2
 373              		.global	I2C_Cmd
 374              		.thumb
 375              		.thumb_func
 377              	I2C_Cmd:
 378              	.LFB32:
 314:/home/virusv/TDSAST_IOT/Libraries/src/stm32f10x_i2c.c **** 
 315:/home/virusv/TDSAST_IOT/Libraries/src/stm32f10x_i2c.c **** /**
 316:/home/virusv/TDSAST_IOT/Libraries/src/stm32f10x_i2c.c ****   * @brief  Enables or disables the specified I2C peripheral.
 317:/home/virusv/TDSAST_IOT/Libraries/src/stm32f10x_i2c.c ****   * @param  I2Cx: where x can be 1 or 2 to select the I2C peripheral.
 318:/home/virusv/TDSAST_IOT/Libraries/src/stm32f10x_i2c.c ****   * @param  NewState: new state of the I2Cx peripheral. 
 319:/home/virusv/TDSAST_IOT/Libraries/src/stm32f10x_i2c.c ****   *   This parameter can be: ENABLE or DISABLE.
 320:/home/virusv/TDSAST_IOT/Libraries/src/stm32f10x_i2c.c ****   * @retval None
 321:/home/virusv/TDSAST_IOT/Libraries/src/stm32f10x_i2c.c ****   */
 322:/home/virusv/TDSAST_IOT/Libraries/src/stm32f10x_i2c.c **** void I2C_Cmd(I2C_TypeDef* I2Cx, FunctionalState NewState)
 323:/home/virusv/TDSAST_IOT/Libraries/src/stm32f10x_i2c.c **** {
 379              		.loc 1 323 0
 380              		.cfi_startproc
 381              		@ args = 0, pretend = 0, frame = 8
 382              		@ frame_needed = 1, uses_anonymous_args = 0
 383              		@ link register save eliminated.
 384 0000 80B4     		push	{r7}
 385              		.cfi_def_cfa_offset 4
 386              		.cfi_offset 7, -4
 387 0002 83B0     		sub	sp, sp, #12
 388              		.cfi_def_cfa_offset 16
 389 0004 00AF     		add	r7, sp, #0
 390              		.cfi_def_cfa_register 7
 391 0006 7860     		str	r0, [r7, #4]
 392 0008 0B46     		mov	r3, r1
 393 000a FB70     		strb	r3, [r7, #3]
 324:/home/virusv/TDSAST_IOT/Libraries/src/stm32f10x_i2c.c ****   /* Check the parameters */
 325:/home/virusv/TDSAST_IOT/Libraries/src/stm32f10x_i2c.c ****   assert_param(IS_I2C_ALL_PERIPH(I2Cx));
 326:/home/virusv/TDSAST_IOT/Libraries/src/stm32f10x_i2c.c ****   assert_param(IS_FUNCTIONAL_STATE(NewState));
 327:/home/virusv/TDSAST_IOT/Libraries/src/stm32f10x_i2c.c ****   if (NewState != DISABLE)
 394              		.loc 1 327 0
 395 000c FB78     		ldrb	r3, [r7, #3]	@ zero_extendqisi2
 396 000e 002B     		cmp	r3, #0
 397 0010 08D0     		beq	.L17
 328:/home/virusv/TDSAST_IOT/Libraries/src/stm32f10x_i2c.c ****   {
 329:/home/virusv/TDSAST_IOT/Libraries/src/stm32f10x_i2c.c ****     /* Enable the selected I2C peripheral */
 330:/home/virusv/TDSAST_IOT/Libraries/src/stm32f10x_i2c.c ****     I2Cx->CR1 |= CR1_PE_Set;
 398              		.loc 1 330 0
 399 0012 7B68     		ldr	r3, [r7, #4]
 400 0014 1B88     		ldrh	r3, [r3]	@ movhi
 401 0016 9BB2     		uxth	r3, r3
 402 0018 43F00103 		orr	r3, r3, #1
 403 001c 9AB2     		uxth	r2, r3
 404 001e 7B68     		ldr	r3, [r7, #4]
 405 0020 1A80     		strh	r2, [r3]	@ movhi
 406 0022 07E0     		b	.L16
 407              	.L17:
 331:/home/virusv/TDSAST_IOT/Libraries/src/stm32f10x_i2c.c ****   }
 332:/home/virusv/TDSAST_IOT/Libraries/src/stm32f10x_i2c.c ****   else
 333:/home/virusv/TDSAST_IOT/Libraries/src/stm32f10x_i2c.c ****   {
 334:/home/virusv/TDSAST_IOT/Libraries/src/stm32f10x_i2c.c ****     /* Disable the selected I2C peripheral */
 335:/home/virusv/TDSAST_IOT/Libraries/src/stm32f10x_i2c.c ****     I2Cx->CR1 &= CR1_PE_Reset;
 408              		.loc 1 335 0
 409 0024 7B68     		ldr	r3, [r7, #4]
 410 0026 1B88     		ldrh	r3, [r3]	@ movhi
 411 0028 9BB2     		uxth	r3, r3
 412 002a 23F00103 		bic	r3, r3, #1
 413 002e 9AB2     		uxth	r2, r3
 414 0030 7B68     		ldr	r3, [r7, #4]
 415 0032 1A80     		strh	r2, [r3]	@ movhi
 416              	.L16:
 336:/home/virusv/TDSAST_IOT/Libraries/src/stm32f10x_i2c.c ****   }
 337:/home/virusv/TDSAST_IOT/Libraries/src/stm32f10x_i2c.c **** }
 417              		.loc 1 337 0
 418 0034 0C37     		adds	r7, r7, #12
 419              		.cfi_def_cfa_offset 4
 420 0036 BD46     		mov	sp, r7
 421              		.cfi_def_cfa_register 13
 422              		@ sp needed
 423 0038 5DF8047B 		ldr	r7, [sp], #4
 424              		.cfi_restore 7
 425              		.cfi_def_cfa_offset 0
 426 003c 7047     		bx	lr
 427              		.cfi_endproc
 428              	.LFE32:
 430 003e 00BF     		.section	.text.I2C_DMACmd,"ax",%progbits
 431              		.align	2
 432              		.global	I2C_DMACmd
 433              		.thumb
 434              		.thumb_func
 436              	I2C_DMACmd:
 437              	.LFB33:
 338:/home/virusv/TDSAST_IOT/Libraries/src/stm32f10x_i2c.c **** 
 339:/home/virusv/TDSAST_IOT/Libraries/src/stm32f10x_i2c.c **** /**
 340:/home/virusv/TDSAST_IOT/Libraries/src/stm32f10x_i2c.c ****   * @brief  Enables or disables the specified I2C DMA requests.
 341:/home/virusv/TDSAST_IOT/Libraries/src/stm32f10x_i2c.c ****   * @param  I2Cx: where x can be 1 or 2 to select the I2C peripheral.
 342:/home/virusv/TDSAST_IOT/Libraries/src/stm32f10x_i2c.c ****   * @param  NewState: new state of the I2C DMA transfer.
 343:/home/virusv/TDSAST_IOT/Libraries/src/stm32f10x_i2c.c ****   *   This parameter can be: ENABLE or DISABLE.
 344:/home/virusv/TDSAST_IOT/Libraries/src/stm32f10x_i2c.c ****   * @retval None
 345:/home/virusv/TDSAST_IOT/Libraries/src/stm32f10x_i2c.c ****   */
 346:/home/virusv/TDSAST_IOT/Libraries/src/stm32f10x_i2c.c **** void I2C_DMACmd(I2C_TypeDef* I2Cx, FunctionalState NewState)
 347:/home/virusv/TDSAST_IOT/Libraries/src/stm32f10x_i2c.c **** {
 438              		.loc 1 347 0
 439              		.cfi_startproc
 440              		@ args = 0, pretend = 0, frame = 8
 441              		@ frame_needed = 1, uses_anonymous_args = 0
 442              		@ link register save eliminated.
 443 0000 80B4     		push	{r7}
 444              		.cfi_def_cfa_offset 4
 445              		.cfi_offset 7, -4
 446 0002 83B0     		sub	sp, sp, #12
 447              		.cfi_def_cfa_offset 16
 448 0004 00AF     		add	r7, sp, #0
 449              		.cfi_def_cfa_register 7
 450 0006 7860     		str	r0, [r7, #4]
 451 0008 0B46     		mov	r3, r1
 452 000a FB70     		strb	r3, [r7, #3]
 348:/home/virusv/TDSAST_IOT/Libraries/src/stm32f10x_i2c.c ****   /* Check the parameters */
 349:/home/virusv/TDSAST_IOT/Libraries/src/stm32f10x_i2c.c ****   assert_param(IS_I2C_ALL_PERIPH(I2Cx));
 350:/home/virusv/TDSAST_IOT/Libraries/src/stm32f10x_i2c.c ****   assert_param(IS_FUNCTIONAL_STATE(NewState));
 351:/home/virusv/TDSAST_IOT/Libraries/src/stm32f10x_i2c.c ****   if (NewState != DISABLE)
 453              		.loc 1 351 0
 454 000c FB78     		ldrb	r3, [r7, #3]	@ zero_extendqisi2
 455 000e 002B     		cmp	r3, #0
 456 0010 08D0     		beq	.L20
 352:/home/virusv/TDSAST_IOT/Libraries/src/stm32f10x_i2c.c ****   {
 353:/home/virusv/TDSAST_IOT/Libraries/src/stm32f10x_i2c.c ****     /* Enable the selected I2C DMA requests */
 354:/home/virusv/TDSAST_IOT/Libraries/src/stm32f10x_i2c.c ****     I2Cx->CR2 |= CR2_DMAEN_Set;
 457              		.loc 1 354 0
 458 0012 7B68     		ldr	r3, [r7, #4]
 459 0014 9B88     		ldrh	r3, [r3, #4]	@ movhi
 460 0016 9BB2     		uxth	r3, r3
 461 0018 43F40063 		orr	r3, r3, #2048
 462 001c 9AB2     		uxth	r2, r3
 463 001e 7B68     		ldr	r3, [r7, #4]
 464 0020 9A80     		strh	r2, [r3, #4]	@ movhi
 465 0022 07E0     		b	.L19
 466              	.L20:
 355:/home/virusv/TDSAST_IOT/Libraries/src/stm32f10x_i2c.c ****   }
 356:/home/virusv/TDSAST_IOT/Libraries/src/stm32f10x_i2c.c ****   else
 357:/home/virusv/TDSAST_IOT/Libraries/src/stm32f10x_i2c.c ****   {
 358:/home/virusv/TDSAST_IOT/Libraries/src/stm32f10x_i2c.c ****     /* Disable the selected I2C DMA requests */
 359:/home/virusv/TDSAST_IOT/Libraries/src/stm32f10x_i2c.c ****     I2Cx->CR2 &= CR2_DMAEN_Reset;
 467              		.loc 1 359 0
 468 0024 7B68     		ldr	r3, [r7, #4]
 469 0026 9B88     		ldrh	r3, [r3, #4]	@ movhi
 470 0028 9BB2     		uxth	r3, r3
 471 002a 23F40063 		bic	r3, r3, #2048
 472 002e 9AB2     		uxth	r2, r3
 473 0030 7B68     		ldr	r3, [r7, #4]
 474 0032 9A80     		strh	r2, [r3, #4]	@ movhi
 475              	.L19:
 360:/home/virusv/TDSAST_IOT/Libraries/src/stm32f10x_i2c.c ****   }
 361:/home/virusv/TDSAST_IOT/Libraries/src/stm32f10x_i2c.c **** }
 476              		.loc 1 361 0
 477 0034 0C37     		adds	r7, r7, #12
 478              		.cfi_def_cfa_offset 4
 479 0036 BD46     		mov	sp, r7
 480              		.cfi_def_cfa_register 13
 481              		@ sp needed
 482 0038 5DF8047B 		ldr	r7, [sp], #4
 483              		.cfi_restore 7
 484              		.cfi_def_cfa_offset 0
 485 003c 7047     		bx	lr
 486              		.cfi_endproc
 487              	.LFE33:
 489 003e 00BF     		.section	.text.I2C_DMALastTransferCmd,"ax",%progbits
 490              		.align	2
 491              		.global	I2C_DMALastTransferCmd
 492              		.thumb
 493              		.thumb_func
 495              	I2C_DMALastTransferCmd:
 496              	.LFB34:
 362:/home/virusv/TDSAST_IOT/Libraries/src/stm32f10x_i2c.c **** 
 363:/home/virusv/TDSAST_IOT/Libraries/src/stm32f10x_i2c.c **** /**
 364:/home/virusv/TDSAST_IOT/Libraries/src/stm32f10x_i2c.c ****   * @brief  Specifies if the next DMA transfer will be the last one.
 365:/home/virusv/TDSAST_IOT/Libraries/src/stm32f10x_i2c.c ****   * @param  I2Cx: where x can be 1 or 2 to select the I2C peripheral.
 366:/home/virusv/TDSAST_IOT/Libraries/src/stm32f10x_i2c.c ****   * @param  NewState: new state of the I2C DMA last transfer.
 367:/home/virusv/TDSAST_IOT/Libraries/src/stm32f10x_i2c.c ****   *   This parameter can be: ENABLE or DISABLE.
 368:/home/virusv/TDSAST_IOT/Libraries/src/stm32f10x_i2c.c ****   * @retval None
 369:/home/virusv/TDSAST_IOT/Libraries/src/stm32f10x_i2c.c ****   */
 370:/home/virusv/TDSAST_IOT/Libraries/src/stm32f10x_i2c.c **** void I2C_DMALastTransferCmd(I2C_TypeDef* I2Cx, FunctionalState NewState)
 371:/home/virusv/TDSAST_IOT/Libraries/src/stm32f10x_i2c.c **** {
 497              		.loc 1 371 0
 498              		.cfi_startproc
 499              		@ args = 0, pretend = 0, frame = 8
 500              		@ frame_needed = 1, uses_anonymous_args = 0
 501              		@ link register save eliminated.
 502 0000 80B4     		push	{r7}
 503              		.cfi_def_cfa_offset 4
 504              		.cfi_offset 7, -4
 505 0002 83B0     		sub	sp, sp, #12
 506              		.cfi_def_cfa_offset 16
 507 0004 00AF     		add	r7, sp, #0
 508              		.cfi_def_cfa_register 7
 509 0006 7860     		str	r0, [r7, #4]
 510 0008 0B46     		mov	r3, r1
 511 000a FB70     		strb	r3, [r7, #3]
 372:/home/virusv/TDSAST_IOT/Libraries/src/stm32f10x_i2c.c ****   /* Check the parameters */
 373:/home/virusv/TDSAST_IOT/Libraries/src/stm32f10x_i2c.c ****   assert_param(IS_I2C_ALL_PERIPH(I2Cx));
 374:/home/virusv/TDSAST_IOT/Libraries/src/stm32f10x_i2c.c ****   assert_param(IS_FUNCTIONAL_STATE(NewState));
 375:/home/virusv/TDSAST_IOT/Libraries/src/stm32f10x_i2c.c ****   if (NewState != DISABLE)
 512              		.loc 1 375 0
 513 000c FB78     		ldrb	r3, [r7, #3]	@ zero_extendqisi2
 514 000e 002B     		cmp	r3, #0
 515 0010 08D0     		beq	.L23
 376:/home/virusv/TDSAST_IOT/Libraries/src/stm32f10x_i2c.c ****   {
 377:/home/virusv/TDSAST_IOT/Libraries/src/stm32f10x_i2c.c ****     /* Next DMA transfer is the last transfer */
 378:/home/virusv/TDSAST_IOT/Libraries/src/stm32f10x_i2c.c ****     I2Cx->CR2 |= CR2_LAST_Set;
 516              		.loc 1 378 0
 517 0012 7B68     		ldr	r3, [r7, #4]
 518 0014 9B88     		ldrh	r3, [r3, #4]	@ movhi
 519 0016 9BB2     		uxth	r3, r3
 520 0018 43F48053 		orr	r3, r3, #4096
 521 001c 9AB2     		uxth	r2, r3
 522 001e 7B68     		ldr	r3, [r7, #4]
 523 0020 9A80     		strh	r2, [r3, #4]	@ movhi
 524 0022 07E0     		b	.L22
 525              	.L23:
 379:/home/virusv/TDSAST_IOT/Libraries/src/stm32f10x_i2c.c ****   }
 380:/home/virusv/TDSAST_IOT/Libraries/src/stm32f10x_i2c.c ****   else
 381:/home/virusv/TDSAST_IOT/Libraries/src/stm32f10x_i2c.c ****   {
 382:/home/virusv/TDSAST_IOT/Libraries/src/stm32f10x_i2c.c ****     /* Next DMA transfer is not the last transfer */
 383:/home/virusv/TDSAST_IOT/Libraries/src/stm32f10x_i2c.c ****     I2Cx->CR2 &= CR2_LAST_Reset;
 526              		.loc 1 383 0
 527 0024 7B68     		ldr	r3, [r7, #4]
 528 0026 9B88     		ldrh	r3, [r3, #4]	@ movhi
 529 0028 9BB2     		uxth	r3, r3
 530 002a 23F48053 		bic	r3, r3, #4096
 531 002e 9AB2     		uxth	r2, r3
 532 0030 7B68     		ldr	r3, [r7, #4]
 533 0032 9A80     		strh	r2, [r3, #4]	@ movhi
 534              	.L22:
 384:/home/virusv/TDSAST_IOT/Libraries/src/stm32f10x_i2c.c ****   }
 385:/home/virusv/TDSAST_IOT/Libraries/src/stm32f10x_i2c.c **** }
 535              		.loc 1 385 0
 536 0034 0C37     		adds	r7, r7, #12
 537              		.cfi_def_cfa_offset 4
 538 0036 BD46     		mov	sp, r7
 539              		.cfi_def_cfa_register 13
 540              		@ sp needed
 541 0038 5DF8047B 		ldr	r7, [sp], #4
 542              		.cfi_restore 7
 543              		.cfi_def_cfa_offset 0
 544 003c 7047     		bx	lr
 545              		.cfi_endproc
 546              	.LFE34:
 548 003e 00BF     		.section	.text.I2C_GenerateSTART,"ax",%progbits
 549              		.align	2
 550              		.global	I2C_GenerateSTART
 551              		.thumb
 552              		.thumb_func
 554              	I2C_GenerateSTART:
 555              	.LFB35:
 386:/home/virusv/TDSAST_IOT/Libraries/src/stm32f10x_i2c.c **** 
 387:/home/virusv/TDSAST_IOT/Libraries/src/stm32f10x_i2c.c **** /**
 388:/home/virusv/TDSAST_IOT/Libraries/src/stm32f10x_i2c.c ****   * @brief  Generates I2Cx communication START condition.
 389:/home/virusv/TDSAST_IOT/Libraries/src/stm32f10x_i2c.c ****   * @param  I2Cx: where x can be 1 or 2 to select the I2C peripheral.
 390:/home/virusv/TDSAST_IOT/Libraries/src/stm32f10x_i2c.c ****   * @param  NewState: new state of the I2C START condition generation.
 391:/home/virusv/TDSAST_IOT/Libraries/src/stm32f10x_i2c.c ****   *   This parameter can be: ENABLE or DISABLE.
 392:/home/virusv/TDSAST_IOT/Libraries/src/stm32f10x_i2c.c ****   * @retval None.
 393:/home/virusv/TDSAST_IOT/Libraries/src/stm32f10x_i2c.c ****   */
 394:/home/virusv/TDSAST_IOT/Libraries/src/stm32f10x_i2c.c **** void I2C_GenerateSTART(I2C_TypeDef* I2Cx, FunctionalState NewState)
 395:/home/virusv/TDSAST_IOT/Libraries/src/stm32f10x_i2c.c **** {
 556              		.loc 1 395 0
 557              		.cfi_startproc
 558              		@ args = 0, pretend = 0, frame = 8
 559              		@ frame_needed = 1, uses_anonymous_args = 0
 560              		@ link register save eliminated.
 561 0000 80B4     		push	{r7}
 562              		.cfi_def_cfa_offset 4
 563              		.cfi_offset 7, -4
 564 0002 83B0     		sub	sp, sp, #12
 565              		.cfi_def_cfa_offset 16
 566 0004 00AF     		add	r7, sp, #0
 567              		.cfi_def_cfa_register 7
 568 0006 7860     		str	r0, [r7, #4]
 569 0008 0B46     		mov	r3, r1
 570 000a FB70     		strb	r3, [r7, #3]
 396:/home/virusv/TDSAST_IOT/Libraries/src/stm32f10x_i2c.c ****   /* Check the parameters */
 397:/home/virusv/TDSAST_IOT/Libraries/src/stm32f10x_i2c.c ****   assert_param(IS_I2C_ALL_PERIPH(I2Cx));
 398:/home/virusv/TDSAST_IOT/Libraries/src/stm32f10x_i2c.c ****   assert_param(IS_FUNCTIONAL_STATE(NewState));
 399:/home/virusv/TDSAST_IOT/Libraries/src/stm32f10x_i2c.c ****   if (NewState != DISABLE)
 571              		.loc 1 399 0
 572 000c FB78     		ldrb	r3, [r7, #3]	@ zero_extendqisi2
 573 000e 002B     		cmp	r3, #0
 574 0010 08D0     		beq	.L26
 400:/home/virusv/TDSAST_IOT/Libraries/src/stm32f10x_i2c.c ****   {
 401:/home/virusv/TDSAST_IOT/Libraries/src/stm32f10x_i2c.c ****     /* Generate a START condition */
 402:/home/virusv/TDSAST_IOT/Libraries/src/stm32f10x_i2c.c ****     I2Cx->CR1 |= CR1_START_Set;
 575              		.loc 1 402 0
 576 0012 7B68     		ldr	r3, [r7, #4]
 577 0014 1B88     		ldrh	r3, [r3]	@ movhi
 578 0016 9BB2     		uxth	r3, r3
 579 0018 43F48073 		orr	r3, r3, #256
 580 001c 9AB2     		uxth	r2, r3
 581 001e 7B68     		ldr	r3, [r7, #4]
 582 0020 1A80     		strh	r2, [r3]	@ movhi
 583 0022 07E0     		b	.L25
 584              	.L26:
 403:/home/virusv/TDSAST_IOT/Libraries/src/stm32f10x_i2c.c ****   }
 404:/home/virusv/TDSAST_IOT/Libraries/src/stm32f10x_i2c.c ****   else
 405:/home/virusv/TDSAST_IOT/Libraries/src/stm32f10x_i2c.c ****   {
 406:/home/virusv/TDSAST_IOT/Libraries/src/stm32f10x_i2c.c ****     /* Disable the START condition generation */
 407:/home/virusv/TDSAST_IOT/Libraries/src/stm32f10x_i2c.c ****     I2Cx->CR1 &= CR1_START_Reset;
 585              		.loc 1 407 0
 586 0024 7B68     		ldr	r3, [r7, #4]
 587 0026 1B88     		ldrh	r3, [r3]	@ movhi
 588 0028 9BB2     		uxth	r3, r3
 589 002a 23F48073 		bic	r3, r3, #256
 590 002e 9AB2     		uxth	r2, r3
 591 0030 7B68     		ldr	r3, [r7, #4]
 592 0032 1A80     		strh	r2, [r3]	@ movhi
 593              	.L25:
 408:/home/virusv/TDSAST_IOT/Libraries/src/stm32f10x_i2c.c ****   }
 409:/home/virusv/TDSAST_IOT/Libraries/src/stm32f10x_i2c.c **** }
 594              		.loc 1 409 0
 595 0034 0C37     		adds	r7, r7, #12
 596              		.cfi_def_cfa_offset 4
 597 0036 BD46     		mov	sp, r7
 598              		.cfi_def_cfa_register 13
 599              		@ sp needed
 600 0038 5DF8047B 		ldr	r7, [sp], #4
 601              		.cfi_restore 7
 602              		.cfi_def_cfa_offset 0
 603 003c 7047     		bx	lr
 604              		.cfi_endproc
 605              	.LFE35:
 607 003e 00BF     		.section	.text.I2C_GenerateSTOP,"ax",%progbits
 608              		.align	2
 609              		.global	I2C_GenerateSTOP
 610              		.thumb
 611              		.thumb_func
 613              	I2C_GenerateSTOP:
 614              	.LFB36:
 410:/home/virusv/TDSAST_IOT/Libraries/src/stm32f10x_i2c.c **** 
 411:/home/virusv/TDSAST_IOT/Libraries/src/stm32f10x_i2c.c **** /**
 412:/home/virusv/TDSAST_IOT/Libraries/src/stm32f10x_i2c.c ****   * @brief  Generates I2Cx communication STOP condition.
 413:/home/virusv/TDSAST_IOT/Libraries/src/stm32f10x_i2c.c ****   * @param  I2Cx: where x can be 1 or 2 to select the I2C peripheral.
 414:/home/virusv/TDSAST_IOT/Libraries/src/stm32f10x_i2c.c ****   * @param  NewState: new state of the I2C STOP condition generation.
 415:/home/virusv/TDSAST_IOT/Libraries/src/stm32f10x_i2c.c ****   *   This parameter can be: ENABLE or DISABLE.
 416:/home/virusv/TDSAST_IOT/Libraries/src/stm32f10x_i2c.c ****   * @retval None.
 417:/home/virusv/TDSAST_IOT/Libraries/src/stm32f10x_i2c.c ****   */
 418:/home/virusv/TDSAST_IOT/Libraries/src/stm32f10x_i2c.c **** void I2C_GenerateSTOP(I2C_TypeDef* I2Cx, FunctionalState NewState)
 419:/home/virusv/TDSAST_IOT/Libraries/src/stm32f10x_i2c.c **** {
 615              		.loc 1 419 0
 616              		.cfi_startproc
 617              		@ args = 0, pretend = 0, frame = 8
 618              		@ frame_needed = 1, uses_anonymous_args = 0
 619              		@ link register save eliminated.
 620 0000 80B4     		push	{r7}
 621              		.cfi_def_cfa_offset 4
 622              		.cfi_offset 7, -4
 623 0002 83B0     		sub	sp, sp, #12
 624              		.cfi_def_cfa_offset 16
 625 0004 00AF     		add	r7, sp, #0
 626              		.cfi_def_cfa_register 7
 627 0006 7860     		str	r0, [r7, #4]
 628 0008 0B46     		mov	r3, r1
 629 000a FB70     		strb	r3, [r7, #3]
 420:/home/virusv/TDSAST_IOT/Libraries/src/stm32f10x_i2c.c ****   /* Check the parameters */
 421:/home/virusv/TDSAST_IOT/Libraries/src/stm32f10x_i2c.c ****   assert_param(IS_I2C_ALL_PERIPH(I2Cx));
 422:/home/virusv/TDSAST_IOT/Libraries/src/stm32f10x_i2c.c ****   assert_param(IS_FUNCTIONAL_STATE(NewState));
 423:/home/virusv/TDSAST_IOT/Libraries/src/stm32f10x_i2c.c ****   if (NewState != DISABLE)
 630              		.loc 1 423 0
 631 000c FB78     		ldrb	r3, [r7, #3]	@ zero_extendqisi2
 632 000e 002B     		cmp	r3, #0
 633 0010 08D0     		beq	.L29
 424:/home/virusv/TDSAST_IOT/Libraries/src/stm32f10x_i2c.c ****   {
 425:/home/virusv/TDSAST_IOT/Libraries/src/stm32f10x_i2c.c ****     /* Generate a STOP condition */
 426:/home/virusv/TDSAST_IOT/Libraries/src/stm32f10x_i2c.c ****     I2Cx->CR1 |= CR1_STOP_Set;
 634              		.loc 1 426 0
 635 0012 7B68     		ldr	r3, [r7, #4]
 636 0014 1B88     		ldrh	r3, [r3]	@ movhi
 637 0016 9BB2     		uxth	r3, r3
 638 0018 43F40073 		orr	r3, r3, #512
 639 001c 9AB2     		uxth	r2, r3
 640 001e 7B68     		ldr	r3, [r7, #4]
 641 0020 1A80     		strh	r2, [r3]	@ movhi
 642 0022 07E0     		b	.L28
 643              	.L29:
 427:/home/virusv/TDSAST_IOT/Libraries/src/stm32f10x_i2c.c ****   }
 428:/home/virusv/TDSAST_IOT/Libraries/src/stm32f10x_i2c.c ****   else
 429:/home/virusv/TDSAST_IOT/Libraries/src/stm32f10x_i2c.c ****   {
 430:/home/virusv/TDSAST_IOT/Libraries/src/stm32f10x_i2c.c ****     /* Disable the STOP condition generation */
 431:/home/virusv/TDSAST_IOT/Libraries/src/stm32f10x_i2c.c ****     I2Cx->CR1 &= CR1_STOP_Reset;
 644              		.loc 1 431 0
 645 0024 7B68     		ldr	r3, [r7, #4]
 646 0026 1B88     		ldrh	r3, [r3]	@ movhi
 647 0028 9BB2     		uxth	r3, r3
 648 002a 23F40073 		bic	r3, r3, #512
 649 002e 9AB2     		uxth	r2, r3
 650 0030 7B68     		ldr	r3, [r7, #4]
 651 0032 1A80     		strh	r2, [r3]	@ movhi
 652              	.L28:
 432:/home/virusv/TDSAST_IOT/Libraries/src/stm32f10x_i2c.c ****   }
 433:/home/virusv/TDSAST_IOT/Libraries/src/stm32f10x_i2c.c **** }
 653              		.loc 1 433 0
 654 0034 0C37     		adds	r7, r7, #12
 655              		.cfi_def_cfa_offset 4
 656 0036 BD46     		mov	sp, r7
 657              		.cfi_def_cfa_register 13
 658              		@ sp needed
 659 0038 5DF8047B 		ldr	r7, [sp], #4
 660              		.cfi_restore 7
 661              		.cfi_def_cfa_offset 0
 662 003c 7047     		bx	lr
 663              		.cfi_endproc
 664              	.LFE36:
 666 003e 00BF     		.section	.text.I2C_AcknowledgeConfig,"ax",%progbits
 667              		.align	2
 668              		.global	I2C_AcknowledgeConfig
 669              		.thumb
 670              		.thumb_func
 672              	I2C_AcknowledgeConfig:
 673              	.LFB37:
 434:/home/virusv/TDSAST_IOT/Libraries/src/stm32f10x_i2c.c **** 
 435:/home/virusv/TDSAST_IOT/Libraries/src/stm32f10x_i2c.c **** /**
 436:/home/virusv/TDSAST_IOT/Libraries/src/stm32f10x_i2c.c ****   * @brief  Enables or disables the specified I2C acknowledge feature.
 437:/home/virusv/TDSAST_IOT/Libraries/src/stm32f10x_i2c.c ****   * @param  I2Cx: where x can be 1 or 2 to select the I2C peripheral.
 438:/home/virusv/TDSAST_IOT/Libraries/src/stm32f10x_i2c.c ****   * @param  NewState: new state of the I2C Acknowledgement.
 439:/home/virusv/TDSAST_IOT/Libraries/src/stm32f10x_i2c.c ****   *   This parameter can be: ENABLE or DISABLE.
 440:/home/virusv/TDSAST_IOT/Libraries/src/stm32f10x_i2c.c ****   * @retval None.
 441:/home/virusv/TDSAST_IOT/Libraries/src/stm32f10x_i2c.c ****   */
 442:/home/virusv/TDSAST_IOT/Libraries/src/stm32f10x_i2c.c **** void I2C_AcknowledgeConfig(I2C_TypeDef* I2Cx, FunctionalState NewState)
 443:/home/virusv/TDSAST_IOT/Libraries/src/stm32f10x_i2c.c **** {
 674              		.loc 1 443 0
 675              		.cfi_startproc
 676              		@ args = 0, pretend = 0, frame = 8
 677              		@ frame_needed = 1, uses_anonymous_args = 0
 678              		@ link register save eliminated.
 679 0000 80B4     		push	{r7}
 680              		.cfi_def_cfa_offset 4
 681              		.cfi_offset 7, -4
 682 0002 83B0     		sub	sp, sp, #12
 683              		.cfi_def_cfa_offset 16
 684 0004 00AF     		add	r7, sp, #0
 685              		.cfi_def_cfa_register 7
 686 0006 7860     		str	r0, [r7, #4]
 687 0008 0B46     		mov	r3, r1
 688 000a FB70     		strb	r3, [r7, #3]
 444:/home/virusv/TDSAST_IOT/Libraries/src/stm32f10x_i2c.c ****   /* Check the parameters */
 445:/home/virusv/TDSAST_IOT/Libraries/src/stm32f10x_i2c.c ****   assert_param(IS_I2C_ALL_PERIPH(I2Cx));
 446:/home/virusv/TDSAST_IOT/Libraries/src/stm32f10x_i2c.c ****   assert_param(IS_FUNCTIONAL_STATE(NewState));
 447:/home/virusv/TDSAST_IOT/Libraries/src/stm32f10x_i2c.c ****   if (NewState != DISABLE)
 689              		.loc 1 447 0
 690 000c FB78     		ldrb	r3, [r7, #3]	@ zero_extendqisi2
 691 000e 002B     		cmp	r3, #0
 692 0010 08D0     		beq	.L32
 448:/home/virusv/TDSAST_IOT/Libraries/src/stm32f10x_i2c.c ****   {
 449:/home/virusv/TDSAST_IOT/Libraries/src/stm32f10x_i2c.c ****     /* Enable the acknowledgement */
 450:/home/virusv/TDSAST_IOT/Libraries/src/stm32f10x_i2c.c ****     I2Cx->CR1 |= CR1_ACK_Set;
 693              		.loc 1 450 0
 694 0012 7B68     		ldr	r3, [r7, #4]
 695 0014 1B88     		ldrh	r3, [r3]	@ movhi
 696 0016 9BB2     		uxth	r3, r3
 697 0018 43F48063 		orr	r3, r3, #1024
 698 001c 9AB2     		uxth	r2, r3
 699 001e 7B68     		ldr	r3, [r7, #4]
 700 0020 1A80     		strh	r2, [r3]	@ movhi
 701 0022 07E0     		b	.L31
 702              	.L32:
 451:/home/virusv/TDSAST_IOT/Libraries/src/stm32f10x_i2c.c ****   }
 452:/home/virusv/TDSAST_IOT/Libraries/src/stm32f10x_i2c.c ****   else
 453:/home/virusv/TDSAST_IOT/Libraries/src/stm32f10x_i2c.c ****   {
 454:/home/virusv/TDSAST_IOT/Libraries/src/stm32f10x_i2c.c ****     /* Disable the acknowledgement */
 455:/home/virusv/TDSAST_IOT/Libraries/src/stm32f10x_i2c.c ****     I2Cx->CR1 &= CR1_ACK_Reset;
 703              		.loc 1 455 0
 704 0024 7B68     		ldr	r3, [r7, #4]
 705 0026 1B88     		ldrh	r3, [r3]	@ movhi
 706 0028 9BB2     		uxth	r3, r3
 707 002a 23F48063 		bic	r3, r3, #1024
 708 002e 9AB2     		uxth	r2, r3
 709 0030 7B68     		ldr	r3, [r7, #4]
 710 0032 1A80     		strh	r2, [r3]	@ movhi
 711              	.L31:
 456:/home/virusv/TDSAST_IOT/Libraries/src/stm32f10x_i2c.c ****   }
 457:/home/virusv/TDSAST_IOT/Libraries/src/stm32f10x_i2c.c **** }
 712              		.loc 1 457 0
 713 0034 0C37     		adds	r7, r7, #12
 714              		.cfi_def_cfa_offset 4
 715 0036 BD46     		mov	sp, r7
 716              		.cfi_def_cfa_register 13
 717              		@ sp needed
 718 0038 5DF8047B 		ldr	r7, [sp], #4
 719              		.cfi_restore 7
 720              		.cfi_def_cfa_offset 0
 721 003c 7047     		bx	lr
 722              		.cfi_endproc
 723              	.LFE37:
 725 003e 00BF     		.section	.text.I2C_OwnAddress2Config,"ax",%progbits
 726              		.align	2
 727              		.global	I2C_OwnAddress2Config
 728              		.thumb
 729              		.thumb_func
 731              	I2C_OwnAddress2Config:
 732              	.LFB38:
 458:/home/virusv/TDSAST_IOT/Libraries/src/stm32f10x_i2c.c **** 
 459:/home/virusv/TDSAST_IOT/Libraries/src/stm32f10x_i2c.c **** /**
 460:/home/virusv/TDSAST_IOT/Libraries/src/stm32f10x_i2c.c ****   * @brief  Configures the specified I2C own address2.
 461:/home/virusv/TDSAST_IOT/Libraries/src/stm32f10x_i2c.c ****   * @param  I2Cx: where x can be 1 or 2 to select the I2C peripheral.
 462:/home/virusv/TDSAST_IOT/Libraries/src/stm32f10x_i2c.c ****   * @param  Address: specifies the 7bit I2C own address2.
 463:/home/virusv/TDSAST_IOT/Libraries/src/stm32f10x_i2c.c ****   * @retval None.
 464:/home/virusv/TDSAST_IOT/Libraries/src/stm32f10x_i2c.c ****   */
 465:/home/virusv/TDSAST_IOT/Libraries/src/stm32f10x_i2c.c **** void I2C_OwnAddress2Config(I2C_TypeDef* I2Cx, uint8_t Address)
 466:/home/virusv/TDSAST_IOT/Libraries/src/stm32f10x_i2c.c **** {
 733              		.loc 1 466 0
 734              		.cfi_startproc
 735              		@ args = 0, pretend = 0, frame = 16
 736              		@ frame_needed = 1, uses_anonymous_args = 0
 737              		@ link register save eliminated.
 738 0000 80B4     		push	{r7}
 739              		.cfi_def_cfa_offset 4
 740              		.cfi_offset 7, -4
 741 0002 85B0     		sub	sp, sp, #20
 742              		.cfi_def_cfa_offset 24
 743 0004 00AF     		add	r7, sp, #0
 744              		.cfi_def_cfa_register 7
 745 0006 7860     		str	r0, [r7, #4]
 746 0008 0B46     		mov	r3, r1
 747 000a FB70     		strb	r3, [r7, #3]
 467:/home/virusv/TDSAST_IOT/Libraries/src/stm32f10x_i2c.c ****   uint16_t tmpreg = 0;
 748              		.loc 1 467 0
 749 000c 0023     		movs	r3, #0
 750 000e FB81     		strh	r3, [r7, #14]	@ movhi
 468:/home/virusv/TDSAST_IOT/Libraries/src/stm32f10x_i2c.c **** 
 469:/home/virusv/TDSAST_IOT/Libraries/src/stm32f10x_i2c.c ****   /* Check the parameters */
 470:/home/virusv/TDSAST_IOT/Libraries/src/stm32f10x_i2c.c ****   assert_param(IS_I2C_ALL_PERIPH(I2Cx));
 471:/home/virusv/TDSAST_IOT/Libraries/src/stm32f10x_i2c.c **** 
 472:/home/virusv/TDSAST_IOT/Libraries/src/stm32f10x_i2c.c ****   /* Get the old register value */
 473:/home/virusv/TDSAST_IOT/Libraries/src/stm32f10x_i2c.c ****   tmpreg = I2Cx->OAR2;
 751              		.loc 1 473 0
 752 0010 7B68     		ldr	r3, [r7, #4]
 753 0012 9B89     		ldrh	r3, [r3, #12]	@ movhi
 754 0014 FB81     		strh	r3, [r7, #14]	@ movhi
 474:/home/virusv/TDSAST_IOT/Libraries/src/stm32f10x_i2c.c **** 
 475:/home/virusv/TDSAST_IOT/Libraries/src/stm32f10x_i2c.c ****   /* Reset I2Cx Own address2 bit [7:1] */
 476:/home/virusv/TDSAST_IOT/Libraries/src/stm32f10x_i2c.c ****   tmpreg &= OAR2_ADD2_Reset;
 755              		.loc 1 476 0
 756 0016 FB89     		ldrh	r3, [r7, #14]	@ movhi
 757 0018 23F0FE03 		bic	r3, r3, #254
 758 001c FB81     		strh	r3, [r7, #14]	@ movhi
 477:/home/virusv/TDSAST_IOT/Libraries/src/stm32f10x_i2c.c **** 
 478:/home/virusv/TDSAST_IOT/Libraries/src/stm32f10x_i2c.c ****   /* Set I2Cx Own address2 */
 479:/home/virusv/TDSAST_IOT/Libraries/src/stm32f10x_i2c.c ****   tmpreg |= (uint16_t)((uint16_t)Address & (uint16_t)0x00FE);
 759              		.loc 1 479 0
 760 001e FB78     		ldrb	r3, [r7, #3]	@ zero_extendqisi2
 761 0020 9BB2     		uxth	r3, r3
 762 0022 03F0FE03 		and	r3, r3, #254
 763 0026 9AB2     		uxth	r2, r3
 764 0028 FB89     		ldrh	r3, [r7, #14]
 765 002a 1343     		orrs	r3, r3, r2
 766 002c 9BB2     		uxth	r3, r3
 767 002e FB81     		strh	r3, [r7, #14]	@ movhi
 480:/home/virusv/TDSAST_IOT/Libraries/src/stm32f10x_i2c.c **** 
 481:/home/virusv/TDSAST_IOT/Libraries/src/stm32f10x_i2c.c ****   /* Store the new register value */
 482:/home/virusv/TDSAST_IOT/Libraries/src/stm32f10x_i2c.c ****   I2Cx->OAR2 = tmpreg;
 768              		.loc 1 482 0
 769 0030 7B68     		ldr	r3, [r7, #4]
 770 0032 FA89     		ldrh	r2, [r7, #14]	@ movhi
 771 0034 9A81     		strh	r2, [r3, #12]	@ movhi
 483:/home/virusv/TDSAST_IOT/Libraries/src/stm32f10x_i2c.c **** }
 772              		.loc 1 483 0
 773 0036 1437     		adds	r7, r7, #20
 774              		.cfi_def_cfa_offset 4
 775 0038 BD46     		mov	sp, r7
 776              		.cfi_def_cfa_register 13
 777              		@ sp needed
 778 003a 5DF8047B 		ldr	r7, [sp], #4
 779              		.cfi_restore 7
 780              		.cfi_def_cfa_offset 0
 781 003e 7047     		bx	lr
 782              		.cfi_endproc
 783              	.LFE38:
 785              		.section	.text.I2C_DualAddressCmd,"ax",%progbits
 786              		.align	2
 787              		.global	I2C_DualAddressCmd
 788              		.thumb
 789              		.thumb_func
 791              	I2C_DualAddressCmd:
 792              	.LFB39:
 484:/home/virusv/TDSAST_IOT/Libraries/src/stm32f10x_i2c.c **** 
 485:/home/virusv/TDSAST_IOT/Libraries/src/stm32f10x_i2c.c **** /**
 486:/home/virusv/TDSAST_IOT/Libraries/src/stm32f10x_i2c.c ****   * @brief  Enables or disables the specified I2C dual addressing mode.
 487:/home/virusv/TDSAST_IOT/Libraries/src/stm32f10x_i2c.c ****   * @param  I2Cx: where x can be 1 or 2 to select the I2C peripheral.
 488:/home/virusv/TDSAST_IOT/Libraries/src/stm32f10x_i2c.c ****   * @param  NewState: new state of the I2C dual addressing mode.
 489:/home/virusv/TDSAST_IOT/Libraries/src/stm32f10x_i2c.c ****   *   This parameter can be: ENABLE or DISABLE.
 490:/home/virusv/TDSAST_IOT/Libraries/src/stm32f10x_i2c.c ****   * @retval None
 491:/home/virusv/TDSAST_IOT/Libraries/src/stm32f10x_i2c.c ****   */
 492:/home/virusv/TDSAST_IOT/Libraries/src/stm32f10x_i2c.c **** void I2C_DualAddressCmd(I2C_TypeDef* I2Cx, FunctionalState NewState)
 493:/home/virusv/TDSAST_IOT/Libraries/src/stm32f10x_i2c.c **** {
 793              		.loc 1 493 0
 794              		.cfi_startproc
 795              		@ args = 0, pretend = 0, frame = 8
 796              		@ frame_needed = 1, uses_anonymous_args = 0
 797              		@ link register save eliminated.
 798 0000 80B4     		push	{r7}
 799              		.cfi_def_cfa_offset 4
 800              		.cfi_offset 7, -4
 801 0002 83B0     		sub	sp, sp, #12
 802              		.cfi_def_cfa_offset 16
 803 0004 00AF     		add	r7, sp, #0
 804              		.cfi_def_cfa_register 7
 805 0006 7860     		str	r0, [r7, #4]
 806 0008 0B46     		mov	r3, r1
 807 000a FB70     		strb	r3, [r7, #3]
 494:/home/virusv/TDSAST_IOT/Libraries/src/stm32f10x_i2c.c ****   /* Check the parameters */
 495:/home/virusv/TDSAST_IOT/Libraries/src/stm32f10x_i2c.c ****   assert_param(IS_I2C_ALL_PERIPH(I2Cx));
 496:/home/virusv/TDSAST_IOT/Libraries/src/stm32f10x_i2c.c ****   assert_param(IS_FUNCTIONAL_STATE(NewState));
 497:/home/virusv/TDSAST_IOT/Libraries/src/stm32f10x_i2c.c ****   if (NewState != DISABLE)
 808              		.loc 1 497 0
 809 000c FB78     		ldrb	r3, [r7, #3]	@ zero_extendqisi2
 810 000e 002B     		cmp	r3, #0
 811 0010 08D0     		beq	.L36
 498:/home/virusv/TDSAST_IOT/Libraries/src/stm32f10x_i2c.c ****   {
 499:/home/virusv/TDSAST_IOT/Libraries/src/stm32f10x_i2c.c ****     /* Enable dual addressing mode */
 500:/home/virusv/TDSAST_IOT/Libraries/src/stm32f10x_i2c.c ****     I2Cx->OAR2 |= OAR2_ENDUAL_Set;
 812              		.loc 1 500 0
 813 0012 7B68     		ldr	r3, [r7, #4]
 814 0014 9B89     		ldrh	r3, [r3, #12]	@ movhi
 815 0016 9BB2     		uxth	r3, r3
 816 0018 43F00103 		orr	r3, r3, #1
 817 001c 9AB2     		uxth	r2, r3
 818 001e 7B68     		ldr	r3, [r7, #4]
 819 0020 9A81     		strh	r2, [r3, #12]	@ movhi
 820 0022 07E0     		b	.L35
 821              	.L36:
 501:/home/virusv/TDSAST_IOT/Libraries/src/stm32f10x_i2c.c ****   }
 502:/home/virusv/TDSAST_IOT/Libraries/src/stm32f10x_i2c.c ****   else
 503:/home/virusv/TDSAST_IOT/Libraries/src/stm32f10x_i2c.c ****   {
 504:/home/virusv/TDSAST_IOT/Libraries/src/stm32f10x_i2c.c ****     /* Disable dual addressing mode */
 505:/home/virusv/TDSAST_IOT/Libraries/src/stm32f10x_i2c.c ****     I2Cx->OAR2 &= OAR2_ENDUAL_Reset;
 822              		.loc 1 505 0
 823 0024 7B68     		ldr	r3, [r7, #4]
 824 0026 9B89     		ldrh	r3, [r3, #12]	@ movhi
 825 0028 9BB2     		uxth	r3, r3
 826 002a 23F00103 		bic	r3, r3, #1
 827 002e 9AB2     		uxth	r2, r3
 828 0030 7B68     		ldr	r3, [r7, #4]
 829 0032 9A81     		strh	r2, [r3, #12]	@ movhi
 830              	.L35:
 506:/home/virusv/TDSAST_IOT/Libraries/src/stm32f10x_i2c.c ****   }
 507:/home/virusv/TDSAST_IOT/Libraries/src/stm32f10x_i2c.c **** }
 831              		.loc 1 507 0
 832 0034 0C37     		adds	r7, r7, #12
 833              		.cfi_def_cfa_offset 4
 834 0036 BD46     		mov	sp, r7
 835              		.cfi_def_cfa_register 13
 836              		@ sp needed
 837 0038 5DF8047B 		ldr	r7, [sp], #4
 838              		.cfi_restore 7
 839              		.cfi_def_cfa_offset 0
 840 003c 7047     		bx	lr
 841              		.cfi_endproc
 842              	.LFE39:
 844 003e 00BF     		.section	.text.I2C_GeneralCallCmd,"ax",%progbits
 845              		.align	2
 846              		.global	I2C_GeneralCallCmd
 847              		.thumb
 848              		.thumb_func
 850              	I2C_GeneralCallCmd:
 851              	.LFB40:
 508:/home/virusv/TDSAST_IOT/Libraries/src/stm32f10x_i2c.c **** 
 509:/home/virusv/TDSAST_IOT/Libraries/src/stm32f10x_i2c.c **** /**
 510:/home/virusv/TDSAST_IOT/Libraries/src/stm32f10x_i2c.c ****   * @brief  Enables or disables the specified I2C general call feature.
 511:/home/virusv/TDSAST_IOT/Libraries/src/stm32f10x_i2c.c ****   * @param  I2Cx: where x can be 1 or 2 to select the I2C peripheral.
 512:/home/virusv/TDSAST_IOT/Libraries/src/stm32f10x_i2c.c ****   * @param  NewState: new state of the I2C General call.
 513:/home/virusv/TDSAST_IOT/Libraries/src/stm32f10x_i2c.c ****   *   This parameter can be: ENABLE or DISABLE.
 514:/home/virusv/TDSAST_IOT/Libraries/src/stm32f10x_i2c.c ****   * @retval None
 515:/home/virusv/TDSAST_IOT/Libraries/src/stm32f10x_i2c.c ****   */
 516:/home/virusv/TDSAST_IOT/Libraries/src/stm32f10x_i2c.c **** void I2C_GeneralCallCmd(I2C_TypeDef* I2Cx, FunctionalState NewState)
 517:/home/virusv/TDSAST_IOT/Libraries/src/stm32f10x_i2c.c **** {
 852              		.loc 1 517 0
 853              		.cfi_startproc
 854              		@ args = 0, pretend = 0, frame = 8
 855              		@ frame_needed = 1, uses_anonymous_args = 0
 856              		@ link register save eliminated.
 857 0000 80B4     		push	{r7}
 858              		.cfi_def_cfa_offset 4
 859              		.cfi_offset 7, -4
 860 0002 83B0     		sub	sp, sp, #12
 861              		.cfi_def_cfa_offset 16
 862 0004 00AF     		add	r7, sp, #0
 863              		.cfi_def_cfa_register 7
 864 0006 7860     		str	r0, [r7, #4]
 865 0008 0B46     		mov	r3, r1
 866 000a FB70     		strb	r3, [r7, #3]
 518:/home/virusv/TDSAST_IOT/Libraries/src/stm32f10x_i2c.c ****   /* Check the parameters */
 519:/home/virusv/TDSAST_IOT/Libraries/src/stm32f10x_i2c.c ****   assert_param(IS_I2C_ALL_PERIPH(I2Cx));
 520:/home/virusv/TDSAST_IOT/Libraries/src/stm32f10x_i2c.c ****   assert_param(IS_FUNCTIONAL_STATE(NewState));
 521:/home/virusv/TDSAST_IOT/Libraries/src/stm32f10x_i2c.c ****   if (NewState != DISABLE)
 867              		.loc 1 521 0
 868 000c FB78     		ldrb	r3, [r7, #3]	@ zero_extendqisi2
 869 000e 002B     		cmp	r3, #0
 870 0010 08D0     		beq	.L39
 522:/home/virusv/TDSAST_IOT/Libraries/src/stm32f10x_i2c.c ****   {
 523:/home/virusv/TDSAST_IOT/Libraries/src/stm32f10x_i2c.c ****     /* Enable generall call */
 524:/home/virusv/TDSAST_IOT/Libraries/src/stm32f10x_i2c.c ****     I2Cx->CR1 |= CR1_ENGC_Set;
 871              		.loc 1 524 0
 872 0012 7B68     		ldr	r3, [r7, #4]
 873 0014 1B88     		ldrh	r3, [r3]	@ movhi
 874 0016 9BB2     		uxth	r3, r3
 875 0018 43F04003 		orr	r3, r3, #64
 876 001c 9AB2     		uxth	r2, r3
 877 001e 7B68     		ldr	r3, [r7, #4]
 878 0020 1A80     		strh	r2, [r3]	@ movhi
 879 0022 07E0     		b	.L38
 880              	.L39:
 525:/home/virusv/TDSAST_IOT/Libraries/src/stm32f10x_i2c.c ****   }
 526:/home/virusv/TDSAST_IOT/Libraries/src/stm32f10x_i2c.c ****   else
 527:/home/virusv/TDSAST_IOT/Libraries/src/stm32f10x_i2c.c ****   {
 528:/home/virusv/TDSAST_IOT/Libraries/src/stm32f10x_i2c.c ****     /* Disable generall call */
 529:/home/virusv/TDSAST_IOT/Libraries/src/stm32f10x_i2c.c ****     I2Cx->CR1 &= CR1_ENGC_Reset;
 881              		.loc 1 529 0
 882 0024 7B68     		ldr	r3, [r7, #4]
 883 0026 1B88     		ldrh	r3, [r3]	@ movhi
 884 0028 9BB2     		uxth	r3, r3
 885 002a 23F04003 		bic	r3, r3, #64
 886 002e 9AB2     		uxth	r2, r3
 887 0030 7B68     		ldr	r3, [r7, #4]
 888 0032 1A80     		strh	r2, [r3]	@ movhi
 889              	.L38:
 530:/home/virusv/TDSAST_IOT/Libraries/src/stm32f10x_i2c.c ****   }
 531:/home/virusv/TDSAST_IOT/Libraries/src/stm32f10x_i2c.c **** }
 890              		.loc 1 531 0
 891 0034 0C37     		adds	r7, r7, #12
 892              		.cfi_def_cfa_offset 4
 893 0036 BD46     		mov	sp, r7
 894              		.cfi_def_cfa_register 13
 895              		@ sp needed
 896 0038 5DF8047B 		ldr	r7, [sp], #4
 897              		.cfi_restore 7
 898              		.cfi_def_cfa_offset 0
 899 003c 7047     		bx	lr
 900              		.cfi_endproc
 901              	.LFE40:
 903 003e 00BF     		.section	.text.I2C_ITConfig,"ax",%progbits
 904              		.align	2
 905              		.global	I2C_ITConfig
 906              		.thumb
 907              		.thumb_func
 909              	I2C_ITConfig:
 910              	.LFB41:
 532:/home/virusv/TDSAST_IOT/Libraries/src/stm32f10x_i2c.c **** 
 533:/home/virusv/TDSAST_IOT/Libraries/src/stm32f10x_i2c.c **** /**
 534:/home/virusv/TDSAST_IOT/Libraries/src/stm32f10x_i2c.c ****   * @brief  Enables or disables the specified I2C interrupts.
 535:/home/virusv/TDSAST_IOT/Libraries/src/stm32f10x_i2c.c ****   * @param  I2Cx: where x can be 1 or 2 to select the I2C peripheral.
 536:/home/virusv/TDSAST_IOT/Libraries/src/stm32f10x_i2c.c ****   * @param  I2C_IT: specifies the I2C interrupts sources to be enabled or disabled. 
 537:/home/virusv/TDSAST_IOT/Libraries/src/stm32f10x_i2c.c ****   *   This parameter can be any combination of the following values:
 538:/home/virusv/TDSAST_IOT/Libraries/src/stm32f10x_i2c.c ****   *     @arg I2C_IT_BUF: Buffer interrupt mask
 539:/home/virusv/TDSAST_IOT/Libraries/src/stm32f10x_i2c.c ****   *     @arg I2C_IT_EVT: Event interrupt mask
 540:/home/virusv/TDSAST_IOT/Libraries/src/stm32f10x_i2c.c ****   *     @arg I2C_IT_ERR: Error interrupt mask
 541:/home/virusv/TDSAST_IOT/Libraries/src/stm32f10x_i2c.c ****   * @param  NewState: new state of the specified I2C interrupts.
 542:/home/virusv/TDSAST_IOT/Libraries/src/stm32f10x_i2c.c ****   *   This parameter can be: ENABLE or DISABLE.
 543:/home/virusv/TDSAST_IOT/Libraries/src/stm32f10x_i2c.c ****   * @retval None
 544:/home/virusv/TDSAST_IOT/Libraries/src/stm32f10x_i2c.c ****   */
 545:/home/virusv/TDSAST_IOT/Libraries/src/stm32f10x_i2c.c **** void I2C_ITConfig(I2C_TypeDef* I2Cx, uint16_t I2C_IT, FunctionalState NewState)
 546:/home/virusv/TDSAST_IOT/Libraries/src/stm32f10x_i2c.c **** {
 911              		.loc 1 546 0
 912              		.cfi_startproc
 913              		@ args = 0, pretend = 0, frame = 8
 914              		@ frame_needed = 1, uses_anonymous_args = 0
 915              		@ link register save eliminated.
 916 0000 80B4     		push	{r7}
 917              		.cfi_def_cfa_offset 4
 918              		.cfi_offset 7, -4
 919 0002 83B0     		sub	sp, sp, #12
 920              		.cfi_def_cfa_offset 16
 921 0004 00AF     		add	r7, sp, #0
 922              		.cfi_def_cfa_register 7
 923 0006 7860     		str	r0, [r7, #4]
 924 0008 0B46     		mov	r3, r1
 925 000a 7B80     		strh	r3, [r7, #2]	@ movhi
 926 000c 1346     		mov	r3, r2
 927 000e 7B70     		strb	r3, [r7, #1]
 547:/home/virusv/TDSAST_IOT/Libraries/src/stm32f10x_i2c.c ****   /* Check the parameters */
 548:/home/virusv/TDSAST_IOT/Libraries/src/stm32f10x_i2c.c ****   assert_param(IS_I2C_ALL_PERIPH(I2Cx));
 549:/home/virusv/TDSAST_IOT/Libraries/src/stm32f10x_i2c.c ****   assert_param(IS_FUNCTIONAL_STATE(NewState));
 550:/home/virusv/TDSAST_IOT/Libraries/src/stm32f10x_i2c.c ****   assert_param(IS_I2C_CONFIG_IT(I2C_IT));
 551:/home/virusv/TDSAST_IOT/Libraries/src/stm32f10x_i2c.c ****   
 552:/home/virusv/TDSAST_IOT/Libraries/src/stm32f10x_i2c.c ****   if (NewState != DISABLE)
 928              		.loc 1 552 0
 929 0010 7B78     		ldrb	r3, [r7, #1]	@ zero_extendqisi2
 930 0012 002B     		cmp	r3, #0
 931 0014 08D0     		beq	.L42
 553:/home/virusv/TDSAST_IOT/Libraries/src/stm32f10x_i2c.c ****   {
 554:/home/virusv/TDSAST_IOT/Libraries/src/stm32f10x_i2c.c ****     /* Enable the selected I2C interrupts */
 555:/home/virusv/TDSAST_IOT/Libraries/src/stm32f10x_i2c.c ****     I2Cx->CR2 |= I2C_IT;
 932              		.loc 1 555 0
 933 0016 7B68     		ldr	r3, [r7, #4]
 934 0018 9B88     		ldrh	r3, [r3, #4]	@ movhi
 935 001a 9AB2     		uxth	r2, r3
 936 001c 7B88     		ldrh	r3, [r7, #2]	@ movhi
 937 001e 1343     		orrs	r3, r3, r2
 938 0020 9AB2     		uxth	r2, r3
 939 0022 7B68     		ldr	r3, [r7, #4]
 940 0024 9A80     		strh	r2, [r3, #4]	@ movhi
 941 0026 09E0     		b	.L41
 942              	.L42:
 556:/home/virusv/TDSAST_IOT/Libraries/src/stm32f10x_i2c.c ****   }
 557:/home/virusv/TDSAST_IOT/Libraries/src/stm32f10x_i2c.c ****   else
 558:/home/virusv/TDSAST_IOT/Libraries/src/stm32f10x_i2c.c ****   {
 559:/home/virusv/TDSAST_IOT/Libraries/src/stm32f10x_i2c.c ****     /* Disable the selected I2C interrupts */
 560:/home/virusv/TDSAST_IOT/Libraries/src/stm32f10x_i2c.c ****     I2Cx->CR2 &= (uint16_t)~I2C_IT;
 943              		.loc 1 560 0
 944 0028 7B68     		ldr	r3, [r7, #4]
 945 002a 9B88     		ldrh	r3, [r3, #4]	@ movhi
 946 002c 9AB2     		uxth	r2, r3
 947 002e 7B88     		ldrh	r3, [r7, #2]	@ movhi
 948 0030 DB43     		mvns	r3, r3
 949 0032 9BB2     		uxth	r3, r3
 950 0034 1340     		ands	r3, r3, r2
 951 0036 9AB2     		uxth	r2, r3
 952 0038 7B68     		ldr	r3, [r7, #4]
 953 003a 9A80     		strh	r2, [r3, #4]	@ movhi
 954              	.L41:
 561:/home/virusv/TDSAST_IOT/Libraries/src/stm32f10x_i2c.c ****   }
 562:/home/virusv/TDSAST_IOT/Libraries/src/stm32f10x_i2c.c **** }
 955              		.loc 1 562 0
 956 003c 0C37     		adds	r7, r7, #12
 957              		.cfi_def_cfa_offset 4
 958 003e BD46     		mov	sp, r7
 959              		.cfi_def_cfa_register 13
 960              		@ sp needed
 961 0040 5DF8047B 		ldr	r7, [sp], #4
 962              		.cfi_restore 7
 963              		.cfi_def_cfa_offset 0
 964 0044 7047     		bx	lr
 965              		.cfi_endproc
 966              	.LFE41:
 968 0046 00BF     		.section	.text.I2C_SendData,"ax",%progbits
 969              		.align	2
 970              		.global	I2C_SendData
 971              		.thumb
 972              		.thumb_func
 974              	I2C_SendData:
 975              	.LFB42:
 563:/home/virusv/TDSAST_IOT/Libraries/src/stm32f10x_i2c.c **** 
 564:/home/virusv/TDSAST_IOT/Libraries/src/stm32f10x_i2c.c **** /**
 565:/home/virusv/TDSAST_IOT/Libraries/src/stm32f10x_i2c.c ****   * @brief  Sends a data byte through the I2Cx peripheral.
 566:/home/virusv/TDSAST_IOT/Libraries/src/stm32f10x_i2c.c ****   * @param  I2Cx: where x can be 1 or 2 to select the I2C peripheral.
 567:/home/virusv/TDSAST_IOT/Libraries/src/stm32f10x_i2c.c ****   * @param  Data: Byte to be transmitted..
 568:/home/virusv/TDSAST_IOT/Libraries/src/stm32f10x_i2c.c ****   * @retval None
 569:/home/virusv/TDSAST_IOT/Libraries/src/stm32f10x_i2c.c ****   */
 570:/home/virusv/TDSAST_IOT/Libraries/src/stm32f10x_i2c.c **** void I2C_SendData(I2C_TypeDef* I2Cx, uint8_t Data)
 571:/home/virusv/TDSAST_IOT/Libraries/src/stm32f10x_i2c.c **** {
 976              		.loc 1 571 0
 977              		.cfi_startproc
 978              		@ args = 0, pretend = 0, frame = 8
 979              		@ frame_needed = 1, uses_anonymous_args = 0
 980              		@ link register save eliminated.
 981 0000 80B4     		push	{r7}
 982              		.cfi_def_cfa_offset 4
 983              		.cfi_offset 7, -4
 984 0002 83B0     		sub	sp, sp, #12
 985              		.cfi_def_cfa_offset 16
 986 0004 00AF     		add	r7, sp, #0
 987              		.cfi_def_cfa_register 7
 988 0006 7860     		str	r0, [r7, #4]
 989 0008 0B46     		mov	r3, r1
 990 000a FB70     		strb	r3, [r7, #3]
 572:/home/virusv/TDSAST_IOT/Libraries/src/stm32f10x_i2c.c ****   /* Check the parameters */
 573:/home/virusv/TDSAST_IOT/Libraries/src/stm32f10x_i2c.c ****   assert_param(IS_I2C_ALL_PERIPH(I2Cx));
 574:/home/virusv/TDSAST_IOT/Libraries/src/stm32f10x_i2c.c ****   /* Write in the DR register the data to be sent */
 575:/home/virusv/TDSAST_IOT/Libraries/src/stm32f10x_i2c.c ****   I2Cx->DR = Data;
 991              		.loc 1 575 0
 992 000c FB78     		ldrb	r3, [r7, #3]	@ zero_extendqisi2
 993 000e 9AB2     		uxth	r2, r3
 994 0010 7B68     		ldr	r3, [r7, #4]
 995 0012 1A82     		strh	r2, [r3, #16]	@ movhi
 576:/home/virusv/TDSAST_IOT/Libraries/src/stm32f10x_i2c.c **** }
 996              		.loc 1 576 0
 997 0014 0C37     		adds	r7, r7, #12
 998              		.cfi_def_cfa_offset 4
 999 0016 BD46     		mov	sp, r7
 1000              		.cfi_def_cfa_register 13
 1001              		@ sp needed
 1002 0018 5DF8047B 		ldr	r7, [sp], #4
 1003              		.cfi_restore 7
 1004              		.cfi_def_cfa_offset 0
 1005 001c 7047     		bx	lr
 1006              		.cfi_endproc
 1007              	.LFE42:
 1009 001e 00BF     		.section	.text.I2C_ReceiveData,"ax",%progbits
 1010              		.align	2
 1011              		.global	I2C_ReceiveData
 1012              		.thumb
 1013              		.thumb_func
 1015              	I2C_ReceiveData:
 1016              	.LFB43:
 577:/home/virusv/TDSAST_IOT/Libraries/src/stm32f10x_i2c.c **** 
 578:/home/virusv/TDSAST_IOT/Libraries/src/stm32f10x_i2c.c **** /**
 579:/home/virusv/TDSAST_IOT/Libraries/src/stm32f10x_i2c.c ****   * @brief  Returns the most recent received data by the I2Cx peripheral.
 580:/home/virusv/TDSAST_IOT/Libraries/src/stm32f10x_i2c.c ****   * @param  I2Cx: where x can be 1 or 2 to select the I2C peripheral.
 581:/home/virusv/TDSAST_IOT/Libraries/src/stm32f10x_i2c.c ****   * @retval The value of the received data.
 582:/home/virusv/TDSAST_IOT/Libraries/src/stm32f10x_i2c.c ****   */
 583:/home/virusv/TDSAST_IOT/Libraries/src/stm32f10x_i2c.c **** uint8_t I2C_ReceiveData(I2C_TypeDef* I2Cx)
 584:/home/virusv/TDSAST_IOT/Libraries/src/stm32f10x_i2c.c **** {
 1017              		.loc 1 584 0
 1018              		.cfi_startproc
 1019              		@ args = 0, pretend = 0, frame = 8
 1020              		@ frame_needed = 1, uses_anonymous_args = 0
 1021              		@ link register save eliminated.
 1022 0000 80B4     		push	{r7}
 1023              		.cfi_def_cfa_offset 4
 1024              		.cfi_offset 7, -4
 1025 0002 83B0     		sub	sp, sp, #12
 1026              		.cfi_def_cfa_offset 16
 1027 0004 00AF     		add	r7, sp, #0
 1028              		.cfi_def_cfa_register 7
 1029 0006 7860     		str	r0, [r7, #4]
 585:/home/virusv/TDSAST_IOT/Libraries/src/stm32f10x_i2c.c ****   /* Check the parameters */
 586:/home/virusv/TDSAST_IOT/Libraries/src/stm32f10x_i2c.c ****   assert_param(IS_I2C_ALL_PERIPH(I2Cx));
 587:/home/virusv/TDSAST_IOT/Libraries/src/stm32f10x_i2c.c ****   /* Return the data in the DR register */
 588:/home/virusv/TDSAST_IOT/Libraries/src/stm32f10x_i2c.c ****   return (uint8_t)I2Cx->DR;
 1030              		.loc 1 588 0
 1031 0008 7B68     		ldr	r3, [r7, #4]
 1032 000a 1B8A     		ldrh	r3, [r3, #16]	@ movhi
 1033 000c 9BB2     		uxth	r3, r3
 1034 000e DBB2     		uxtb	r3, r3
 589:/home/virusv/TDSAST_IOT/Libraries/src/stm32f10x_i2c.c **** }
 1035              		.loc 1 589 0
 1036 0010 1846     		mov	r0, r3
 1037 0012 0C37     		adds	r7, r7, #12
 1038              		.cfi_def_cfa_offset 4
 1039 0014 BD46     		mov	sp, r7
 1040              		.cfi_def_cfa_register 13
 1041              		@ sp needed
 1042 0016 5DF8047B 		ldr	r7, [sp], #4
 1043              		.cfi_restore 7
 1044              		.cfi_def_cfa_offset 0
 1045 001a 7047     		bx	lr
 1046              		.cfi_endproc
 1047              	.LFE43:
 1049              		.section	.text.I2C_Send7bitAddress,"ax",%progbits
 1050              		.align	2
 1051              		.global	I2C_Send7bitAddress
 1052              		.thumb
 1053              		.thumb_func
 1055              	I2C_Send7bitAddress:
 1056              	.LFB44:
 590:/home/virusv/TDSAST_IOT/Libraries/src/stm32f10x_i2c.c **** 
 591:/home/virusv/TDSAST_IOT/Libraries/src/stm32f10x_i2c.c **** /**
 592:/home/virusv/TDSAST_IOT/Libraries/src/stm32f10x_i2c.c ****   * @brief  Transmits the address byte to select the slave device.
 593:/home/virusv/TDSAST_IOT/Libraries/src/stm32f10x_i2c.c ****   * @param  I2Cx: where x can be 1 or 2 to select the I2C peripheral.
 594:/home/virusv/TDSAST_IOT/Libraries/src/stm32f10x_i2c.c ****   * @param  Address: specifies the slave address which will be transmitted
 595:/home/virusv/TDSAST_IOT/Libraries/src/stm32f10x_i2c.c ****   * @param  I2C_Direction: specifies whether the I2C device will be a
 596:/home/virusv/TDSAST_IOT/Libraries/src/stm32f10x_i2c.c ****   *   Transmitter or a Receiver. This parameter can be one of the following values
 597:/home/virusv/TDSAST_IOT/Libraries/src/stm32f10x_i2c.c ****   *     @arg I2C_Direction_Transmitter: Transmitter mode
 598:/home/virusv/TDSAST_IOT/Libraries/src/stm32f10x_i2c.c ****   *     @arg I2C_Direction_Receiver: Receiver mode
 599:/home/virusv/TDSAST_IOT/Libraries/src/stm32f10x_i2c.c ****   * @retval None.
 600:/home/virusv/TDSAST_IOT/Libraries/src/stm32f10x_i2c.c ****   */
 601:/home/virusv/TDSAST_IOT/Libraries/src/stm32f10x_i2c.c **** void I2C_Send7bitAddress(I2C_TypeDef* I2Cx, uint8_t Address, uint8_t I2C_Direction)
 602:/home/virusv/TDSAST_IOT/Libraries/src/stm32f10x_i2c.c **** {
 1057              		.loc 1 602 0
 1058              		.cfi_startproc
 1059              		@ args = 0, pretend = 0, frame = 8
 1060              		@ frame_needed = 1, uses_anonymous_args = 0
 1061              		@ link register save eliminated.
 1062 0000 80B4     		push	{r7}
 1063              		.cfi_def_cfa_offset 4
 1064              		.cfi_offset 7, -4
 1065 0002 83B0     		sub	sp, sp, #12
 1066              		.cfi_def_cfa_offset 16
 1067 0004 00AF     		add	r7, sp, #0
 1068              		.cfi_def_cfa_register 7
 1069 0006 7860     		str	r0, [r7, #4]
 1070 0008 0B46     		mov	r3, r1
 1071 000a FB70     		strb	r3, [r7, #3]
 1072 000c 1346     		mov	r3, r2
 1073 000e BB70     		strb	r3, [r7, #2]
 603:/home/virusv/TDSAST_IOT/Libraries/src/stm32f10x_i2c.c ****   /* Check the parameters */
 604:/home/virusv/TDSAST_IOT/Libraries/src/stm32f10x_i2c.c ****   assert_param(IS_I2C_ALL_PERIPH(I2Cx));
 605:/home/virusv/TDSAST_IOT/Libraries/src/stm32f10x_i2c.c ****   assert_param(IS_I2C_DIRECTION(I2C_Direction));
 606:/home/virusv/TDSAST_IOT/Libraries/src/stm32f10x_i2c.c ****   /* Test on the direction to set/reset the read/write bit */
 607:/home/virusv/TDSAST_IOT/Libraries/src/stm32f10x_i2c.c ****   if (I2C_Direction != I2C_Direction_Transmitter)
 1074              		.loc 1 607 0
 1075 0010 BB78     		ldrb	r3, [r7, #2]	@ zero_extendqisi2
 1076 0012 002B     		cmp	r3, #0
 1077 0014 04D0     		beq	.L48
 608:/home/virusv/TDSAST_IOT/Libraries/src/stm32f10x_i2c.c ****   {
 609:/home/virusv/TDSAST_IOT/Libraries/src/stm32f10x_i2c.c ****     /* Set the address bit0 for read */
 610:/home/virusv/TDSAST_IOT/Libraries/src/stm32f10x_i2c.c ****     Address |= OAR1_ADD0_Set;
 1078              		.loc 1 610 0
 1079 0016 FB78     		ldrb	r3, [r7, #3]
 1080 0018 43F00103 		orr	r3, r3, #1
 1081 001c FB70     		strb	r3, [r7, #3]
 1082 001e 03E0     		b	.L49
 1083              	.L48:
 611:/home/virusv/TDSAST_IOT/Libraries/src/stm32f10x_i2c.c ****   }
 612:/home/virusv/TDSAST_IOT/Libraries/src/stm32f10x_i2c.c ****   else
 613:/home/virusv/TDSAST_IOT/Libraries/src/stm32f10x_i2c.c ****   {
 614:/home/virusv/TDSAST_IOT/Libraries/src/stm32f10x_i2c.c ****     /* Reset the address bit0 for write */
 615:/home/virusv/TDSAST_IOT/Libraries/src/stm32f10x_i2c.c ****     Address &= OAR1_ADD0_Reset;
 1084              		.loc 1 615 0
 1085 0020 FB78     		ldrb	r3, [r7, #3]
 1086 0022 23F00103 		bic	r3, r3, #1
 1087 0026 FB70     		strb	r3, [r7, #3]
 1088              	.L49:
 616:/home/virusv/TDSAST_IOT/Libraries/src/stm32f10x_i2c.c ****   }
 617:/home/virusv/TDSAST_IOT/Libraries/src/stm32f10x_i2c.c ****   /* Send the address */
 618:/home/virusv/TDSAST_IOT/Libraries/src/stm32f10x_i2c.c ****   I2Cx->DR = Address;
 1089              		.loc 1 618 0
 1090 0028 FB78     		ldrb	r3, [r7, #3]	@ zero_extendqisi2
 1091 002a 9AB2     		uxth	r2, r3
 1092 002c 7B68     		ldr	r3, [r7, #4]
 1093 002e 1A82     		strh	r2, [r3, #16]	@ movhi
 619:/home/virusv/TDSAST_IOT/Libraries/src/stm32f10x_i2c.c **** }
 1094              		.loc 1 619 0
 1095 0030 0C37     		adds	r7, r7, #12
 1096              		.cfi_def_cfa_offset 4
 1097 0032 BD46     		mov	sp, r7
 1098              		.cfi_def_cfa_register 13
 1099              		@ sp needed
 1100 0034 5DF8047B 		ldr	r7, [sp], #4
 1101              		.cfi_restore 7
 1102              		.cfi_def_cfa_offset 0
 1103 0038 7047     		bx	lr
 1104              		.cfi_endproc
 1105              	.LFE44:
 1107 003a 00BF     		.section	.text.I2C_ReadRegister,"ax",%progbits
 1108              		.align	2
 1109              		.global	I2C_ReadRegister
 1110              		.thumb
 1111              		.thumb_func
 1113              	I2C_ReadRegister:
 1114              	.LFB45:
 620:/home/virusv/TDSAST_IOT/Libraries/src/stm32f10x_i2c.c **** 
 621:/home/virusv/TDSAST_IOT/Libraries/src/stm32f10x_i2c.c **** /**
 622:/home/virusv/TDSAST_IOT/Libraries/src/stm32f10x_i2c.c ****   * @brief  Reads the specified I2C register and returns its value.
 623:/home/virusv/TDSAST_IOT/Libraries/src/stm32f10x_i2c.c ****   * @param  I2C_Register: specifies the register to read.
 624:/home/virusv/TDSAST_IOT/Libraries/src/stm32f10x_i2c.c ****   *   This parameter can be one of the following values:
 625:/home/virusv/TDSAST_IOT/Libraries/src/stm32f10x_i2c.c ****   *     @arg I2C_Register_CR1:  CR1 register.
 626:/home/virusv/TDSAST_IOT/Libraries/src/stm32f10x_i2c.c ****   *     @arg I2C_Register_CR2:   CR2 register.
 627:/home/virusv/TDSAST_IOT/Libraries/src/stm32f10x_i2c.c ****   *     @arg I2C_Register_OAR1:  OAR1 register.
 628:/home/virusv/TDSAST_IOT/Libraries/src/stm32f10x_i2c.c ****   *     @arg I2C_Register_OAR2:  OAR2 register.
 629:/home/virusv/TDSAST_IOT/Libraries/src/stm32f10x_i2c.c ****   *     @arg I2C_Register_DR:    DR register.
 630:/home/virusv/TDSAST_IOT/Libraries/src/stm32f10x_i2c.c ****   *     @arg I2C_Register_SR1:   SR1 register.
 631:/home/virusv/TDSAST_IOT/Libraries/src/stm32f10x_i2c.c ****   *     @arg I2C_Register_SR2:   SR2 register.
 632:/home/virusv/TDSAST_IOT/Libraries/src/stm32f10x_i2c.c ****   *     @arg I2C_Register_CCR:   CCR register.
 633:/home/virusv/TDSAST_IOT/Libraries/src/stm32f10x_i2c.c ****   *     @arg I2C_Register_TRISE: TRISE register.
 634:/home/virusv/TDSAST_IOT/Libraries/src/stm32f10x_i2c.c ****   * @retval The value of the read register.
 635:/home/virusv/TDSAST_IOT/Libraries/src/stm32f10x_i2c.c ****   */
 636:/home/virusv/TDSAST_IOT/Libraries/src/stm32f10x_i2c.c **** uint16_t I2C_ReadRegister(I2C_TypeDef* I2Cx, uint8_t I2C_Register)
 637:/home/virusv/TDSAST_IOT/Libraries/src/stm32f10x_i2c.c **** {
 1115              		.loc 1 637 0
 1116              		.cfi_startproc
 1117              		@ args = 0, pretend = 0, frame = 16
 1118              		@ frame_needed = 1, uses_anonymous_args = 0
 1119              		@ link register save eliminated.
 1120 0000 80B4     		push	{r7}
 1121              		.cfi_def_cfa_offset 4
 1122              		.cfi_offset 7, -4
 1123 0002 85B0     		sub	sp, sp, #20
 1124              		.cfi_def_cfa_offset 24
 1125 0004 00AF     		add	r7, sp, #0
 1126              		.cfi_def_cfa_register 7
 1127 0006 7860     		str	r0, [r7, #4]
 1128 0008 0B46     		mov	r3, r1
 1129 000a FB70     		strb	r3, [r7, #3]
 638:/home/virusv/TDSAST_IOT/Libraries/src/stm32f10x_i2c.c ****   __IO uint32_t tmp = 0;
 1130              		.loc 1 638 0
 1131 000c 0023     		movs	r3, #0
 1132 000e FB60     		str	r3, [r7, #12]
 639:/home/virusv/TDSAST_IOT/Libraries/src/stm32f10x_i2c.c **** 
 640:/home/virusv/TDSAST_IOT/Libraries/src/stm32f10x_i2c.c ****   /* Check the parameters */
 641:/home/virusv/TDSAST_IOT/Libraries/src/stm32f10x_i2c.c ****   assert_param(IS_I2C_ALL_PERIPH(I2Cx));
 642:/home/virusv/TDSAST_IOT/Libraries/src/stm32f10x_i2c.c ****   assert_param(IS_I2C_REGISTER(I2C_Register));
 643:/home/virusv/TDSAST_IOT/Libraries/src/stm32f10x_i2c.c **** 
 644:/home/virusv/TDSAST_IOT/Libraries/src/stm32f10x_i2c.c ****   tmp = (uint32_t) I2Cx;
 1133              		.loc 1 644 0
 1134 0010 7B68     		ldr	r3, [r7, #4]
 1135 0012 FB60     		str	r3, [r7, #12]
 645:/home/virusv/TDSAST_IOT/Libraries/src/stm32f10x_i2c.c ****   tmp += I2C_Register;
 1136              		.loc 1 645 0
 1137 0014 FA78     		ldrb	r2, [r7, #3]	@ zero_extendqisi2
 1138 0016 FB68     		ldr	r3, [r7, #12]
 1139 0018 1344     		add	r3, r3, r2
 1140 001a FB60     		str	r3, [r7, #12]
 646:/home/virusv/TDSAST_IOT/Libraries/src/stm32f10x_i2c.c **** 
 647:/home/virusv/TDSAST_IOT/Libraries/src/stm32f10x_i2c.c ****   /* Return the selected register value */
 648:/home/virusv/TDSAST_IOT/Libraries/src/stm32f10x_i2c.c ****   return (*(__IO uint16_t *) tmp);
 1141              		.loc 1 648 0
 1142 001c FB68     		ldr	r3, [r7, #12]
 1143 001e 1B88     		ldrh	r3, [r3]	@ movhi
 1144 0020 9BB2     		uxth	r3, r3
 649:/home/virusv/TDSAST_IOT/Libraries/src/stm32f10x_i2c.c **** }
 1145              		.loc 1 649 0
 1146 0022 1846     		mov	r0, r3
 1147 0024 1437     		adds	r7, r7, #20
 1148              		.cfi_def_cfa_offset 4
 1149 0026 BD46     		mov	sp, r7
 1150              		.cfi_def_cfa_register 13
 1151              		@ sp needed
 1152 0028 5DF8047B 		ldr	r7, [sp], #4
 1153              		.cfi_restore 7
 1154              		.cfi_def_cfa_offset 0
 1155 002c 7047     		bx	lr
 1156              		.cfi_endproc
 1157              	.LFE45:
 1159 002e 00BF     		.section	.text.I2C_SoftwareResetCmd,"ax",%progbits
 1160              		.align	2
 1161              		.global	I2C_SoftwareResetCmd
 1162              		.thumb
 1163              		.thumb_func
 1165              	I2C_SoftwareResetCmd:
 1166              	.LFB46:
 650:/home/virusv/TDSAST_IOT/Libraries/src/stm32f10x_i2c.c **** 
 651:/home/virusv/TDSAST_IOT/Libraries/src/stm32f10x_i2c.c **** /**
 652:/home/virusv/TDSAST_IOT/Libraries/src/stm32f10x_i2c.c ****   * @brief  Enables or disables the specified I2C software reset.
 653:/home/virusv/TDSAST_IOT/Libraries/src/stm32f10x_i2c.c ****   * @param  I2Cx: where x can be 1 or 2 to select the I2C peripheral.
 654:/home/virusv/TDSAST_IOT/Libraries/src/stm32f10x_i2c.c ****   * @param  NewState: new state of the I2C software reset.
 655:/home/virusv/TDSAST_IOT/Libraries/src/stm32f10x_i2c.c ****   *   This parameter can be: ENABLE or DISABLE.
 656:/home/virusv/TDSAST_IOT/Libraries/src/stm32f10x_i2c.c ****   * @retval None
 657:/home/virusv/TDSAST_IOT/Libraries/src/stm32f10x_i2c.c ****   */
 658:/home/virusv/TDSAST_IOT/Libraries/src/stm32f10x_i2c.c **** void I2C_SoftwareResetCmd(I2C_TypeDef* I2Cx, FunctionalState NewState)
 659:/home/virusv/TDSAST_IOT/Libraries/src/stm32f10x_i2c.c **** {
 1167              		.loc 1 659 0
 1168              		.cfi_startproc
 1169              		@ args = 0, pretend = 0, frame = 8
 1170              		@ frame_needed = 1, uses_anonymous_args = 0
 1171              		@ link register save eliminated.
 1172 0000 80B4     		push	{r7}
 1173              		.cfi_def_cfa_offset 4
 1174              		.cfi_offset 7, -4
 1175 0002 83B0     		sub	sp, sp, #12
 1176              		.cfi_def_cfa_offset 16
 1177 0004 00AF     		add	r7, sp, #0
 1178              		.cfi_def_cfa_register 7
 1179 0006 7860     		str	r0, [r7, #4]
 1180 0008 0B46     		mov	r3, r1
 1181 000a FB70     		strb	r3, [r7, #3]
 660:/home/virusv/TDSAST_IOT/Libraries/src/stm32f10x_i2c.c ****   /* Check the parameters */
 661:/home/virusv/TDSAST_IOT/Libraries/src/stm32f10x_i2c.c ****   assert_param(IS_I2C_ALL_PERIPH(I2Cx));
 662:/home/virusv/TDSAST_IOT/Libraries/src/stm32f10x_i2c.c ****   assert_param(IS_FUNCTIONAL_STATE(NewState));
 663:/home/virusv/TDSAST_IOT/Libraries/src/stm32f10x_i2c.c ****   if (NewState != DISABLE)
 1182              		.loc 1 663 0
 1183 000c FB78     		ldrb	r3, [r7, #3]	@ zero_extendqisi2
 1184 000e 002B     		cmp	r3, #0
 1185 0010 0AD0     		beq	.L53
 664:/home/virusv/TDSAST_IOT/Libraries/src/stm32f10x_i2c.c ****   {
 665:/home/virusv/TDSAST_IOT/Libraries/src/stm32f10x_i2c.c ****     /* Peripheral under reset */
 666:/home/virusv/TDSAST_IOT/Libraries/src/stm32f10x_i2c.c ****     I2Cx->CR1 |= CR1_SWRST_Set;
 1186              		.loc 1 666 0
 1187 0012 7B68     		ldr	r3, [r7, #4]
 1188 0014 1B88     		ldrh	r3, [r3]	@ movhi
 1189 0016 9BB2     		uxth	r3, r3
 1190 0018 6FEA4343 		mvn	r3, r3, lsl #17
 1191 001c 6FEA5343 		mvn	r3, r3, lsr #17
 1192 0020 9AB2     		uxth	r2, r3
 1193 0022 7B68     		ldr	r3, [r7, #4]
 1194 0024 1A80     		strh	r2, [r3]	@ movhi
 1195 0026 07E0     		b	.L52
 1196              	.L53:
 667:/home/virusv/TDSAST_IOT/Libraries/src/stm32f10x_i2c.c ****   }
 668:/home/virusv/TDSAST_IOT/Libraries/src/stm32f10x_i2c.c ****   else
 669:/home/virusv/TDSAST_IOT/Libraries/src/stm32f10x_i2c.c ****   {
 670:/home/virusv/TDSAST_IOT/Libraries/src/stm32f10x_i2c.c ****     /* Peripheral not under reset */
 671:/home/virusv/TDSAST_IOT/Libraries/src/stm32f10x_i2c.c ****     I2Cx->CR1 &= CR1_SWRST_Reset;
 1197              		.loc 1 671 0
 1198 0028 7B68     		ldr	r3, [r7, #4]
 1199 002a 1B88     		ldrh	r3, [r3]	@ movhi
 1200 002c 9BB2     		uxth	r3, r3
 1201 002e C3F30E03 		ubfx	r3, r3, #0, #15
 1202 0032 9AB2     		uxth	r2, r3
 1203 0034 7B68     		ldr	r3, [r7, #4]
 1204 0036 1A80     		strh	r2, [r3]	@ movhi
 1205              	.L52:
 672:/home/virusv/TDSAST_IOT/Libraries/src/stm32f10x_i2c.c ****   }
 673:/home/virusv/TDSAST_IOT/Libraries/src/stm32f10x_i2c.c **** }
 1206              		.loc 1 673 0
 1207 0038 0C37     		adds	r7, r7, #12
 1208              		.cfi_def_cfa_offset 4
 1209 003a BD46     		mov	sp, r7
 1210              		.cfi_def_cfa_register 13
 1211              		@ sp needed
 1212 003c 5DF8047B 		ldr	r7, [sp], #4
 1213              		.cfi_restore 7
 1214              		.cfi_def_cfa_offset 0
 1215 0040 7047     		bx	lr
 1216              		.cfi_endproc
 1217              	.LFE46:
 1219 0042 00BF     		.section	.text.I2C_NACKPositionConfig,"ax",%progbits
 1220              		.align	2
 1221              		.global	I2C_NACKPositionConfig
 1222              		.thumb
 1223              		.thumb_func
 1225              	I2C_NACKPositionConfig:
 1226              	.LFB47:
 674:/home/virusv/TDSAST_IOT/Libraries/src/stm32f10x_i2c.c **** 
 675:/home/virusv/TDSAST_IOT/Libraries/src/stm32f10x_i2c.c **** /**
 676:/home/virusv/TDSAST_IOT/Libraries/src/stm32f10x_i2c.c ****   * @brief  Selects the specified I2C NACK position in master receiver mode.
 677:/home/virusv/TDSAST_IOT/Libraries/src/stm32f10x_i2c.c ****   *         This function is useful in I2C Master Receiver mode when the number
 678:/home/virusv/TDSAST_IOT/Libraries/src/stm32f10x_i2c.c ****   *         of data to be received is equal to 2. In this case, this function 
 679:/home/virusv/TDSAST_IOT/Libraries/src/stm32f10x_i2c.c ****   *         should be called (with parameter I2C_NACKPosition_Next) before data 
 680:/home/virusv/TDSAST_IOT/Libraries/src/stm32f10x_i2c.c ****   *         reception starts,as described in the 2-byte reception procedure 
 681:/home/virusv/TDSAST_IOT/Libraries/src/stm32f10x_i2c.c ****   *         recommended in Reference Manual in Section: Master receiver.                
 682:/home/virusv/TDSAST_IOT/Libraries/src/stm32f10x_i2c.c ****   * @param  I2Cx: where x can be 1 or 2 to select the I2C peripheral.
 683:/home/virusv/TDSAST_IOT/Libraries/src/stm32f10x_i2c.c ****   * @param  I2C_NACKPosition: specifies the NACK position. 
 684:/home/virusv/TDSAST_IOT/Libraries/src/stm32f10x_i2c.c ****   *   This parameter can be one of the following values:
 685:/home/virusv/TDSAST_IOT/Libraries/src/stm32f10x_i2c.c ****   *     @arg I2C_NACKPosition_Next: indicates that the next byte will be the last
 686:/home/virusv/TDSAST_IOT/Libraries/src/stm32f10x_i2c.c ****   *          received byte.  
 687:/home/virusv/TDSAST_IOT/Libraries/src/stm32f10x_i2c.c ****   *     @arg I2C_NACKPosition_Current: indicates that current byte is the last 
 688:/home/virusv/TDSAST_IOT/Libraries/src/stm32f10x_i2c.c ****   *          received byte.
 689:/home/virusv/TDSAST_IOT/Libraries/src/stm32f10x_i2c.c ****   *            
 690:/home/virusv/TDSAST_IOT/Libraries/src/stm32f10x_i2c.c ****   * @note    This function configures the same bit (POS) as I2C_PECPositionConfig() 
 691:/home/virusv/TDSAST_IOT/Libraries/src/stm32f10x_i2c.c ****   *          but is intended to be used in I2C mode while I2C_PECPositionConfig() 
 692:/home/virusv/TDSAST_IOT/Libraries/src/stm32f10x_i2c.c ****   *          is intended to used in SMBUS mode. 
 693:/home/virusv/TDSAST_IOT/Libraries/src/stm32f10x_i2c.c ****   *            
 694:/home/virusv/TDSAST_IOT/Libraries/src/stm32f10x_i2c.c ****   * @retval None
 695:/home/virusv/TDSAST_IOT/Libraries/src/stm32f10x_i2c.c ****   */
 696:/home/virusv/TDSAST_IOT/Libraries/src/stm32f10x_i2c.c **** void I2C_NACKPositionConfig(I2C_TypeDef* I2Cx, uint16_t I2C_NACKPosition)
 697:/home/virusv/TDSAST_IOT/Libraries/src/stm32f10x_i2c.c **** {
 1227              		.loc 1 697 0
 1228              		.cfi_startproc
 1229              		@ args = 0, pretend = 0, frame = 8
 1230              		@ frame_needed = 1, uses_anonymous_args = 0
 1231              		@ link register save eliminated.
 1232 0000 80B4     		push	{r7}
 1233              		.cfi_def_cfa_offset 4
 1234              		.cfi_offset 7, -4
 1235 0002 83B0     		sub	sp, sp, #12
 1236              		.cfi_def_cfa_offset 16
 1237 0004 00AF     		add	r7, sp, #0
 1238              		.cfi_def_cfa_register 7
 1239 0006 7860     		str	r0, [r7, #4]
 1240 0008 0B46     		mov	r3, r1
 1241 000a 7B80     		strh	r3, [r7, #2]	@ movhi
 698:/home/virusv/TDSAST_IOT/Libraries/src/stm32f10x_i2c.c ****   /* Check the parameters */
 699:/home/virusv/TDSAST_IOT/Libraries/src/stm32f10x_i2c.c ****   assert_param(IS_I2C_ALL_PERIPH(I2Cx));
 700:/home/virusv/TDSAST_IOT/Libraries/src/stm32f10x_i2c.c ****   assert_param(IS_I2C_NACK_POSITION(I2C_NACKPosition));
 701:/home/virusv/TDSAST_IOT/Libraries/src/stm32f10x_i2c.c ****   
 702:/home/virusv/TDSAST_IOT/Libraries/src/stm32f10x_i2c.c ****   /* Check the input parameter */
 703:/home/virusv/TDSAST_IOT/Libraries/src/stm32f10x_i2c.c ****   if (I2C_NACKPosition == I2C_NACKPosition_Next)
 1242              		.loc 1 703 0
 1243 000c 7B88     		ldrh	r3, [r7, #2]
 1244 000e B3F5006F 		cmp	r3, #2048
 1245 0012 08D1     		bne	.L56
 704:/home/virusv/TDSAST_IOT/Libraries/src/stm32f10x_i2c.c ****   {
 705:/home/virusv/TDSAST_IOT/Libraries/src/stm32f10x_i2c.c ****     /* Next byte in shift register is the last received byte */
 706:/home/virusv/TDSAST_IOT/Libraries/src/stm32f10x_i2c.c ****     I2Cx->CR1 |= I2C_NACKPosition_Next;
 1246              		.loc 1 706 0
 1247 0014 7B68     		ldr	r3, [r7, #4]
 1248 0016 1B88     		ldrh	r3, [r3]	@ movhi
 1249 0018 9BB2     		uxth	r3, r3
 1250 001a 43F40063 		orr	r3, r3, #2048
 1251 001e 9AB2     		uxth	r2, r3
 1252 0020 7B68     		ldr	r3, [r7, #4]
 1253 0022 1A80     		strh	r2, [r3]	@ movhi
 1254 0024 07E0     		b	.L55
 1255              	.L56:
 707:/home/virusv/TDSAST_IOT/Libraries/src/stm32f10x_i2c.c ****   }
 708:/home/virusv/TDSAST_IOT/Libraries/src/stm32f10x_i2c.c ****   else
 709:/home/virusv/TDSAST_IOT/Libraries/src/stm32f10x_i2c.c ****   {
 710:/home/virusv/TDSAST_IOT/Libraries/src/stm32f10x_i2c.c ****     /* Current byte in shift register is the last received byte */
 711:/home/virusv/TDSAST_IOT/Libraries/src/stm32f10x_i2c.c ****     I2Cx->CR1 &= I2C_NACKPosition_Current;
 1256              		.loc 1 711 0
 1257 0026 7B68     		ldr	r3, [r7, #4]
 1258 0028 1B88     		ldrh	r3, [r3]	@ movhi
 1259 002a 9BB2     		uxth	r3, r3
 1260 002c 23F40063 		bic	r3, r3, #2048
 1261 0030 9AB2     		uxth	r2, r3
 1262 0032 7B68     		ldr	r3, [r7, #4]
 1263 0034 1A80     		strh	r2, [r3]	@ movhi
 1264              	.L55:
 712:/home/virusv/TDSAST_IOT/Libraries/src/stm32f10x_i2c.c ****   }
 713:/home/virusv/TDSAST_IOT/Libraries/src/stm32f10x_i2c.c **** }
 1265              		.loc 1 713 0
 1266 0036 0C37     		adds	r7, r7, #12
 1267              		.cfi_def_cfa_offset 4
 1268 0038 BD46     		mov	sp, r7
 1269              		.cfi_def_cfa_register 13
 1270              		@ sp needed
 1271 003a 5DF8047B 		ldr	r7, [sp], #4
 1272              		.cfi_restore 7
 1273              		.cfi_def_cfa_offset 0
 1274 003e 7047     		bx	lr
 1275              		.cfi_endproc
 1276              	.LFE47:
 1278              		.section	.text.I2C_SMBusAlertConfig,"ax",%progbits
 1279              		.align	2
 1280              		.global	I2C_SMBusAlertConfig
 1281              		.thumb
 1282              		.thumb_func
 1284              	I2C_SMBusAlertConfig:
 1285              	.LFB48:
 714:/home/virusv/TDSAST_IOT/Libraries/src/stm32f10x_i2c.c **** 
 715:/home/virusv/TDSAST_IOT/Libraries/src/stm32f10x_i2c.c **** /**
 716:/home/virusv/TDSAST_IOT/Libraries/src/stm32f10x_i2c.c ****   * @brief  Drives the SMBusAlert pin high or low for the specified I2C.
 717:/home/virusv/TDSAST_IOT/Libraries/src/stm32f10x_i2c.c ****   * @param  I2Cx: where x can be 1 or 2 to select the I2C peripheral.
 718:/home/virusv/TDSAST_IOT/Libraries/src/stm32f10x_i2c.c ****   * @param  I2C_SMBusAlert: specifies SMBAlert pin level. 
 719:/home/virusv/TDSAST_IOT/Libraries/src/stm32f10x_i2c.c ****   *   This parameter can be one of the following values:
 720:/home/virusv/TDSAST_IOT/Libraries/src/stm32f10x_i2c.c ****   *     @arg I2C_SMBusAlert_Low: SMBAlert pin driven low
 721:/home/virusv/TDSAST_IOT/Libraries/src/stm32f10x_i2c.c ****   *     @arg I2C_SMBusAlert_High: SMBAlert pin driven high
 722:/home/virusv/TDSAST_IOT/Libraries/src/stm32f10x_i2c.c ****   * @retval None
 723:/home/virusv/TDSAST_IOT/Libraries/src/stm32f10x_i2c.c ****   */
 724:/home/virusv/TDSAST_IOT/Libraries/src/stm32f10x_i2c.c **** void I2C_SMBusAlertConfig(I2C_TypeDef* I2Cx, uint16_t I2C_SMBusAlert)
 725:/home/virusv/TDSAST_IOT/Libraries/src/stm32f10x_i2c.c **** {
 1286              		.loc 1 725 0
 1287              		.cfi_startproc
 1288              		@ args = 0, pretend = 0, frame = 8
 1289              		@ frame_needed = 1, uses_anonymous_args = 0
 1290              		@ link register save eliminated.
 1291 0000 80B4     		push	{r7}
 1292              		.cfi_def_cfa_offset 4
 1293              		.cfi_offset 7, -4
 1294 0002 83B0     		sub	sp, sp, #12
 1295              		.cfi_def_cfa_offset 16
 1296 0004 00AF     		add	r7, sp, #0
 1297              		.cfi_def_cfa_register 7
 1298 0006 7860     		str	r0, [r7, #4]
 1299 0008 0B46     		mov	r3, r1
 1300 000a 7B80     		strh	r3, [r7, #2]	@ movhi
 726:/home/virusv/TDSAST_IOT/Libraries/src/stm32f10x_i2c.c ****   /* Check the parameters */
 727:/home/virusv/TDSAST_IOT/Libraries/src/stm32f10x_i2c.c ****   assert_param(IS_I2C_ALL_PERIPH(I2Cx));
 728:/home/virusv/TDSAST_IOT/Libraries/src/stm32f10x_i2c.c ****   assert_param(IS_I2C_SMBUS_ALERT(I2C_SMBusAlert));
 729:/home/virusv/TDSAST_IOT/Libraries/src/stm32f10x_i2c.c ****   if (I2C_SMBusAlert == I2C_SMBusAlert_Low)
 1301              		.loc 1 729 0
 1302 000c 7B88     		ldrh	r3, [r7, #2]
 1303 000e B3F5005F 		cmp	r3, #8192
 1304 0012 08D1     		bne	.L59
 730:/home/virusv/TDSAST_IOT/Libraries/src/stm32f10x_i2c.c ****   {
 731:/home/virusv/TDSAST_IOT/Libraries/src/stm32f10x_i2c.c ****     /* Drive the SMBusAlert pin Low */
 732:/home/virusv/TDSAST_IOT/Libraries/src/stm32f10x_i2c.c ****     I2Cx->CR1 |= I2C_SMBusAlert_Low;
 1305              		.loc 1 732 0
 1306 0014 7B68     		ldr	r3, [r7, #4]
 1307 0016 1B88     		ldrh	r3, [r3]	@ movhi
 1308 0018 9BB2     		uxth	r3, r3
 1309 001a 43F40053 		orr	r3, r3, #8192
 1310 001e 9AB2     		uxth	r2, r3
 1311 0020 7B68     		ldr	r3, [r7, #4]
 1312 0022 1A80     		strh	r2, [r3]	@ movhi
 1313 0024 07E0     		b	.L58
 1314              	.L59:
 733:/home/virusv/TDSAST_IOT/Libraries/src/stm32f10x_i2c.c ****   }
 734:/home/virusv/TDSAST_IOT/Libraries/src/stm32f10x_i2c.c ****   else
 735:/home/virusv/TDSAST_IOT/Libraries/src/stm32f10x_i2c.c ****   {
 736:/home/virusv/TDSAST_IOT/Libraries/src/stm32f10x_i2c.c ****     /* Drive the SMBusAlert pin High  */
 737:/home/virusv/TDSAST_IOT/Libraries/src/stm32f10x_i2c.c ****     I2Cx->CR1 &= I2C_SMBusAlert_High;
 1315              		.loc 1 737 0
 1316 0026 7B68     		ldr	r3, [r7, #4]
 1317 0028 1B88     		ldrh	r3, [r3]	@ movhi
 1318 002a 9BB2     		uxth	r3, r3
 1319 002c 23F40053 		bic	r3, r3, #8192
 1320 0030 9AB2     		uxth	r2, r3
 1321 0032 7B68     		ldr	r3, [r7, #4]
 1322 0034 1A80     		strh	r2, [r3]	@ movhi
 1323              	.L58:
 738:/home/virusv/TDSAST_IOT/Libraries/src/stm32f10x_i2c.c ****   }
 739:/home/virusv/TDSAST_IOT/Libraries/src/stm32f10x_i2c.c **** }
 1324              		.loc 1 739 0
 1325 0036 0C37     		adds	r7, r7, #12
 1326              		.cfi_def_cfa_offset 4
 1327 0038 BD46     		mov	sp, r7
 1328              		.cfi_def_cfa_register 13
 1329              		@ sp needed
 1330 003a 5DF8047B 		ldr	r7, [sp], #4
 1331              		.cfi_restore 7
 1332              		.cfi_def_cfa_offset 0
 1333 003e 7047     		bx	lr
 1334              		.cfi_endproc
 1335              	.LFE48:
 1337              		.section	.text.I2C_TransmitPEC,"ax",%progbits
 1338              		.align	2
 1339              		.global	I2C_TransmitPEC
 1340              		.thumb
 1341              		.thumb_func
 1343              	I2C_TransmitPEC:
 1344              	.LFB49:
 740:/home/virusv/TDSAST_IOT/Libraries/src/stm32f10x_i2c.c **** 
 741:/home/virusv/TDSAST_IOT/Libraries/src/stm32f10x_i2c.c **** /**
 742:/home/virusv/TDSAST_IOT/Libraries/src/stm32f10x_i2c.c ****   * @brief  Enables or disables the specified I2C PEC transfer.
 743:/home/virusv/TDSAST_IOT/Libraries/src/stm32f10x_i2c.c ****   * @param  I2Cx: where x can be 1 or 2 to select the I2C peripheral.
 744:/home/virusv/TDSAST_IOT/Libraries/src/stm32f10x_i2c.c ****   * @param  NewState: new state of the I2C PEC transmission.
 745:/home/virusv/TDSAST_IOT/Libraries/src/stm32f10x_i2c.c ****   *   This parameter can be: ENABLE or DISABLE.
 746:/home/virusv/TDSAST_IOT/Libraries/src/stm32f10x_i2c.c ****   * @retval None
 747:/home/virusv/TDSAST_IOT/Libraries/src/stm32f10x_i2c.c ****   */
 748:/home/virusv/TDSAST_IOT/Libraries/src/stm32f10x_i2c.c **** void I2C_TransmitPEC(I2C_TypeDef* I2Cx, FunctionalState NewState)
 749:/home/virusv/TDSAST_IOT/Libraries/src/stm32f10x_i2c.c **** {
 1345              		.loc 1 749 0
 1346              		.cfi_startproc
 1347              		@ args = 0, pretend = 0, frame = 8
 1348              		@ frame_needed = 1, uses_anonymous_args = 0
 1349              		@ link register save eliminated.
 1350 0000 80B4     		push	{r7}
 1351              		.cfi_def_cfa_offset 4
 1352              		.cfi_offset 7, -4
 1353 0002 83B0     		sub	sp, sp, #12
 1354              		.cfi_def_cfa_offset 16
 1355 0004 00AF     		add	r7, sp, #0
 1356              		.cfi_def_cfa_register 7
 1357 0006 7860     		str	r0, [r7, #4]
 1358 0008 0B46     		mov	r3, r1
 1359 000a FB70     		strb	r3, [r7, #3]
 750:/home/virusv/TDSAST_IOT/Libraries/src/stm32f10x_i2c.c ****   /* Check the parameters */
 751:/home/virusv/TDSAST_IOT/Libraries/src/stm32f10x_i2c.c ****   assert_param(IS_I2C_ALL_PERIPH(I2Cx));
 752:/home/virusv/TDSAST_IOT/Libraries/src/stm32f10x_i2c.c ****   assert_param(IS_FUNCTIONAL_STATE(NewState));
 753:/home/virusv/TDSAST_IOT/Libraries/src/stm32f10x_i2c.c ****   if (NewState != DISABLE)
 1360              		.loc 1 753 0
 1361 000c FB78     		ldrb	r3, [r7, #3]	@ zero_extendqisi2
 1362 000e 002B     		cmp	r3, #0
 1363 0010 08D0     		beq	.L62
 754:/home/virusv/TDSAST_IOT/Libraries/src/stm32f10x_i2c.c ****   {
 755:/home/virusv/TDSAST_IOT/Libraries/src/stm32f10x_i2c.c ****     /* Enable the selected I2C PEC transmission */
 756:/home/virusv/TDSAST_IOT/Libraries/src/stm32f10x_i2c.c ****     I2Cx->CR1 |= CR1_PEC_Set;
 1364              		.loc 1 756 0
 1365 0012 7B68     		ldr	r3, [r7, #4]
 1366 0014 1B88     		ldrh	r3, [r3]	@ movhi
 1367 0016 9BB2     		uxth	r3, r3
 1368 0018 43F48053 		orr	r3, r3, #4096
 1369 001c 9AB2     		uxth	r2, r3
 1370 001e 7B68     		ldr	r3, [r7, #4]
 1371 0020 1A80     		strh	r2, [r3]	@ movhi
 1372 0022 07E0     		b	.L61
 1373              	.L62:
 757:/home/virusv/TDSAST_IOT/Libraries/src/stm32f10x_i2c.c ****   }
 758:/home/virusv/TDSAST_IOT/Libraries/src/stm32f10x_i2c.c ****   else
 759:/home/virusv/TDSAST_IOT/Libraries/src/stm32f10x_i2c.c ****   {
 760:/home/virusv/TDSAST_IOT/Libraries/src/stm32f10x_i2c.c ****     /* Disable the selected I2C PEC transmission */
 761:/home/virusv/TDSAST_IOT/Libraries/src/stm32f10x_i2c.c ****     I2Cx->CR1 &= CR1_PEC_Reset;
 1374              		.loc 1 761 0
 1375 0024 7B68     		ldr	r3, [r7, #4]
 1376 0026 1B88     		ldrh	r3, [r3]	@ movhi
 1377 0028 9BB2     		uxth	r3, r3
 1378 002a 23F48053 		bic	r3, r3, #4096
 1379 002e 9AB2     		uxth	r2, r3
 1380 0030 7B68     		ldr	r3, [r7, #4]
 1381 0032 1A80     		strh	r2, [r3]	@ movhi
 1382              	.L61:
 762:/home/virusv/TDSAST_IOT/Libraries/src/stm32f10x_i2c.c ****   }
 763:/home/virusv/TDSAST_IOT/Libraries/src/stm32f10x_i2c.c **** }
 1383              		.loc 1 763 0
 1384 0034 0C37     		adds	r7, r7, #12
 1385              		.cfi_def_cfa_offset 4
 1386 0036 BD46     		mov	sp, r7
 1387              		.cfi_def_cfa_register 13
 1388              		@ sp needed
 1389 0038 5DF8047B 		ldr	r7, [sp], #4
 1390              		.cfi_restore 7
 1391              		.cfi_def_cfa_offset 0
 1392 003c 7047     		bx	lr
 1393              		.cfi_endproc
 1394              	.LFE49:
 1396 003e 00BF     		.section	.text.I2C_PECPositionConfig,"ax",%progbits
 1397              		.align	2
 1398              		.global	I2C_PECPositionConfig
 1399              		.thumb
 1400              		.thumb_func
 1402              	I2C_PECPositionConfig:
 1403              	.LFB50:
 764:/home/virusv/TDSAST_IOT/Libraries/src/stm32f10x_i2c.c **** 
 765:/home/virusv/TDSAST_IOT/Libraries/src/stm32f10x_i2c.c **** /**
 766:/home/virusv/TDSAST_IOT/Libraries/src/stm32f10x_i2c.c ****   * @brief  Selects the specified I2C PEC position.
 767:/home/virusv/TDSAST_IOT/Libraries/src/stm32f10x_i2c.c ****   * @param  I2Cx: where x can be 1 or 2 to select the I2C peripheral.
 768:/home/virusv/TDSAST_IOT/Libraries/src/stm32f10x_i2c.c ****   * @param  I2C_PECPosition: specifies the PEC position. 
 769:/home/virusv/TDSAST_IOT/Libraries/src/stm32f10x_i2c.c ****   *   This parameter can be one of the following values:
 770:/home/virusv/TDSAST_IOT/Libraries/src/stm32f10x_i2c.c ****   *     @arg I2C_PECPosition_Next: indicates that the next byte is PEC
 771:/home/virusv/TDSAST_IOT/Libraries/src/stm32f10x_i2c.c ****   *     @arg I2C_PECPosition_Current: indicates that current byte is PEC
 772:/home/virusv/TDSAST_IOT/Libraries/src/stm32f10x_i2c.c ****   *       
 773:/home/virusv/TDSAST_IOT/Libraries/src/stm32f10x_i2c.c ****   * @note    This function configures the same bit (POS) as I2C_NACKPositionConfig()
 774:/home/virusv/TDSAST_IOT/Libraries/src/stm32f10x_i2c.c ****   *          but is intended to be used in SMBUS mode while I2C_NACKPositionConfig() 
 775:/home/virusv/TDSAST_IOT/Libraries/src/stm32f10x_i2c.c ****   *          is intended to used in I2C mode.
 776:/home/virusv/TDSAST_IOT/Libraries/src/stm32f10x_i2c.c ****   *               
 777:/home/virusv/TDSAST_IOT/Libraries/src/stm32f10x_i2c.c ****   * @retval None
 778:/home/virusv/TDSAST_IOT/Libraries/src/stm32f10x_i2c.c ****   */
 779:/home/virusv/TDSAST_IOT/Libraries/src/stm32f10x_i2c.c **** void I2C_PECPositionConfig(I2C_TypeDef* I2Cx, uint16_t I2C_PECPosition)
 780:/home/virusv/TDSAST_IOT/Libraries/src/stm32f10x_i2c.c **** {
 1404              		.loc 1 780 0
 1405              		.cfi_startproc
 1406              		@ args = 0, pretend = 0, frame = 8
 1407              		@ frame_needed = 1, uses_anonymous_args = 0
 1408              		@ link register save eliminated.
 1409 0000 80B4     		push	{r7}
 1410              		.cfi_def_cfa_offset 4
 1411              		.cfi_offset 7, -4
 1412 0002 83B0     		sub	sp, sp, #12
 1413              		.cfi_def_cfa_offset 16
 1414 0004 00AF     		add	r7, sp, #0
 1415              		.cfi_def_cfa_register 7
 1416 0006 7860     		str	r0, [r7, #4]
 1417 0008 0B46     		mov	r3, r1
 1418 000a 7B80     		strh	r3, [r7, #2]	@ movhi
 781:/home/virusv/TDSAST_IOT/Libraries/src/stm32f10x_i2c.c ****   /* Check the parameters */
 782:/home/virusv/TDSAST_IOT/Libraries/src/stm32f10x_i2c.c ****   assert_param(IS_I2C_ALL_PERIPH(I2Cx));
 783:/home/virusv/TDSAST_IOT/Libraries/src/stm32f10x_i2c.c ****   assert_param(IS_I2C_PEC_POSITION(I2C_PECPosition));
 784:/home/virusv/TDSAST_IOT/Libraries/src/stm32f10x_i2c.c ****   if (I2C_PECPosition == I2C_PECPosition_Next)
 1419              		.loc 1 784 0
 1420 000c 7B88     		ldrh	r3, [r7, #2]
 1421 000e B3F5006F 		cmp	r3, #2048
 1422 0012 08D1     		bne	.L65
 785:/home/virusv/TDSAST_IOT/Libraries/src/stm32f10x_i2c.c ****   {
 786:/home/virusv/TDSAST_IOT/Libraries/src/stm32f10x_i2c.c ****     /* Next byte in shift register is PEC */
 787:/home/virusv/TDSAST_IOT/Libraries/src/stm32f10x_i2c.c ****     I2Cx->CR1 |= I2C_PECPosition_Next;
 1423              		.loc 1 787 0
 1424 0014 7B68     		ldr	r3, [r7, #4]
 1425 0016 1B88     		ldrh	r3, [r3]	@ movhi
 1426 0018 9BB2     		uxth	r3, r3
 1427 001a 43F40063 		orr	r3, r3, #2048
 1428 001e 9AB2     		uxth	r2, r3
 1429 0020 7B68     		ldr	r3, [r7, #4]
 1430 0022 1A80     		strh	r2, [r3]	@ movhi
 1431 0024 07E0     		b	.L64
 1432              	.L65:
 788:/home/virusv/TDSAST_IOT/Libraries/src/stm32f10x_i2c.c ****   }
 789:/home/virusv/TDSAST_IOT/Libraries/src/stm32f10x_i2c.c ****   else
 790:/home/virusv/TDSAST_IOT/Libraries/src/stm32f10x_i2c.c ****   {
 791:/home/virusv/TDSAST_IOT/Libraries/src/stm32f10x_i2c.c ****     /* Current byte in shift register is PEC */
 792:/home/virusv/TDSAST_IOT/Libraries/src/stm32f10x_i2c.c ****     I2Cx->CR1 &= I2C_PECPosition_Current;
 1433              		.loc 1 792 0
 1434 0026 7B68     		ldr	r3, [r7, #4]
 1435 0028 1B88     		ldrh	r3, [r3]	@ movhi
 1436 002a 9BB2     		uxth	r3, r3
 1437 002c 23F40063 		bic	r3, r3, #2048
 1438 0030 9AB2     		uxth	r2, r3
 1439 0032 7B68     		ldr	r3, [r7, #4]
 1440 0034 1A80     		strh	r2, [r3]	@ movhi
 1441              	.L64:
 793:/home/virusv/TDSAST_IOT/Libraries/src/stm32f10x_i2c.c ****   }
 794:/home/virusv/TDSAST_IOT/Libraries/src/stm32f10x_i2c.c **** }
 1442              		.loc 1 794 0
 1443 0036 0C37     		adds	r7, r7, #12
 1444              		.cfi_def_cfa_offset 4
 1445 0038 BD46     		mov	sp, r7
 1446              		.cfi_def_cfa_register 13
 1447              		@ sp needed
 1448 003a 5DF8047B 		ldr	r7, [sp], #4
 1449              		.cfi_restore 7
 1450              		.cfi_def_cfa_offset 0
 1451 003e 7047     		bx	lr
 1452              		.cfi_endproc
 1453              	.LFE50:
 1455              		.section	.text.I2C_CalculatePEC,"ax",%progbits
 1456              		.align	2
 1457              		.global	I2C_CalculatePEC
 1458              		.thumb
 1459              		.thumb_func
 1461              	I2C_CalculatePEC:
 1462              	.LFB51:
 795:/home/virusv/TDSAST_IOT/Libraries/src/stm32f10x_i2c.c **** 
 796:/home/virusv/TDSAST_IOT/Libraries/src/stm32f10x_i2c.c **** /**
 797:/home/virusv/TDSAST_IOT/Libraries/src/stm32f10x_i2c.c ****   * @brief  Enables or disables the PEC value calculation of the transferred bytes.
 798:/home/virusv/TDSAST_IOT/Libraries/src/stm32f10x_i2c.c ****   * @param  I2Cx: where x can be 1 or 2 to select the I2C peripheral.
 799:/home/virusv/TDSAST_IOT/Libraries/src/stm32f10x_i2c.c ****   * @param  NewState: new state of the I2Cx PEC value calculation.
 800:/home/virusv/TDSAST_IOT/Libraries/src/stm32f10x_i2c.c ****   *   This parameter can be: ENABLE or DISABLE.
 801:/home/virusv/TDSAST_IOT/Libraries/src/stm32f10x_i2c.c ****   * @retval None
 802:/home/virusv/TDSAST_IOT/Libraries/src/stm32f10x_i2c.c ****   */
 803:/home/virusv/TDSAST_IOT/Libraries/src/stm32f10x_i2c.c **** void I2C_CalculatePEC(I2C_TypeDef* I2Cx, FunctionalState NewState)
 804:/home/virusv/TDSAST_IOT/Libraries/src/stm32f10x_i2c.c **** {
 1463              		.loc 1 804 0
 1464              		.cfi_startproc
 1465              		@ args = 0, pretend = 0, frame = 8
 1466              		@ frame_needed = 1, uses_anonymous_args = 0
 1467              		@ link register save eliminated.
 1468 0000 80B4     		push	{r7}
 1469              		.cfi_def_cfa_offset 4
 1470              		.cfi_offset 7, -4
 1471 0002 83B0     		sub	sp, sp, #12
 1472              		.cfi_def_cfa_offset 16
 1473 0004 00AF     		add	r7, sp, #0
 1474              		.cfi_def_cfa_register 7
 1475 0006 7860     		str	r0, [r7, #4]
 1476 0008 0B46     		mov	r3, r1
 1477 000a FB70     		strb	r3, [r7, #3]
 805:/home/virusv/TDSAST_IOT/Libraries/src/stm32f10x_i2c.c ****   /* Check the parameters */
 806:/home/virusv/TDSAST_IOT/Libraries/src/stm32f10x_i2c.c ****   assert_param(IS_I2C_ALL_PERIPH(I2Cx));
 807:/home/virusv/TDSAST_IOT/Libraries/src/stm32f10x_i2c.c ****   assert_param(IS_FUNCTIONAL_STATE(NewState));
 808:/home/virusv/TDSAST_IOT/Libraries/src/stm32f10x_i2c.c ****   if (NewState != DISABLE)
 1478              		.loc 1 808 0
 1479 000c FB78     		ldrb	r3, [r7, #3]	@ zero_extendqisi2
 1480 000e 002B     		cmp	r3, #0
 1481 0010 08D0     		beq	.L68
 809:/home/virusv/TDSAST_IOT/Libraries/src/stm32f10x_i2c.c ****   {
 810:/home/virusv/TDSAST_IOT/Libraries/src/stm32f10x_i2c.c ****     /* Enable the selected I2C PEC calculation */
 811:/home/virusv/TDSAST_IOT/Libraries/src/stm32f10x_i2c.c ****     I2Cx->CR1 |= CR1_ENPEC_Set;
 1482              		.loc 1 811 0
 1483 0012 7B68     		ldr	r3, [r7, #4]
 1484 0014 1B88     		ldrh	r3, [r3]	@ movhi
 1485 0016 9BB2     		uxth	r3, r3
 1486 0018 43F02003 		orr	r3, r3, #32
 1487 001c 9AB2     		uxth	r2, r3
 1488 001e 7B68     		ldr	r3, [r7, #4]
 1489 0020 1A80     		strh	r2, [r3]	@ movhi
 1490 0022 07E0     		b	.L67
 1491              	.L68:
 812:/home/virusv/TDSAST_IOT/Libraries/src/stm32f10x_i2c.c ****   }
 813:/home/virusv/TDSAST_IOT/Libraries/src/stm32f10x_i2c.c ****   else
 814:/home/virusv/TDSAST_IOT/Libraries/src/stm32f10x_i2c.c ****   {
 815:/home/virusv/TDSAST_IOT/Libraries/src/stm32f10x_i2c.c ****     /* Disable the selected I2C PEC calculation */
 816:/home/virusv/TDSAST_IOT/Libraries/src/stm32f10x_i2c.c ****     I2Cx->CR1 &= CR1_ENPEC_Reset;
 1492              		.loc 1 816 0
 1493 0024 7B68     		ldr	r3, [r7, #4]
 1494 0026 1B88     		ldrh	r3, [r3]	@ movhi
 1495 0028 9BB2     		uxth	r3, r3
 1496 002a 23F02003 		bic	r3, r3, #32
 1497 002e 9AB2     		uxth	r2, r3
 1498 0030 7B68     		ldr	r3, [r7, #4]
 1499 0032 1A80     		strh	r2, [r3]	@ movhi
 1500              	.L67:
 817:/home/virusv/TDSAST_IOT/Libraries/src/stm32f10x_i2c.c ****   }
 818:/home/virusv/TDSAST_IOT/Libraries/src/stm32f10x_i2c.c **** }
 1501              		.loc 1 818 0
 1502 0034 0C37     		adds	r7, r7, #12
 1503              		.cfi_def_cfa_offset 4
 1504 0036 BD46     		mov	sp, r7
 1505              		.cfi_def_cfa_register 13
 1506              		@ sp needed
 1507 0038 5DF8047B 		ldr	r7, [sp], #4
 1508              		.cfi_restore 7
 1509              		.cfi_def_cfa_offset 0
 1510 003c 7047     		bx	lr
 1511              		.cfi_endproc
 1512              	.LFE51:
 1514 003e 00BF     		.section	.text.I2C_GetPEC,"ax",%progbits
 1515              		.align	2
 1516              		.global	I2C_GetPEC
 1517              		.thumb
 1518              		.thumb_func
 1520              	I2C_GetPEC:
 1521              	.LFB52:
 819:/home/virusv/TDSAST_IOT/Libraries/src/stm32f10x_i2c.c **** 
 820:/home/virusv/TDSAST_IOT/Libraries/src/stm32f10x_i2c.c **** /**
 821:/home/virusv/TDSAST_IOT/Libraries/src/stm32f10x_i2c.c ****   * @brief  Returns the PEC value for the specified I2C.
 822:/home/virusv/TDSAST_IOT/Libraries/src/stm32f10x_i2c.c ****   * @param  I2Cx: where x can be 1 or 2 to select the I2C peripheral.
 823:/home/virusv/TDSAST_IOT/Libraries/src/stm32f10x_i2c.c ****   * @retval The PEC value.
 824:/home/virusv/TDSAST_IOT/Libraries/src/stm32f10x_i2c.c ****   */
 825:/home/virusv/TDSAST_IOT/Libraries/src/stm32f10x_i2c.c **** uint8_t I2C_GetPEC(I2C_TypeDef* I2Cx)
 826:/home/virusv/TDSAST_IOT/Libraries/src/stm32f10x_i2c.c **** {
 1522              		.loc 1 826 0
 1523              		.cfi_startproc
 1524              		@ args = 0, pretend = 0, frame = 8
 1525              		@ frame_needed = 1, uses_anonymous_args = 0
 1526              		@ link register save eliminated.
 1527 0000 80B4     		push	{r7}
 1528              		.cfi_def_cfa_offset 4
 1529              		.cfi_offset 7, -4
 1530 0002 83B0     		sub	sp, sp, #12
 1531              		.cfi_def_cfa_offset 16
 1532 0004 00AF     		add	r7, sp, #0
 1533              		.cfi_def_cfa_register 7
 1534 0006 7860     		str	r0, [r7, #4]
 827:/home/virusv/TDSAST_IOT/Libraries/src/stm32f10x_i2c.c ****   /* Check the parameters */
 828:/home/virusv/TDSAST_IOT/Libraries/src/stm32f10x_i2c.c ****   assert_param(IS_I2C_ALL_PERIPH(I2Cx));
 829:/home/virusv/TDSAST_IOT/Libraries/src/stm32f10x_i2c.c ****   /* Return the selected I2C PEC value */
 830:/home/virusv/TDSAST_IOT/Libraries/src/stm32f10x_i2c.c ****   return ((I2Cx->SR2) >> 8);
 1535              		.loc 1 830 0
 1536 0008 7B68     		ldr	r3, [r7, #4]
 1537 000a 1B8B     		ldrh	r3, [r3, #24]	@ movhi
 1538 000c 9BB2     		uxth	r3, r3
 1539 000e 1B0A     		lsrs	r3, r3, #8
 1540 0010 9BB2     		uxth	r3, r3
 1541 0012 DBB2     		uxtb	r3, r3
 831:/home/virusv/TDSAST_IOT/Libraries/src/stm32f10x_i2c.c **** }
 1542              		.loc 1 831 0
 1543 0014 1846     		mov	r0, r3
 1544 0016 0C37     		adds	r7, r7, #12
 1545              		.cfi_def_cfa_offset 4
 1546 0018 BD46     		mov	sp, r7
 1547              		.cfi_def_cfa_register 13
 1548              		@ sp needed
 1549 001a 5DF8047B 		ldr	r7, [sp], #4
 1550              		.cfi_restore 7
 1551              		.cfi_def_cfa_offset 0
 1552 001e 7047     		bx	lr
 1553              		.cfi_endproc
 1554              	.LFE52:
 1556              		.section	.text.I2C_ARPCmd,"ax",%progbits
 1557              		.align	2
 1558              		.global	I2C_ARPCmd
 1559              		.thumb
 1560              		.thumb_func
 1562              	I2C_ARPCmd:
 1563              	.LFB53:
 832:/home/virusv/TDSAST_IOT/Libraries/src/stm32f10x_i2c.c **** 
 833:/home/virusv/TDSAST_IOT/Libraries/src/stm32f10x_i2c.c **** /**
 834:/home/virusv/TDSAST_IOT/Libraries/src/stm32f10x_i2c.c ****   * @brief  Enables or disables the specified I2C ARP.
 835:/home/virusv/TDSAST_IOT/Libraries/src/stm32f10x_i2c.c ****   * @param  I2Cx: where x can be 1 or 2 to select the I2C peripheral.
 836:/home/virusv/TDSAST_IOT/Libraries/src/stm32f10x_i2c.c ****   * @param  NewState: new state of the I2Cx ARP. 
 837:/home/virusv/TDSAST_IOT/Libraries/src/stm32f10x_i2c.c ****   *   This parameter can be: ENABLE or DISABLE.
 838:/home/virusv/TDSAST_IOT/Libraries/src/stm32f10x_i2c.c ****   * @retval None
 839:/home/virusv/TDSAST_IOT/Libraries/src/stm32f10x_i2c.c ****   */
 840:/home/virusv/TDSAST_IOT/Libraries/src/stm32f10x_i2c.c **** void I2C_ARPCmd(I2C_TypeDef* I2Cx, FunctionalState NewState)
 841:/home/virusv/TDSAST_IOT/Libraries/src/stm32f10x_i2c.c **** {
 1564              		.loc 1 841 0
 1565              		.cfi_startproc
 1566              		@ args = 0, pretend = 0, frame = 8
 1567              		@ frame_needed = 1, uses_anonymous_args = 0
 1568              		@ link register save eliminated.
 1569 0000 80B4     		push	{r7}
 1570              		.cfi_def_cfa_offset 4
 1571              		.cfi_offset 7, -4
 1572 0002 83B0     		sub	sp, sp, #12
 1573              		.cfi_def_cfa_offset 16
 1574 0004 00AF     		add	r7, sp, #0
 1575              		.cfi_def_cfa_register 7
 1576 0006 7860     		str	r0, [r7, #4]
 1577 0008 0B46     		mov	r3, r1
 1578 000a FB70     		strb	r3, [r7, #3]
 842:/home/virusv/TDSAST_IOT/Libraries/src/stm32f10x_i2c.c ****   /* Check the parameters */
 843:/home/virusv/TDSAST_IOT/Libraries/src/stm32f10x_i2c.c ****   assert_param(IS_I2C_ALL_PERIPH(I2Cx));
 844:/home/virusv/TDSAST_IOT/Libraries/src/stm32f10x_i2c.c ****   assert_param(IS_FUNCTIONAL_STATE(NewState));
 845:/home/virusv/TDSAST_IOT/Libraries/src/stm32f10x_i2c.c ****   if (NewState != DISABLE)
 1579              		.loc 1 845 0
 1580 000c FB78     		ldrb	r3, [r7, #3]	@ zero_extendqisi2
 1581 000e 002B     		cmp	r3, #0
 1582 0010 08D0     		beq	.L73
 846:/home/virusv/TDSAST_IOT/Libraries/src/stm32f10x_i2c.c ****   {
 847:/home/virusv/TDSAST_IOT/Libraries/src/stm32f10x_i2c.c ****     /* Enable the selected I2C ARP */
 848:/home/virusv/TDSAST_IOT/Libraries/src/stm32f10x_i2c.c ****     I2Cx->CR1 |= CR1_ENARP_Set;
 1583              		.loc 1 848 0
 1584 0012 7B68     		ldr	r3, [r7, #4]
 1585 0014 1B88     		ldrh	r3, [r3]	@ movhi
 1586 0016 9BB2     		uxth	r3, r3
 1587 0018 43F01003 		orr	r3, r3, #16
 1588 001c 9AB2     		uxth	r2, r3
 1589 001e 7B68     		ldr	r3, [r7, #4]
 1590 0020 1A80     		strh	r2, [r3]	@ movhi
 1591 0022 07E0     		b	.L72
 1592              	.L73:
 849:/home/virusv/TDSAST_IOT/Libraries/src/stm32f10x_i2c.c ****   }
 850:/home/virusv/TDSAST_IOT/Libraries/src/stm32f10x_i2c.c ****   else
 851:/home/virusv/TDSAST_IOT/Libraries/src/stm32f10x_i2c.c ****   {
 852:/home/virusv/TDSAST_IOT/Libraries/src/stm32f10x_i2c.c ****     /* Disable the selected I2C ARP */
 853:/home/virusv/TDSAST_IOT/Libraries/src/stm32f10x_i2c.c ****     I2Cx->CR1 &= CR1_ENARP_Reset;
 1593              		.loc 1 853 0
 1594 0024 7B68     		ldr	r3, [r7, #4]
 1595 0026 1B88     		ldrh	r3, [r3]	@ movhi
 1596 0028 9BB2     		uxth	r3, r3
 1597 002a 23F01003 		bic	r3, r3, #16
 1598 002e 9AB2     		uxth	r2, r3
 1599 0030 7B68     		ldr	r3, [r7, #4]
 1600 0032 1A80     		strh	r2, [r3]	@ movhi
 1601              	.L72:
 854:/home/virusv/TDSAST_IOT/Libraries/src/stm32f10x_i2c.c ****   }
 855:/home/virusv/TDSAST_IOT/Libraries/src/stm32f10x_i2c.c **** }
 1602              		.loc 1 855 0
 1603 0034 0C37     		adds	r7, r7, #12
 1604              		.cfi_def_cfa_offset 4
 1605 0036 BD46     		mov	sp, r7
 1606              		.cfi_def_cfa_register 13
 1607              		@ sp needed
 1608 0038 5DF8047B 		ldr	r7, [sp], #4
 1609              		.cfi_restore 7
 1610              		.cfi_def_cfa_offset 0
 1611 003c 7047     		bx	lr
 1612              		.cfi_endproc
 1613              	.LFE53:
 1615 003e 00BF     		.section	.text.I2C_StretchClockCmd,"ax",%progbits
 1616              		.align	2
 1617              		.global	I2C_StretchClockCmd
 1618              		.thumb
 1619              		.thumb_func
 1621              	I2C_StretchClockCmd:
 1622              	.LFB54:
 856:/home/virusv/TDSAST_IOT/Libraries/src/stm32f10x_i2c.c **** 
 857:/home/virusv/TDSAST_IOT/Libraries/src/stm32f10x_i2c.c **** /**
 858:/home/virusv/TDSAST_IOT/Libraries/src/stm32f10x_i2c.c ****   * @brief  Enables or disables the specified I2C Clock stretching.
 859:/home/virusv/TDSAST_IOT/Libraries/src/stm32f10x_i2c.c ****   * @param  I2Cx: where x can be 1 or 2 to select the I2C peripheral.
 860:/home/virusv/TDSAST_IOT/Libraries/src/stm32f10x_i2c.c ****   * @param  NewState: new state of the I2Cx Clock stretching.
 861:/home/virusv/TDSAST_IOT/Libraries/src/stm32f10x_i2c.c ****   *   This parameter can be: ENABLE or DISABLE.
 862:/home/virusv/TDSAST_IOT/Libraries/src/stm32f10x_i2c.c ****   * @retval None
 863:/home/virusv/TDSAST_IOT/Libraries/src/stm32f10x_i2c.c ****   */
 864:/home/virusv/TDSAST_IOT/Libraries/src/stm32f10x_i2c.c **** void I2C_StretchClockCmd(I2C_TypeDef* I2Cx, FunctionalState NewState)
 865:/home/virusv/TDSAST_IOT/Libraries/src/stm32f10x_i2c.c **** {
 1623              		.loc 1 865 0
 1624              		.cfi_startproc
 1625              		@ args = 0, pretend = 0, frame = 8
 1626              		@ frame_needed = 1, uses_anonymous_args = 0
 1627              		@ link register save eliminated.
 1628 0000 80B4     		push	{r7}
 1629              		.cfi_def_cfa_offset 4
 1630              		.cfi_offset 7, -4
 1631 0002 83B0     		sub	sp, sp, #12
 1632              		.cfi_def_cfa_offset 16
 1633 0004 00AF     		add	r7, sp, #0
 1634              		.cfi_def_cfa_register 7
 1635 0006 7860     		str	r0, [r7, #4]
 1636 0008 0B46     		mov	r3, r1
 1637 000a FB70     		strb	r3, [r7, #3]
 866:/home/virusv/TDSAST_IOT/Libraries/src/stm32f10x_i2c.c ****   /* Check the parameters */
 867:/home/virusv/TDSAST_IOT/Libraries/src/stm32f10x_i2c.c ****   assert_param(IS_I2C_ALL_PERIPH(I2Cx));
 868:/home/virusv/TDSAST_IOT/Libraries/src/stm32f10x_i2c.c ****   assert_param(IS_FUNCTIONAL_STATE(NewState));
 869:/home/virusv/TDSAST_IOT/Libraries/src/stm32f10x_i2c.c ****   if (NewState == DISABLE)
 1638              		.loc 1 869 0
 1639 000c FB78     		ldrb	r3, [r7, #3]	@ zero_extendqisi2
 1640 000e 002B     		cmp	r3, #0
 1641 0010 08D1     		bne	.L76
 870:/home/virusv/TDSAST_IOT/Libraries/src/stm32f10x_i2c.c ****   {
 871:/home/virusv/TDSAST_IOT/Libraries/src/stm32f10x_i2c.c ****     /* Enable the selected I2C Clock stretching */
 872:/home/virusv/TDSAST_IOT/Libraries/src/stm32f10x_i2c.c ****     I2Cx->CR1 |= CR1_NOSTRETCH_Set;
 1642              		.loc 1 872 0
 1643 0012 7B68     		ldr	r3, [r7, #4]
 1644 0014 1B88     		ldrh	r3, [r3]	@ movhi
 1645 0016 9BB2     		uxth	r3, r3
 1646 0018 43F08003 		orr	r3, r3, #128
 1647 001c 9AB2     		uxth	r2, r3
 1648 001e 7B68     		ldr	r3, [r7, #4]
 1649 0020 1A80     		strh	r2, [r3]	@ movhi
 1650 0022 07E0     		b	.L75
 1651              	.L76:
 873:/home/virusv/TDSAST_IOT/Libraries/src/stm32f10x_i2c.c ****   }
 874:/home/virusv/TDSAST_IOT/Libraries/src/stm32f10x_i2c.c ****   else
 875:/home/virusv/TDSAST_IOT/Libraries/src/stm32f10x_i2c.c ****   {
 876:/home/virusv/TDSAST_IOT/Libraries/src/stm32f10x_i2c.c ****     /* Disable the selected I2C Clock stretching */
 877:/home/virusv/TDSAST_IOT/Libraries/src/stm32f10x_i2c.c ****     I2Cx->CR1 &= CR1_NOSTRETCH_Reset;
 1652              		.loc 1 877 0
 1653 0024 7B68     		ldr	r3, [r7, #4]
 1654 0026 1B88     		ldrh	r3, [r3]	@ movhi
 1655 0028 9BB2     		uxth	r3, r3
 1656 002a 23F08003 		bic	r3, r3, #128
 1657 002e 9AB2     		uxth	r2, r3
 1658 0030 7B68     		ldr	r3, [r7, #4]
 1659 0032 1A80     		strh	r2, [r3]	@ movhi
 1660              	.L75:
 878:/home/virusv/TDSAST_IOT/Libraries/src/stm32f10x_i2c.c ****   }
 879:/home/virusv/TDSAST_IOT/Libraries/src/stm32f10x_i2c.c **** }
 1661              		.loc 1 879 0
 1662 0034 0C37     		adds	r7, r7, #12
 1663              		.cfi_def_cfa_offset 4
 1664 0036 BD46     		mov	sp, r7
 1665              		.cfi_def_cfa_register 13
 1666              		@ sp needed
 1667 0038 5DF8047B 		ldr	r7, [sp], #4
 1668              		.cfi_restore 7
 1669              		.cfi_def_cfa_offset 0
 1670 003c 7047     		bx	lr
 1671              		.cfi_endproc
 1672              	.LFE54:
 1674 003e 00BF     		.section	.text.I2C_FastModeDutyCycleConfig,"ax",%progbits
 1675              		.align	2
 1676              		.global	I2C_FastModeDutyCycleConfig
 1677              		.thumb
 1678              		.thumb_func
 1680              	I2C_FastModeDutyCycleConfig:
 1681              	.LFB55:
 880:/home/virusv/TDSAST_IOT/Libraries/src/stm32f10x_i2c.c **** 
 881:/home/virusv/TDSAST_IOT/Libraries/src/stm32f10x_i2c.c **** /**
 882:/home/virusv/TDSAST_IOT/Libraries/src/stm32f10x_i2c.c ****   * @brief  Selects the specified I2C fast mode duty cycle.
 883:/home/virusv/TDSAST_IOT/Libraries/src/stm32f10x_i2c.c ****   * @param  I2Cx: where x can be 1 or 2 to select the I2C peripheral.
 884:/home/virusv/TDSAST_IOT/Libraries/src/stm32f10x_i2c.c ****   * @param  I2C_DutyCycle: specifies the fast mode duty cycle.
 885:/home/virusv/TDSAST_IOT/Libraries/src/stm32f10x_i2c.c ****   *   This parameter can be one of the following values:
 886:/home/virusv/TDSAST_IOT/Libraries/src/stm32f10x_i2c.c ****   *     @arg I2C_DutyCycle_2: I2C fast mode Tlow/Thigh = 2
 887:/home/virusv/TDSAST_IOT/Libraries/src/stm32f10x_i2c.c ****   *     @arg I2C_DutyCycle_16_9: I2C fast mode Tlow/Thigh = 16/9
 888:/home/virusv/TDSAST_IOT/Libraries/src/stm32f10x_i2c.c ****   * @retval None
 889:/home/virusv/TDSAST_IOT/Libraries/src/stm32f10x_i2c.c ****   */
 890:/home/virusv/TDSAST_IOT/Libraries/src/stm32f10x_i2c.c **** void I2C_FastModeDutyCycleConfig(I2C_TypeDef* I2Cx, uint16_t I2C_DutyCycle)
 891:/home/virusv/TDSAST_IOT/Libraries/src/stm32f10x_i2c.c **** {
 1682              		.loc 1 891 0
 1683              		.cfi_startproc
 1684              		@ args = 0, pretend = 0, frame = 8
 1685              		@ frame_needed = 1, uses_anonymous_args = 0
 1686              		@ link register save eliminated.
 1687 0000 80B4     		push	{r7}
 1688              		.cfi_def_cfa_offset 4
 1689              		.cfi_offset 7, -4
 1690 0002 83B0     		sub	sp, sp, #12
 1691              		.cfi_def_cfa_offset 16
 1692 0004 00AF     		add	r7, sp, #0
 1693              		.cfi_def_cfa_register 7
 1694 0006 7860     		str	r0, [r7, #4]
 1695 0008 0B46     		mov	r3, r1
 1696 000a 7B80     		strh	r3, [r7, #2]	@ movhi
 892:/home/virusv/TDSAST_IOT/Libraries/src/stm32f10x_i2c.c ****   /* Check the parameters */
 893:/home/virusv/TDSAST_IOT/Libraries/src/stm32f10x_i2c.c ****   assert_param(IS_I2C_ALL_PERIPH(I2Cx));
 894:/home/virusv/TDSAST_IOT/Libraries/src/stm32f10x_i2c.c ****   assert_param(IS_I2C_DUTY_CYCLE(I2C_DutyCycle));
 895:/home/virusv/TDSAST_IOT/Libraries/src/stm32f10x_i2c.c ****   if (I2C_DutyCycle != I2C_DutyCycle_16_9)
 1697              		.loc 1 895 0
 1698 000c 7B88     		ldrh	r3, [r7, #2]
 1699 000e B3F5804F 		cmp	r3, #16384
 1700 0012 08D0     		beq	.L79
 896:/home/virusv/TDSAST_IOT/Libraries/src/stm32f10x_i2c.c ****   {
 897:/home/virusv/TDSAST_IOT/Libraries/src/stm32f10x_i2c.c ****     /* I2C fast mode Tlow/Thigh=2 */
 898:/home/virusv/TDSAST_IOT/Libraries/src/stm32f10x_i2c.c ****     I2Cx->CCR &= I2C_DutyCycle_2;
 1701              		.loc 1 898 0
 1702 0014 7B68     		ldr	r3, [r7, #4]
 1703 0016 9B8B     		ldrh	r3, [r3, #28]	@ movhi
 1704 0018 9BB2     		uxth	r3, r3
 1705 001a 23F48043 		bic	r3, r3, #16384
 1706 001e 9AB2     		uxth	r2, r3
 1707 0020 7B68     		ldr	r3, [r7, #4]
 1708 0022 9A83     		strh	r2, [r3, #28]	@ movhi
 1709 0024 07E0     		b	.L78
 1710              	.L79:
 899:/home/virusv/TDSAST_IOT/Libraries/src/stm32f10x_i2c.c ****   }
 900:/home/virusv/TDSAST_IOT/Libraries/src/stm32f10x_i2c.c ****   else
 901:/home/virusv/TDSAST_IOT/Libraries/src/stm32f10x_i2c.c ****   {
 902:/home/virusv/TDSAST_IOT/Libraries/src/stm32f10x_i2c.c ****     /* I2C fast mode Tlow/Thigh=16/9 */
 903:/home/virusv/TDSAST_IOT/Libraries/src/stm32f10x_i2c.c ****     I2Cx->CCR |= I2C_DutyCycle_16_9;
 1711              		.loc 1 903 0
 1712 0026 7B68     		ldr	r3, [r7, #4]
 1713 0028 9B8B     		ldrh	r3, [r3, #28]	@ movhi
 1714 002a 9BB2     		uxth	r3, r3
 1715 002c 43F48043 		orr	r3, r3, #16384
 1716 0030 9AB2     		uxth	r2, r3
 1717 0032 7B68     		ldr	r3, [r7, #4]
 1718 0034 9A83     		strh	r2, [r3, #28]	@ movhi
 1719              	.L78:
 904:/home/virusv/TDSAST_IOT/Libraries/src/stm32f10x_i2c.c ****   }
 905:/home/virusv/TDSAST_IOT/Libraries/src/stm32f10x_i2c.c **** }
 1720              		.loc 1 905 0
 1721 0036 0C37     		adds	r7, r7, #12
 1722              		.cfi_def_cfa_offset 4
 1723 0038 BD46     		mov	sp, r7
 1724              		.cfi_def_cfa_register 13
 1725              		@ sp needed
 1726 003a 5DF8047B 		ldr	r7, [sp], #4
 1727              		.cfi_restore 7
 1728              		.cfi_def_cfa_offset 0
 1729 003e 7047     		bx	lr
 1730              		.cfi_endproc
 1731              	.LFE55:
 1733              		.section	.text.I2C_CheckEvent,"ax",%progbits
 1734              		.align	2
 1735              		.global	I2C_CheckEvent
 1736              		.thumb
 1737              		.thumb_func
 1739              	I2C_CheckEvent:
 1740              	.LFB56:
 906:/home/virusv/TDSAST_IOT/Libraries/src/stm32f10x_i2c.c **** 
 907:/home/virusv/TDSAST_IOT/Libraries/src/stm32f10x_i2c.c **** 
 908:/home/virusv/TDSAST_IOT/Libraries/src/stm32f10x_i2c.c **** 
 909:/home/virusv/TDSAST_IOT/Libraries/src/stm32f10x_i2c.c **** /**
 910:/home/virusv/TDSAST_IOT/Libraries/src/stm32f10x_i2c.c ****  * @brief
 911:/home/virusv/TDSAST_IOT/Libraries/src/stm32f10x_i2c.c ****  ****************************************************************************************
 912:/home/virusv/TDSAST_IOT/Libraries/src/stm32f10x_i2c.c ****  *
 913:/home/virusv/TDSAST_IOT/Libraries/src/stm32f10x_i2c.c ****  *                         I2C State Monitoring Functions
 914:/home/virusv/TDSAST_IOT/Libraries/src/stm32f10x_i2c.c ****  *                       
 915:/home/virusv/TDSAST_IOT/Libraries/src/stm32f10x_i2c.c ****  ****************************************************************************************   
 916:/home/virusv/TDSAST_IOT/Libraries/src/stm32f10x_i2c.c ****  * This I2C driver provides three different ways for I2C state monitoring
 917:/home/virusv/TDSAST_IOT/Libraries/src/stm32f10x_i2c.c ****  *  depending on the application requirements and constraints:
 918:/home/virusv/TDSAST_IOT/Libraries/src/stm32f10x_i2c.c ****  *        
 919:/home/virusv/TDSAST_IOT/Libraries/src/stm32f10x_i2c.c ****  *  
 920:/home/virusv/TDSAST_IOT/Libraries/src/stm32f10x_i2c.c ****  * 1) Basic state monitoring:
 921:/home/virusv/TDSAST_IOT/Libraries/src/stm32f10x_i2c.c ****  *    Using I2C_CheckEvent() function:
 922:/home/virusv/TDSAST_IOT/Libraries/src/stm32f10x_i2c.c ****  *    It compares the status registers (SR1 and SR2) content to a given event
 923:/home/virusv/TDSAST_IOT/Libraries/src/stm32f10x_i2c.c ****  *    (can be the combination of one or more flags).
 924:/home/virusv/TDSAST_IOT/Libraries/src/stm32f10x_i2c.c ****  *    It returns SUCCESS if the current status includes the given flags 
 925:/home/virusv/TDSAST_IOT/Libraries/src/stm32f10x_i2c.c ****  *    and returns ERROR if one or more flags are missing in the current status.
 926:/home/virusv/TDSAST_IOT/Libraries/src/stm32f10x_i2c.c ****  *    - When to use:
 927:/home/virusv/TDSAST_IOT/Libraries/src/stm32f10x_i2c.c ****  *      - This function is suitable for most applications as well as for startup 
 928:/home/virusv/TDSAST_IOT/Libraries/src/stm32f10x_i2c.c ****  *      activity since the events are fully described in the product reference manual 
 929:/home/virusv/TDSAST_IOT/Libraries/src/stm32f10x_i2c.c ****  *      (RM0008).
 930:/home/virusv/TDSAST_IOT/Libraries/src/stm32f10x_i2c.c ****  *      - It is also suitable for users who need to define their own events.
 931:/home/virusv/TDSAST_IOT/Libraries/src/stm32f10x_i2c.c ****  *    - Limitations:
 932:/home/virusv/TDSAST_IOT/Libraries/src/stm32f10x_i2c.c ****  *      - If an error occurs (ie. error flags are set besides to the monitored flags),
 933:/home/virusv/TDSAST_IOT/Libraries/src/stm32f10x_i2c.c ****  *        the I2C_CheckEvent() function may return SUCCESS despite the communication
 934:/home/virusv/TDSAST_IOT/Libraries/src/stm32f10x_i2c.c ****  *        hold or corrupted real state. 
 935:/home/virusv/TDSAST_IOT/Libraries/src/stm32f10x_i2c.c ****  *        In this case, it is advised to use error interrupts to monitor the error
 936:/home/virusv/TDSAST_IOT/Libraries/src/stm32f10x_i2c.c ****  *        events and handle them in the interrupt IRQ handler.
 937:/home/virusv/TDSAST_IOT/Libraries/src/stm32f10x_i2c.c ****  *        
 938:/home/virusv/TDSAST_IOT/Libraries/src/stm32f10x_i2c.c ****  *        @note 
 939:/home/virusv/TDSAST_IOT/Libraries/src/stm32f10x_i2c.c ****  *        For error management, it is advised to use the following functions:
 940:/home/virusv/TDSAST_IOT/Libraries/src/stm32f10x_i2c.c ****  *          - I2C_ITConfig() to configure and enable the error interrupts (I2C_IT_ERR).
 941:/home/virusv/TDSAST_IOT/Libraries/src/stm32f10x_i2c.c ****  *          - I2Cx_ER_IRQHandler() which is called when the error interrupt occurs.
 942:/home/virusv/TDSAST_IOT/Libraries/src/stm32f10x_i2c.c ****  *            Where x is the peripheral instance (I2C1, I2C2 ...)
 943:/home/virusv/TDSAST_IOT/Libraries/src/stm32f10x_i2c.c ****  *          - I2C_GetFlagStatus() or I2C_GetITStatus() to be called into I2Cx_ER_IRQHandler() 
 944:/home/virusv/TDSAST_IOT/Libraries/src/stm32f10x_i2c.c ****  *            in order to determine which error occured.
 945:/home/virusv/TDSAST_IOT/Libraries/src/stm32f10x_i2c.c ****  *          - I2C_ClearFlag() or I2C_ClearITPendingBit() and/or I2C_SoftwareResetCmd()
 946:/home/virusv/TDSAST_IOT/Libraries/src/stm32f10x_i2c.c ****  *            and/or I2C_GenerateStop() in order to clear the error flag and source,
 947:/home/virusv/TDSAST_IOT/Libraries/src/stm32f10x_i2c.c ****  *            and return to correct communication status.
 948:/home/virusv/TDSAST_IOT/Libraries/src/stm32f10x_i2c.c ****  *            
 949:/home/virusv/TDSAST_IOT/Libraries/src/stm32f10x_i2c.c ****  *
 950:/home/virusv/TDSAST_IOT/Libraries/src/stm32f10x_i2c.c ****  *  2) Advanced state monitoring:
 951:/home/virusv/TDSAST_IOT/Libraries/src/stm32f10x_i2c.c ****  *     Using the function I2C_GetLastEvent() which returns the image of both status 
 952:/home/virusv/TDSAST_IOT/Libraries/src/stm32f10x_i2c.c ****  *     registers in a single word (uint32_t) (Status Register 2 value is shifted left 
 953:/home/virusv/TDSAST_IOT/Libraries/src/stm32f10x_i2c.c ****  *     by 16 bits and concatenated to Status Register 1).
 954:/home/virusv/TDSAST_IOT/Libraries/src/stm32f10x_i2c.c ****  *     - When to use:
 955:/home/virusv/TDSAST_IOT/Libraries/src/stm32f10x_i2c.c ****  *       - This function is suitable for the same applications above but it allows to
 956:/home/virusv/TDSAST_IOT/Libraries/src/stm32f10x_i2c.c ****  *         overcome the mentioned limitation of I2C_GetFlagStatus() function.
 957:/home/virusv/TDSAST_IOT/Libraries/src/stm32f10x_i2c.c ****  *         The returned value could be compared to events already defined in the 
 958:/home/virusv/TDSAST_IOT/Libraries/src/stm32f10x_i2c.c ****  *         library (stm32f10x_i2c.h) or to custom values defined by user.
 959:/home/virusv/TDSAST_IOT/Libraries/src/stm32f10x_i2c.c ****  *       - This function is suitable when multiple flags are monitored at the same time.
 960:/home/virusv/TDSAST_IOT/Libraries/src/stm32f10x_i2c.c ****  *       - At the opposite of I2C_CheckEvent() function, this function allows user to
 961:/home/virusv/TDSAST_IOT/Libraries/src/stm32f10x_i2c.c ****  *         choose when an event is accepted (when all events flags are set and no 
 962:/home/virusv/TDSAST_IOT/Libraries/src/stm32f10x_i2c.c ****  *         other flags are set or just when the needed flags are set like 
 963:/home/virusv/TDSAST_IOT/Libraries/src/stm32f10x_i2c.c ****  *         I2C_CheckEvent() function).
 964:/home/virusv/TDSAST_IOT/Libraries/src/stm32f10x_i2c.c ****  *     - Limitations:
 965:/home/virusv/TDSAST_IOT/Libraries/src/stm32f10x_i2c.c ****  *       - User may need to define his own events.
 966:/home/virusv/TDSAST_IOT/Libraries/src/stm32f10x_i2c.c ****  *       - Same remark concerning the error management is applicable for this 
 967:/home/virusv/TDSAST_IOT/Libraries/src/stm32f10x_i2c.c ****  *         function if user decides to check only regular communication flags (and 
 968:/home/virusv/TDSAST_IOT/Libraries/src/stm32f10x_i2c.c ****  *         ignores error flags).
 969:/home/virusv/TDSAST_IOT/Libraries/src/stm32f10x_i2c.c ****  *     
 970:/home/virusv/TDSAST_IOT/Libraries/src/stm32f10x_i2c.c ****  *
 971:/home/virusv/TDSAST_IOT/Libraries/src/stm32f10x_i2c.c ****  *  3) Flag-based state monitoring:
 972:/home/virusv/TDSAST_IOT/Libraries/src/stm32f10x_i2c.c ****  *     Using the function I2C_GetFlagStatus() which simply returns the status of 
 973:/home/virusv/TDSAST_IOT/Libraries/src/stm32f10x_i2c.c ****  *     one single flag (ie. I2C_FLAG_RXNE ...). 
 974:/home/virusv/TDSAST_IOT/Libraries/src/stm32f10x_i2c.c ****  *     - When to use:
 975:/home/virusv/TDSAST_IOT/Libraries/src/stm32f10x_i2c.c ****  *        - This function could be used for specific applications or in debug phase.
 976:/home/virusv/TDSAST_IOT/Libraries/src/stm32f10x_i2c.c ****  *        - It is suitable when only one flag checking is needed (most I2C events 
 977:/home/virusv/TDSAST_IOT/Libraries/src/stm32f10x_i2c.c ****  *          are monitored through multiple flags).
 978:/home/virusv/TDSAST_IOT/Libraries/src/stm32f10x_i2c.c ****  *     - Limitations: 
 979:/home/virusv/TDSAST_IOT/Libraries/src/stm32f10x_i2c.c ****  *        - When calling this function, the Status register is accessed. Some flags are
 980:/home/virusv/TDSAST_IOT/Libraries/src/stm32f10x_i2c.c ****  *          cleared when the status register is accessed. So checking the status
 981:/home/virusv/TDSAST_IOT/Libraries/src/stm32f10x_i2c.c ****  *          of one Flag, may clear other ones.
 982:/home/virusv/TDSAST_IOT/Libraries/src/stm32f10x_i2c.c ****  *        - Function may need to be called twice or more in order to monitor one 
 983:/home/virusv/TDSAST_IOT/Libraries/src/stm32f10x_i2c.c ****  *          single event.
 984:/home/virusv/TDSAST_IOT/Libraries/src/stm32f10x_i2c.c ****  *
 985:/home/virusv/TDSAST_IOT/Libraries/src/stm32f10x_i2c.c ****  *  For detailed description of Events, please refer to section I2C_Events in 
 986:/home/virusv/TDSAST_IOT/Libraries/src/stm32f10x_i2c.c ****  *  stm32f10x_i2c.h file.
 987:/home/virusv/TDSAST_IOT/Libraries/src/stm32f10x_i2c.c ****  *  
 988:/home/virusv/TDSAST_IOT/Libraries/src/stm32f10x_i2c.c ****  */
 989:/home/virusv/TDSAST_IOT/Libraries/src/stm32f10x_i2c.c **** 
 990:/home/virusv/TDSAST_IOT/Libraries/src/stm32f10x_i2c.c **** /**
 991:/home/virusv/TDSAST_IOT/Libraries/src/stm32f10x_i2c.c ****  * 
 992:/home/virusv/TDSAST_IOT/Libraries/src/stm32f10x_i2c.c ****  *  1) Basic state monitoring
 993:/home/virusv/TDSAST_IOT/Libraries/src/stm32f10x_i2c.c ****  *******************************************************************************
 994:/home/virusv/TDSAST_IOT/Libraries/src/stm32f10x_i2c.c ****  */
 995:/home/virusv/TDSAST_IOT/Libraries/src/stm32f10x_i2c.c **** 
 996:/home/virusv/TDSAST_IOT/Libraries/src/stm32f10x_i2c.c **** /**
 997:/home/virusv/TDSAST_IOT/Libraries/src/stm32f10x_i2c.c ****   * @brief  Checks whether the last I2Cx Event is equal to the one passed
 998:/home/virusv/TDSAST_IOT/Libraries/src/stm32f10x_i2c.c ****   *   as parameter.
 999:/home/virusv/TDSAST_IOT/Libraries/src/stm32f10x_i2c.c ****   * @param  I2Cx: where x can be 1 or 2 to select the I2C peripheral.
1000:/home/virusv/TDSAST_IOT/Libraries/src/stm32f10x_i2c.c ****   * @param  I2C_EVENT: specifies the event to be checked. 
1001:/home/virusv/TDSAST_IOT/Libraries/src/stm32f10x_i2c.c ****   *   This parameter can be one of the following values:
1002:/home/virusv/TDSAST_IOT/Libraries/src/stm32f10x_i2c.c ****   *     @arg I2C_EVENT_SLAVE_TRANSMITTER_ADDRESS_MATCHED           : EV1
1003:/home/virusv/TDSAST_IOT/Libraries/src/stm32f10x_i2c.c ****   *     @arg I2C_EVENT_SLAVE_RECEIVER_ADDRESS_MATCHED              : EV1
1004:/home/virusv/TDSAST_IOT/Libraries/src/stm32f10x_i2c.c ****   *     @arg I2C_EVENT_SLAVE_TRANSMITTER_SECONDADDRESS_MATCHED     : EV1
1005:/home/virusv/TDSAST_IOT/Libraries/src/stm32f10x_i2c.c ****   *     @arg I2C_EVENT_SLAVE_RECEIVER_SECONDADDRESS_MATCHED        : EV1
1006:/home/virusv/TDSAST_IOT/Libraries/src/stm32f10x_i2c.c ****   *     @arg I2C_EVENT_SLAVE_GENERALCALLADDRESS_MATCHED            : EV1
1007:/home/virusv/TDSAST_IOT/Libraries/src/stm32f10x_i2c.c ****   *     @arg I2C_EVENT_SLAVE_BYTE_RECEIVED                         : EV2
1008:/home/virusv/TDSAST_IOT/Libraries/src/stm32f10x_i2c.c ****   *     @arg (I2C_EVENT_SLAVE_BYTE_RECEIVED | I2C_FLAG_DUALF)      : EV2
1009:/home/virusv/TDSAST_IOT/Libraries/src/stm32f10x_i2c.c ****   *     @arg (I2C_EVENT_SLAVE_BYTE_RECEIVED | I2C_FLAG_GENCALL)    : EV2
1010:/home/virusv/TDSAST_IOT/Libraries/src/stm32f10x_i2c.c ****   *     @arg I2C_EVENT_SLAVE_BYTE_TRANSMITTED                      : EV3
1011:/home/virusv/TDSAST_IOT/Libraries/src/stm32f10x_i2c.c ****   *     @arg (I2C_EVENT_SLAVE_BYTE_TRANSMITTED | I2C_FLAG_DUALF)   : EV3
1012:/home/virusv/TDSAST_IOT/Libraries/src/stm32f10x_i2c.c ****   *     @arg (I2C_EVENT_SLAVE_BYTE_TRANSMITTED | I2C_FLAG_GENCALL) : EV3
1013:/home/virusv/TDSAST_IOT/Libraries/src/stm32f10x_i2c.c ****   *     @arg I2C_EVENT_SLAVE_ACK_FAILURE                           : EV3_2
1014:/home/virusv/TDSAST_IOT/Libraries/src/stm32f10x_i2c.c ****   *     @arg I2C_EVENT_SLAVE_STOP_DETECTED                         : EV4
1015:/home/virusv/TDSAST_IOT/Libraries/src/stm32f10x_i2c.c ****   *     @arg I2C_EVENT_MASTER_MODE_SELECT                          : EV5
1016:/home/virusv/TDSAST_IOT/Libraries/src/stm32f10x_i2c.c ****   *     @arg I2C_EVENT_MASTER_TRANSMITTER_MODE_SELECTED            : EV6     
1017:/home/virusv/TDSAST_IOT/Libraries/src/stm32f10x_i2c.c ****   *     @arg I2C_EVENT_MASTER_RECEIVER_MODE_SELECTED               : EV6
1018:/home/virusv/TDSAST_IOT/Libraries/src/stm32f10x_i2c.c ****   *     @arg I2C_EVENT_MASTER_BYTE_RECEIVED                        : EV7
1019:/home/virusv/TDSAST_IOT/Libraries/src/stm32f10x_i2c.c ****   *     @arg I2C_EVENT_MASTER_BYTE_TRANSMITTING                    : EV8
1020:/home/virusv/TDSAST_IOT/Libraries/src/stm32f10x_i2c.c ****   *     @arg I2C_EVENT_MASTER_BYTE_TRANSMITTED                     : EV8_2
1021:/home/virusv/TDSAST_IOT/Libraries/src/stm32f10x_i2c.c ****   *     @arg I2C_EVENT_MASTER_MODE_ADDRESS10                       : EV9
1022:/home/virusv/TDSAST_IOT/Libraries/src/stm32f10x_i2c.c ****   *     
1023:/home/virusv/TDSAST_IOT/Libraries/src/stm32f10x_i2c.c ****   * @note: For detailed description of Events, please refer to section 
1024:/home/virusv/TDSAST_IOT/Libraries/src/stm32f10x_i2c.c ****   *    I2C_Events in stm32f10x_i2c.h file.
1025:/home/virusv/TDSAST_IOT/Libraries/src/stm32f10x_i2c.c ****   *    
1026:/home/virusv/TDSAST_IOT/Libraries/src/stm32f10x_i2c.c ****   * @retval An ErrorStatus enumeration value:
1027:/home/virusv/TDSAST_IOT/Libraries/src/stm32f10x_i2c.c ****   * - SUCCESS: Last event is equal to the I2C_EVENT
1028:/home/virusv/TDSAST_IOT/Libraries/src/stm32f10x_i2c.c ****   * - ERROR: Last event is different from the I2C_EVENT
1029:/home/virusv/TDSAST_IOT/Libraries/src/stm32f10x_i2c.c ****   */
1030:/home/virusv/TDSAST_IOT/Libraries/src/stm32f10x_i2c.c **** ErrorStatus I2C_CheckEvent(I2C_TypeDef* I2Cx, uint32_t I2C_EVENT)
1031:/home/virusv/TDSAST_IOT/Libraries/src/stm32f10x_i2c.c **** {
 1741              		.loc 1 1031 0
 1742              		.cfi_startproc
 1743              		@ args = 0, pretend = 0, frame = 24
 1744              		@ frame_needed = 1, uses_anonymous_args = 0
 1745              		@ link register save eliminated.
 1746 0000 80B4     		push	{r7}
 1747              		.cfi_def_cfa_offset 4
 1748              		.cfi_offset 7, -4
 1749 0002 87B0     		sub	sp, sp, #28
 1750              		.cfi_def_cfa_offset 32
 1751 0004 00AF     		add	r7, sp, #0
 1752              		.cfi_def_cfa_register 7
 1753 0006 7860     		str	r0, [r7, #4]
 1754 0008 3960     		str	r1, [r7]
1032:/home/virusv/TDSAST_IOT/Libraries/src/stm32f10x_i2c.c ****   uint32_t lastevent = 0;
 1755              		.loc 1 1032 0
 1756 000a 0023     		movs	r3, #0
 1757 000c 3B61     		str	r3, [r7, #16]
1033:/home/virusv/TDSAST_IOT/Libraries/src/stm32f10x_i2c.c ****   uint32_t flag1 = 0, flag2 = 0;
 1758              		.loc 1 1033 0
 1759 000e 0023     		movs	r3, #0
 1760 0010 FB60     		str	r3, [r7, #12]
 1761 0012 0023     		movs	r3, #0
 1762 0014 BB60     		str	r3, [r7, #8]
1034:/home/virusv/TDSAST_IOT/Libraries/src/stm32f10x_i2c.c ****   ErrorStatus status = ERROR;
 1763              		.loc 1 1034 0
 1764 0016 0023     		movs	r3, #0
 1765 0018 FB75     		strb	r3, [r7, #23]
1035:/home/virusv/TDSAST_IOT/Libraries/src/stm32f10x_i2c.c **** 
1036:/home/virusv/TDSAST_IOT/Libraries/src/stm32f10x_i2c.c ****   /* Check the parameters */
1037:/home/virusv/TDSAST_IOT/Libraries/src/stm32f10x_i2c.c ****   assert_param(IS_I2C_ALL_PERIPH(I2Cx));
1038:/home/virusv/TDSAST_IOT/Libraries/src/stm32f10x_i2c.c ****   assert_param(IS_I2C_EVENT(I2C_EVENT));
1039:/home/virusv/TDSAST_IOT/Libraries/src/stm32f10x_i2c.c **** 
1040:/home/virusv/TDSAST_IOT/Libraries/src/stm32f10x_i2c.c ****   /* Read the I2Cx status register */
1041:/home/virusv/TDSAST_IOT/Libraries/src/stm32f10x_i2c.c ****   flag1 = I2Cx->SR1;
 1766              		.loc 1 1041 0
 1767 001a 7B68     		ldr	r3, [r7, #4]
 1768 001c 9B8A     		ldrh	r3, [r3, #20]	@ movhi
 1769 001e 9BB2     		uxth	r3, r3
 1770 0020 FB60     		str	r3, [r7, #12]
1042:/home/virusv/TDSAST_IOT/Libraries/src/stm32f10x_i2c.c ****   flag2 = I2Cx->SR2;
 1771              		.loc 1 1042 0
 1772 0022 7B68     		ldr	r3, [r7, #4]
 1773 0024 1B8B     		ldrh	r3, [r3, #24]	@ movhi
 1774 0026 9BB2     		uxth	r3, r3
 1775 0028 BB60     		str	r3, [r7, #8]
1043:/home/virusv/TDSAST_IOT/Libraries/src/stm32f10x_i2c.c ****   flag2 = flag2 << 16;
 1776              		.loc 1 1043 0
 1777 002a BB68     		ldr	r3, [r7, #8]
 1778 002c 1B04     		lsls	r3, r3, #16
 1779 002e BB60     		str	r3, [r7, #8]
1044:/home/virusv/TDSAST_IOT/Libraries/src/stm32f10x_i2c.c **** 
1045:/home/virusv/TDSAST_IOT/Libraries/src/stm32f10x_i2c.c ****   /* Get the last event value from I2C status register */
1046:/home/virusv/TDSAST_IOT/Libraries/src/stm32f10x_i2c.c ****   lastevent = (flag1 | flag2) & FLAG_Mask;
 1780              		.loc 1 1046 0
 1781 0030 FA68     		ldr	r2, [r7, #12]
 1782 0032 BB68     		ldr	r3, [r7, #8]
 1783 0034 1343     		orrs	r3, r3, r2
 1784 0036 23F07F43 		bic	r3, r3, #-16777216
 1785 003a 3B61     		str	r3, [r7, #16]
1047:/home/virusv/TDSAST_IOT/Libraries/src/stm32f10x_i2c.c **** 
1048:/home/virusv/TDSAST_IOT/Libraries/src/stm32f10x_i2c.c ****   /* Check whether the last event contains the I2C_EVENT */
1049:/home/virusv/TDSAST_IOT/Libraries/src/stm32f10x_i2c.c ****   if ((lastevent & I2C_EVENT) == I2C_EVENT)
 1786              		.loc 1 1049 0
 1787 003c 3A69     		ldr	r2, [r7, #16]
 1788 003e 3B68     		ldr	r3, [r7]
 1789 0040 1A40     		ands	r2, r2, r3
 1790 0042 3B68     		ldr	r3, [r7]
 1791 0044 9A42     		cmp	r2, r3
 1792 0046 02D1     		bne	.L82
1050:/home/virusv/TDSAST_IOT/Libraries/src/stm32f10x_i2c.c ****   {
1051:/home/virusv/TDSAST_IOT/Libraries/src/stm32f10x_i2c.c ****     /* SUCCESS: last event is equal to I2C_EVENT */
1052:/home/virusv/TDSAST_IOT/Libraries/src/stm32f10x_i2c.c ****     status = SUCCESS;
 1793              		.loc 1 1052 0
 1794 0048 0123     		movs	r3, #1
 1795 004a FB75     		strb	r3, [r7, #23]
 1796 004c 01E0     		b	.L83
 1797              	.L82:
1053:/home/virusv/TDSAST_IOT/Libraries/src/stm32f10x_i2c.c ****   }
1054:/home/virusv/TDSAST_IOT/Libraries/src/stm32f10x_i2c.c ****   else
1055:/home/virusv/TDSAST_IOT/Libraries/src/stm32f10x_i2c.c ****   {
1056:/home/virusv/TDSAST_IOT/Libraries/src/stm32f10x_i2c.c ****     /* ERROR: last event is different from I2C_EVENT */
1057:/home/virusv/TDSAST_IOT/Libraries/src/stm32f10x_i2c.c ****     status = ERROR;
 1798              		.loc 1 1057 0
 1799 004e 0023     		movs	r3, #0
 1800 0050 FB75     		strb	r3, [r7, #23]
 1801              	.L83:
1058:/home/virusv/TDSAST_IOT/Libraries/src/stm32f10x_i2c.c ****   }
1059:/home/virusv/TDSAST_IOT/Libraries/src/stm32f10x_i2c.c ****   /* Return status */
1060:/home/virusv/TDSAST_IOT/Libraries/src/stm32f10x_i2c.c ****   return status;
 1802              		.loc 1 1060 0
 1803 0052 FB7D     		ldrb	r3, [r7, #23]	@ zero_extendqisi2
1061:/home/virusv/TDSAST_IOT/Libraries/src/stm32f10x_i2c.c **** }
 1804              		.loc 1 1061 0
 1805 0054 1846     		mov	r0, r3
 1806 0056 1C37     		adds	r7, r7, #28
 1807              		.cfi_def_cfa_offset 4
 1808 0058 BD46     		mov	sp, r7
 1809              		.cfi_def_cfa_register 13
 1810              		@ sp needed
 1811 005a 5DF8047B 		ldr	r7, [sp], #4
 1812              		.cfi_restore 7
 1813              		.cfi_def_cfa_offset 0
 1814 005e 7047     		bx	lr
 1815              		.cfi_endproc
 1816              	.LFE56:
 1818              		.section	.text.I2C_GetLastEvent,"ax",%progbits
 1819              		.align	2
 1820              		.global	I2C_GetLastEvent
 1821              		.thumb
 1822              		.thumb_func
 1824              	I2C_GetLastEvent:
 1825              	.LFB57:
1062:/home/virusv/TDSAST_IOT/Libraries/src/stm32f10x_i2c.c **** 
1063:/home/virusv/TDSAST_IOT/Libraries/src/stm32f10x_i2c.c **** /**
1064:/home/virusv/TDSAST_IOT/Libraries/src/stm32f10x_i2c.c ****  * 
1065:/home/virusv/TDSAST_IOT/Libraries/src/stm32f10x_i2c.c ****  *  2) Advanced state monitoring
1066:/home/virusv/TDSAST_IOT/Libraries/src/stm32f10x_i2c.c ****  *******************************************************************************
1067:/home/virusv/TDSAST_IOT/Libraries/src/stm32f10x_i2c.c ****  */
1068:/home/virusv/TDSAST_IOT/Libraries/src/stm32f10x_i2c.c **** 
1069:/home/virusv/TDSAST_IOT/Libraries/src/stm32f10x_i2c.c **** /**
1070:/home/virusv/TDSAST_IOT/Libraries/src/stm32f10x_i2c.c ****   * @brief  Returns the last I2Cx Event.
1071:/home/virusv/TDSAST_IOT/Libraries/src/stm32f10x_i2c.c ****   * @param  I2Cx: where x can be 1 or 2 to select the I2C peripheral.
1072:/home/virusv/TDSAST_IOT/Libraries/src/stm32f10x_i2c.c ****   *     
1073:/home/virusv/TDSAST_IOT/Libraries/src/stm32f10x_i2c.c ****   * @note: For detailed description of Events, please refer to section 
1074:/home/virusv/TDSAST_IOT/Libraries/src/stm32f10x_i2c.c ****   *    I2C_Events in stm32f10x_i2c.h file.
1075:/home/virusv/TDSAST_IOT/Libraries/src/stm32f10x_i2c.c ****   *    
1076:/home/virusv/TDSAST_IOT/Libraries/src/stm32f10x_i2c.c ****   * @retval The last event
1077:/home/virusv/TDSAST_IOT/Libraries/src/stm32f10x_i2c.c ****   */
1078:/home/virusv/TDSAST_IOT/Libraries/src/stm32f10x_i2c.c **** uint32_t I2C_GetLastEvent(I2C_TypeDef* I2Cx)
1079:/home/virusv/TDSAST_IOT/Libraries/src/stm32f10x_i2c.c **** {
 1826              		.loc 1 1079 0
 1827              		.cfi_startproc
 1828              		@ args = 0, pretend = 0, frame = 24
 1829              		@ frame_needed = 1, uses_anonymous_args = 0
 1830              		@ link register save eliminated.
 1831 0000 80B4     		push	{r7}
 1832              		.cfi_def_cfa_offset 4
 1833              		.cfi_offset 7, -4
 1834 0002 87B0     		sub	sp, sp, #28
 1835              		.cfi_def_cfa_offset 32
 1836 0004 00AF     		add	r7, sp, #0
 1837              		.cfi_def_cfa_register 7
 1838 0006 7860     		str	r0, [r7, #4]
1080:/home/virusv/TDSAST_IOT/Libraries/src/stm32f10x_i2c.c ****   uint32_t lastevent = 0;
 1839              		.loc 1 1080 0
 1840 0008 0023     		movs	r3, #0
 1841 000a 7B61     		str	r3, [r7, #20]
1081:/home/virusv/TDSAST_IOT/Libraries/src/stm32f10x_i2c.c ****   uint32_t flag1 = 0, flag2 = 0;
 1842              		.loc 1 1081 0
 1843 000c 0023     		movs	r3, #0
 1844 000e 3B61     		str	r3, [r7, #16]
 1845 0010 0023     		movs	r3, #0
 1846 0012 FB60     		str	r3, [r7, #12]
1082:/home/virusv/TDSAST_IOT/Libraries/src/stm32f10x_i2c.c **** 
1083:/home/virusv/TDSAST_IOT/Libraries/src/stm32f10x_i2c.c ****   /* Check the parameters */
1084:/home/virusv/TDSAST_IOT/Libraries/src/stm32f10x_i2c.c ****   assert_param(IS_I2C_ALL_PERIPH(I2Cx));
1085:/home/virusv/TDSAST_IOT/Libraries/src/stm32f10x_i2c.c **** 
1086:/home/virusv/TDSAST_IOT/Libraries/src/stm32f10x_i2c.c ****   /* Read the I2Cx status register */
1087:/home/virusv/TDSAST_IOT/Libraries/src/stm32f10x_i2c.c ****   flag1 = I2Cx->SR1;
 1847              		.loc 1 1087 0
 1848 0014 7B68     		ldr	r3, [r7, #4]
 1849 0016 9B8A     		ldrh	r3, [r3, #20]	@ movhi
 1850 0018 9BB2     		uxth	r3, r3
 1851 001a 3B61     		str	r3, [r7, #16]
1088:/home/virusv/TDSAST_IOT/Libraries/src/stm32f10x_i2c.c ****   flag2 = I2Cx->SR2;
 1852              		.loc 1 1088 0
 1853 001c 7B68     		ldr	r3, [r7, #4]
 1854 001e 1B8B     		ldrh	r3, [r3, #24]	@ movhi
 1855 0020 9BB2     		uxth	r3, r3
 1856 0022 FB60     		str	r3, [r7, #12]
1089:/home/virusv/TDSAST_IOT/Libraries/src/stm32f10x_i2c.c ****   flag2 = flag2 << 16;
 1857              		.loc 1 1089 0
 1858 0024 FB68     		ldr	r3, [r7, #12]
 1859 0026 1B04     		lsls	r3, r3, #16
 1860 0028 FB60     		str	r3, [r7, #12]
1090:/home/virusv/TDSAST_IOT/Libraries/src/stm32f10x_i2c.c **** 
1091:/home/virusv/TDSAST_IOT/Libraries/src/stm32f10x_i2c.c ****   /* Get the last event value from I2C status register */
1092:/home/virusv/TDSAST_IOT/Libraries/src/stm32f10x_i2c.c ****   lastevent = (flag1 | flag2) & FLAG_Mask;
 1861              		.loc 1 1092 0
 1862 002a 3A69     		ldr	r2, [r7, #16]
 1863 002c FB68     		ldr	r3, [r7, #12]
 1864 002e 1343     		orrs	r3, r3, r2
 1865 0030 23F07F43 		bic	r3, r3, #-16777216
 1866 0034 7B61     		str	r3, [r7, #20]
1093:/home/virusv/TDSAST_IOT/Libraries/src/stm32f10x_i2c.c **** 
1094:/home/virusv/TDSAST_IOT/Libraries/src/stm32f10x_i2c.c ****   /* Return status */
1095:/home/virusv/TDSAST_IOT/Libraries/src/stm32f10x_i2c.c ****   return lastevent;
 1867              		.loc 1 1095 0
 1868 0036 7B69     		ldr	r3, [r7, #20]
1096:/home/virusv/TDSAST_IOT/Libraries/src/stm32f10x_i2c.c **** }
 1869              		.loc 1 1096 0
 1870 0038 1846     		mov	r0, r3
 1871 003a 1C37     		adds	r7, r7, #28
 1872              		.cfi_def_cfa_offset 4
 1873 003c BD46     		mov	sp, r7
 1874              		.cfi_def_cfa_register 13
 1875              		@ sp needed
 1876 003e 5DF8047B 		ldr	r7, [sp], #4
 1877              		.cfi_restore 7
 1878              		.cfi_def_cfa_offset 0
 1879 0042 7047     		bx	lr
 1880              		.cfi_endproc
 1881              	.LFE57:
 1883              		.section	.text.I2C_GetFlagStatus,"ax",%progbits
 1884              		.align	2
 1885              		.global	I2C_GetFlagStatus
 1886              		.thumb
 1887              		.thumb_func
 1889              	I2C_GetFlagStatus:
 1890              	.LFB58:
1097:/home/virusv/TDSAST_IOT/Libraries/src/stm32f10x_i2c.c **** 
1098:/home/virusv/TDSAST_IOT/Libraries/src/stm32f10x_i2c.c **** /**
1099:/home/virusv/TDSAST_IOT/Libraries/src/stm32f10x_i2c.c ****  * 
1100:/home/virusv/TDSAST_IOT/Libraries/src/stm32f10x_i2c.c ****  *  3) Flag-based state monitoring
1101:/home/virusv/TDSAST_IOT/Libraries/src/stm32f10x_i2c.c ****  *******************************************************************************
1102:/home/virusv/TDSAST_IOT/Libraries/src/stm32f10x_i2c.c ****  */
1103:/home/virusv/TDSAST_IOT/Libraries/src/stm32f10x_i2c.c **** 
1104:/home/virusv/TDSAST_IOT/Libraries/src/stm32f10x_i2c.c **** /**
1105:/home/virusv/TDSAST_IOT/Libraries/src/stm32f10x_i2c.c ****   * @brief  Checks whether the specified I2C flag is set or not.
1106:/home/virusv/TDSAST_IOT/Libraries/src/stm32f10x_i2c.c ****   * @param  I2Cx: where x can be 1 or 2 to select the I2C peripheral.
1107:/home/virusv/TDSAST_IOT/Libraries/src/stm32f10x_i2c.c ****   * @param  I2C_FLAG: specifies the flag to check. 
1108:/home/virusv/TDSAST_IOT/Libraries/src/stm32f10x_i2c.c ****   *   This parameter can be one of the following values:
1109:/home/virusv/TDSAST_IOT/Libraries/src/stm32f10x_i2c.c ****   *     @arg I2C_FLAG_DUALF: Dual flag (Slave mode)
1110:/home/virusv/TDSAST_IOT/Libraries/src/stm32f10x_i2c.c ****   *     @arg I2C_FLAG_SMBHOST: SMBus host header (Slave mode)
1111:/home/virusv/TDSAST_IOT/Libraries/src/stm32f10x_i2c.c ****   *     @arg I2C_FLAG_SMBDEFAULT: SMBus default header (Slave mode)
1112:/home/virusv/TDSAST_IOT/Libraries/src/stm32f10x_i2c.c ****   *     @arg I2C_FLAG_GENCALL: General call header flag (Slave mode)
1113:/home/virusv/TDSAST_IOT/Libraries/src/stm32f10x_i2c.c ****   *     @arg I2C_FLAG_TRA: Transmitter/Receiver flag
1114:/home/virusv/TDSAST_IOT/Libraries/src/stm32f10x_i2c.c ****   *     @arg I2C_FLAG_BUSY: Bus busy flag
1115:/home/virusv/TDSAST_IOT/Libraries/src/stm32f10x_i2c.c ****   *     @arg I2C_FLAG_MSL: Master/Slave flag
1116:/home/virusv/TDSAST_IOT/Libraries/src/stm32f10x_i2c.c ****   *     @arg I2C_FLAG_SMBALERT: SMBus Alert flag
1117:/home/virusv/TDSAST_IOT/Libraries/src/stm32f10x_i2c.c ****   *     @arg I2C_FLAG_TIMEOUT: Timeout or Tlow error flag
1118:/home/virusv/TDSAST_IOT/Libraries/src/stm32f10x_i2c.c ****   *     @arg I2C_FLAG_PECERR: PEC error in reception flag
1119:/home/virusv/TDSAST_IOT/Libraries/src/stm32f10x_i2c.c ****   *     @arg I2C_FLAG_OVR: Overrun/Underrun flag (Slave mode)
1120:/home/virusv/TDSAST_IOT/Libraries/src/stm32f10x_i2c.c ****   *     @arg I2C_FLAG_AF: Acknowledge failure flag
1121:/home/virusv/TDSAST_IOT/Libraries/src/stm32f10x_i2c.c ****   *     @arg I2C_FLAG_ARLO: Arbitration lost flag (Master mode)
1122:/home/virusv/TDSAST_IOT/Libraries/src/stm32f10x_i2c.c ****   *     @arg I2C_FLAG_BERR: Bus error flag
1123:/home/virusv/TDSAST_IOT/Libraries/src/stm32f10x_i2c.c ****   *     @arg I2C_FLAG_TXE: Data register empty flag (Transmitter)
1124:/home/virusv/TDSAST_IOT/Libraries/src/stm32f10x_i2c.c ****   *     @arg I2C_FLAG_RXNE: Data register not empty (Receiver) flag
1125:/home/virusv/TDSAST_IOT/Libraries/src/stm32f10x_i2c.c ****   *     @arg I2C_FLAG_STOPF: Stop detection flag (Slave mode)
1126:/home/virusv/TDSAST_IOT/Libraries/src/stm32f10x_i2c.c ****   *     @arg I2C_FLAG_ADD10: 10-bit header sent flag (Master mode)
1127:/home/virusv/TDSAST_IOT/Libraries/src/stm32f10x_i2c.c ****   *     @arg I2C_FLAG_BTF: Byte transfer finished flag
1128:/home/virusv/TDSAST_IOT/Libraries/src/stm32f10x_i2c.c ****   *     @arg I2C_FLAG_ADDR: Address sent flag (Master mode) "ADSL"
1129:/home/virusv/TDSAST_IOT/Libraries/src/stm32f10x_i2c.c ****   *   Address matched flag (Slave mode)"ENDA"
1130:/home/virusv/TDSAST_IOT/Libraries/src/stm32f10x_i2c.c ****   *     @arg I2C_FLAG_SB: Start bit flag (Master mode)
1131:/home/virusv/TDSAST_IOT/Libraries/src/stm32f10x_i2c.c ****   * @retval The new state of I2C_FLAG (SET or RESET).
1132:/home/virusv/TDSAST_IOT/Libraries/src/stm32f10x_i2c.c ****   */
1133:/home/virusv/TDSAST_IOT/Libraries/src/stm32f10x_i2c.c **** FlagStatus I2C_GetFlagStatus(I2C_TypeDef* I2Cx, uint32_t I2C_FLAG)
1134:/home/virusv/TDSAST_IOT/Libraries/src/stm32f10x_i2c.c **** {
 1891              		.loc 1 1134 0
 1892              		.cfi_startproc
 1893              		@ args = 0, pretend = 0, frame = 24
 1894              		@ frame_needed = 1, uses_anonymous_args = 0
 1895              		@ link register save eliminated.
 1896 0000 80B4     		push	{r7}
 1897              		.cfi_def_cfa_offset 4
 1898              		.cfi_offset 7, -4
 1899 0002 87B0     		sub	sp, sp, #28
 1900              		.cfi_def_cfa_offset 32
 1901 0004 00AF     		add	r7, sp, #0
 1902              		.cfi_def_cfa_register 7
 1903 0006 7860     		str	r0, [r7, #4]
 1904 0008 3960     		str	r1, [r7]
1135:/home/virusv/TDSAST_IOT/Libraries/src/stm32f10x_i2c.c ****   FlagStatus bitstatus = RESET;
 1905              		.loc 1 1135 0
 1906 000a 0023     		movs	r3, #0
 1907 000c FB75     		strb	r3, [r7, #23]
1136:/home/virusv/TDSAST_IOT/Libraries/src/stm32f10x_i2c.c ****   __IO uint32_t i2creg = 0, i2cxbase = 0;
 1908              		.loc 1 1136 0
 1909 000e 0023     		movs	r3, #0
 1910 0010 3B61     		str	r3, [r7, #16]
 1911 0012 0023     		movs	r3, #0
 1912 0014 FB60     		str	r3, [r7, #12]
1137:/home/virusv/TDSAST_IOT/Libraries/src/stm32f10x_i2c.c **** 
1138:/home/virusv/TDSAST_IOT/Libraries/src/stm32f10x_i2c.c ****   /* Check the parameters */
1139:/home/virusv/TDSAST_IOT/Libraries/src/stm32f10x_i2c.c ****   assert_param(IS_I2C_ALL_PERIPH(I2Cx));
1140:/home/virusv/TDSAST_IOT/Libraries/src/stm32f10x_i2c.c ****   assert_param(IS_I2C_GET_FLAG(I2C_FLAG));
1141:/home/virusv/TDSAST_IOT/Libraries/src/stm32f10x_i2c.c **** 
1142:/home/virusv/TDSAST_IOT/Libraries/src/stm32f10x_i2c.c ****   /* Get the I2Cx peripheral base address */
1143:/home/virusv/TDSAST_IOT/Libraries/src/stm32f10x_i2c.c ****   i2cxbase = (uint32_t)I2Cx;
 1913              		.loc 1 1143 0
 1914 0016 7B68     		ldr	r3, [r7, #4]
 1915 0018 FB60     		str	r3, [r7, #12]
1144:/home/virusv/TDSAST_IOT/Libraries/src/stm32f10x_i2c.c ****   
1145:/home/virusv/TDSAST_IOT/Libraries/src/stm32f10x_i2c.c ****   /* Read flag register index */
1146:/home/virusv/TDSAST_IOT/Libraries/src/stm32f10x_i2c.c ****   i2creg = I2C_FLAG >> 28;
 1916              		.loc 1 1146 0
 1917 001a 3B68     		ldr	r3, [r7]
 1918 001c 1B0F     		lsrs	r3, r3, #28
 1919 001e 3B61     		str	r3, [r7, #16]
1147:/home/virusv/TDSAST_IOT/Libraries/src/stm32f10x_i2c.c ****   
1148:/home/virusv/TDSAST_IOT/Libraries/src/stm32f10x_i2c.c ****   /* Get bit[23:0] of the flag */
1149:/home/virusv/TDSAST_IOT/Libraries/src/stm32f10x_i2c.c ****   I2C_FLAG &= FLAG_Mask;
 1920              		.loc 1 1149 0
 1921 0020 3B68     		ldr	r3, [r7]
 1922 0022 23F07F43 		bic	r3, r3, #-16777216
 1923 0026 3B60     		str	r3, [r7]
1150:/home/virusv/TDSAST_IOT/Libraries/src/stm32f10x_i2c.c ****   
1151:/home/virusv/TDSAST_IOT/Libraries/src/stm32f10x_i2c.c ****   if(i2creg != 0)
 1924              		.loc 1 1151 0
 1925 0028 3B69     		ldr	r3, [r7, #16]
 1926 002a 002B     		cmp	r3, #0
 1927 002c 03D0     		beq	.L88
1152:/home/virusv/TDSAST_IOT/Libraries/src/stm32f10x_i2c.c ****   {
1153:/home/virusv/TDSAST_IOT/Libraries/src/stm32f10x_i2c.c ****     /* Get the I2Cx SR1 register address */
1154:/home/virusv/TDSAST_IOT/Libraries/src/stm32f10x_i2c.c ****     i2cxbase += 0x14;
 1928              		.loc 1 1154 0
 1929 002e FB68     		ldr	r3, [r7, #12]
 1930 0030 1433     		adds	r3, r3, #20
 1931 0032 FB60     		str	r3, [r7, #12]
 1932 0034 05E0     		b	.L89
 1933              	.L88:
1155:/home/virusv/TDSAST_IOT/Libraries/src/stm32f10x_i2c.c ****   }
1156:/home/virusv/TDSAST_IOT/Libraries/src/stm32f10x_i2c.c ****   else
1157:/home/virusv/TDSAST_IOT/Libraries/src/stm32f10x_i2c.c ****   {
1158:/home/virusv/TDSAST_IOT/Libraries/src/stm32f10x_i2c.c ****     /* Flag in I2Cx SR2 Register */
1159:/home/virusv/TDSAST_IOT/Libraries/src/stm32f10x_i2c.c ****     I2C_FLAG = (uint32_t)(I2C_FLAG >> 16);
 1934              		.loc 1 1159 0
 1935 0036 3B68     		ldr	r3, [r7]
 1936 0038 1B0C     		lsrs	r3, r3, #16
 1937 003a 3B60     		str	r3, [r7]
1160:/home/virusv/TDSAST_IOT/Libraries/src/stm32f10x_i2c.c ****     /* Get the I2Cx SR2 register address */
1161:/home/virusv/TDSAST_IOT/Libraries/src/stm32f10x_i2c.c ****     i2cxbase += 0x18;
 1938              		.loc 1 1161 0
 1939 003c FB68     		ldr	r3, [r7, #12]
 1940 003e 1833     		adds	r3, r3, #24
 1941 0040 FB60     		str	r3, [r7, #12]
 1942              	.L89:
1162:/home/virusv/TDSAST_IOT/Libraries/src/stm32f10x_i2c.c ****   }
1163:/home/virusv/TDSAST_IOT/Libraries/src/stm32f10x_i2c.c ****   
1164:/home/virusv/TDSAST_IOT/Libraries/src/stm32f10x_i2c.c ****   if(((*(__IO uint32_t *)i2cxbase) & I2C_FLAG) != (uint32_t)RESET)
 1943              		.loc 1 1164 0
 1944 0042 FB68     		ldr	r3, [r7, #12]
 1945 0044 1A68     		ldr	r2, [r3]
 1946 0046 3B68     		ldr	r3, [r7]
 1947 0048 1340     		ands	r3, r3, r2
 1948 004a 002B     		cmp	r3, #0
 1949 004c 02D0     		beq	.L90
1165:/home/virusv/TDSAST_IOT/Libraries/src/stm32f10x_i2c.c ****   {
1166:/home/virusv/TDSAST_IOT/Libraries/src/stm32f10x_i2c.c ****     /* I2C_FLAG is set */
1167:/home/virusv/TDSAST_IOT/Libraries/src/stm32f10x_i2c.c ****     bitstatus = SET;
 1950              		.loc 1 1167 0
 1951 004e 0123     		movs	r3, #1
 1952 0050 FB75     		strb	r3, [r7, #23]
 1953 0052 01E0     		b	.L91
 1954              	.L90:
1168:/home/virusv/TDSAST_IOT/Libraries/src/stm32f10x_i2c.c ****   }
1169:/home/virusv/TDSAST_IOT/Libraries/src/stm32f10x_i2c.c ****   else
1170:/home/virusv/TDSAST_IOT/Libraries/src/stm32f10x_i2c.c ****   {
1171:/home/virusv/TDSAST_IOT/Libraries/src/stm32f10x_i2c.c ****     /* I2C_FLAG is reset */
1172:/home/virusv/TDSAST_IOT/Libraries/src/stm32f10x_i2c.c ****     bitstatus = RESET;
 1955              		.loc 1 1172 0
 1956 0054 0023     		movs	r3, #0
 1957 0056 FB75     		strb	r3, [r7, #23]
 1958              	.L91:
1173:/home/virusv/TDSAST_IOT/Libraries/src/stm32f10x_i2c.c ****   }
1174:/home/virusv/TDSAST_IOT/Libraries/src/stm32f10x_i2c.c ****   
1175:/home/virusv/TDSAST_IOT/Libraries/src/stm32f10x_i2c.c ****   /* Return the I2C_FLAG status */
1176:/home/virusv/TDSAST_IOT/Libraries/src/stm32f10x_i2c.c ****   return  bitstatus;
 1959              		.loc 1 1176 0
 1960 0058 FB7D     		ldrb	r3, [r7, #23]	@ zero_extendqisi2
1177:/home/virusv/TDSAST_IOT/Libraries/src/stm32f10x_i2c.c **** }
 1961              		.loc 1 1177 0
 1962 005a 1846     		mov	r0, r3
 1963 005c 1C37     		adds	r7, r7, #28
 1964              		.cfi_def_cfa_offset 4
 1965 005e BD46     		mov	sp, r7
 1966              		.cfi_def_cfa_register 13
 1967              		@ sp needed
 1968 0060 5DF8047B 		ldr	r7, [sp], #4
 1969              		.cfi_restore 7
 1970              		.cfi_def_cfa_offset 0
 1971 0064 7047     		bx	lr
 1972              		.cfi_endproc
 1973              	.LFE58:
 1975 0066 00BF     		.section	.text.I2C_ClearFlag,"ax",%progbits
 1976              		.align	2
 1977              		.global	I2C_ClearFlag
 1978              		.thumb
 1979              		.thumb_func
 1981              	I2C_ClearFlag:
 1982              	.LFB59:
1178:/home/virusv/TDSAST_IOT/Libraries/src/stm32f10x_i2c.c **** 
1179:/home/virusv/TDSAST_IOT/Libraries/src/stm32f10x_i2c.c **** 
1180:/home/virusv/TDSAST_IOT/Libraries/src/stm32f10x_i2c.c **** 
1181:/home/virusv/TDSAST_IOT/Libraries/src/stm32f10x_i2c.c **** /**
1182:/home/virusv/TDSAST_IOT/Libraries/src/stm32f10x_i2c.c ****   * @brief  Clears the I2Cx's pending flags.
1183:/home/virusv/TDSAST_IOT/Libraries/src/stm32f10x_i2c.c ****   * @param  I2Cx: where x can be 1 or 2 to select the I2C peripheral.
1184:/home/virusv/TDSAST_IOT/Libraries/src/stm32f10x_i2c.c ****   * @param  I2C_FLAG: specifies the flag to clear. 
1185:/home/virusv/TDSAST_IOT/Libraries/src/stm32f10x_i2c.c ****   *   This parameter can be any combination of the following values:
1186:/home/virusv/TDSAST_IOT/Libraries/src/stm32f10x_i2c.c ****   *     @arg I2C_FLAG_SMBALERT: SMBus Alert flag
1187:/home/virusv/TDSAST_IOT/Libraries/src/stm32f10x_i2c.c ****   *     @arg I2C_FLAG_TIMEOUT: Timeout or Tlow error flag
1188:/home/virusv/TDSAST_IOT/Libraries/src/stm32f10x_i2c.c ****   *     @arg I2C_FLAG_PECERR: PEC error in reception flag
1189:/home/virusv/TDSAST_IOT/Libraries/src/stm32f10x_i2c.c ****   *     @arg I2C_FLAG_OVR: Overrun/Underrun flag (Slave mode)
1190:/home/virusv/TDSAST_IOT/Libraries/src/stm32f10x_i2c.c ****   *     @arg I2C_FLAG_AF: Acknowledge failure flag
1191:/home/virusv/TDSAST_IOT/Libraries/src/stm32f10x_i2c.c ****   *     @arg I2C_FLAG_ARLO: Arbitration lost flag (Master mode)
1192:/home/virusv/TDSAST_IOT/Libraries/src/stm32f10x_i2c.c ****   *     @arg I2C_FLAG_BERR: Bus error flag
1193:/home/virusv/TDSAST_IOT/Libraries/src/stm32f10x_i2c.c ****   *   
1194:/home/virusv/TDSAST_IOT/Libraries/src/stm32f10x_i2c.c ****   * @note
1195:/home/virusv/TDSAST_IOT/Libraries/src/stm32f10x_i2c.c ****   *   - STOPF (STOP detection) is cleared by software sequence: a read operation 
1196:/home/virusv/TDSAST_IOT/Libraries/src/stm32f10x_i2c.c ****   *     to I2C_SR1 register (I2C_GetFlagStatus()) followed by a write operation 
1197:/home/virusv/TDSAST_IOT/Libraries/src/stm32f10x_i2c.c ****   *     to I2C_CR1 register (I2C_Cmd() to re-enable the I2C peripheral).
1198:/home/virusv/TDSAST_IOT/Libraries/src/stm32f10x_i2c.c ****   *   - ADD10 (10-bit header sent) is cleared by software sequence: a read 
1199:/home/virusv/TDSAST_IOT/Libraries/src/stm32f10x_i2c.c ****   *     operation to I2C_SR1 (I2C_GetFlagStatus()) followed by writing the 
1200:/home/virusv/TDSAST_IOT/Libraries/src/stm32f10x_i2c.c ****   *     second byte of the address in DR register.
1201:/home/virusv/TDSAST_IOT/Libraries/src/stm32f10x_i2c.c ****   *   - BTF (Byte Transfer Finished) is cleared by software sequence: a read 
1202:/home/virusv/TDSAST_IOT/Libraries/src/stm32f10x_i2c.c ****   *     operation to I2C_SR1 register (I2C_GetFlagStatus()) followed by a 
1203:/home/virusv/TDSAST_IOT/Libraries/src/stm32f10x_i2c.c ****   *     read/write to I2C_DR register (I2C_SendData()).
1204:/home/virusv/TDSAST_IOT/Libraries/src/stm32f10x_i2c.c ****   *   - ADDR (Address sent) is cleared by software sequence: a read operation to 
1205:/home/virusv/TDSAST_IOT/Libraries/src/stm32f10x_i2c.c ****   *     I2C_SR1 register (I2C_GetFlagStatus()) followed by a read operation to 
1206:/home/virusv/TDSAST_IOT/Libraries/src/stm32f10x_i2c.c ****   *     I2C_SR2 register ((void)(I2Cx->SR2)).
1207:/home/virusv/TDSAST_IOT/Libraries/src/stm32f10x_i2c.c ****   *   - SB (Start Bit) is cleared software sequence: a read operation to I2C_SR1
1208:/home/virusv/TDSAST_IOT/Libraries/src/stm32f10x_i2c.c ****   *     register (I2C_GetFlagStatus()) followed by a write operation to I2C_DR
1209:/home/virusv/TDSAST_IOT/Libraries/src/stm32f10x_i2c.c ****   *     register  (I2C_SendData()).
1210:/home/virusv/TDSAST_IOT/Libraries/src/stm32f10x_i2c.c ****   * @retval None
1211:/home/virusv/TDSAST_IOT/Libraries/src/stm32f10x_i2c.c ****   */
1212:/home/virusv/TDSAST_IOT/Libraries/src/stm32f10x_i2c.c **** void I2C_ClearFlag(I2C_TypeDef* I2Cx, uint32_t I2C_FLAG)
1213:/home/virusv/TDSAST_IOT/Libraries/src/stm32f10x_i2c.c **** {
 1983              		.loc 1 1213 0
 1984              		.cfi_startproc
 1985              		@ args = 0, pretend = 0, frame = 16
 1986              		@ frame_needed = 1, uses_anonymous_args = 0
 1987              		@ link register save eliminated.
 1988 0000 80B4     		push	{r7}
 1989              		.cfi_def_cfa_offset 4
 1990              		.cfi_offset 7, -4
 1991 0002 85B0     		sub	sp, sp, #20
 1992              		.cfi_def_cfa_offset 24
 1993 0004 00AF     		add	r7, sp, #0
 1994              		.cfi_def_cfa_register 7
 1995 0006 7860     		str	r0, [r7, #4]
 1996 0008 3960     		str	r1, [r7]
1214:/home/virusv/TDSAST_IOT/Libraries/src/stm32f10x_i2c.c ****   uint32_t flagpos = 0;
 1997              		.loc 1 1214 0
 1998 000a 0023     		movs	r3, #0
 1999 000c FB60     		str	r3, [r7, #12]
1215:/home/virusv/TDSAST_IOT/Libraries/src/stm32f10x_i2c.c ****   /* Check the parameters */
1216:/home/virusv/TDSAST_IOT/Libraries/src/stm32f10x_i2c.c ****   assert_param(IS_I2C_ALL_PERIPH(I2Cx));
1217:/home/virusv/TDSAST_IOT/Libraries/src/stm32f10x_i2c.c ****   assert_param(IS_I2C_CLEAR_FLAG(I2C_FLAG));
1218:/home/virusv/TDSAST_IOT/Libraries/src/stm32f10x_i2c.c ****   /* Get the I2C flag position */
1219:/home/virusv/TDSAST_IOT/Libraries/src/stm32f10x_i2c.c ****   flagpos = I2C_FLAG & FLAG_Mask;
 2000              		.loc 1 1219 0
 2001 000e 3B68     		ldr	r3, [r7]
 2002 0010 23F07F43 		bic	r3, r3, #-16777216
 2003 0014 FB60     		str	r3, [r7, #12]
1220:/home/virusv/TDSAST_IOT/Libraries/src/stm32f10x_i2c.c ****   /* Clear the selected I2C flag */
1221:/home/virusv/TDSAST_IOT/Libraries/src/stm32f10x_i2c.c ****   I2Cx->SR1 = (uint16_t)~flagpos;
 2004              		.loc 1 1221 0
 2005 0016 FB68     		ldr	r3, [r7, #12]
 2006 0018 9BB2     		uxth	r3, r3
 2007 001a DB43     		mvns	r3, r3
 2008 001c 9AB2     		uxth	r2, r3
 2009 001e 7B68     		ldr	r3, [r7, #4]
 2010 0020 9A82     		strh	r2, [r3, #20]	@ movhi
1222:/home/virusv/TDSAST_IOT/Libraries/src/stm32f10x_i2c.c **** }
 2011              		.loc 1 1222 0
 2012 0022 1437     		adds	r7, r7, #20
 2013              		.cfi_def_cfa_offset 4
 2014 0024 BD46     		mov	sp, r7
 2015              		.cfi_def_cfa_register 13
 2016              		@ sp needed
 2017 0026 5DF8047B 		ldr	r7, [sp], #4
 2018              		.cfi_restore 7
 2019              		.cfi_def_cfa_offset 0
 2020 002a 7047     		bx	lr
 2021              		.cfi_endproc
 2022              	.LFE59:
 2024              		.section	.text.I2C_GetITStatus,"ax",%progbits
 2025              		.align	2
 2026              		.global	I2C_GetITStatus
 2027              		.thumb
 2028              		.thumb_func
 2030              	I2C_GetITStatus:
 2031              	.LFB60:
1223:/home/virusv/TDSAST_IOT/Libraries/src/stm32f10x_i2c.c **** 
1224:/home/virusv/TDSAST_IOT/Libraries/src/stm32f10x_i2c.c **** /**
1225:/home/virusv/TDSAST_IOT/Libraries/src/stm32f10x_i2c.c ****   * @brief  Checks whether the specified I2C interrupt has occurred or not.
1226:/home/virusv/TDSAST_IOT/Libraries/src/stm32f10x_i2c.c ****   * @param  I2Cx: where x can be 1 or 2 to select the I2C peripheral.
1227:/home/virusv/TDSAST_IOT/Libraries/src/stm32f10x_i2c.c ****   * @param  I2C_IT: specifies the interrupt source to check. 
1228:/home/virusv/TDSAST_IOT/Libraries/src/stm32f10x_i2c.c ****   *   This parameter can be one of the following values:
1229:/home/virusv/TDSAST_IOT/Libraries/src/stm32f10x_i2c.c ****   *     @arg I2C_IT_SMBALERT: SMBus Alert flag
1230:/home/virusv/TDSAST_IOT/Libraries/src/stm32f10x_i2c.c ****   *     @arg I2C_IT_TIMEOUT: Timeout or Tlow error flag
1231:/home/virusv/TDSAST_IOT/Libraries/src/stm32f10x_i2c.c ****   *     @arg I2C_IT_PECERR: PEC error in reception flag
1232:/home/virusv/TDSAST_IOT/Libraries/src/stm32f10x_i2c.c ****   *     @arg I2C_IT_OVR: Overrun/Underrun flag (Slave mode)
1233:/home/virusv/TDSAST_IOT/Libraries/src/stm32f10x_i2c.c ****   *     @arg I2C_IT_AF: Acknowledge failure flag
1234:/home/virusv/TDSAST_IOT/Libraries/src/stm32f10x_i2c.c ****   *     @arg I2C_IT_ARLO: Arbitration lost flag (Master mode)
1235:/home/virusv/TDSAST_IOT/Libraries/src/stm32f10x_i2c.c ****   *     @arg I2C_IT_BERR: Bus error flag
1236:/home/virusv/TDSAST_IOT/Libraries/src/stm32f10x_i2c.c ****   *     @arg I2C_IT_TXE: Data register empty flag (Transmitter)
1237:/home/virusv/TDSAST_IOT/Libraries/src/stm32f10x_i2c.c ****   *     @arg I2C_IT_RXNE: Data register not empty (Receiver) flag
1238:/home/virusv/TDSAST_IOT/Libraries/src/stm32f10x_i2c.c ****   *     @arg I2C_IT_STOPF: Stop detection flag (Slave mode)
1239:/home/virusv/TDSAST_IOT/Libraries/src/stm32f10x_i2c.c ****   *     @arg I2C_IT_ADD10: 10-bit header sent flag (Master mode)
1240:/home/virusv/TDSAST_IOT/Libraries/src/stm32f10x_i2c.c ****   *     @arg I2C_IT_BTF: Byte transfer finished flag
1241:/home/virusv/TDSAST_IOT/Libraries/src/stm32f10x_i2c.c ****   *     @arg I2C_IT_ADDR: Address sent flag (Master mode) "ADSL"
1242:/home/virusv/TDSAST_IOT/Libraries/src/stm32f10x_i2c.c ****   *                       Address matched flag (Slave mode)"ENDAD"
1243:/home/virusv/TDSAST_IOT/Libraries/src/stm32f10x_i2c.c ****   *     @arg I2C_IT_SB: Start bit flag (Master mode)
1244:/home/virusv/TDSAST_IOT/Libraries/src/stm32f10x_i2c.c ****   * @retval The new state of I2C_IT (SET or RESET).
1245:/home/virusv/TDSAST_IOT/Libraries/src/stm32f10x_i2c.c ****   */
1246:/home/virusv/TDSAST_IOT/Libraries/src/stm32f10x_i2c.c **** ITStatus I2C_GetITStatus(I2C_TypeDef* I2Cx, uint32_t I2C_IT)
1247:/home/virusv/TDSAST_IOT/Libraries/src/stm32f10x_i2c.c **** {
 2032              		.loc 1 1247 0
 2033              		.cfi_startproc
 2034              		@ args = 0, pretend = 0, frame = 16
 2035              		@ frame_needed = 1, uses_anonymous_args = 0
 2036              		@ link register save eliminated.
 2037 0000 80B4     		push	{r7}
 2038              		.cfi_def_cfa_offset 4
 2039              		.cfi_offset 7, -4
 2040 0002 85B0     		sub	sp, sp, #20
 2041              		.cfi_def_cfa_offset 24
 2042 0004 00AF     		add	r7, sp, #0
 2043              		.cfi_def_cfa_register 7
 2044 0006 7860     		str	r0, [r7, #4]
 2045 0008 3960     		str	r1, [r7]
1248:/home/virusv/TDSAST_IOT/Libraries/src/stm32f10x_i2c.c ****   ITStatus bitstatus = RESET;
 2046              		.loc 1 1248 0
 2047 000a 0023     		movs	r3, #0
 2048 000c FB73     		strb	r3, [r7, #15]
1249:/home/virusv/TDSAST_IOT/Libraries/src/stm32f10x_i2c.c ****   uint32_t enablestatus = 0;
 2049              		.loc 1 1249 0
 2050 000e 0023     		movs	r3, #0
 2051 0010 BB60     		str	r3, [r7, #8]
1250:/home/virusv/TDSAST_IOT/Libraries/src/stm32f10x_i2c.c **** 
1251:/home/virusv/TDSAST_IOT/Libraries/src/stm32f10x_i2c.c ****   /* Check the parameters */
1252:/home/virusv/TDSAST_IOT/Libraries/src/stm32f10x_i2c.c ****   assert_param(IS_I2C_ALL_PERIPH(I2Cx));
1253:/home/virusv/TDSAST_IOT/Libraries/src/stm32f10x_i2c.c ****   assert_param(IS_I2C_GET_IT(I2C_IT));
1254:/home/virusv/TDSAST_IOT/Libraries/src/stm32f10x_i2c.c **** 
1255:/home/virusv/TDSAST_IOT/Libraries/src/stm32f10x_i2c.c ****   /* Check if the interrupt source is enabled or not */
1256:/home/virusv/TDSAST_IOT/Libraries/src/stm32f10x_i2c.c ****   enablestatus = (uint32_t)(((I2C_IT & ITEN_Mask) >> 16) & (I2Cx->CR2)) ;
 2052              		.loc 1 1256 0
 2053 0012 3B68     		ldr	r3, [r7]
 2054 0014 03F0E063 		and	r3, r3, #117440512
 2055 0018 1B0C     		lsrs	r3, r3, #16
 2056 001a 7A68     		ldr	r2, [r7, #4]
 2057 001c 9288     		ldrh	r2, [r2, #4]	@ movhi
 2058 001e 92B2     		uxth	r2, r2
 2059 0020 1340     		ands	r3, r3, r2
 2060 0022 BB60     		str	r3, [r7, #8]
1257:/home/virusv/TDSAST_IOT/Libraries/src/stm32f10x_i2c.c ****   
1258:/home/virusv/TDSAST_IOT/Libraries/src/stm32f10x_i2c.c ****   /* Get bit[23:0] of the flag */
1259:/home/virusv/TDSAST_IOT/Libraries/src/stm32f10x_i2c.c ****   I2C_IT &= FLAG_Mask;
 2061              		.loc 1 1259 0
 2062 0024 3B68     		ldr	r3, [r7]
 2063 0026 23F07F43 		bic	r3, r3, #-16777216
 2064 002a 3B60     		str	r3, [r7]
1260:/home/virusv/TDSAST_IOT/Libraries/src/stm32f10x_i2c.c **** 
1261:/home/virusv/TDSAST_IOT/Libraries/src/stm32f10x_i2c.c ****   /* Check the status of the specified I2C flag */
1262:/home/virusv/TDSAST_IOT/Libraries/src/stm32f10x_i2c.c ****   if (((I2Cx->SR1 & I2C_IT) != (uint32_t)RESET) && enablestatus)
 2065              		.loc 1 1262 0
 2066 002c 7B68     		ldr	r3, [r7, #4]
 2067 002e 9B8A     		ldrh	r3, [r3, #20]	@ movhi
 2068 0030 9BB2     		uxth	r3, r3
 2069 0032 1A46     		mov	r2, r3
 2070 0034 3B68     		ldr	r3, [r7]
 2071 0036 1340     		ands	r3, r3, r2
 2072 0038 002B     		cmp	r3, #0
 2073 003a 05D0     		beq	.L95
 2074              		.loc 1 1262 0 is_stmt 0 discriminator 1
 2075 003c BB68     		ldr	r3, [r7, #8]
 2076 003e 002B     		cmp	r3, #0
 2077 0040 02D0     		beq	.L95
1263:/home/virusv/TDSAST_IOT/Libraries/src/stm32f10x_i2c.c ****   {
1264:/home/virusv/TDSAST_IOT/Libraries/src/stm32f10x_i2c.c ****     /* I2C_IT is set */
1265:/home/virusv/TDSAST_IOT/Libraries/src/stm32f10x_i2c.c ****     bitstatus = SET;
 2078              		.loc 1 1265 0 is_stmt 1
 2079 0042 0123     		movs	r3, #1
 2080 0044 FB73     		strb	r3, [r7, #15]
 2081 0046 01E0     		b	.L96
 2082              	.L95:
1266:/home/virusv/TDSAST_IOT/Libraries/src/stm32f10x_i2c.c ****   }
1267:/home/virusv/TDSAST_IOT/Libraries/src/stm32f10x_i2c.c ****   else
1268:/home/virusv/TDSAST_IOT/Libraries/src/stm32f10x_i2c.c ****   {
1269:/home/virusv/TDSAST_IOT/Libraries/src/stm32f10x_i2c.c ****     /* I2C_IT is reset */
1270:/home/virusv/TDSAST_IOT/Libraries/src/stm32f10x_i2c.c ****     bitstatus = RESET;
 2083              		.loc 1 1270 0
 2084 0048 0023     		movs	r3, #0
 2085 004a FB73     		strb	r3, [r7, #15]
 2086              	.L96:
1271:/home/virusv/TDSAST_IOT/Libraries/src/stm32f10x_i2c.c ****   }
1272:/home/virusv/TDSAST_IOT/Libraries/src/stm32f10x_i2c.c ****   /* Return the I2C_IT status */
1273:/home/virusv/TDSAST_IOT/Libraries/src/stm32f10x_i2c.c ****   return  bitstatus;
 2087              		.loc 1 1273 0
 2088 004c FB7B     		ldrb	r3, [r7, #15]	@ zero_extendqisi2
1274:/home/virusv/TDSAST_IOT/Libraries/src/stm32f10x_i2c.c **** }
 2089              		.loc 1 1274 0
 2090 004e 1846     		mov	r0, r3
 2091 0050 1437     		adds	r7, r7, #20
 2092              		.cfi_def_cfa_offset 4
 2093 0052 BD46     		mov	sp, r7
 2094              		.cfi_def_cfa_register 13
 2095              		@ sp needed
 2096 0054 5DF8047B 		ldr	r7, [sp], #4
 2097              		.cfi_restore 7
 2098              		.cfi_def_cfa_offset 0
 2099 0058 7047     		bx	lr
 2100              		.cfi_endproc
 2101              	.LFE60:
 2103 005a 00BF     		.section	.text.I2C_ClearITPendingBit,"ax",%progbits
 2104              		.align	2
 2105              		.global	I2C_ClearITPendingBit
 2106              		.thumb
 2107              		.thumb_func
 2109              	I2C_ClearITPendingBit:
 2110              	.LFB61:
1275:/home/virusv/TDSAST_IOT/Libraries/src/stm32f10x_i2c.c **** 
1276:/home/virusv/TDSAST_IOT/Libraries/src/stm32f10x_i2c.c **** /**
1277:/home/virusv/TDSAST_IOT/Libraries/src/stm32f10x_i2c.c ****   * @brief  Clears the I2Cxs interrupt pending bits.
1278:/home/virusv/TDSAST_IOT/Libraries/src/stm32f10x_i2c.c ****   * @param  I2Cx: where x can be 1 or 2 to select the I2C peripheral.
1279:/home/virusv/TDSAST_IOT/Libraries/src/stm32f10x_i2c.c ****   * @param  I2C_IT: specifies the interrupt pending bit to clear. 
1280:/home/virusv/TDSAST_IOT/Libraries/src/stm32f10x_i2c.c ****   *   This parameter can be any combination of the following values:
1281:/home/virusv/TDSAST_IOT/Libraries/src/stm32f10x_i2c.c ****   *     @arg I2C_IT_SMBALERT: SMBus Alert interrupt
1282:/home/virusv/TDSAST_IOT/Libraries/src/stm32f10x_i2c.c ****   *     @arg I2C_IT_TIMEOUT: Timeout or Tlow error interrupt
1283:/home/virusv/TDSAST_IOT/Libraries/src/stm32f10x_i2c.c ****   *     @arg I2C_IT_PECERR: PEC error in reception  interrupt
1284:/home/virusv/TDSAST_IOT/Libraries/src/stm32f10x_i2c.c ****   *     @arg I2C_IT_OVR: Overrun/Underrun interrupt (Slave mode)
1285:/home/virusv/TDSAST_IOT/Libraries/src/stm32f10x_i2c.c ****   *     @arg I2C_IT_AF: Acknowledge failure interrupt
1286:/home/virusv/TDSAST_IOT/Libraries/src/stm32f10x_i2c.c ****   *     @arg I2C_IT_ARLO: Arbitration lost interrupt (Master mode)
1287:/home/virusv/TDSAST_IOT/Libraries/src/stm32f10x_i2c.c ****   *     @arg I2C_IT_BERR: Bus error interrupt
1288:/home/virusv/TDSAST_IOT/Libraries/src/stm32f10x_i2c.c ****   *   
1289:/home/virusv/TDSAST_IOT/Libraries/src/stm32f10x_i2c.c ****   * @note
1290:/home/virusv/TDSAST_IOT/Libraries/src/stm32f10x_i2c.c ****   *   - STOPF (STOP detection) is cleared by software sequence: a read operation 
1291:/home/virusv/TDSAST_IOT/Libraries/src/stm32f10x_i2c.c ****   *     to I2C_SR1 register (I2C_GetITStatus()) followed by a write operation to 
1292:/home/virusv/TDSAST_IOT/Libraries/src/stm32f10x_i2c.c ****   *     I2C_CR1 register (I2C_Cmd() to re-enable the I2C peripheral).
1293:/home/virusv/TDSAST_IOT/Libraries/src/stm32f10x_i2c.c ****   *   - ADD10 (10-bit header sent) is cleared by software sequence: a read 
1294:/home/virusv/TDSAST_IOT/Libraries/src/stm32f10x_i2c.c ****   *     operation to I2C_SR1 (I2C_GetITStatus()) followed by writing the second 
1295:/home/virusv/TDSAST_IOT/Libraries/src/stm32f10x_i2c.c ****   *     byte of the address in I2C_DR register.
1296:/home/virusv/TDSAST_IOT/Libraries/src/stm32f10x_i2c.c ****   *   - BTF (Byte Transfer Finished) is cleared by software sequence: a read 
1297:/home/virusv/TDSAST_IOT/Libraries/src/stm32f10x_i2c.c ****   *     operation to I2C_SR1 register (I2C_GetITStatus()) followed by a 
1298:/home/virusv/TDSAST_IOT/Libraries/src/stm32f10x_i2c.c ****   *     read/write to I2C_DR register (I2C_SendData()).
1299:/home/virusv/TDSAST_IOT/Libraries/src/stm32f10x_i2c.c ****   *   - ADDR (Address sent) is cleared by software sequence: a read operation to 
1300:/home/virusv/TDSAST_IOT/Libraries/src/stm32f10x_i2c.c ****   *     I2C_SR1 register (I2C_GetITStatus()) followed by a read operation to 
1301:/home/virusv/TDSAST_IOT/Libraries/src/stm32f10x_i2c.c ****   *     I2C_SR2 register ((void)(I2Cx->SR2)).
1302:/home/virusv/TDSAST_IOT/Libraries/src/stm32f10x_i2c.c ****   *   - SB (Start Bit) is cleared by software sequence: a read operation to 
1303:/home/virusv/TDSAST_IOT/Libraries/src/stm32f10x_i2c.c ****   *     I2C_SR1 register (I2C_GetITStatus()) followed by a write operation to 
1304:/home/virusv/TDSAST_IOT/Libraries/src/stm32f10x_i2c.c ****   *     I2C_DR register (I2C_SendData()).
1305:/home/virusv/TDSAST_IOT/Libraries/src/stm32f10x_i2c.c ****   * @retval None
1306:/home/virusv/TDSAST_IOT/Libraries/src/stm32f10x_i2c.c ****   */
1307:/home/virusv/TDSAST_IOT/Libraries/src/stm32f10x_i2c.c **** void I2C_ClearITPendingBit(I2C_TypeDef* I2Cx, uint32_t I2C_IT)
1308:/home/virusv/TDSAST_IOT/Libraries/src/stm32f10x_i2c.c **** {
 2111              		.loc 1 1308 0
 2112              		.cfi_startproc
 2113              		@ args = 0, pretend = 0, frame = 16
 2114              		@ frame_needed = 1, uses_anonymous_args = 0
 2115              		@ link register save eliminated.
 2116 0000 80B4     		push	{r7}
 2117              		.cfi_def_cfa_offset 4
 2118              		.cfi_offset 7, -4
 2119 0002 85B0     		sub	sp, sp, #20
 2120              		.cfi_def_cfa_offset 24
 2121 0004 00AF     		add	r7, sp, #0
 2122              		.cfi_def_cfa_register 7
 2123 0006 7860     		str	r0, [r7, #4]
 2124 0008 3960     		str	r1, [r7]
1309:/home/virusv/TDSAST_IOT/Libraries/src/stm32f10x_i2c.c ****   uint32_t flagpos = 0;
 2125              		.loc 1 1309 0
 2126 000a 0023     		movs	r3, #0
 2127 000c FB60     		str	r3, [r7, #12]
1310:/home/virusv/TDSAST_IOT/Libraries/src/stm32f10x_i2c.c ****   /* Check the parameters */
1311:/home/virusv/TDSAST_IOT/Libraries/src/stm32f10x_i2c.c ****   assert_param(IS_I2C_ALL_PERIPH(I2Cx));
1312:/home/virusv/TDSAST_IOT/Libraries/src/stm32f10x_i2c.c ****   assert_param(IS_I2C_CLEAR_IT(I2C_IT));
1313:/home/virusv/TDSAST_IOT/Libraries/src/stm32f10x_i2c.c ****   /* Get the I2C flag position */
1314:/home/virusv/TDSAST_IOT/Libraries/src/stm32f10x_i2c.c ****   flagpos = I2C_IT & FLAG_Mask;
 2128              		.loc 1 1314 0
 2129 000e 3B68     		ldr	r3, [r7]
 2130 0010 23F07F43 		bic	r3, r3, #-16777216
 2131 0014 FB60     		str	r3, [r7, #12]
1315:/home/virusv/TDSAST_IOT/Libraries/src/stm32f10x_i2c.c ****   /* Clear the selected I2C flag */
1316:/home/virusv/TDSAST_IOT/Libraries/src/stm32f10x_i2c.c ****   I2Cx->SR1 = (uint16_t)~flagpos;
 2132              		.loc 1 1316 0
 2133 0016 FB68     		ldr	r3, [r7, #12]
 2134 0018 9BB2     		uxth	r3, r3
 2135 001a DB43     		mvns	r3, r3
 2136 001c 9AB2     		uxth	r2, r3
 2137 001e 7B68     		ldr	r3, [r7, #4]
 2138 0020 9A82     		strh	r2, [r3, #20]	@ movhi
1317:/home/virusv/TDSAST_IOT/Libraries/src/stm32f10x_i2c.c **** }
 2139              		.loc 1 1317 0
 2140 0022 1437     		adds	r7, r7, #20
 2141              		.cfi_def_cfa_offset 4
 2142 0024 BD46     		mov	sp, r7
 2143              		.cfi_def_cfa_register 13
 2144              		@ sp needed
 2145 0026 5DF8047B 		ldr	r7, [sp], #4
 2146              		.cfi_restore 7
 2147              		.cfi_def_cfa_offset 0
 2148 002a 7047     		bx	lr
 2149              		.cfi_endproc
 2150              	.LFE61:
 2152              		.text
 2153              	.Letext0:
 2154              		.file 2 "/usr/include/newlib/machine/_default_types.h"
 2155              		.file 3 "/usr/include/newlib/sys/_stdint.h"
 2156              		.file 4 "/home/virusv/TDSAST_IOT/CMSIS/CM3/DeviceSupport/ST/STM32F10x/stm32f10x.h"
 2157              		.file 5 "/home/virusv/TDSAST_IOT/Libraries/inc/stm32f10x_rcc.h"
 2158              		.file 6 "/home/virusv/TDSAST_IOT/Libraries/inc/stm32f10x_i2c.h"
 2159              		.file 7 "/home/virusv/TDSAST_IOT/CMSIS/CM3/CoreSupport/core_cm3.h"