   1              		.syntax unified
   2              		.cpu cortex-m3
   3              		.fpu softvfp
   4              		.eabi_attribute 20, 1
   5              		.eabi_attribute 21, 1
   6              		.eabi_attribute 23, 3
   7              		.eabi_attribute 24, 1
   8              		.eabi_attribute 25, 1
   9              		.eabi_attribute 26, 1
  10              		.eabi_attribute 30, 6
  11              		.eabi_attribute 34, 1
  12              		.eabi_attribute 18, 4
  13              		.thumb
  14              		.file	"stm32f10x_dbgmcu.c"
  15              		.text
  16              	.Ltext0:
  17              		.cfi_sections	.debug_frame
  18              		.section	.text.DBGMCU_GetREVID,"ax",%progbits
  19              		.align	2
  20              		.global	DBGMCU_GetREVID
  21              		.thumb
  22              		.thumb_func
  24              	DBGMCU_GetREVID:
  25              	.LFB29:
  26              		.file 1 "/home/virusv/TDSAST_IOT/Libraries/src/stm32f10x_dbgmcu.c"
   1:/home/virusv/TDSAST_IOT/Libraries/src/stm32f10x_dbgmcu.c **** /**
   2:/home/virusv/TDSAST_IOT/Libraries/src/stm32f10x_dbgmcu.c ****   ******************************************************************************
   3:/home/virusv/TDSAST_IOT/Libraries/src/stm32f10x_dbgmcu.c ****   * @file    stm32f10x_dbgmcu.c
   4:/home/virusv/TDSAST_IOT/Libraries/src/stm32f10x_dbgmcu.c ****   * @author  MCD Application Team
   5:/home/virusv/TDSAST_IOT/Libraries/src/stm32f10x_dbgmcu.c ****   * @version V3.5.0
   6:/home/virusv/TDSAST_IOT/Libraries/src/stm32f10x_dbgmcu.c ****   * @date    11-March-2011
   7:/home/virusv/TDSAST_IOT/Libraries/src/stm32f10x_dbgmcu.c ****   * @brief   This file provides all the DBGMCU firmware functions.
   8:/home/virusv/TDSAST_IOT/Libraries/src/stm32f10x_dbgmcu.c ****   ******************************************************************************
   9:/home/virusv/TDSAST_IOT/Libraries/src/stm32f10x_dbgmcu.c ****   * @attention
  10:/home/virusv/TDSAST_IOT/Libraries/src/stm32f10x_dbgmcu.c ****   *
  11:/home/virusv/TDSAST_IOT/Libraries/src/stm32f10x_dbgmcu.c ****   * THE PRESENT FIRMWARE WHICH IS FOR GUIDANCE ONLY AIMS AT PROVIDING CUSTOMERS
  12:/home/virusv/TDSAST_IOT/Libraries/src/stm32f10x_dbgmcu.c ****   * WITH CODING INFORMATION REGARDING THEIR PRODUCTS IN ORDER FOR THEM TO SAVE
  13:/home/virusv/TDSAST_IOT/Libraries/src/stm32f10x_dbgmcu.c ****   * TIME. AS A RESULT, STMICROELECTRONICS SHALL NOT BE HELD LIABLE FOR ANY
  14:/home/virusv/TDSAST_IOT/Libraries/src/stm32f10x_dbgmcu.c ****   * DIRECT, INDIRECT OR CONSEQUENTIAL DAMAGES WITH RESPECT TO ANY CLAIMS ARISING
  15:/home/virusv/TDSAST_IOT/Libraries/src/stm32f10x_dbgmcu.c ****   * FROM THE CONTENT OF SUCH FIRMWARE AND/OR THE USE MADE BY CUSTOMERS OF THE
  16:/home/virusv/TDSAST_IOT/Libraries/src/stm32f10x_dbgmcu.c ****   * CODING INFORMATION CONTAINED HEREIN IN CONNECTION WITH THEIR PRODUCTS.
  17:/home/virusv/TDSAST_IOT/Libraries/src/stm32f10x_dbgmcu.c ****   *
  18:/home/virusv/TDSAST_IOT/Libraries/src/stm32f10x_dbgmcu.c ****   * <h2><center>&copy; COPYRIGHT 2011 STMicroelectronics</center></h2>
  19:/home/virusv/TDSAST_IOT/Libraries/src/stm32f10x_dbgmcu.c ****   ******************************************************************************
  20:/home/virusv/TDSAST_IOT/Libraries/src/stm32f10x_dbgmcu.c ****   */
  21:/home/virusv/TDSAST_IOT/Libraries/src/stm32f10x_dbgmcu.c **** 
  22:/home/virusv/TDSAST_IOT/Libraries/src/stm32f10x_dbgmcu.c **** /* Includes ------------------------------------------------------------------*/
  23:/home/virusv/TDSAST_IOT/Libraries/src/stm32f10x_dbgmcu.c **** #include "stm32f10x_dbgmcu.h"
  24:/home/virusv/TDSAST_IOT/Libraries/src/stm32f10x_dbgmcu.c **** 
  25:/home/virusv/TDSAST_IOT/Libraries/src/stm32f10x_dbgmcu.c **** /** @addtogroup STM32F10x_StdPeriph_Driver
  26:/home/virusv/TDSAST_IOT/Libraries/src/stm32f10x_dbgmcu.c ****   * @{
  27:/home/virusv/TDSAST_IOT/Libraries/src/stm32f10x_dbgmcu.c ****   */
  28:/home/virusv/TDSAST_IOT/Libraries/src/stm32f10x_dbgmcu.c **** 
  29:/home/virusv/TDSAST_IOT/Libraries/src/stm32f10x_dbgmcu.c **** /** @defgroup DBGMCU 
  30:/home/virusv/TDSAST_IOT/Libraries/src/stm32f10x_dbgmcu.c ****   * @brief DBGMCU driver modules
  31:/home/virusv/TDSAST_IOT/Libraries/src/stm32f10x_dbgmcu.c ****   * @{
  32:/home/virusv/TDSAST_IOT/Libraries/src/stm32f10x_dbgmcu.c ****   */ 
  33:/home/virusv/TDSAST_IOT/Libraries/src/stm32f10x_dbgmcu.c **** 
  34:/home/virusv/TDSAST_IOT/Libraries/src/stm32f10x_dbgmcu.c **** /** @defgroup DBGMCU_Private_TypesDefinitions
  35:/home/virusv/TDSAST_IOT/Libraries/src/stm32f10x_dbgmcu.c ****   * @{
  36:/home/virusv/TDSAST_IOT/Libraries/src/stm32f10x_dbgmcu.c ****   */
  37:/home/virusv/TDSAST_IOT/Libraries/src/stm32f10x_dbgmcu.c **** 
  38:/home/virusv/TDSAST_IOT/Libraries/src/stm32f10x_dbgmcu.c **** /**
  39:/home/virusv/TDSAST_IOT/Libraries/src/stm32f10x_dbgmcu.c ****   * @}
  40:/home/virusv/TDSAST_IOT/Libraries/src/stm32f10x_dbgmcu.c ****   */
  41:/home/virusv/TDSAST_IOT/Libraries/src/stm32f10x_dbgmcu.c **** 
  42:/home/virusv/TDSAST_IOT/Libraries/src/stm32f10x_dbgmcu.c **** /** @defgroup DBGMCU_Private_Defines
  43:/home/virusv/TDSAST_IOT/Libraries/src/stm32f10x_dbgmcu.c ****   * @{
  44:/home/virusv/TDSAST_IOT/Libraries/src/stm32f10x_dbgmcu.c ****   */
  45:/home/virusv/TDSAST_IOT/Libraries/src/stm32f10x_dbgmcu.c **** 
  46:/home/virusv/TDSAST_IOT/Libraries/src/stm32f10x_dbgmcu.c **** #define IDCODE_DEVID_MASK    ((uint32_t)0x00000FFF)
  47:/home/virusv/TDSAST_IOT/Libraries/src/stm32f10x_dbgmcu.c **** /**
  48:/home/virusv/TDSAST_IOT/Libraries/src/stm32f10x_dbgmcu.c ****   * @}
  49:/home/virusv/TDSAST_IOT/Libraries/src/stm32f10x_dbgmcu.c ****   */
  50:/home/virusv/TDSAST_IOT/Libraries/src/stm32f10x_dbgmcu.c **** 
  51:/home/virusv/TDSAST_IOT/Libraries/src/stm32f10x_dbgmcu.c **** /** @defgroup DBGMCU_Private_Macros
  52:/home/virusv/TDSAST_IOT/Libraries/src/stm32f10x_dbgmcu.c ****   * @{
  53:/home/virusv/TDSAST_IOT/Libraries/src/stm32f10x_dbgmcu.c ****   */
  54:/home/virusv/TDSAST_IOT/Libraries/src/stm32f10x_dbgmcu.c **** 
  55:/home/virusv/TDSAST_IOT/Libraries/src/stm32f10x_dbgmcu.c **** /**
  56:/home/virusv/TDSAST_IOT/Libraries/src/stm32f10x_dbgmcu.c ****   * @}
  57:/home/virusv/TDSAST_IOT/Libraries/src/stm32f10x_dbgmcu.c ****   */
  58:/home/virusv/TDSAST_IOT/Libraries/src/stm32f10x_dbgmcu.c **** 
  59:/home/virusv/TDSAST_IOT/Libraries/src/stm32f10x_dbgmcu.c **** /** @defgroup DBGMCU_Private_Variables
  60:/home/virusv/TDSAST_IOT/Libraries/src/stm32f10x_dbgmcu.c ****   * @{
  61:/home/virusv/TDSAST_IOT/Libraries/src/stm32f10x_dbgmcu.c ****   */
  62:/home/virusv/TDSAST_IOT/Libraries/src/stm32f10x_dbgmcu.c **** 
  63:/home/virusv/TDSAST_IOT/Libraries/src/stm32f10x_dbgmcu.c **** /**
  64:/home/virusv/TDSAST_IOT/Libraries/src/stm32f10x_dbgmcu.c ****   * @}
  65:/home/virusv/TDSAST_IOT/Libraries/src/stm32f10x_dbgmcu.c ****   */
  66:/home/virusv/TDSAST_IOT/Libraries/src/stm32f10x_dbgmcu.c **** 
  67:/home/virusv/TDSAST_IOT/Libraries/src/stm32f10x_dbgmcu.c **** /** @defgroup DBGMCU_Private_FunctionPrototypes
  68:/home/virusv/TDSAST_IOT/Libraries/src/stm32f10x_dbgmcu.c ****   * @{
  69:/home/virusv/TDSAST_IOT/Libraries/src/stm32f10x_dbgmcu.c ****   */
  70:/home/virusv/TDSAST_IOT/Libraries/src/stm32f10x_dbgmcu.c **** 
  71:/home/virusv/TDSAST_IOT/Libraries/src/stm32f10x_dbgmcu.c **** /**
  72:/home/virusv/TDSAST_IOT/Libraries/src/stm32f10x_dbgmcu.c ****   * @}
  73:/home/virusv/TDSAST_IOT/Libraries/src/stm32f10x_dbgmcu.c ****   */
  74:/home/virusv/TDSAST_IOT/Libraries/src/stm32f10x_dbgmcu.c **** 
  75:/home/virusv/TDSAST_IOT/Libraries/src/stm32f10x_dbgmcu.c **** /** @defgroup DBGMCU_Private_Functions
  76:/home/virusv/TDSAST_IOT/Libraries/src/stm32f10x_dbgmcu.c ****   * @{
  77:/home/virusv/TDSAST_IOT/Libraries/src/stm32f10x_dbgmcu.c ****   */
  78:/home/virusv/TDSAST_IOT/Libraries/src/stm32f10x_dbgmcu.c **** 
  79:/home/virusv/TDSAST_IOT/Libraries/src/stm32f10x_dbgmcu.c **** /**
  80:/home/virusv/TDSAST_IOT/Libraries/src/stm32f10x_dbgmcu.c ****   * @brief  Returns the device revision identifier.
  81:/home/virusv/TDSAST_IOT/Libraries/src/stm32f10x_dbgmcu.c ****   * @param  None
  82:/home/virusv/TDSAST_IOT/Libraries/src/stm32f10x_dbgmcu.c ****   * @retval Device revision identifier
  83:/home/virusv/TDSAST_IOT/Libraries/src/stm32f10x_dbgmcu.c ****   */
  84:/home/virusv/TDSAST_IOT/Libraries/src/stm32f10x_dbgmcu.c **** uint32_t DBGMCU_GetREVID(void)
  85:/home/virusv/TDSAST_IOT/Libraries/src/stm32f10x_dbgmcu.c **** {
  27              		.loc 1 85 0
  28              		.cfi_startproc
  29              		@ args = 0, pretend = 0, frame = 0
  30              		@ frame_needed = 1, uses_anonymous_args = 0
  31              		@ link register save eliminated.
  32 0000 80B4     		push	{r7}
  33              		.cfi_def_cfa_offset 4
  34              		.cfi_offset 7, -4
  35 0002 00AF     		add	r7, sp, #0
  36              		.cfi_def_cfa_register 7
  86:/home/virusv/TDSAST_IOT/Libraries/src/stm32f10x_dbgmcu.c ****    return(DBGMCU->IDCODE >> 16);
  37              		.loc 1 86 0
  38 0004 034B     		ldr	r3, .L3
  39 0006 1B68     		ldr	r3, [r3]
  40 0008 1B0C     		lsrs	r3, r3, #16
  87:/home/virusv/TDSAST_IOT/Libraries/src/stm32f10x_dbgmcu.c **** }
  41              		.loc 1 87 0
  42 000a 1846     		mov	r0, r3
  43 000c BD46     		mov	sp, r7
  44              		.cfi_def_cfa_register 13
  45              		@ sp needed
  46 000e 5DF8047B 		ldr	r7, [sp], #4
  47              		.cfi_restore 7
  48              		.cfi_def_cfa_offset 0
  49 0012 7047     		bx	lr
  50              	.L4:
  51              		.align	2
  52              	.L3:
  53 0014 002004E0 		.word	-536600576
  54              		.cfi_endproc
  55              	.LFE29:
  57              		.section	.text.DBGMCU_GetDEVID,"ax",%progbits
  58              		.align	2
  59              		.global	DBGMCU_GetDEVID
  60              		.thumb
  61              		.thumb_func
  63              	DBGMCU_GetDEVID:
  64              	.LFB30:
  88:/home/virusv/TDSAST_IOT/Libraries/src/stm32f10x_dbgmcu.c **** 
  89:/home/virusv/TDSAST_IOT/Libraries/src/stm32f10x_dbgmcu.c **** /**
  90:/home/virusv/TDSAST_IOT/Libraries/src/stm32f10x_dbgmcu.c ****   * @brief  Returns the device identifier.
  91:/home/virusv/TDSAST_IOT/Libraries/src/stm32f10x_dbgmcu.c ****   * @param  None
  92:/home/virusv/TDSAST_IOT/Libraries/src/stm32f10x_dbgmcu.c ****   * @retval Device identifier
  93:/home/virusv/TDSAST_IOT/Libraries/src/stm32f10x_dbgmcu.c ****   */
  94:/home/virusv/TDSAST_IOT/Libraries/src/stm32f10x_dbgmcu.c **** uint32_t DBGMCU_GetDEVID(void)
  95:/home/virusv/TDSAST_IOT/Libraries/src/stm32f10x_dbgmcu.c **** {
  65              		.loc 1 95 0
  66              		.cfi_startproc
  67              		@ args = 0, pretend = 0, frame = 0
  68              		@ frame_needed = 1, uses_anonymous_args = 0
  69              		@ link register save eliminated.
  70 0000 80B4     		push	{r7}
  71              		.cfi_def_cfa_offset 4
  72              		.cfi_offset 7, -4
  73 0002 00AF     		add	r7, sp, #0
  74              		.cfi_def_cfa_register 7
  96:/home/virusv/TDSAST_IOT/Libraries/src/stm32f10x_dbgmcu.c ****    return(DBGMCU->IDCODE & IDCODE_DEVID_MASK);
  75              		.loc 1 96 0
  76 0004 044B     		ldr	r3, .L7
  77 0006 1B68     		ldr	r3, [r3]
  78 0008 C3F30B03 		ubfx	r3, r3, #0, #12
  97:/home/virusv/TDSAST_IOT/Libraries/src/stm32f10x_dbgmcu.c **** }
  79              		.loc 1 97 0
  80 000c 1846     		mov	r0, r3
  81 000e BD46     		mov	sp, r7
  82              		.cfi_def_cfa_register 13
  83              		@ sp needed
  84 0010 5DF8047B 		ldr	r7, [sp], #4
  85              		.cfi_restore 7
  86              		.cfi_def_cfa_offset 0
  87 0014 7047     		bx	lr
  88              	.L8:
  89 0016 00BF     		.align	2
  90              	.L7:
  91 0018 002004E0 		.word	-536600576
  92              		.cfi_endproc
  93              	.LFE30:
  95              		.section	.text.DBGMCU_Config,"ax",%progbits
  96              		.align	2
  97              		.global	DBGMCU_Config
  98              		.thumb
  99              		.thumb_func
 101              	DBGMCU_Config:
 102              	.LFB31:
  98:/home/virusv/TDSAST_IOT/Libraries/src/stm32f10x_dbgmcu.c **** 
  99:/home/virusv/TDSAST_IOT/Libraries/src/stm32f10x_dbgmcu.c **** /**
 100:/home/virusv/TDSAST_IOT/Libraries/src/stm32f10x_dbgmcu.c ****   * @brief  Configures the specified peripheral and low power mode behavior
 101:/home/virusv/TDSAST_IOT/Libraries/src/stm32f10x_dbgmcu.c ****   *   when the MCU under Debug mode.
 102:/home/virusv/TDSAST_IOT/Libraries/src/stm32f10x_dbgmcu.c ****   * @param  DBGMCU_Periph: specifies the peripheral and low power mode.
 103:/home/virusv/TDSAST_IOT/Libraries/src/stm32f10x_dbgmcu.c ****   *   This parameter can be any combination of the following values:
 104:/home/virusv/TDSAST_IOT/Libraries/src/stm32f10x_dbgmcu.c ****   *     @arg DBGMCU_SLEEP: Keep debugger connection during SLEEP mode              
 105:/home/virusv/TDSAST_IOT/Libraries/src/stm32f10x_dbgmcu.c ****   *     @arg DBGMCU_STOP: Keep debugger connection during STOP mode               
 106:/home/virusv/TDSAST_IOT/Libraries/src/stm32f10x_dbgmcu.c ****   *     @arg DBGMCU_STANDBY: Keep debugger connection during STANDBY mode            
 107:/home/virusv/TDSAST_IOT/Libraries/src/stm32f10x_dbgmcu.c ****   *     @arg DBGMCU_IWDG_STOP: Debug IWDG stopped when Core is halted          
 108:/home/virusv/TDSAST_IOT/Libraries/src/stm32f10x_dbgmcu.c ****   *     @arg DBGMCU_WWDG_STOP: Debug WWDG stopped when Core is halted          
 109:/home/virusv/TDSAST_IOT/Libraries/src/stm32f10x_dbgmcu.c ****   *     @arg DBGMCU_TIM1_STOP: TIM1 counter stopped when Core is halted          
 110:/home/virusv/TDSAST_IOT/Libraries/src/stm32f10x_dbgmcu.c ****   *     @arg DBGMCU_TIM2_STOP: TIM2 counter stopped when Core is halted          
 111:/home/virusv/TDSAST_IOT/Libraries/src/stm32f10x_dbgmcu.c ****   *     @arg DBGMCU_TIM3_STOP: TIM3 counter stopped when Core is halted          
 112:/home/virusv/TDSAST_IOT/Libraries/src/stm32f10x_dbgmcu.c ****   *     @arg DBGMCU_TIM4_STOP: TIM4 counter stopped when Core is halted          
 113:/home/virusv/TDSAST_IOT/Libraries/src/stm32f10x_dbgmcu.c ****   *     @arg DBGMCU_CAN1_STOP: Debug CAN2 stopped when Core is halted           
 114:/home/virusv/TDSAST_IOT/Libraries/src/stm32f10x_dbgmcu.c ****   *     @arg DBGMCU_I2C1_SMBUS_TIMEOUT: I2C1 SMBUS timeout mode stopped when Core is halted
 115:/home/virusv/TDSAST_IOT/Libraries/src/stm32f10x_dbgmcu.c ****   *     @arg DBGMCU_I2C2_SMBUS_TIMEOUT: I2C2 SMBUS timeout mode stopped when Core is halted
 116:/home/virusv/TDSAST_IOT/Libraries/src/stm32f10x_dbgmcu.c ****   *     @arg DBGMCU_TIM5_STOP: TIM5 counter stopped when Core is halted          
 117:/home/virusv/TDSAST_IOT/Libraries/src/stm32f10x_dbgmcu.c ****   *     @arg DBGMCU_TIM6_STOP: TIM6 counter stopped when Core is halted          
 118:/home/virusv/TDSAST_IOT/Libraries/src/stm32f10x_dbgmcu.c ****   *     @arg DBGMCU_TIM7_STOP: TIM7 counter stopped when Core is halted          
 119:/home/virusv/TDSAST_IOT/Libraries/src/stm32f10x_dbgmcu.c ****   *     @arg DBGMCU_TIM8_STOP: TIM8 counter stopped when Core is halted
 120:/home/virusv/TDSAST_IOT/Libraries/src/stm32f10x_dbgmcu.c ****   *     @arg DBGMCU_CAN2_STOP: Debug CAN2 stopped when Core is halted 
 121:/home/virusv/TDSAST_IOT/Libraries/src/stm32f10x_dbgmcu.c ****   *     @arg DBGMCU_TIM15_STOP: TIM15 counter stopped when Core is halted
 122:/home/virusv/TDSAST_IOT/Libraries/src/stm32f10x_dbgmcu.c ****   *     @arg DBGMCU_TIM16_STOP: TIM16 counter stopped when Core is halted
 123:/home/virusv/TDSAST_IOT/Libraries/src/stm32f10x_dbgmcu.c ****   *     @arg DBGMCU_TIM17_STOP: TIM17 counter stopped when Core is halted                
 124:/home/virusv/TDSAST_IOT/Libraries/src/stm32f10x_dbgmcu.c ****   *     @arg DBGMCU_TIM9_STOP: TIM9 counter stopped when Core is halted
 125:/home/virusv/TDSAST_IOT/Libraries/src/stm32f10x_dbgmcu.c ****   *     @arg DBGMCU_TIM10_STOP: TIM10 counter stopped when Core is halted
 126:/home/virusv/TDSAST_IOT/Libraries/src/stm32f10x_dbgmcu.c ****   *     @arg DBGMCU_TIM11_STOP: TIM11 counter stopped when Core is halted
 127:/home/virusv/TDSAST_IOT/Libraries/src/stm32f10x_dbgmcu.c ****   *     @arg DBGMCU_TIM12_STOP: TIM12 counter stopped when Core is halted
 128:/home/virusv/TDSAST_IOT/Libraries/src/stm32f10x_dbgmcu.c ****   *     @arg DBGMCU_TIM13_STOP: TIM13 counter stopped when Core is halted
 129:/home/virusv/TDSAST_IOT/Libraries/src/stm32f10x_dbgmcu.c ****   *     @arg DBGMCU_TIM14_STOP: TIM14 counter stopped when Core is halted
 130:/home/virusv/TDSAST_IOT/Libraries/src/stm32f10x_dbgmcu.c ****   * @param  NewState: new state of the specified peripheral in Debug mode.
 131:/home/virusv/TDSAST_IOT/Libraries/src/stm32f10x_dbgmcu.c ****   *   This parameter can be: ENABLE or DISABLE.
 132:/home/virusv/TDSAST_IOT/Libraries/src/stm32f10x_dbgmcu.c ****   * @retval None
 133:/home/virusv/TDSAST_IOT/Libraries/src/stm32f10x_dbgmcu.c ****   */
 134:/home/virusv/TDSAST_IOT/Libraries/src/stm32f10x_dbgmcu.c **** void DBGMCU_Config(uint32_t DBGMCU_Periph, FunctionalState NewState)
 135:/home/virusv/TDSAST_IOT/Libraries/src/stm32f10x_dbgmcu.c **** {
 103              		.loc 1 135 0
 104              		.cfi_startproc
 105              		@ args = 0, pretend = 0, frame = 8
 106              		@ frame_needed = 1, uses_anonymous_args = 0
 107              		@ link register save eliminated.
 108 0000 80B4     		push	{r7}
 109              		.cfi_def_cfa_offset 4
 110              		.cfi_offset 7, -4
 111 0002 83B0     		sub	sp, sp, #12
 112              		.cfi_def_cfa_offset 16
 113 0004 00AF     		add	r7, sp, #0
 114              		.cfi_def_cfa_register 7
 115 0006 7860     		str	r0, [r7, #4]
 116 0008 0B46     		mov	r3, r1
 117 000a FB70     		strb	r3, [r7, #3]
 136:/home/virusv/TDSAST_IOT/Libraries/src/stm32f10x_dbgmcu.c ****   /* Check the parameters */
 137:/home/virusv/TDSAST_IOT/Libraries/src/stm32f10x_dbgmcu.c ****   assert_param(IS_DBGMCU_PERIPH(DBGMCU_Periph));
 138:/home/virusv/TDSAST_IOT/Libraries/src/stm32f10x_dbgmcu.c ****   assert_param(IS_FUNCTIONAL_STATE(NewState));
 139:/home/virusv/TDSAST_IOT/Libraries/src/stm32f10x_dbgmcu.c **** 
 140:/home/virusv/TDSAST_IOT/Libraries/src/stm32f10x_dbgmcu.c ****   if (NewState != DISABLE)
 118              		.loc 1 140 0
 119 000c FB78     		ldrb	r3, [r7, #3]	@ zero_extendqisi2
 120 000e 002B     		cmp	r3, #0
 121 0010 06D0     		beq	.L10
 141:/home/virusv/TDSAST_IOT/Libraries/src/stm32f10x_dbgmcu.c ****   {
 142:/home/virusv/TDSAST_IOT/Libraries/src/stm32f10x_dbgmcu.c ****     DBGMCU->CR |= DBGMCU_Periph;
 122              		.loc 1 142 0
 123 0012 0949     		ldr	r1, .L12
 124 0014 084B     		ldr	r3, .L12
 125 0016 5A68     		ldr	r2, [r3, #4]
 126 0018 7B68     		ldr	r3, [r7, #4]
 127 001a 1343     		orrs	r3, r3, r2
 128 001c 4B60     		str	r3, [r1, #4]
 129 001e 06E0     		b	.L9
 130              	.L10:
 143:/home/virusv/TDSAST_IOT/Libraries/src/stm32f10x_dbgmcu.c ****   }
 144:/home/virusv/TDSAST_IOT/Libraries/src/stm32f10x_dbgmcu.c ****   else
 145:/home/virusv/TDSAST_IOT/Libraries/src/stm32f10x_dbgmcu.c ****   {
 146:/home/virusv/TDSAST_IOT/Libraries/src/stm32f10x_dbgmcu.c ****     DBGMCU->CR &= ~DBGMCU_Periph;
 131              		.loc 1 146 0
 132 0020 0549     		ldr	r1, .L12
 133 0022 054B     		ldr	r3, .L12
 134 0024 5A68     		ldr	r2, [r3, #4]
 135 0026 7B68     		ldr	r3, [r7, #4]
 136 0028 DB43     		mvns	r3, r3
 137 002a 1340     		ands	r3, r3, r2
 138 002c 4B60     		str	r3, [r1, #4]
 139              	.L9:
 147:/home/virusv/TDSAST_IOT/Libraries/src/stm32f10x_dbgmcu.c ****   }
 148:/home/virusv/TDSAST_IOT/Libraries/src/stm32f10x_dbgmcu.c **** }
 140              		.loc 1 148 0
 141 002e 0C37     		adds	r7, r7, #12
 142              		.cfi_def_cfa_offset 4
 143 0030 BD46     		mov	sp, r7
 144              		.cfi_def_cfa_register 13
 145              		@ sp needed
 146 0032 5DF8047B 		ldr	r7, [sp], #4
 147              		.cfi_restore 7
 148              		.cfi_def_cfa_offset 0
 149 0036 7047     		bx	lr
 150              	.L13:
 151              		.align	2
 152              	.L12:
 153 0038 002004E0 		.word	-536600576
 154              		.cfi_endproc
 155              	.LFE31:
 157              		.text
 158              	.Letext0:
 159              		.file 2 "/usr/include/newlib/machine/_default_types.h"
 160              		.file 3 "/usr/include/newlib/sys/_stdint.h"
 161              		.file 4 "/home/virusv/TDSAST_IOT/CMSIS/CM3/DeviceSupport/ST/STM32F10x/stm32f10x.h"
 162              		.file 5 "/home/virusv/TDSAST_IOT/CMSIS/CM3/CoreSupport/core_cm3.h"