   1              		.syntax unified
   2              		.cpu cortex-m3
   3              		.fpu softvfp
   4              		.eabi_attribute 20, 1
   5              		.eabi_attribute 21, 1
   6              		.eabi_attribute 23, 3
   7              		.eabi_attribute 24, 1
   8              		.eabi_attribute 25, 1
   9              		.eabi_attribute 26, 1
  10              		.eabi_attribute 30, 6
  11              		.eabi_attribute 34, 1
  12              		.eabi_attribute 18, 4
  13              		.thumb
  14              		.file	"stm32f10x_flash.c"
  15              		.text
  16              	.Ltext0:
  17              		.cfi_sections	.debug_frame
  18              		.section	.text.FLASH_SetLatency,"ax",%progbits
  19              		.align	2
  20              		.global	FLASH_SetLatency
  21              		.thumb
  22              		.thumb_func
  24              	FLASH_SetLatency:
  25              	.LFB29:
  26              		.file 1 "/home/virusv/usart/Libraries/src/stm32f10x_flash.c"
   1:/home/virusv/usart/Libraries/src/stm32f10x_flash.c **** /**
   2:/home/virusv/usart/Libraries/src/stm32f10x_flash.c ****   ******************************************************************************
   3:/home/virusv/usart/Libraries/src/stm32f10x_flash.c ****   * @file    stm32f10x_flash.c
   4:/home/virusv/usart/Libraries/src/stm32f10x_flash.c ****   * @author  MCD Application Team
   5:/home/virusv/usart/Libraries/src/stm32f10x_flash.c ****   * @version V3.5.0
   6:/home/virusv/usart/Libraries/src/stm32f10x_flash.c ****   * @date    11-March-2011
   7:/home/virusv/usart/Libraries/src/stm32f10x_flash.c ****   * @brief   This file provides all the FLASH firmware functions.
   8:/home/virusv/usart/Libraries/src/stm32f10x_flash.c ****   ******************************************************************************
   9:/home/virusv/usart/Libraries/src/stm32f10x_flash.c ****   * @attention
  10:/home/virusv/usart/Libraries/src/stm32f10x_flash.c ****   *
  11:/home/virusv/usart/Libraries/src/stm32f10x_flash.c ****   * THE PRESENT FIRMWARE WHICH IS FOR GUIDANCE ONLY AIMS AT PROVIDING CUSTOMERS
  12:/home/virusv/usart/Libraries/src/stm32f10x_flash.c ****   * WITH CODING INFORMATION REGARDING THEIR PRODUCTS IN ORDER FOR THEM TO SAVE
  13:/home/virusv/usart/Libraries/src/stm32f10x_flash.c ****   * TIME. AS A RESULT, STMICROELECTRONICS SHALL NOT BE HELD LIABLE FOR ANY
  14:/home/virusv/usart/Libraries/src/stm32f10x_flash.c ****   * DIRECT, INDIRECT OR CONSEQUENTIAL DAMAGES WITH RESPECT TO ANY CLAIMS ARISING
  15:/home/virusv/usart/Libraries/src/stm32f10x_flash.c ****   * FROM THE CONTENT OF SUCH FIRMWARE AND/OR THE USE MADE BY CUSTOMERS OF THE
  16:/home/virusv/usart/Libraries/src/stm32f10x_flash.c ****   * CODING INFORMATION CONTAINED HEREIN IN CONNECTION WITH THEIR PRODUCTS.
  17:/home/virusv/usart/Libraries/src/stm32f10x_flash.c ****   *
  18:/home/virusv/usart/Libraries/src/stm32f10x_flash.c ****   * <h2><center>&copy; COPYRIGHT 2011 STMicroelectronics</center></h2>
  19:/home/virusv/usart/Libraries/src/stm32f10x_flash.c ****   ******************************************************************************
  20:/home/virusv/usart/Libraries/src/stm32f10x_flash.c ****   */
  21:/home/virusv/usart/Libraries/src/stm32f10x_flash.c **** 
  22:/home/virusv/usart/Libraries/src/stm32f10x_flash.c **** /* Includes ------------------------------------------------------------------*/
  23:/home/virusv/usart/Libraries/src/stm32f10x_flash.c **** #include "stm32f10x_flash.h"
  24:/home/virusv/usart/Libraries/src/stm32f10x_flash.c **** 
  25:/home/virusv/usart/Libraries/src/stm32f10x_flash.c **** /** @addtogroup STM32F10x_StdPeriph_Driver
  26:/home/virusv/usart/Libraries/src/stm32f10x_flash.c ****   * @{
  27:/home/virusv/usart/Libraries/src/stm32f10x_flash.c ****   */
  28:/home/virusv/usart/Libraries/src/stm32f10x_flash.c **** 
  29:/home/virusv/usart/Libraries/src/stm32f10x_flash.c **** /** @defgroup FLASH 
  30:/home/virusv/usart/Libraries/src/stm32f10x_flash.c ****   * @brief FLASH driver modules
  31:/home/virusv/usart/Libraries/src/stm32f10x_flash.c ****   * @{
  32:/home/virusv/usart/Libraries/src/stm32f10x_flash.c ****   */ 
  33:/home/virusv/usart/Libraries/src/stm32f10x_flash.c **** 
  34:/home/virusv/usart/Libraries/src/stm32f10x_flash.c **** /** @defgroup FLASH_Private_TypesDefinitions
  35:/home/virusv/usart/Libraries/src/stm32f10x_flash.c ****   * @{
  36:/home/virusv/usart/Libraries/src/stm32f10x_flash.c ****   */
  37:/home/virusv/usart/Libraries/src/stm32f10x_flash.c **** 
  38:/home/virusv/usart/Libraries/src/stm32f10x_flash.c **** /**
  39:/home/virusv/usart/Libraries/src/stm32f10x_flash.c ****   * @}
  40:/home/virusv/usart/Libraries/src/stm32f10x_flash.c ****   */ 
  41:/home/virusv/usart/Libraries/src/stm32f10x_flash.c **** 
  42:/home/virusv/usart/Libraries/src/stm32f10x_flash.c **** /** @defgroup FLASH_Private_Defines
  43:/home/virusv/usart/Libraries/src/stm32f10x_flash.c ****   * @{
  44:/home/virusv/usart/Libraries/src/stm32f10x_flash.c ****   */ 
  45:/home/virusv/usart/Libraries/src/stm32f10x_flash.c **** 
  46:/home/virusv/usart/Libraries/src/stm32f10x_flash.c **** /* Flash Access Control Register bits */
  47:/home/virusv/usart/Libraries/src/stm32f10x_flash.c **** #define ACR_LATENCY_Mask         ((uint32_t)0x00000038)
  48:/home/virusv/usart/Libraries/src/stm32f10x_flash.c **** #define ACR_HLFCYA_Mask          ((uint32_t)0xFFFFFFF7)
  49:/home/virusv/usart/Libraries/src/stm32f10x_flash.c **** #define ACR_PRFTBE_Mask          ((uint32_t)0xFFFFFFEF)
  50:/home/virusv/usart/Libraries/src/stm32f10x_flash.c **** 
  51:/home/virusv/usart/Libraries/src/stm32f10x_flash.c **** /* Flash Access Control Register bits */
  52:/home/virusv/usart/Libraries/src/stm32f10x_flash.c **** #define ACR_PRFTBS_Mask          ((uint32_t)0x00000020) 
  53:/home/virusv/usart/Libraries/src/stm32f10x_flash.c **** 
  54:/home/virusv/usart/Libraries/src/stm32f10x_flash.c **** /* Flash Control Register bits */
  55:/home/virusv/usart/Libraries/src/stm32f10x_flash.c **** #define CR_PG_Set                ((uint32_t)0x00000001)
  56:/home/virusv/usart/Libraries/src/stm32f10x_flash.c **** #define CR_PG_Reset              ((uint32_t)0x00001FFE) 
  57:/home/virusv/usart/Libraries/src/stm32f10x_flash.c **** #define CR_PER_Set               ((uint32_t)0x00000002)
  58:/home/virusv/usart/Libraries/src/stm32f10x_flash.c **** #define CR_PER_Reset             ((uint32_t)0x00001FFD)
  59:/home/virusv/usart/Libraries/src/stm32f10x_flash.c **** #define CR_MER_Set               ((uint32_t)0x00000004)
  60:/home/virusv/usart/Libraries/src/stm32f10x_flash.c **** #define CR_MER_Reset             ((uint32_t)0x00001FFB)
  61:/home/virusv/usart/Libraries/src/stm32f10x_flash.c **** #define CR_OPTPG_Set             ((uint32_t)0x00000010)
  62:/home/virusv/usart/Libraries/src/stm32f10x_flash.c **** #define CR_OPTPG_Reset           ((uint32_t)0x00001FEF)
  63:/home/virusv/usart/Libraries/src/stm32f10x_flash.c **** #define CR_OPTER_Set             ((uint32_t)0x00000020)
  64:/home/virusv/usart/Libraries/src/stm32f10x_flash.c **** #define CR_OPTER_Reset           ((uint32_t)0x00001FDF)
  65:/home/virusv/usart/Libraries/src/stm32f10x_flash.c **** #define CR_STRT_Set              ((uint32_t)0x00000040)
  66:/home/virusv/usart/Libraries/src/stm32f10x_flash.c **** #define CR_LOCK_Set              ((uint32_t)0x00000080)
  67:/home/virusv/usart/Libraries/src/stm32f10x_flash.c **** 
  68:/home/virusv/usart/Libraries/src/stm32f10x_flash.c **** /* FLASH Mask */
  69:/home/virusv/usart/Libraries/src/stm32f10x_flash.c **** #define RDPRT_Mask               ((uint32_t)0x00000002)
  70:/home/virusv/usart/Libraries/src/stm32f10x_flash.c **** #define WRP0_Mask                ((uint32_t)0x000000FF)
  71:/home/virusv/usart/Libraries/src/stm32f10x_flash.c **** #define WRP1_Mask                ((uint32_t)0x0000FF00)
  72:/home/virusv/usart/Libraries/src/stm32f10x_flash.c **** #define WRP2_Mask                ((uint32_t)0x00FF0000)
  73:/home/virusv/usart/Libraries/src/stm32f10x_flash.c **** #define WRP3_Mask                ((uint32_t)0xFF000000)
  74:/home/virusv/usart/Libraries/src/stm32f10x_flash.c **** #define OB_USER_BFB2             ((uint16_t)0x0008)
  75:/home/virusv/usart/Libraries/src/stm32f10x_flash.c **** 
  76:/home/virusv/usart/Libraries/src/stm32f10x_flash.c **** /* FLASH Keys */
  77:/home/virusv/usart/Libraries/src/stm32f10x_flash.c **** #define RDP_Key                  ((uint16_t)0x00A5)
  78:/home/virusv/usart/Libraries/src/stm32f10x_flash.c **** #define FLASH_KEY1               ((uint32_t)0x45670123)
  79:/home/virusv/usart/Libraries/src/stm32f10x_flash.c **** #define FLASH_KEY2               ((uint32_t)0xCDEF89AB)
  80:/home/virusv/usart/Libraries/src/stm32f10x_flash.c **** 
  81:/home/virusv/usart/Libraries/src/stm32f10x_flash.c **** /* FLASH BANK address */
  82:/home/virusv/usart/Libraries/src/stm32f10x_flash.c **** #define FLASH_BANK1_END_ADDRESS   ((uint32_t)0x807FFFF)
  83:/home/virusv/usart/Libraries/src/stm32f10x_flash.c **** 
  84:/home/virusv/usart/Libraries/src/stm32f10x_flash.c **** /* Delay definition */   
  85:/home/virusv/usart/Libraries/src/stm32f10x_flash.c **** #define EraseTimeout          ((uint32_t)0x000B0000)
  86:/home/virusv/usart/Libraries/src/stm32f10x_flash.c **** #define ProgramTimeout        ((uint32_t)0x00002000)
  87:/home/virusv/usart/Libraries/src/stm32f10x_flash.c **** /**
  88:/home/virusv/usart/Libraries/src/stm32f10x_flash.c ****   * @}
  89:/home/virusv/usart/Libraries/src/stm32f10x_flash.c ****   */ 
  90:/home/virusv/usart/Libraries/src/stm32f10x_flash.c **** 
  91:/home/virusv/usart/Libraries/src/stm32f10x_flash.c **** /** @defgroup FLASH_Private_Macros
  92:/home/virusv/usart/Libraries/src/stm32f10x_flash.c ****   * @{
  93:/home/virusv/usart/Libraries/src/stm32f10x_flash.c ****   */
  94:/home/virusv/usart/Libraries/src/stm32f10x_flash.c **** 
  95:/home/virusv/usart/Libraries/src/stm32f10x_flash.c **** /**
  96:/home/virusv/usart/Libraries/src/stm32f10x_flash.c ****   * @}
  97:/home/virusv/usart/Libraries/src/stm32f10x_flash.c ****   */ 
  98:/home/virusv/usart/Libraries/src/stm32f10x_flash.c **** 
  99:/home/virusv/usart/Libraries/src/stm32f10x_flash.c **** /** @defgroup FLASH_Private_Variables
 100:/home/virusv/usart/Libraries/src/stm32f10x_flash.c ****   * @{
 101:/home/virusv/usart/Libraries/src/stm32f10x_flash.c ****   */
 102:/home/virusv/usart/Libraries/src/stm32f10x_flash.c **** 
 103:/home/virusv/usart/Libraries/src/stm32f10x_flash.c **** /**
 104:/home/virusv/usart/Libraries/src/stm32f10x_flash.c ****   * @}
 105:/home/virusv/usart/Libraries/src/stm32f10x_flash.c ****   */ 
 106:/home/virusv/usart/Libraries/src/stm32f10x_flash.c **** 
 107:/home/virusv/usart/Libraries/src/stm32f10x_flash.c **** /** @defgroup FLASH_Private_FunctionPrototypes
 108:/home/virusv/usart/Libraries/src/stm32f10x_flash.c ****   * @{
 109:/home/virusv/usart/Libraries/src/stm32f10x_flash.c ****   */
 110:/home/virusv/usart/Libraries/src/stm32f10x_flash.c ****   
 111:/home/virusv/usart/Libraries/src/stm32f10x_flash.c **** /**
 112:/home/virusv/usart/Libraries/src/stm32f10x_flash.c ****   * @}
 113:/home/virusv/usart/Libraries/src/stm32f10x_flash.c ****   */
 114:/home/virusv/usart/Libraries/src/stm32f10x_flash.c **** 
 115:/home/virusv/usart/Libraries/src/stm32f10x_flash.c **** /** @defgroup FLASH_Private_Functions
 116:/home/virusv/usart/Libraries/src/stm32f10x_flash.c ****   * @{
 117:/home/virusv/usart/Libraries/src/stm32f10x_flash.c ****   */
 118:/home/virusv/usart/Libraries/src/stm32f10x_flash.c **** 
 119:/home/virusv/usart/Libraries/src/stm32f10x_flash.c **** /**
 120:/home/virusv/usart/Libraries/src/stm32f10x_flash.c **** @code  
 121:/home/virusv/usart/Libraries/src/stm32f10x_flash.c ****  
 122:/home/virusv/usart/Libraries/src/stm32f10x_flash.c ****  This driver provides functions to configure and program the Flash memory of all STM32F10x devices,
 123:/home/virusv/usart/Libraries/src/stm32f10x_flash.c ****  including the latest STM32F10x_XL density devices. 
 124:/home/virusv/usart/Libraries/src/stm32f10x_flash.c **** 
 125:/home/virusv/usart/Libraries/src/stm32f10x_flash.c ****  STM32F10x_XL devices feature up to 1 Mbyte with dual bank architecture for read-while-write (RWW) 
 126:/home/virusv/usart/Libraries/src/stm32f10x_flash.c ****     - bank1: fixed size of 512 Kbytes (256 pages of 2Kbytes each)
 127:/home/virusv/usart/Libraries/src/stm32f10x_flash.c ****     - bank2: up to 512 Kbytes (up to 256 pages of 2Kbytes each)
 128:/home/virusv/usart/Libraries/src/stm32f10x_flash.c ****  While other STM32F10x devices features only one bank with memory up to 512 Kbytes.
 129:/home/virusv/usart/Libraries/src/stm32f10x_flash.c **** 
 130:/home/virusv/usart/Libraries/src/stm32f10x_flash.c ****  In version V3.3.0, some functions were updated and new ones were added to support
 131:/home/virusv/usart/Libraries/src/stm32f10x_flash.c ****  STM32F10x_XL devices. Thus some functions manages all devices, while other are 
 132:/home/virusv/usart/Libraries/src/stm32f10x_flash.c ****  dedicated for XL devices only.
 133:/home/virusv/usart/Libraries/src/stm32f10x_flash.c ****  
 134:/home/virusv/usart/Libraries/src/stm32f10x_flash.c ****  The table below presents the list of available functions depending on the used STM32F10x devices. 
 135:/home/virusv/usart/Libraries/src/stm32f10x_flash.c ****       
 136:/home/virusv/usart/Libraries/src/stm32f10x_flash.c ****    ***************************************************
 137:/home/virusv/usart/Libraries/src/stm32f10x_flash.c ****    * Legacy functions used for all STM32F10x devices *
 138:/home/virusv/usart/Libraries/src/stm32f10x_flash.c ****    ***************************************************
 139:/home/virusv/usart/Libraries/src/stm32f10x_flash.c ****    +-----------------------------------------------------------------------------------------------
 140:/home/virusv/usart/Libraries/src/stm32f10x_flash.c ****    |       Functions prototypes         |STM32F10x_XL|Other STM32F10x|    Comments                 
 141:/home/virusv/usart/Libraries/src/stm32f10x_flash.c ****    |                                    |   devices  |  devices      |                             
 142:/home/virusv/usart/Libraries/src/stm32f10x_flash.c ****    |-----------------------------------------------------------------------------------------------
 143:/home/virusv/usart/Libraries/src/stm32f10x_flash.c ****    |FLASH_SetLatency                    |    Yes     |      Yes      | No change                   
 144:/home/virusv/usart/Libraries/src/stm32f10x_flash.c ****    |-----------------------------------------------------------------------------------------------
 145:/home/virusv/usart/Libraries/src/stm32f10x_flash.c ****    |FLASH_HalfCycleAccessCmd            |    Yes     |      Yes      | No change                   
 146:/home/virusv/usart/Libraries/src/stm32f10x_flash.c ****    |-----------------------------------------------------------------------------------------------
 147:/home/virusv/usart/Libraries/src/stm32f10x_flash.c ****    |FLASH_PrefetchBufferCmd             |    Yes     |      Yes      | No change                   
 148:/home/virusv/usart/Libraries/src/stm32f10x_flash.c ****    |-----------------------------------------------------------------------------------------------
 149:/home/virusv/usart/Libraries/src/stm32f10x_flash.c ****    |FLASH_Unlock                        |    Yes     |      Yes      | - For STM32F10X_XL devices: 
 150:/home/virusv/usart/Libraries/src/stm32f10x_flash.c ****    |                                    |            |               | - For other devices: unlock 
 151:/home/virusv/usart/Libraries/src/stm32f10x_flash.c ****    |                                    |            |               |   to FLASH_UnlockBank1 funct
 152:/home/virusv/usart/Libraries/src/stm32f10x_flash.c ****    |-----------------------------------------------------------------------------------------------
 153:/home/virusv/usart/Libraries/src/stm32f10x_flash.c ****    |FLASH_Lock                          |    Yes     |      Yes      | - For STM32F10X_XL devices: 
 154:/home/virusv/usart/Libraries/src/stm32f10x_flash.c ****    |                                    |            |               | - For other devices: lock Ba
 155:/home/virusv/usart/Libraries/src/stm32f10x_flash.c ****    |                                    |            |               |   to FLASH_LockBank1 functio
 156:/home/virusv/usart/Libraries/src/stm32f10x_flash.c ****    |-----------------------------------------------------------------------------------------------
 157:/home/virusv/usart/Libraries/src/stm32f10x_flash.c ****    |FLASH_ErasePage                     |    Yes     |      Yes      | - For STM32F10x_XL devices: 
 158:/home/virusv/usart/Libraries/src/stm32f10x_flash.c ****    |                                    |            |               | - For other devices: erase a
 159:/home/virusv/usart/Libraries/src/stm32f10x_flash.c ****    |-----------------------------------------------------------------------------------------------
 160:/home/virusv/usart/Libraries/src/stm32f10x_flash.c ****    |FLASH_EraseAllPages                 |    Yes     |      Yes      | - For STM32F10x_XL devices: 
 161:/home/virusv/usart/Libraries/src/stm32f10x_flash.c ****    |                                    |            |               | - For other devices: erase a
 162:/home/virusv/usart/Libraries/src/stm32f10x_flash.c ****    |-----------------------------------------------------------------------------------------------
 163:/home/virusv/usart/Libraries/src/stm32f10x_flash.c ****    |FLASH_EraseOptionBytes              |    Yes     |      Yes      | No change                   
 164:/home/virusv/usart/Libraries/src/stm32f10x_flash.c ****    |-----------------------------------------------------------------------------------------------
 165:/home/virusv/usart/Libraries/src/stm32f10x_flash.c ****    |FLASH_ProgramWord                   |    Yes     |      Yes      | Updated to program up to 1MB
 166:/home/virusv/usart/Libraries/src/stm32f10x_flash.c ****    |-----------------------------------------------------------------------------------------------
 167:/home/virusv/usart/Libraries/src/stm32f10x_flash.c ****    |FLASH_ProgramHalfWord               |    Yes     |      Yes      | Updated to program up to 1MB
 168:/home/virusv/usart/Libraries/src/stm32f10x_flash.c ****    |-----------------------------------------------------------------------------------------------
 169:/home/virusv/usart/Libraries/src/stm32f10x_flash.c ****    |FLASH_ProgramOptionByteData         |    Yes     |      Yes      | No change                   
 170:/home/virusv/usart/Libraries/src/stm32f10x_flash.c ****    |-----------------------------------------------------------------------------------------------
 171:/home/virusv/usart/Libraries/src/stm32f10x_flash.c ****    |FLASH_EnableWriteProtection         |    Yes     |      Yes      | No change                   
 172:/home/virusv/usart/Libraries/src/stm32f10x_flash.c ****    |-----------------------------------------------------------------------------------------------
 173:/home/virusv/usart/Libraries/src/stm32f10x_flash.c ****    |FLASH_ReadOutProtection             |    Yes     |      Yes      | No change                   
 174:/home/virusv/usart/Libraries/src/stm32f10x_flash.c ****    |-----------------------------------------------------------------------------------------------
 175:/home/virusv/usart/Libraries/src/stm32f10x_flash.c ****    |FLASH_UserOptionByteConfig          |    Yes     |      Yes      | No change                   
 176:/home/virusv/usart/Libraries/src/stm32f10x_flash.c ****    |-----------------------------------------------------------------------------------------------
 177:/home/virusv/usart/Libraries/src/stm32f10x_flash.c ****    |FLASH_GetUserOptionByte             |    Yes     |      Yes      | No change                   
 178:/home/virusv/usart/Libraries/src/stm32f10x_flash.c ****    |-----------------------------------------------------------------------------------------------
 179:/home/virusv/usart/Libraries/src/stm32f10x_flash.c ****    |FLASH_GetWriteProtectionOptionByte  |    Yes     |      Yes      | No change                   
 180:/home/virusv/usart/Libraries/src/stm32f10x_flash.c ****    |-----------------------------------------------------------------------------------------------
 181:/home/virusv/usart/Libraries/src/stm32f10x_flash.c ****    |FLASH_GetReadOutProtectionStatus    |    Yes     |      Yes      | No change                   
 182:/home/virusv/usart/Libraries/src/stm32f10x_flash.c ****    |-----------------------------------------------------------------------------------------------
 183:/home/virusv/usart/Libraries/src/stm32f10x_flash.c ****    |FLASH_GetPrefetchBufferStatus       |    Yes     |      Yes      | No change                   
 184:/home/virusv/usart/Libraries/src/stm32f10x_flash.c ****    |-----------------------------------------------------------------------------------------------
 185:/home/virusv/usart/Libraries/src/stm32f10x_flash.c ****    |FLASH_ITConfig                      |    Yes     |      Yes      | - For STM32F10x_XL devices: 
 186:/home/virusv/usart/Libraries/src/stm32f10x_flash.c ****    |                                    |            |               | - For other devices: enable 
 187:/home/virusv/usart/Libraries/src/stm32f10x_flash.c ****    |-----------------------------------------------------------------------------------------------
 188:/home/virusv/usart/Libraries/src/stm32f10x_flash.c ****    |FLASH_GetFlagStatus                 |    Yes     |      Yes      | - For STM32F10x_XL devices: 
 189:/home/virusv/usart/Libraries/src/stm32f10x_flash.c ****    |                                    |            |               | - For other devices: return 
 190:/home/virusv/usart/Libraries/src/stm32f10x_flash.c ****    |-----------------------------------------------------------------------------------------------
 191:/home/virusv/usart/Libraries/src/stm32f10x_flash.c ****    |FLASH_ClearFlag                     |    Yes     |      Yes      | - For STM32F10x_XL devices: 
 192:/home/virusv/usart/Libraries/src/stm32f10x_flash.c ****    |                                    |            |               | - For other devices: clear B
 193:/home/virusv/usart/Libraries/src/stm32f10x_flash.c ****    |-----------------------------------------------------------------------------------------------
 194:/home/virusv/usart/Libraries/src/stm32f10x_flash.c ****    |FLASH_GetStatus                     |    Yes     |      Yes      | - Return the status of Bank1
 195:/home/virusv/usart/Libraries/src/stm32f10x_flash.c ****    |                                    |            |               |   equivalent to FLASH_GetBan
 196:/home/virusv/usart/Libraries/src/stm32f10x_flash.c ****    |-----------------------------------------------------------------------------------------------
 197:/home/virusv/usart/Libraries/src/stm32f10x_flash.c ****    |FLASH_WaitForLastOperation          |    Yes     |      Yes      | - Wait for Bank1 last operat
 198:/home/virusv/usart/Libraries/src/stm32f10x_flash.c ****    |                                    |            |               |   equivalent to: FLASH_WaitF
 199:/home/virusv/usart/Libraries/src/stm32f10x_flash.c ****    +-----------------------------------------------------------------------------------------------
 200:/home/virusv/usart/Libraries/src/stm32f10x_flash.c **** 
 201:/home/virusv/usart/Libraries/src/stm32f10x_flash.c ****    ************************************************************************************************
 202:/home/virusv/usart/Libraries/src/stm32f10x_flash.c ****    * New functions used for all STM32F10x devices to manage Bank1:                                 
 203:/home/virusv/usart/Libraries/src/stm32f10x_flash.c ****    *   - These functions are mainly useful for STM32F10x_XL density devices, to have separate contr
 204:/home/virusv/usart/Libraries/src/stm32f10x_flash.c ****    *   - For other devices, these functions are optional (covered by functions listed above)       
 205:/home/virusv/usart/Libraries/src/stm32f10x_flash.c ****    ************************************************************************************************
 206:/home/virusv/usart/Libraries/src/stm32f10x_flash.c ****    +-----------------------------------------------------------------------------------------------
 207:/home/virusv/usart/Libraries/src/stm32f10x_flash.c ****    |       Functions prototypes         |STM32F10x_XL|Other STM32F10x|    Comments                 
 208:/home/virusv/usart/Libraries/src/stm32f10x_flash.c ****    |                                    |   devices  |  devices      |                             
 209:/home/virusv/usart/Libraries/src/stm32f10x_flash.c ****    |-----------------------------------------------------------------------------------------------
 210:/home/virusv/usart/Libraries/src/stm32f10x_flash.c ****    | FLASH_UnlockBank1                  |    Yes     |      Yes      | - Unlock Bank1              
 211:/home/virusv/usart/Libraries/src/stm32f10x_flash.c ****    |-----------------------------------------------------------------------------------------------
 212:/home/virusv/usart/Libraries/src/stm32f10x_flash.c ****    |FLASH_LockBank1                     |    Yes     |      Yes      | - Lock Bank1                
 213:/home/virusv/usart/Libraries/src/stm32f10x_flash.c ****    |-----------------------------------------------------------------------------------------------
 214:/home/virusv/usart/Libraries/src/stm32f10x_flash.c ****    | FLASH_EraseAllBank1Pages           |    Yes     |      Yes      | - Erase all pages in Bank1  
 215:/home/virusv/usart/Libraries/src/stm32f10x_flash.c ****    |-----------------------------------------------------------------------------------------------
 216:/home/virusv/usart/Libraries/src/stm32f10x_flash.c ****    | FLASH_GetBank1Status               |    Yes     |      Yes      | - Return the status of Bank1
 217:/home/virusv/usart/Libraries/src/stm32f10x_flash.c ****    |-----------------------------------------------------------------------------------------------
 218:/home/virusv/usart/Libraries/src/stm32f10x_flash.c ****    | FLASH_WaitForLastBank1Operation    |    Yes     |      Yes      | - Wait for Bank1 last operat
 219:/home/virusv/usart/Libraries/src/stm32f10x_flash.c ****    +-----------------------------------------------------------------------------------------------
 220:/home/virusv/usart/Libraries/src/stm32f10x_flash.c **** 
 221:/home/virusv/usart/Libraries/src/stm32f10x_flash.c ****    *****************************************************************************
 222:/home/virusv/usart/Libraries/src/stm32f10x_flash.c ****    * New Functions used only with STM32F10x_XL density devices to manage Bank2 *
 223:/home/virusv/usart/Libraries/src/stm32f10x_flash.c ****    *****************************************************************************
 224:/home/virusv/usart/Libraries/src/stm32f10x_flash.c ****    +-----------------------------------------------------------------------------------------------
 225:/home/virusv/usart/Libraries/src/stm32f10x_flash.c ****    |       Functions prototypes         |STM32F10x_XL|Other STM32F10x|    Comments                 
 226:/home/virusv/usart/Libraries/src/stm32f10x_flash.c ****    |                                    |   devices  |  devices      |                             
 227:/home/virusv/usart/Libraries/src/stm32f10x_flash.c ****    |-----------------------------------------------------------------------------------------------
 228:/home/virusv/usart/Libraries/src/stm32f10x_flash.c ****    | FLASH_UnlockBank2                  |    Yes     |      No       | - Unlock Bank2              
 229:/home/virusv/usart/Libraries/src/stm32f10x_flash.c ****    |-----------------------------------------------------------------------------------------------
 230:/home/virusv/usart/Libraries/src/stm32f10x_flash.c ****    |FLASH_LockBank2                     |    Yes     |      No       | - Lock Bank2                
 231:/home/virusv/usart/Libraries/src/stm32f10x_flash.c ****    |-----------------------------------------------------------------------------------------------
 232:/home/virusv/usart/Libraries/src/stm32f10x_flash.c ****    | FLASH_EraseAllBank2Pages           |    Yes     |      No       | - Erase all pages in Bank2  
 233:/home/virusv/usart/Libraries/src/stm32f10x_flash.c ****    |-----------------------------------------------------------------------------------------------
 234:/home/virusv/usart/Libraries/src/stm32f10x_flash.c ****    | FLASH_GetBank2Status               |    Yes     |      No       | - Return the status of Bank2
 235:/home/virusv/usart/Libraries/src/stm32f10x_flash.c ****    |-----------------------------------------------------------------------------------------------
 236:/home/virusv/usart/Libraries/src/stm32f10x_flash.c ****    | FLASH_WaitForLastBank2Operation    |    Yes     |      No       | - Wait for Bank2 last operat
 237:/home/virusv/usart/Libraries/src/stm32f10x_flash.c ****    |-----------------------------------------------------------------------------------------------
 238:/home/virusv/usart/Libraries/src/stm32f10x_flash.c ****    | FLASH_BootConfig                   |    Yes     |      No       | - Configure to boot from Ban
 239:/home/virusv/usart/Libraries/src/stm32f10x_flash.c ****    +-----------------------------------------------------------------------------------------------
 240:/home/virusv/usart/Libraries/src/stm32f10x_flash.c **** @endcode
 241:/home/virusv/usart/Libraries/src/stm32f10x_flash.c **** */
 242:/home/virusv/usart/Libraries/src/stm32f10x_flash.c **** 
 243:/home/virusv/usart/Libraries/src/stm32f10x_flash.c **** 
 244:/home/virusv/usart/Libraries/src/stm32f10x_flash.c **** /**
 245:/home/virusv/usart/Libraries/src/stm32f10x_flash.c ****   * @brief  Sets the code latency value.
 246:/home/virusv/usart/Libraries/src/stm32f10x_flash.c ****   * @note   This function can be used for all STM32F10x devices.
 247:/home/virusv/usart/Libraries/src/stm32f10x_flash.c ****   * @param  FLASH_Latency: specifies the FLASH Latency value.
 248:/home/virusv/usart/Libraries/src/stm32f10x_flash.c ****   *   This parameter can be one of the following values:
 249:/home/virusv/usart/Libraries/src/stm32f10x_flash.c ****   *     @arg FLASH_Latency_0: FLASH Zero Latency cycle
 250:/home/virusv/usart/Libraries/src/stm32f10x_flash.c ****   *     @arg FLASH_Latency_1: FLASH One Latency cycle
 251:/home/virusv/usart/Libraries/src/stm32f10x_flash.c ****   *     @arg FLASH_Latency_2: FLASH Two Latency cycles
 252:/home/virusv/usart/Libraries/src/stm32f10x_flash.c ****   * @retval None
 253:/home/virusv/usart/Libraries/src/stm32f10x_flash.c ****   */
 254:/home/virusv/usart/Libraries/src/stm32f10x_flash.c **** void FLASH_SetLatency(uint32_t FLASH_Latency)
 255:/home/virusv/usart/Libraries/src/stm32f10x_flash.c **** {
  27              		.loc 1 255 0
  28              		.cfi_startproc
  29              		@ args = 0, pretend = 0, frame = 16
  30              		@ frame_needed = 1, uses_anonymous_args = 0
  31              		@ link register save eliminated.
  32 0000 80B4     		push	{r7}
  33              		.cfi_def_cfa_offset 4
  34              		.cfi_offset 7, -4
  35 0002 85B0     		sub	sp, sp, #20
  36              		.cfi_def_cfa_offset 24
  37 0004 00AF     		add	r7, sp, #0
  38              		.cfi_def_cfa_register 7
  39 0006 7860     		str	r0, [r7, #4]
 256:/home/virusv/usart/Libraries/src/stm32f10x_flash.c ****   uint32_t tmpreg = 0;
  40              		.loc 1 256 0
  41 0008 0023     		movs	r3, #0
  42 000a FB60     		str	r3, [r7, #12]
 257:/home/virusv/usart/Libraries/src/stm32f10x_flash.c ****   
 258:/home/virusv/usart/Libraries/src/stm32f10x_flash.c ****   /* Check the parameters */
 259:/home/virusv/usart/Libraries/src/stm32f10x_flash.c ****   assert_param(IS_FLASH_LATENCY(FLASH_Latency));
 260:/home/virusv/usart/Libraries/src/stm32f10x_flash.c ****   
 261:/home/virusv/usart/Libraries/src/stm32f10x_flash.c ****   /* Read the ACR register */
 262:/home/virusv/usart/Libraries/src/stm32f10x_flash.c ****   tmpreg = FLASH->ACR;  
  43              		.loc 1 262 0
  44 000c 094B     		ldr	r3, .L2
  45 000e 1B68     		ldr	r3, [r3]
  46 0010 FB60     		str	r3, [r7, #12]
 263:/home/virusv/usart/Libraries/src/stm32f10x_flash.c ****   
 264:/home/virusv/usart/Libraries/src/stm32f10x_flash.c ****   /* Sets the Latency value */
 265:/home/virusv/usart/Libraries/src/stm32f10x_flash.c ****   tmpreg &= ACR_LATENCY_Mask;
  47              		.loc 1 265 0
  48 0012 FB68     		ldr	r3, [r7, #12]
  49 0014 03F03803 		and	r3, r3, #56
  50 0018 FB60     		str	r3, [r7, #12]
 266:/home/virusv/usart/Libraries/src/stm32f10x_flash.c ****   tmpreg |= FLASH_Latency;
  51              		.loc 1 266 0
  52 001a FA68     		ldr	r2, [r7, #12]
  53 001c 7B68     		ldr	r3, [r7, #4]
  54 001e 1343     		orrs	r3, r3, r2
  55 0020 FB60     		str	r3, [r7, #12]
 267:/home/virusv/usart/Libraries/src/stm32f10x_flash.c ****   
 268:/home/virusv/usart/Libraries/src/stm32f10x_flash.c ****   /* Write the ACR register */
 269:/home/virusv/usart/Libraries/src/stm32f10x_flash.c ****   FLASH->ACR = tmpreg;
  56              		.loc 1 269 0
  57 0022 044A     		ldr	r2, .L2
  58 0024 FB68     		ldr	r3, [r7, #12]
  59 0026 1360     		str	r3, [r2]
 270:/home/virusv/usart/Libraries/src/stm32f10x_flash.c **** }
  60              		.loc 1 270 0
  61 0028 1437     		adds	r7, r7, #20
  62              		.cfi_def_cfa_offset 4
  63 002a BD46     		mov	sp, r7
  64              		.cfi_def_cfa_register 13
  65              		@ sp needed
  66 002c 5DF8047B 		ldr	r7, [sp], #4
  67              		.cfi_restore 7
  68              		.cfi_def_cfa_offset 0
  69 0030 7047     		bx	lr
  70              	.L3:
  71 0032 00BF     		.align	2
  72              	.L2:
  73 0034 00200240 		.word	1073881088
  74              		.cfi_endproc
  75              	.LFE29:
  77              		.section	.text.FLASH_HalfCycleAccessCmd,"ax",%progbits
  78              		.align	2
  79              		.global	FLASH_HalfCycleAccessCmd
  80              		.thumb
  81              		.thumb_func
  83              	FLASH_HalfCycleAccessCmd:
  84              	.LFB30:
 271:/home/virusv/usart/Libraries/src/stm32f10x_flash.c **** 
 272:/home/virusv/usart/Libraries/src/stm32f10x_flash.c **** /**
 273:/home/virusv/usart/Libraries/src/stm32f10x_flash.c ****   * @brief  Enables or disables the Half cycle flash access.
 274:/home/virusv/usart/Libraries/src/stm32f10x_flash.c ****   * @note   This function can be used for all STM32F10x devices.
 275:/home/virusv/usart/Libraries/src/stm32f10x_flash.c ****   * @param  FLASH_HalfCycleAccess: specifies the FLASH Half cycle Access mode.
 276:/home/virusv/usart/Libraries/src/stm32f10x_flash.c ****   *   This parameter can be one of the following values:
 277:/home/virusv/usart/Libraries/src/stm32f10x_flash.c ****   *     @arg FLASH_HalfCycleAccess_Enable: FLASH Half Cycle Enable
 278:/home/virusv/usart/Libraries/src/stm32f10x_flash.c ****   *     @arg FLASH_HalfCycleAccess_Disable: FLASH Half Cycle Disable
 279:/home/virusv/usart/Libraries/src/stm32f10x_flash.c ****   * @retval None
 280:/home/virusv/usart/Libraries/src/stm32f10x_flash.c ****   */
 281:/home/virusv/usart/Libraries/src/stm32f10x_flash.c **** void FLASH_HalfCycleAccessCmd(uint32_t FLASH_HalfCycleAccess)
 282:/home/virusv/usart/Libraries/src/stm32f10x_flash.c **** {
  85              		.loc 1 282 0
  86              		.cfi_startproc
  87              		@ args = 0, pretend = 0, frame = 8
  88              		@ frame_needed = 1, uses_anonymous_args = 0
  89              		@ link register save eliminated.
  90 0000 80B4     		push	{r7}
  91              		.cfi_def_cfa_offset 4
  92              		.cfi_offset 7, -4
  93 0002 83B0     		sub	sp, sp, #12
  94              		.cfi_def_cfa_offset 16
  95 0004 00AF     		add	r7, sp, #0
  96              		.cfi_def_cfa_register 7
  97 0006 7860     		str	r0, [r7, #4]
 283:/home/virusv/usart/Libraries/src/stm32f10x_flash.c ****   /* Check the parameters */
 284:/home/virusv/usart/Libraries/src/stm32f10x_flash.c ****   assert_param(IS_FLASH_HALFCYCLEACCESS_STATE(FLASH_HalfCycleAccess));
 285:/home/virusv/usart/Libraries/src/stm32f10x_flash.c ****   
 286:/home/virusv/usart/Libraries/src/stm32f10x_flash.c ****   /* Enable or disable the Half cycle access */
 287:/home/virusv/usart/Libraries/src/stm32f10x_flash.c ****   FLASH->ACR &= ACR_HLFCYA_Mask;
  98              		.loc 1 287 0
  99 0008 084A     		ldr	r2, .L5
 100 000a 084B     		ldr	r3, .L5
 101 000c 1B68     		ldr	r3, [r3]
 102 000e 23F00803 		bic	r3, r3, #8
 103 0012 1360     		str	r3, [r2]
 288:/home/virusv/usart/Libraries/src/stm32f10x_flash.c ****   FLASH->ACR |= FLASH_HalfCycleAccess;
 104              		.loc 1 288 0
 105 0014 0549     		ldr	r1, .L5
 106 0016 054B     		ldr	r3, .L5
 107 0018 1A68     		ldr	r2, [r3]
 108 001a 7B68     		ldr	r3, [r7, #4]
 109 001c 1343     		orrs	r3, r3, r2
 110 001e 0B60     		str	r3, [r1]
 289:/home/virusv/usart/Libraries/src/stm32f10x_flash.c **** }
 111              		.loc 1 289 0
 112 0020 0C37     		adds	r7, r7, #12
 113              		.cfi_def_cfa_offset 4
 114 0022 BD46     		mov	sp, r7
 115              		.cfi_def_cfa_register 13
 116              		@ sp needed
 117 0024 5DF8047B 		ldr	r7, [sp], #4
 118              		.cfi_restore 7
 119              		.cfi_def_cfa_offset 0
 120 0028 7047     		bx	lr
 121              	.L6:
 122 002a 00BF     		.align	2
 123              	.L5:
 124 002c 00200240 		.word	1073881088
 125              		.cfi_endproc
 126              	.LFE30:
 128              		.section	.text.FLASH_PrefetchBufferCmd,"ax",%progbits
 129              		.align	2
 130              		.global	FLASH_PrefetchBufferCmd
 131              		.thumb
 132              		.thumb_func
 134              	FLASH_PrefetchBufferCmd:
 135              	.LFB31:
 290:/home/virusv/usart/Libraries/src/stm32f10x_flash.c **** 
 291:/home/virusv/usart/Libraries/src/stm32f10x_flash.c **** /**
 292:/home/virusv/usart/Libraries/src/stm32f10x_flash.c ****   * @brief  Enables or disables the Prefetch Buffer.
 293:/home/virusv/usart/Libraries/src/stm32f10x_flash.c ****   * @note   This function can be used for all STM32F10x devices.
 294:/home/virusv/usart/Libraries/src/stm32f10x_flash.c ****   * @param  FLASH_PrefetchBuffer: specifies the Prefetch buffer status.
 295:/home/virusv/usart/Libraries/src/stm32f10x_flash.c ****   *   This parameter can be one of the following values:
 296:/home/virusv/usart/Libraries/src/stm32f10x_flash.c ****   *     @arg FLASH_PrefetchBuffer_Enable: FLASH Prefetch Buffer Enable
 297:/home/virusv/usart/Libraries/src/stm32f10x_flash.c ****   *     @arg FLASH_PrefetchBuffer_Disable: FLASH Prefetch Buffer Disable
 298:/home/virusv/usart/Libraries/src/stm32f10x_flash.c ****   * @retval None
 299:/home/virusv/usart/Libraries/src/stm32f10x_flash.c ****   */
 300:/home/virusv/usart/Libraries/src/stm32f10x_flash.c **** void FLASH_PrefetchBufferCmd(uint32_t FLASH_PrefetchBuffer)
 301:/home/virusv/usart/Libraries/src/stm32f10x_flash.c **** {
 136              		.loc 1 301 0
 137              		.cfi_startproc
 138              		@ args = 0, pretend = 0, frame = 8
 139              		@ frame_needed = 1, uses_anonymous_args = 0
 140              		@ link register save eliminated.
 141 0000 80B4     		push	{r7}
 142              		.cfi_def_cfa_offset 4
 143              		.cfi_offset 7, -4
 144 0002 83B0     		sub	sp, sp, #12
 145              		.cfi_def_cfa_offset 16
 146 0004 00AF     		add	r7, sp, #0
 147              		.cfi_def_cfa_register 7
 148 0006 7860     		str	r0, [r7, #4]
 302:/home/virusv/usart/Libraries/src/stm32f10x_flash.c ****   /* Check the parameters */
 303:/home/virusv/usart/Libraries/src/stm32f10x_flash.c ****   assert_param(IS_FLASH_PREFETCHBUFFER_STATE(FLASH_PrefetchBuffer));
 304:/home/virusv/usart/Libraries/src/stm32f10x_flash.c ****   
 305:/home/virusv/usart/Libraries/src/stm32f10x_flash.c ****   /* Enable or disable the Prefetch Buffer */
 306:/home/virusv/usart/Libraries/src/stm32f10x_flash.c ****   FLASH->ACR &= ACR_PRFTBE_Mask;
 149              		.loc 1 306 0
 150 0008 084A     		ldr	r2, .L8
 151 000a 084B     		ldr	r3, .L8
 152 000c 1B68     		ldr	r3, [r3]
 153 000e 23F01003 		bic	r3, r3, #16
 154 0012 1360     		str	r3, [r2]
 307:/home/virusv/usart/Libraries/src/stm32f10x_flash.c ****   FLASH->ACR |= FLASH_PrefetchBuffer;
 155              		.loc 1 307 0
 156 0014 0549     		ldr	r1, .L8
 157 0016 054B     		ldr	r3, .L8
 158 0018 1A68     		ldr	r2, [r3]
 159 001a 7B68     		ldr	r3, [r7, #4]
 160 001c 1343     		orrs	r3, r3, r2
 161 001e 0B60     		str	r3, [r1]
 308:/home/virusv/usart/Libraries/src/stm32f10x_flash.c **** }
 162              		.loc 1 308 0
 163 0020 0C37     		adds	r7, r7, #12
 164              		.cfi_def_cfa_offset 4
 165 0022 BD46     		mov	sp, r7
 166              		.cfi_def_cfa_register 13
 167              		@ sp needed
 168 0024 5DF8047B 		ldr	r7, [sp], #4
 169              		.cfi_restore 7
 170              		.cfi_def_cfa_offset 0
 171 0028 7047     		bx	lr
 172              	.L9:
 173 002a 00BF     		.align	2
 174              	.L8:
 175 002c 00200240 		.word	1073881088
 176              		.cfi_endproc
 177              	.LFE31:
 179              		.section	.text.FLASH_Unlock,"ax",%progbits
 180              		.align	2
 181              		.global	FLASH_Unlock
 182              		.thumb
 183              		.thumb_func
 185              	FLASH_Unlock:
 186              	.LFB32:
 309:/home/virusv/usart/Libraries/src/stm32f10x_flash.c **** 
 310:/home/virusv/usart/Libraries/src/stm32f10x_flash.c **** /**
 311:/home/virusv/usart/Libraries/src/stm32f10x_flash.c ****   * @brief  Unlocks the FLASH Program Erase Controller.
 312:/home/virusv/usart/Libraries/src/stm32f10x_flash.c ****   * @note   This function can be used for all STM32F10x devices.
 313:/home/virusv/usart/Libraries/src/stm32f10x_flash.c ****   *         - For STM32F10X_XL devices this function unlocks Bank1 and Bank2.
 314:/home/virusv/usart/Libraries/src/stm32f10x_flash.c ****   *         - For all other devices it unlocks Bank1 and it is equivalent 
 315:/home/virusv/usart/Libraries/src/stm32f10x_flash.c ****   *           to FLASH_UnlockBank1 function.. 
 316:/home/virusv/usart/Libraries/src/stm32f10x_flash.c ****   * @param  None
 317:/home/virusv/usart/Libraries/src/stm32f10x_flash.c ****   * @retval None
 318:/home/virusv/usart/Libraries/src/stm32f10x_flash.c ****   */
 319:/home/virusv/usart/Libraries/src/stm32f10x_flash.c **** void FLASH_Unlock(void)
 320:/home/virusv/usart/Libraries/src/stm32f10x_flash.c **** {
 187              		.loc 1 320 0
 188              		.cfi_startproc
 189              		@ args = 0, pretend = 0, frame = 0
 190              		@ frame_needed = 1, uses_anonymous_args = 0
 191              		@ link register save eliminated.
 192 0000 80B4     		push	{r7}
 193              		.cfi_def_cfa_offset 4
 194              		.cfi_offset 7, -4
 195 0002 00AF     		add	r7, sp, #0
 196              		.cfi_def_cfa_register 7
 321:/home/virusv/usart/Libraries/src/stm32f10x_flash.c ****   /* Authorize the FPEC of Bank1 Access */
 322:/home/virusv/usart/Libraries/src/stm32f10x_flash.c ****   FLASH->KEYR = FLASH_KEY1;
 197              		.loc 1 322 0
 198 0004 044B     		ldr	r3, .L11
 199 0006 054A     		ldr	r2, .L11+4
 200 0008 5A60     		str	r2, [r3, #4]
 323:/home/virusv/usart/Libraries/src/stm32f10x_flash.c ****   FLASH->KEYR = FLASH_KEY2;
 201              		.loc 1 323 0
 202 000a 034B     		ldr	r3, .L11
 203 000c 044A     		ldr	r2, .L11+8
 204 000e 5A60     		str	r2, [r3, #4]
 324:/home/virusv/usart/Libraries/src/stm32f10x_flash.c **** 
 325:/home/virusv/usart/Libraries/src/stm32f10x_flash.c **** #ifdef STM32F10X_XL
 326:/home/virusv/usart/Libraries/src/stm32f10x_flash.c ****   /* Authorize the FPEC of Bank2 Access */
 327:/home/virusv/usart/Libraries/src/stm32f10x_flash.c ****   FLASH->KEYR2 = FLASH_KEY1;
 328:/home/virusv/usart/Libraries/src/stm32f10x_flash.c ****   FLASH->KEYR2 = FLASH_KEY2;
 329:/home/virusv/usart/Libraries/src/stm32f10x_flash.c **** #endif /* STM32F10X_XL */
 330:/home/virusv/usart/Libraries/src/stm32f10x_flash.c **** }
 205              		.loc 1 330 0
 206 0010 BD46     		mov	sp, r7
 207              		.cfi_def_cfa_register 13
 208              		@ sp needed
 209 0012 5DF8047B 		ldr	r7, [sp], #4
 210              		.cfi_restore 7
 211              		.cfi_def_cfa_offset 0
 212 0016 7047     		bx	lr
 213              	.L12:
 214              		.align	2
 215              	.L11:
 216 0018 00200240 		.word	1073881088
 217 001c 23016745 		.word	1164378403
 218 0020 AB89EFCD 		.word	-839939669
 219              		.cfi_endproc
 220              	.LFE32:
 222              		.section	.text.FLASH_UnlockBank1,"ax",%progbits
 223              		.align	2
 224              		.global	FLASH_UnlockBank1
 225              		.thumb
 226              		.thumb_func
 228              	FLASH_UnlockBank1:
 229              	.LFB33:
 331:/home/virusv/usart/Libraries/src/stm32f10x_flash.c **** /**
 332:/home/virusv/usart/Libraries/src/stm32f10x_flash.c ****   * @brief  Unlocks the FLASH Bank1 Program Erase Controller.
 333:/home/virusv/usart/Libraries/src/stm32f10x_flash.c ****   * @note   This function can be used for all STM32F10x devices.
 334:/home/virusv/usart/Libraries/src/stm32f10x_flash.c ****   *         - For STM32F10X_XL devices this function unlocks Bank1.
 335:/home/virusv/usart/Libraries/src/stm32f10x_flash.c ****   *         - For all other devices it unlocks Bank1 and it is 
 336:/home/virusv/usart/Libraries/src/stm32f10x_flash.c ****   *           equivalent to FLASH_Unlock function.
 337:/home/virusv/usart/Libraries/src/stm32f10x_flash.c ****   * @param  None
 338:/home/virusv/usart/Libraries/src/stm32f10x_flash.c ****   * @retval None
 339:/home/virusv/usart/Libraries/src/stm32f10x_flash.c ****   */
 340:/home/virusv/usart/Libraries/src/stm32f10x_flash.c **** void FLASH_UnlockBank1(void)
 341:/home/virusv/usart/Libraries/src/stm32f10x_flash.c **** {
 230              		.loc 1 341 0
 231              		.cfi_startproc
 232              		@ args = 0, pretend = 0, frame = 0
 233              		@ frame_needed = 1, uses_anonymous_args = 0
 234              		@ link register save eliminated.
 235 0000 80B4     		push	{r7}
 236              		.cfi_def_cfa_offset 4
 237              		.cfi_offset 7, -4
 238 0002 00AF     		add	r7, sp, #0
 239              		.cfi_def_cfa_register 7
 342:/home/virusv/usart/Libraries/src/stm32f10x_flash.c ****   /* Authorize the FPEC of Bank1 Access */
 343:/home/virusv/usart/Libraries/src/stm32f10x_flash.c ****   FLASH->KEYR = FLASH_KEY1;
 240              		.loc 1 343 0
 241 0004 044B     		ldr	r3, .L14
 242 0006 054A     		ldr	r2, .L14+4
 243 0008 5A60     		str	r2, [r3, #4]
 344:/home/virusv/usart/Libraries/src/stm32f10x_flash.c ****   FLASH->KEYR = FLASH_KEY2;
 244              		.loc 1 344 0
 245 000a 034B     		ldr	r3, .L14
 246 000c 044A     		ldr	r2, .L14+8
 247 000e 5A60     		str	r2, [r3, #4]
 345:/home/virusv/usart/Libraries/src/stm32f10x_flash.c **** }
 248              		.loc 1 345 0
 249 0010 BD46     		mov	sp, r7
 250              		.cfi_def_cfa_register 13
 251              		@ sp needed
 252 0012 5DF8047B 		ldr	r7, [sp], #4
 253              		.cfi_restore 7
 254              		.cfi_def_cfa_offset 0
 255 0016 7047     		bx	lr
 256              	.L15:
 257              		.align	2
 258              	.L14:
 259 0018 00200240 		.word	1073881088
 260 001c 23016745 		.word	1164378403
 261 0020 AB89EFCD 		.word	-839939669
 262              		.cfi_endproc
 263              	.LFE33:
 265              		.section	.text.FLASH_Lock,"ax",%progbits
 266              		.align	2
 267              		.global	FLASH_Lock
 268              		.thumb
 269              		.thumb_func
 271              	FLASH_Lock:
 272              	.LFB34:
 346:/home/virusv/usart/Libraries/src/stm32f10x_flash.c **** 
 347:/home/virusv/usart/Libraries/src/stm32f10x_flash.c **** #ifdef STM32F10X_XL
 348:/home/virusv/usart/Libraries/src/stm32f10x_flash.c **** /**
 349:/home/virusv/usart/Libraries/src/stm32f10x_flash.c ****   * @brief  Unlocks the FLASH Bank2 Program Erase Controller.
 350:/home/virusv/usart/Libraries/src/stm32f10x_flash.c ****   * @note   This function can be used only for STM32F10X_XL density devices.
 351:/home/virusv/usart/Libraries/src/stm32f10x_flash.c ****   * @param  None
 352:/home/virusv/usart/Libraries/src/stm32f10x_flash.c ****   * @retval None
 353:/home/virusv/usart/Libraries/src/stm32f10x_flash.c ****   */
 354:/home/virusv/usart/Libraries/src/stm32f10x_flash.c **** void FLASH_UnlockBank2(void)
 355:/home/virusv/usart/Libraries/src/stm32f10x_flash.c **** {
 356:/home/virusv/usart/Libraries/src/stm32f10x_flash.c ****   /* Authorize the FPEC of Bank2 Access */
 357:/home/virusv/usart/Libraries/src/stm32f10x_flash.c ****   FLASH->KEYR2 = FLASH_KEY1;
 358:/home/virusv/usart/Libraries/src/stm32f10x_flash.c ****   FLASH->KEYR2 = FLASH_KEY2;
 359:/home/virusv/usart/Libraries/src/stm32f10x_flash.c **** 
 360:/home/virusv/usart/Libraries/src/stm32f10x_flash.c **** }
 361:/home/virusv/usart/Libraries/src/stm32f10x_flash.c **** #endif /* STM32F10X_XL */
 362:/home/virusv/usart/Libraries/src/stm32f10x_flash.c **** 
 363:/home/virusv/usart/Libraries/src/stm32f10x_flash.c **** /**
 364:/home/virusv/usart/Libraries/src/stm32f10x_flash.c ****   * @brief  Locks the FLASH Program Erase Controller.
 365:/home/virusv/usart/Libraries/src/stm32f10x_flash.c ****   * @note   This function can be used for all STM32F10x devices.
 366:/home/virusv/usart/Libraries/src/stm32f10x_flash.c ****   *         - For STM32F10X_XL devices this function Locks Bank1 and Bank2.
 367:/home/virusv/usart/Libraries/src/stm32f10x_flash.c ****   *         - For all other devices it Locks Bank1 and it is equivalent 
 368:/home/virusv/usart/Libraries/src/stm32f10x_flash.c ****   *           to FLASH_LockBank1 function.
 369:/home/virusv/usart/Libraries/src/stm32f10x_flash.c ****   * @param  None
 370:/home/virusv/usart/Libraries/src/stm32f10x_flash.c ****   * @retval None
 371:/home/virusv/usart/Libraries/src/stm32f10x_flash.c ****   */
 372:/home/virusv/usart/Libraries/src/stm32f10x_flash.c **** void FLASH_Lock(void)
 373:/home/virusv/usart/Libraries/src/stm32f10x_flash.c **** {
 273              		.loc 1 373 0
 274              		.cfi_startproc
 275              		@ args = 0, pretend = 0, frame = 0
 276              		@ frame_needed = 1, uses_anonymous_args = 0
 277              		@ link register save eliminated.
 278 0000 80B4     		push	{r7}
 279              		.cfi_def_cfa_offset 4
 280              		.cfi_offset 7, -4
 281 0002 00AF     		add	r7, sp, #0
 282              		.cfi_def_cfa_register 7
 374:/home/virusv/usart/Libraries/src/stm32f10x_flash.c ****   /* Set the Lock Bit to lock the FPEC and the CR of  Bank1 */
 375:/home/virusv/usart/Libraries/src/stm32f10x_flash.c ****   FLASH->CR |= CR_LOCK_Set;
 283              		.loc 1 375 0
 284 0004 044A     		ldr	r2, .L17
 285 0006 044B     		ldr	r3, .L17
 286 0008 1B69     		ldr	r3, [r3, #16]
 287 000a 43F08003 		orr	r3, r3, #128
 288 000e 1361     		str	r3, [r2, #16]
 376:/home/virusv/usart/Libraries/src/stm32f10x_flash.c **** 
 377:/home/virusv/usart/Libraries/src/stm32f10x_flash.c **** #ifdef STM32F10X_XL
 378:/home/virusv/usart/Libraries/src/stm32f10x_flash.c ****   /* Set the Lock Bit to lock the FPEC and the CR of  Bank2 */
 379:/home/virusv/usart/Libraries/src/stm32f10x_flash.c ****   FLASH->CR2 |= CR_LOCK_Set;
 380:/home/virusv/usart/Libraries/src/stm32f10x_flash.c **** #endif /* STM32F10X_XL */
 381:/home/virusv/usart/Libraries/src/stm32f10x_flash.c **** }
 289              		.loc 1 381 0
 290 0010 BD46     		mov	sp, r7
 291              		.cfi_def_cfa_register 13
 292              		@ sp needed
 293 0012 5DF8047B 		ldr	r7, [sp], #4
 294              		.cfi_restore 7
 295              		.cfi_def_cfa_offset 0
 296 0016 7047     		bx	lr
 297              	.L18:
 298              		.align	2
 299              	.L17:
 300 0018 00200240 		.word	1073881088
 301              		.cfi_endproc
 302              	.LFE34:
 304              		.section	.text.FLASH_LockBank1,"ax",%progbits
 305              		.align	2
 306              		.global	FLASH_LockBank1
 307              		.thumb
 308              		.thumb_func
 310              	FLASH_LockBank1:
 311              	.LFB35:
 382:/home/virusv/usart/Libraries/src/stm32f10x_flash.c **** 
 383:/home/virusv/usart/Libraries/src/stm32f10x_flash.c **** /**
 384:/home/virusv/usart/Libraries/src/stm32f10x_flash.c ****   * @brief  Locks the FLASH Bank1 Program Erase Controller.
 385:/home/virusv/usart/Libraries/src/stm32f10x_flash.c ****   * @note   this function can be used for all STM32F10x devices.
 386:/home/virusv/usart/Libraries/src/stm32f10x_flash.c ****   *         - For STM32F10X_XL devices this function Locks Bank1.
 387:/home/virusv/usart/Libraries/src/stm32f10x_flash.c ****   *         - For all other devices it Locks Bank1 and it is equivalent 
 388:/home/virusv/usart/Libraries/src/stm32f10x_flash.c ****   *           to FLASH_Lock function.
 389:/home/virusv/usart/Libraries/src/stm32f10x_flash.c ****   * @param  None
 390:/home/virusv/usart/Libraries/src/stm32f10x_flash.c ****   * @retval None
 391:/home/virusv/usart/Libraries/src/stm32f10x_flash.c ****   */
 392:/home/virusv/usart/Libraries/src/stm32f10x_flash.c **** void FLASH_LockBank1(void)
 393:/home/virusv/usart/Libraries/src/stm32f10x_flash.c **** {
 312              		.loc 1 393 0
 313              		.cfi_startproc
 314              		@ args = 0, pretend = 0, frame = 0
 315              		@ frame_needed = 1, uses_anonymous_args = 0
 316              		@ link register save eliminated.
 317 0000 80B4     		push	{r7}
 318              		.cfi_def_cfa_offset 4
 319              		.cfi_offset 7, -4
 320 0002 00AF     		add	r7, sp, #0
 321              		.cfi_def_cfa_register 7
 394:/home/virusv/usart/Libraries/src/stm32f10x_flash.c ****   /* Set the Lock Bit to lock the FPEC and the CR of  Bank1 */
 395:/home/virusv/usart/Libraries/src/stm32f10x_flash.c ****   FLASH->CR |= CR_LOCK_Set;
 322              		.loc 1 395 0
 323 0004 044A     		ldr	r2, .L20
 324 0006 044B     		ldr	r3, .L20
 325 0008 1B69     		ldr	r3, [r3, #16]
 326 000a 43F08003 		orr	r3, r3, #128
 327 000e 1361     		str	r3, [r2, #16]
 396:/home/virusv/usart/Libraries/src/stm32f10x_flash.c **** }
 328              		.loc 1 396 0
 329 0010 BD46     		mov	sp, r7
 330              		.cfi_def_cfa_register 13
 331              		@ sp needed
 332 0012 5DF8047B 		ldr	r7, [sp], #4
 333              		.cfi_restore 7
 334              		.cfi_def_cfa_offset 0
 335 0016 7047     		bx	lr
 336              	.L21:
 337              		.align	2
 338              	.L20:
 339 0018 00200240 		.word	1073881088
 340              		.cfi_endproc
 341              	.LFE35:
 343              		.section	.text.FLASH_ErasePage,"ax",%progbits
 344              		.align	2
 345              		.global	FLASH_ErasePage
 346              		.thumb
 347              		.thumb_func
 349              	FLASH_ErasePage:
 350              	.LFB36:
 397:/home/virusv/usart/Libraries/src/stm32f10x_flash.c **** 
 398:/home/virusv/usart/Libraries/src/stm32f10x_flash.c **** #ifdef STM32F10X_XL
 399:/home/virusv/usart/Libraries/src/stm32f10x_flash.c **** /**
 400:/home/virusv/usart/Libraries/src/stm32f10x_flash.c ****   * @brief  Locks the FLASH Bank2 Program Erase Controller.
 401:/home/virusv/usart/Libraries/src/stm32f10x_flash.c ****   * @note   This function can be used only for STM32F10X_XL density devices.
 402:/home/virusv/usart/Libraries/src/stm32f10x_flash.c ****   * @param  None
 403:/home/virusv/usart/Libraries/src/stm32f10x_flash.c ****   * @retval None
 404:/home/virusv/usart/Libraries/src/stm32f10x_flash.c ****   */
 405:/home/virusv/usart/Libraries/src/stm32f10x_flash.c **** void FLASH_LockBank2(void)
 406:/home/virusv/usart/Libraries/src/stm32f10x_flash.c **** {
 407:/home/virusv/usart/Libraries/src/stm32f10x_flash.c ****   /* Set the Lock Bit to lock the FPEC and the CR of  Bank2 */
 408:/home/virusv/usart/Libraries/src/stm32f10x_flash.c ****   FLASH->CR2 |= CR_LOCK_Set;
 409:/home/virusv/usart/Libraries/src/stm32f10x_flash.c **** }
 410:/home/virusv/usart/Libraries/src/stm32f10x_flash.c **** #endif /* STM32F10X_XL */
 411:/home/virusv/usart/Libraries/src/stm32f10x_flash.c **** 
 412:/home/virusv/usart/Libraries/src/stm32f10x_flash.c **** /**
 413:/home/virusv/usart/Libraries/src/stm32f10x_flash.c ****   * @brief  Erases a specified FLASH page.
 414:/home/virusv/usart/Libraries/src/stm32f10x_flash.c ****   * @note   This function can be used for all STM32F10x devices.
 415:/home/virusv/usart/Libraries/src/stm32f10x_flash.c ****   * @param  Page_Address: The page address to be erased.
 416:/home/virusv/usart/Libraries/src/stm32f10x_flash.c ****   * @retval FLASH Status: The returned value can be: FLASH_BUSY, FLASH_ERROR_PG,
 417:/home/virusv/usart/Libraries/src/stm32f10x_flash.c ****   *         FLASH_ERROR_WRP, FLASH_COMPLETE or FLASH_TIMEOUT.
 418:/home/virusv/usart/Libraries/src/stm32f10x_flash.c ****   */
 419:/home/virusv/usart/Libraries/src/stm32f10x_flash.c **** FLASH_Status FLASH_ErasePage(uint32_t Page_Address)
 420:/home/virusv/usart/Libraries/src/stm32f10x_flash.c **** {
 351              		.loc 1 420 0
 352              		.cfi_startproc
 353              		@ args = 0, pretend = 0, frame = 16
 354              		@ frame_needed = 1, uses_anonymous_args = 0
 355 0000 80B5     		push	{r7, lr}
 356              		.cfi_def_cfa_offset 8
 357              		.cfi_offset 7, -8
 358              		.cfi_offset 14, -4
 359 0002 84B0     		sub	sp, sp, #16
 360              		.cfi_def_cfa_offset 24
 361 0004 00AF     		add	r7, sp, #0
 362              		.cfi_def_cfa_register 7
 363 0006 7860     		str	r0, [r7, #4]
 421:/home/virusv/usart/Libraries/src/stm32f10x_flash.c ****   FLASH_Status status = FLASH_COMPLETE;
 364              		.loc 1 421 0
 365 0008 0423     		movs	r3, #4
 366 000a FB73     		strb	r3, [r7, #15]
 422:/home/virusv/usart/Libraries/src/stm32f10x_flash.c ****   /* Check the parameters */
 423:/home/virusv/usart/Libraries/src/stm32f10x_flash.c ****   assert_param(IS_FLASH_ADDRESS(Page_Address));
 424:/home/virusv/usart/Libraries/src/stm32f10x_flash.c **** 
 425:/home/virusv/usart/Libraries/src/stm32f10x_flash.c **** #ifdef STM32F10X_XL
 426:/home/virusv/usart/Libraries/src/stm32f10x_flash.c ****   if(Page_Address < FLASH_BANK1_END_ADDRESS)  
 427:/home/virusv/usart/Libraries/src/stm32f10x_flash.c ****   {
 428:/home/virusv/usart/Libraries/src/stm32f10x_flash.c ****     /* Wait for last operation to be completed */
 429:/home/virusv/usart/Libraries/src/stm32f10x_flash.c ****     status = FLASH_WaitForLastBank1Operation(EraseTimeout);
 430:/home/virusv/usart/Libraries/src/stm32f10x_flash.c ****     if(status == FLASH_COMPLETE)
 431:/home/virusv/usart/Libraries/src/stm32f10x_flash.c ****     { 
 432:/home/virusv/usart/Libraries/src/stm32f10x_flash.c ****       /* if the previous operation is completed, proceed to erase the page */
 433:/home/virusv/usart/Libraries/src/stm32f10x_flash.c ****       FLASH->CR|= CR_PER_Set;
 434:/home/virusv/usart/Libraries/src/stm32f10x_flash.c ****       FLASH->AR = Page_Address; 
 435:/home/virusv/usart/Libraries/src/stm32f10x_flash.c ****       FLASH->CR|= CR_STRT_Set;
 436:/home/virusv/usart/Libraries/src/stm32f10x_flash.c ****     
 437:/home/virusv/usart/Libraries/src/stm32f10x_flash.c ****       /* Wait for last operation to be completed */
 438:/home/virusv/usart/Libraries/src/stm32f10x_flash.c ****       status = FLASH_WaitForLastBank1Operation(EraseTimeout);
 439:/home/virusv/usart/Libraries/src/stm32f10x_flash.c **** 
 440:/home/virusv/usart/Libraries/src/stm32f10x_flash.c ****       /* Disable the PER Bit */
 441:/home/virusv/usart/Libraries/src/stm32f10x_flash.c ****       FLASH->CR &= CR_PER_Reset;
 442:/home/virusv/usart/Libraries/src/stm32f10x_flash.c ****     }
 443:/home/virusv/usart/Libraries/src/stm32f10x_flash.c ****   }
 444:/home/virusv/usart/Libraries/src/stm32f10x_flash.c ****   else
 445:/home/virusv/usart/Libraries/src/stm32f10x_flash.c ****   {
 446:/home/virusv/usart/Libraries/src/stm32f10x_flash.c ****     /* Wait for last operation to be completed */
 447:/home/virusv/usart/Libraries/src/stm32f10x_flash.c ****     status = FLASH_WaitForLastBank2Operation(EraseTimeout);
 448:/home/virusv/usart/Libraries/src/stm32f10x_flash.c ****     if(status == FLASH_COMPLETE)
 449:/home/virusv/usart/Libraries/src/stm32f10x_flash.c ****     { 
 450:/home/virusv/usart/Libraries/src/stm32f10x_flash.c ****       /* if the previous operation is completed, proceed to erase the page */
 451:/home/virusv/usart/Libraries/src/stm32f10x_flash.c ****       FLASH->CR2|= CR_PER_Set;
 452:/home/virusv/usart/Libraries/src/stm32f10x_flash.c ****       FLASH->AR2 = Page_Address; 
 453:/home/virusv/usart/Libraries/src/stm32f10x_flash.c ****       FLASH->CR2|= CR_STRT_Set;
 454:/home/virusv/usart/Libraries/src/stm32f10x_flash.c ****     
 455:/home/virusv/usart/Libraries/src/stm32f10x_flash.c ****       /* Wait for last operation to be completed */
 456:/home/virusv/usart/Libraries/src/stm32f10x_flash.c ****       status = FLASH_WaitForLastBank2Operation(EraseTimeout);
 457:/home/virusv/usart/Libraries/src/stm32f10x_flash.c ****       
 458:/home/virusv/usart/Libraries/src/stm32f10x_flash.c ****       /* Disable the PER Bit */
 459:/home/virusv/usart/Libraries/src/stm32f10x_flash.c ****       FLASH->CR2 &= CR_PER_Reset;
 460:/home/virusv/usart/Libraries/src/stm32f10x_flash.c ****     }
 461:/home/virusv/usart/Libraries/src/stm32f10x_flash.c ****   }
 462:/home/virusv/usart/Libraries/src/stm32f10x_flash.c **** #else
 463:/home/virusv/usart/Libraries/src/stm32f10x_flash.c ****   /* Wait for last operation to be completed */
 464:/home/virusv/usart/Libraries/src/stm32f10x_flash.c ****   status = FLASH_WaitForLastOperation(EraseTimeout);
 367              		.loc 1 464 0
 368 000c 4FF43020 		mov	r0, #720896
 369 0010 FFF7FEFF 		bl	FLASH_WaitForLastOperation
 370 0014 0346     		mov	r3, r0
 371 0016 FB73     		strb	r3, [r7, #15]
 465:/home/virusv/usart/Libraries/src/stm32f10x_flash.c ****   
 466:/home/virusv/usart/Libraries/src/stm32f10x_flash.c ****   if(status == FLASH_COMPLETE)
 372              		.loc 1 466 0
 373 0018 FB7B     		ldrb	r3, [r7, #15]	@ zero_extendqisi2
 374 001a 042B     		cmp	r3, #4
 375 001c 1BD1     		bne	.L23
 467:/home/virusv/usart/Libraries/src/stm32f10x_flash.c ****   { 
 468:/home/virusv/usart/Libraries/src/stm32f10x_flash.c ****     /* if the previous operation is completed, proceed to erase the page */
 469:/home/virusv/usart/Libraries/src/stm32f10x_flash.c ****     FLASH->CR|= CR_PER_Set;
 376              		.loc 1 469 0
 377 001e 104A     		ldr	r2, .L25
 378 0020 0F4B     		ldr	r3, .L25
 379 0022 1B69     		ldr	r3, [r3, #16]
 380 0024 43F00203 		orr	r3, r3, #2
 381 0028 1361     		str	r3, [r2, #16]
 470:/home/virusv/usart/Libraries/src/stm32f10x_flash.c ****     FLASH->AR = Page_Address; 
 382              		.loc 1 470 0
 383 002a 0D4A     		ldr	r2, .L25
 384 002c 7B68     		ldr	r3, [r7, #4]
 385 002e 5361     		str	r3, [r2, #20]
 471:/home/virusv/usart/Libraries/src/stm32f10x_flash.c ****     FLASH->CR|= CR_STRT_Set;
 386              		.loc 1 471 0
 387 0030 0B4A     		ldr	r2, .L25
 388 0032 0B4B     		ldr	r3, .L25
 389 0034 1B69     		ldr	r3, [r3, #16]
 390 0036 43F04003 		orr	r3, r3, #64
 391 003a 1361     		str	r3, [r2, #16]
 472:/home/virusv/usart/Libraries/src/stm32f10x_flash.c ****     
 473:/home/virusv/usart/Libraries/src/stm32f10x_flash.c ****     /* Wait for last operation to be completed */
 474:/home/virusv/usart/Libraries/src/stm32f10x_flash.c ****     status = FLASH_WaitForLastOperation(EraseTimeout);
 392              		.loc 1 474 0
 393 003c 4FF43020 		mov	r0, #720896
 394 0040 FFF7FEFF 		bl	FLASH_WaitForLastOperation
 395 0044 0346     		mov	r3, r0
 396 0046 FB73     		strb	r3, [r7, #15]
 475:/home/virusv/usart/Libraries/src/stm32f10x_flash.c ****     
 476:/home/virusv/usart/Libraries/src/stm32f10x_flash.c ****     /* Disable the PER Bit */
 477:/home/virusv/usart/Libraries/src/stm32f10x_flash.c ****     FLASH->CR &= CR_PER_Reset;
 397              		.loc 1 477 0
 398 0048 0549     		ldr	r1, .L25
 399 004a 054B     		ldr	r3, .L25
 400 004c 1A69     		ldr	r2, [r3, #16]
 401 004e 41F6FD73 		movw	r3, #8189
 402 0052 1340     		ands	r3, r3, r2
 403 0054 0B61     		str	r3, [r1, #16]
 404              	.L23:
 478:/home/virusv/usart/Libraries/src/stm32f10x_flash.c ****   }
 479:/home/virusv/usart/Libraries/src/stm32f10x_flash.c **** #endif /* STM32F10X_XL */
 480:/home/virusv/usart/Libraries/src/stm32f10x_flash.c **** 
 481:/home/virusv/usart/Libraries/src/stm32f10x_flash.c ****   /* Return the Erase Status */
 482:/home/virusv/usart/Libraries/src/stm32f10x_flash.c ****   return status;
 405              		.loc 1 482 0
 406 0056 FB7B     		ldrb	r3, [r7, #15]	@ zero_extendqisi2
 483:/home/virusv/usart/Libraries/src/stm32f10x_flash.c **** }
 407              		.loc 1 483 0
 408 0058 1846     		mov	r0, r3
 409 005a 1037     		adds	r7, r7, #16
 410              		.cfi_def_cfa_offset 8
 411 005c BD46     		mov	sp, r7
 412              		.cfi_def_cfa_register 13
 413              		@ sp needed
 414 005e 80BD     		pop	{r7, pc}
 415              	.L26:
 416              		.align	2
 417              	.L25:
 418 0060 00200240 		.word	1073881088
 419              		.cfi_endproc
 420              	.LFE36:
 422              		.section	.text.FLASH_EraseAllPages,"ax",%progbits
 423              		.align	2
 424              		.global	FLASH_EraseAllPages
 425              		.thumb
 426              		.thumb_func
 428              	FLASH_EraseAllPages:
 429              	.LFB37:
 484:/home/virusv/usart/Libraries/src/stm32f10x_flash.c **** 
 485:/home/virusv/usart/Libraries/src/stm32f10x_flash.c **** /**
 486:/home/virusv/usart/Libraries/src/stm32f10x_flash.c ****   * @brief  Erases all FLASH pages.
 487:/home/virusv/usart/Libraries/src/stm32f10x_flash.c ****   * @note   This function can be used for all STM32F10x devices.
 488:/home/virusv/usart/Libraries/src/stm32f10x_flash.c ****   * @param  None
 489:/home/virusv/usart/Libraries/src/stm32f10x_flash.c ****   * @retval FLASH Status: The returned value can be: FLASH_ERROR_PG,
 490:/home/virusv/usart/Libraries/src/stm32f10x_flash.c ****   *         FLASH_ERROR_WRP, FLASH_COMPLETE or FLASH_TIMEOUT.
 491:/home/virusv/usart/Libraries/src/stm32f10x_flash.c ****   */
 492:/home/virusv/usart/Libraries/src/stm32f10x_flash.c **** FLASH_Status FLASH_EraseAllPages(void)
 493:/home/virusv/usart/Libraries/src/stm32f10x_flash.c **** {
 430              		.loc 1 493 0
 431              		.cfi_startproc
 432              		@ args = 0, pretend = 0, frame = 8
 433              		@ frame_needed = 1, uses_anonymous_args = 0
 434 0000 80B5     		push	{r7, lr}
 435              		.cfi_def_cfa_offset 8
 436              		.cfi_offset 7, -8
 437              		.cfi_offset 14, -4
 438 0002 82B0     		sub	sp, sp, #8
 439              		.cfi_def_cfa_offset 16
 440 0004 00AF     		add	r7, sp, #0
 441              		.cfi_def_cfa_register 7
 494:/home/virusv/usart/Libraries/src/stm32f10x_flash.c ****   FLASH_Status status = FLASH_COMPLETE;
 442              		.loc 1 494 0
 443 0006 0423     		movs	r3, #4
 444 0008 FB71     		strb	r3, [r7, #7]
 495:/home/virusv/usart/Libraries/src/stm32f10x_flash.c **** 
 496:/home/virusv/usart/Libraries/src/stm32f10x_flash.c **** #ifdef STM32F10X_XL
 497:/home/virusv/usart/Libraries/src/stm32f10x_flash.c ****   /* Wait for last operation to be completed */
 498:/home/virusv/usart/Libraries/src/stm32f10x_flash.c ****   status = FLASH_WaitForLastBank1Operation(EraseTimeout);
 499:/home/virusv/usart/Libraries/src/stm32f10x_flash.c ****   
 500:/home/virusv/usart/Libraries/src/stm32f10x_flash.c ****   if(status == FLASH_COMPLETE)
 501:/home/virusv/usart/Libraries/src/stm32f10x_flash.c ****   {
 502:/home/virusv/usart/Libraries/src/stm32f10x_flash.c ****     /* if the previous operation is completed, proceed to erase all pages */
 503:/home/virusv/usart/Libraries/src/stm32f10x_flash.c ****      FLASH->CR |= CR_MER_Set;
 504:/home/virusv/usart/Libraries/src/stm32f10x_flash.c ****      FLASH->CR |= CR_STRT_Set;
 505:/home/virusv/usart/Libraries/src/stm32f10x_flash.c ****     
 506:/home/virusv/usart/Libraries/src/stm32f10x_flash.c ****     /* Wait for last operation to be completed */
 507:/home/virusv/usart/Libraries/src/stm32f10x_flash.c ****     status = FLASH_WaitForLastBank1Operation(EraseTimeout);
 508:/home/virusv/usart/Libraries/src/stm32f10x_flash.c ****     
 509:/home/virusv/usart/Libraries/src/stm32f10x_flash.c ****     /* Disable the MER Bit */
 510:/home/virusv/usart/Libraries/src/stm32f10x_flash.c ****     FLASH->CR &= CR_MER_Reset;
 511:/home/virusv/usart/Libraries/src/stm32f10x_flash.c ****   }    
 512:/home/virusv/usart/Libraries/src/stm32f10x_flash.c ****   if(status == FLASH_COMPLETE)
 513:/home/virusv/usart/Libraries/src/stm32f10x_flash.c ****   {
 514:/home/virusv/usart/Libraries/src/stm32f10x_flash.c ****     /* if the previous operation is completed, proceed to erase all pages */
 515:/home/virusv/usart/Libraries/src/stm32f10x_flash.c ****      FLASH->CR2 |= CR_MER_Set;
 516:/home/virusv/usart/Libraries/src/stm32f10x_flash.c ****      FLASH->CR2 |= CR_STRT_Set;
 517:/home/virusv/usart/Libraries/src/stm32f10x_flash.c ****     
 518:/home/virusv/usart/Libraries/src/stm32f10x_flash.c ****     /* Wait for last operation to be completed */
 519:/home/virusv/usart/Libraries/src/stm32f10x_flash.c ****     status = FLASH_WaitForLastBank2Operation(EraseTimeout);
 520:/home/virusv/usart/Libraries/src/stm32f10x_flash.c ****     
 521:/home/virusv/usart/Libraries/src/stm32f10x_flash.c ****     /* Disable the MER Bit */
 522:/home/virusv/usart/Libraries/src/stm32f10x_flash.c ****     FLASH->CR2 &= CR_MER_Reset;
 523:/home/virusv/usart/Libraries/src/stm32f10x_flash.c ****   }
 524:/home/virusv/usart/Libraries/src/stm32f10x_flash.c **** #else
 525:/home/virusv/usart/Libraries/src/stm32f10x_flash.c ****   /* Wait for last operation to be completed */
 526:/home/virusv/usart/Libraries/src/stm32f10x_flash.c ****   status = FLASH_WaitForLastOperation(EraseTimeout);
 445              		.loc 1 526 0
 446 000a 4FF43020 		mov	r0, #720896
 447 000e FFF7FEFF 		bl	FLASH_WaitForLastOperation
 448 0012 0346     		mov	r3, r0
 449 0014 FB71     		strb	r3, [r7, #7]
 527:/home/virusv/usart/Libraries/src/stm32f10x_flash.c ****   if(status == FLASH_COMPLETE)
 450              		.loc 1 527 0
 451 0016 FB79     		ldrb	r3, [r7, #7]	@ zero_extendqisi2
 452 0018 042B     		cmp	r3, #4
 453 001a 18D1     		bne	.L28
 528:/home/virusv/usart/Libraries/src/stm32f10x_flash.c ****   {
 529:/home/virusv/usart/Libraries/src/stm32f10x_flash.c ****     /* if the previous operation is completed, proceed to erase all pages */
 530:/home/virusv/usart/Libraries/src/stm32f10x_flash.c ****      FLASH->CR |= CR_MER_Set;
 454              		.loc 1 530 0
 455 001c 0E4A     		ldr	r2, .L30
 456 001e 0E4B     		ldr	r3, .L30
 457 0020 1B69     		ldr	r3, [r3, #16]
 458 0022 43F00403 		orr	r3, r3, #4
 459 0026 1361     		str	r3, [r2, #16]
 531:/home/virusv/usart/Libraries/src/stm32f10x_flash.c ****      FLASH->CR |= CR_STRT_Set;
 460              		.loc 1 531 0
 461 0028 0B4A     		ldr	r2, .L30
 462 002a 0B4B     		ldr	r3, .L30
 463 002c 1B69     		ldr	r3, [r3, #16]
 464 002e 43F04003 		orr	r3, r3, #64
 465 0032 1361     		str	r3, [r2, #16]
 532:/home/virusv/usart/Libraries/src/stm32f10x_flash.c ****     
 533:/home/virusv/usart/Libraries/src/stm32f10x_flash.c ****     /* Wait for last operation to be completed */
 534:/home/virusv/usart/Libraries/src/stm32f10x_flash.c ****     status = FLASH_WaitForLastOperation(EraseTimeout);
 466              		.loc 1 534 0
 467 0034 4FF43020 		mov	r0, #720896
 468 0038 FFF7FEFF 		bl	FLASH_WaitForLastOperation
 469 003c 0346     		mov	r3, r0
 470 003e FB71     		strb	r3, [r7, #7]
 535:/home/virusv/usart/Libraries/src/stm32f10x_flash.c **** 
 536:/home/virusv/usart/Libraries/src/stm32f10x_flash.c ****     /* Disable the MER Bit */
 537:/home/virusv/usart/Libraries/src/stm32f10x_flash.c ****     FLASH->CR &= CR_MER_Reset;
 471              		.loc 1 537 0
 472 0040 0549     		ldr	r1, .L30
 473 0042 054B     		ldr	r3, .L30
 474 0044 1A69     		ldr	r2, [r3, #16]
 475 0046 41F6FB73 		movw	r3, #8187
 476 004a 1340     		ands	r3, r3, r2
 477 004c 0B61     		str	r3, [r1, #16]
 478              	.L28:
 538:/home/virusv/usart/Libraries/src/stm32f10x_flash.c ****   }
 539:/home/virusv/usart/Libraries/src/stm32f10x_flash.c **** #endif /* STM32F10X_XL */
 540:/home/virusv/usart/Libraries/src/stm32f10x_flash.c **** 
 541:/home/virusv/usart/Libraries/src/stm32f10x_flash.c ****   /* Return the Erase Status */
 542:/home/virusv/usart/Libraries/src/stm32f10x_flash.c ****   return status;
 479              		.loc 1 542 0
 480 004e FB79     		ldrb	r3, [r7, #7]	@ zero_extendqisi2
 543:/home/virusv/usart/Libraries/src/stm32f10x_flash.c **** }
 481              		.loc 1 543 0
 482 0050 1846     		mov	r0, r3
 483 0052 0837     		adds	r7, r7, #8
 484              		.cfi_def_cfa_offset 8
 485 0054 BD46     		mov	sp, r7
 486              		.cfi_def_cfa_register 13
 487              		@ sp needed
 488 0056 80BD     		pop	{r7, pc}
 489              	.L31:
 490              		.align	2
 491              	.L30:
 492 0058 00200240 		.word	1073881088
 493              		.cfi_endproc
 494              	.LFE37:
 496              		.section	.text.FLASH_EraseAllBank1Pages,"ax",%progbits
 497              		.align	2
 498              		.global	FLASH_EraseAllBank1Pages
 499              		.thumb
 500              		.thumb_func
 502              	FLASH_EraseAllBank1Pages:
 503              	.LFB38:
 544:/home/virusv/usart/Libraries/src/stm32f10x_flash.c **** 
 545:/home/virusv/usart/Libraries/src/stm32f10x_flash.c **** /**
 546:/home/virusv/usart/Libraries/src/stm32f10x_flash.c ****   * @brief  Erases all Bank1 FLASH pages.
 547:/home/virusv/usart/Libraries/src/stm32f10x_flash.c ****   * @note   This function can be used for all STM32F10x devices.
 548:/home/virusv/usart/Libraries/src/stm32f10x_flash.c ****   *         - For STM32F10X_XL devices this function erases all Bank1 pages.
 549:/home/virusv/usart/Libraries/src/stm32f10x_flash.c ****   *         - For all other devices it erases all Bank1 pages and it is equivalent 
 550:/home/virusv/usart/Libraries/src/stm32f10x_flash.c ****   *           to FLASH_EraseAllPages function.
 551:/home/virusv/usart/Libraries/src/stm32f10x_flash.c ****   * @param  None
 552:/home/virusv/usart/Libraries/src/stm32f10x_flash.c ****   * @retval FLASH Status: The returned value can be: FLASH_ERROR_PG,
 553:/home/virusv/usart/Libraries/src/stm32f10x_flash.c ****   *         FLASH_ERROR_WRP, FLASH_COMPLETE or FLASH_TIMEOUT.
 554:/home/virusv/usart/Libraries/src/stm32f10x_flash.c ****   */
 555:/home/virusv/usart/Libraries/src/stm32f10x_flash.c **** FLASH_Status FLASH_EraseAllBank1Pages(void)
 556:/home/virusv/usart/Libraries/src/stm32f10x_flash.c **** {
 504              		.loc 1 556 0
 505              		.cfi_startproc
 506              		@ args = 0, pretend = 0, frame = 8
 507              		@ frame_needed = 1, uses_anonymous_args = 0
 508 0000 80B5     		push	{r7, lr}
 509              		.cfi_def_cfa_offset 8
 510              		.cfi_offset 7, -8
 511              		.cfi_offset 14, -4
 512 0002 82B0     		sub	sp, sp, #8
 513              		.cfi_def_cfa_offset 16
 514 0004 00AF     		add	r7, sp, #0
 515              		.cfi_def_cfa_register 7
 557:/home/virusv/usart/Libraries/src/stm32f10x_flash.c ****   FLASH_Status status = FLASH_COMPLETE;
 516              		.loc 1 557 0
 517 0006 0423     		movs	r3, #4
 518 0008 FB71     		strb	r3, [r7, #7]
 558:/home/virusv/usart/Libraries/src/stm32f10x_flash.c ****   /* Wait for last operation to be completed */
 559:/home/virusv/usart/Libraries/src/stm32f10x_flash.c ****   status = FLASH_WaitForLastBank1Operation(EraseTimeout);
 519              		.loc 1 559 0
 520 000a 4FF43020 		mov	r0, #720896
 521 000e FFF7FEFF 		bl	FLASH_WaitForLastBank1Operation
 522 0012 0346     		mov	r3, r0
 523 0014 FB71     		strb	r3, [r7, #7]
 560:/home/virusv/usart/Libraries/src/stm32f10x_flash.c ****   
 561:/home/virusv/usart/Libraries/src/stm32f10x_flash.c ****   if(status == FLASH_COMPLETE)
 524              		.loc 1 561 0
 525 0016 FB79     		ldrb	r3, [r7, #7]	@ zero_extendqisi2
 526 0018 042B     		cmp	r3, #4
 527 001a 18D1     		bne	.L33
 562:/home/virusv/usart/Libraries/src/stm32f10x_flash.c ****   {
 563:/home/virusv/usart/Libraries/src/stm32f10x_flash.c ****     /* if the previous operation is completed, proceed to erase all pages */
 564:/home/virusv/usart/Libraries/src/stm32f10x_flash.c ****      FLASH->CR |= CR_MER_Set;
 528              		.loc 1 564 0
 529 001c 0E4A     		ldr	r2, .L35
 530 001e 0E4B     		ldr	r3, .L35
 531 0020 1B69     		ldr	r3, [r3, #16]
 532 0022 43F00403 		orr	r3, r3, #4
 533 0026 1361     		str	r3, [r2, #16]
 565:/home/virusv/usart/Libraries/src/stm32f10x_flash.c ****      FLASH->CR |= CR_STRT_Set;
 534              		.loc 1 565 0
 535 0028 0B4A     		ldr	r2, .L35
 536 002a 0B4B     		ldr	r3, .L35
 537 002c 1B69     		ldr	r3, [r3, #16]
 538 002e 43F04003 		orr	r3, r3, #64
 539 0032 1361     		str	r3, [r2, #16]
 566:/home/virusv/usart/Libraries/src/stm32f10x_flash.c ****     
 567:/home/virusv/usart/Libraries/src/stm32f10x_flash.c ****     /* Wait for last operation to be completed */
 568:/home/virusv/usart/Libraries/src/stm32f10x_flash.c ****     status = FLASH_WaitForLastBank1Operation(EraseTimeout);
 540              		.loc 1 568 0
 541 0034 4FF43020 		mov	r0, #720896
 542 0038 FFF7FEFF 		bl	FLASH_WaitForLastBank1Operation
 543 003c 0346     		mov	r3, r0
 544 003e FB71     		strb	r3, [r7, #7]
 569:/home/virusv/usart/Libraries/src/stm32f10x_flash.c ****     
 570:/home/virusv/usart/Libraries/src/stm32f10x_flash.c ****     /* Disable the MER Bit */
 571:/home/virusv/usart/Libraries/src/stm32f10x_flash.c ****     FLASH->CR &= CR_MER_Reset;
 545              		.loc 1 571 0
 546 0040 0549     		ldr	r1, .L35
 547 0042 054B     		ldr	r3, .L35
 548 0044 1A69     		ldr	r2, [r3, #16]
 549 0046 41F6FB73 		movw	r3, #8187
 550 004a 1340     		ands	r3, r3, r2
 551 004c 0B61     		str	r3, [r1, #16]
 552              	.L33:
 572:/home/virusv/usart/Libraries/src/stm32f10x_flash.c ****   }    
 573:/home/virusv/usart/Libraries/src/stm32f10x_flash.c ****   /* Return the Erase Status */
 574:/home/virusv/usart/Libraries/src/stm32f10x_flash.c ****   return status;
 553              		.loc 1 574 0
 554 004e FB79     		ldrb	r3, [r7, #7]	@ zero_extendqisi2
 575:/home/virusv/usart/Libraries/src/stm32f10x_flash.c **** }
 555              		.loc 1 575 0
 556 0050 1846     		mov	r0, r3
 557 0052 0837     		adds	r7, r7, #8
 558              		.cfi_def_cfa_offset 8
 559 0054 BD46     		mov	sp, r7
 560              		.cfi_def_cfa_register 13
 561              		@ sp needed
 562 0056 80BD     		pop	{r7, pc}
 563              	.L36:
 564              		.align	2
 565              	.L35:
 566 0058 00200240 		.word	1073881088
 567              		.cfi_endproc
 568              	.LFE38:
 570              		.section	.text.FLASH_EraseOptionBytes,"ax",%progbits
 571              		.align	2
 572              		.global	FLASH_EraseOptionBytes
 573              		.thumb
 574              		.thumb_func
 576              	FLASH_EraseOptionBytes:
 577              	.LFB39:
 576:/home/virusv/usart/Libraries/src/stm32f10x_flash.c **** 
 577:/home/virusv/usart/Libraries/src/stm32f10x_flash.c **** #ifdef STM32F10X_XL
 578:/home/virusv/usart/Libraries/src/stm32f10x_flash.c **** /**
 579:/home/virusv/usart/Libraries/src/stm32f10x_flash.c ****   * @brief  Erases all Bank2 FLASH pages.
 580:/home/virusv/usart/Libraries/src/stm32f10x_flash.c ****   * @note   This function can be used only for STM32F10x_XL density devices.
 581:/home/virusv/usart/Libraries/src/stm32f10x_flash.c ****   * @param  None
 582:/home/virusv/usart/Libraries/src/stm32f10x_flash.c ****   * @retval FLASH Status: The returned value can be: FLASH_ERROR_PG,
 583:/home/virusv/usart/Libraries/src/stm32f10x_flash.c ****   *         FLASH_ERROR_WRP, FLASH_COMPLETE or FLASH_TIMEOUT.
 584:/home/virusv/usart/Libraries/src/stm32f10x_flash.c ****   */
 585:/home/virusv/usart/Libraries/src/stm32f10x_flash.c **** FLASH_Status FLASH_EraseAllBank2Pages(void)
 586:/home/virusv/usart/Libraries/src/stm32f10x_flash.c **** {
 587:/home/virusv/usart/Libraries/src/stm32f10x_flash.c ****   FLASH_Status status = FLASH_COMPLETE;
 588:/home/virusv/usart/Libraries/src/stm32f10x_flash.c ****   /* Wait for last operation to be completed */
 589:/home/virusv/usart/Libraries/src/stm32f10x_flash.c ****   status = FLASH_WaitForLastBank2Operation(EraseTimeout);
 590:/home/virusv/usart/Libraries/src/stm32f10x_flash.c ****   
 591:/home/virusv/usart/Libraries/src/stm32f10x_flash.c ****   if(status == FLASH_COMPLETE)
 592:/home/virusv/usart/Libraries/src/stm32f10x_flash.c ****   {
 593:/home/virusv/usart/Libraries/src/stm32f10x_flash.c ****     /* if the previous operation is completed, proceed to erase all pages */
 594:/home/virusv/usart/Libraries/src/stm32f10x_flash.c ****      FLASH->CR2 |= CR_MER_Set;
 595:/home/virusv/usart/Libraries/src/stm32f10x_flash.c ****      FLASH->CR2 |= CR_STRT_Set;
 596:/home/virusv/usart/Libraries/src/stm32f10x_flash.c ****     
 597:/home/virusv/usart/Libraries/src/stm32f10x_flash.c ****     /* Wait for last operation to be completed */
 598:/home/virusv/usart/Libraries/src/stm32f10x_flash.c ****     status = FLASH_WaitForLastBank2Operation(EraseTimeout);
 599:/home/virusv/usart/Libraries/src/stm32f10x_flash.c **** 
 600:/home/virusv/usart/Libraries/src/stm32f10x_flash.c ****     /* Disable the MER Bit */
 601:/home/virusv/usart/Libraries/src/stm32f10x_flash.c ****     FLASH->CR2 &= CR_MER_Reset;
 602:/home/virusv/usart/Libraries/src/stm32f10x_flash.c ****   }    
 603:/home/virusv/usart/Libraries/src/stm32f10x_flash.c ****   /* Return the Erase Status */
 604:/home/virusv/usart/Libraries/src/stm32f10x_flash.c ****   return status;
 605:/home/virusv/usart/Libraries/src/stm32f10x_flash.c **** }
 606:/home/virusv/usart/Libraries/src/stm32f10x_flash.c **** #endif /* STM32F10X_XL */
 607:/home/virusv/usart/Libraries/src/stm32f10x_flash.c **** 
 608:/home/virusv/usart/Libraries/src/stm32f10x_flash.c **** /**
 609:/home/virusv/usart/Libraries/src/stm32f10x_flash.c ****   * @brief  Erases the FLASH option bytes.
 610:/home/virusv/usart/Libraries/src/stm32f10x_flash.c ****   * @note   This functions erases all option bytes except the Read protection (RDP). 
 611:/home/virusv/usart/Libraries/src/stm32f10x_flash.c ****   * @note   This function can be used for all STM32F10x devices.
 612:/home/virusv/usart/Libraries/src/stm32f10x_flash.c ****   * @param  None
 613:/home/virusv/usart/Libraries/src/stm32f10x_flash.c ****   * @retval FLASH Status: The returned value can be: FLASH_ERROR_PG,
 614:/home/virusv/usart/Libraries/src/stm32f10x_flash.c ****   *         FLASH_ERROR_WRP, FLASH_COMPLETE or FLASH_TIMEOUT.
 615:/home/virusv/usart/Libraries/src/stm32f10x_flash.c ****   */
 616:/home/virusv/usart/Libraries/src/stm32f10x_flash.c **** FLASH_Status FLASH_EraseOptionBytes(void)
 617:/home/virusv/usart/Libraries/src/stm32f10x_flash.c **** {
 578              		.loc 1 617 0
 579              		.cfi_startproc
 580              		@ args = 0, pretend = 0, frame = 8
 581              		@ frame_needed = 1, uses_anonymous_args = 0
 582 0000 80B5     		push	{r7, lr}
 583              		.cfi_def_cfa_offset 8
 584              		.cfi_offset 7, -8
 585              		.cfi_offset 14, -4
 586 0002 82B0     		sub	sp, sp, #8
 587              		.cfi_def_cfa_offset 16
 588 0004 00AF     		add	r7, sp, #0
 589              		.cfi_def_cfa_register 7
 618:/home/virusv/usart/Libraries/src/stm32f10x_flash.c ****   uint16_t rdptmp = RDP_Key;
 590              		.loc 1 618 0
 591 0006 A523     		movs	r3, #165
 592 0008 FB80     		strh	r3, [r7, #6]	@ movhi
 619:/home/virusv/usart/Libraries/src/stm32f10x_flash.c **** 
 620:/home/virusv/usart/Libraries/src/stm32f10x_flash.c ****   FLASH_Status status = FLASH_COMPLETE;
 593              		.loc 1 620 0
 594 000a 0423     		movs	r3, #4
 595 000c 7B71     		strb	r3, [r7, #5]
 621:/home/virusv/usart/Libraries/src/stm32f10x_flash.c **** 
 622:/home/virusv/usart/Libraries/src/stm32f10x_flash.c ****   /* Get the actual read protection Option Byte value */ 
 623:/home/virusv/usart/Libraries/src/stm32f10x_flash.c ****   if(FLASH_GetReadOutProtectionStatus() != RESET)
 596              		.loc 1 623 0
 597 000e FFF7FEFF 		bl	FLASH_GetReadOutProtectionStatus
 598 0012 0346     		mov	r3, r0
 599 0014 002B     		cmp	r3, #0
 600 0016 01D0     		beq	.L38
 624:/home/virusv/usart/Libraries/src/stm32f10x_flash.c ****   {
 625:/home/virusv/usart/Libraries/src/stm32f10x_flash.c ****     rdptmp = 0x00;  
 601              		.loc 1 625 0
 602 0018 0023     		movs	r3, #0
 603 001a FB80     		strh	r3, [r7, #6]	@ movhi
 604              	.L38:
 626:/home/virusv/usart/Libraries/src/stm32f10x_flash.c ****   }
 627:/home/virusv/usart/Libraries/src/stm32f10x_flash.c **** 
 628:/home/virusv/usart/Libraries/src/stm32f10x_flash.c ****   /* Wait for last operation to be completed */
 629:/home/virusv/usart/Libraries/src/stm32f10x_flash.c ****   status = FLASH_WaitForLastOperation(EraseTimeout);
 605              		.loc 1 629 0
 606 001c 4FF43020 		mov	r0, #720896
 607 0020 FFF7FEFF 		bl	FLASH_WaitForLastOperation
 608 0024 0346     		mov	r3, r0
 609 0026 7B71     		strb	r3, [r7, #5]
 630:/home/virusv/usart/Libraries/src/stm32f10x_flash.c ****   if(status == FLASH_COMPLETE)
 610              		.loc 1 630 0
 611 0028 7B79     		ldrb	r3, [r7, #5]	@ zero_extendqisi2
 612 002a 042B     		cmp	r3, #4
 613 002c 45D1     		bne	.L39
 631:/home/virusv/usart/Libraries/src/stm32f10x_flash.c ****   {
 632:/home/virusv/usart/Libraries/src/stm32f10x_flash.c ****     /* Authorize the small information block programming */
 633:/home/virusv/usart/Libraries/src/stm32f10x_flash.c ****     FLASH->OPTKEYR = FLASH_KEY1;
 614              		.loc 1 633 0
 615 002e 254B     		ldr	r3, .L43
 616 0030 254A     		ldr	r2, .L43+4
 617 0032 9A60     		str	r2, [r3, #8]
 634:/home/virusv/usart/Libraries/src/stm32f10x_flash.c ****     FLASH->OPTKEYR = FLASH_KEY2;
 618              		.loc 1 634 0
 619 0034 234B     		ldr	r3, .L43
 620 0036 254A     		ldr	r2, .L43+8
 621 0038 9A60     		str	r2, [r3, #8]
 635:/home/virusv/usart/Libraries/src/stm32f10x_flash.c ****     
 636:/home/virusv/usart/Libraries/src/stm32f10x_flash.c ****     /* if the previous operation is completed, proceed to erase the option bytes */
 637:/home/virusv/usart/Libraries/src/stm32f10x_flash.c ****     FLASH->CR |= CR_OPTER_Set;
 622              		.loc 1 637 0
 623 003a 224A     		ldr	r2, .L43
 624 003c 214B     		ldr	r3, .L43
 625 003e 1B69     		ldr	r3, [r3, #16]
 626 0040 43F02003 		orr	r3, r3, #32
 627 0044 1361     		str	r3, [r2, #16]
 638:/home/virusv/usart/Libraries/src/stm32f10x_flash.c ****     FLASH->CR |= CR_STRT_Set;
 628              		.loc 1 638 0
 629 0046 1F4A     		ldr	r2, .L43
 630 0048 1E4B     		ldr	r3, .L43
 631 004a 1B69     		ldr	r3, [r3, #16]
 632 004c 43F04003 		orr	r3, r3, #64
 633 0050 1361     		str	r3, [r2, #16]
 639:/home/virusv/usart/Libraries/src/stm32f10x_flash.c ****     /* Wait for last operation to be completed */
 640:/home/virusv/usart/Libraries/src/stm32f10x_flash.c ****     status = FLASH_WaitForLastOperation(EraseTimeout);
 634              		.loc 1 640 0
 635 0052 4FF43020 		mov	r0, #720896
 636 0056 FFF7FEFF 		bl	FLASH_WaitForLastOperation
 637 005a 0346     		mov	r3, r0
 638 005c 7B71     		strb	r3, [r7, #5]
 641:/home/virusv/usart/Libraries/src/stm32f10x_flash.c ****     
 642:/home/virusv/usart/Libraries/src/stm32f10x_flash.c ****     if(status == FLASH_COMPLETE)
 639              		.loc 1 642 0
 640 005e 7B79     		ldrb	r3, [r7, #5]	@ zero_extendqisi2
 641 0060 042B     		cmp	r3, #4
 642 0062 20D1     		bne	.L40
 643:/home/virusv/usart/Libraries/src/stm32f10x_flash.c ****     {
 644:/home/virusv/usart/Libraries/src/stm32f10x_flash.c ****       /* if the erase operation is completed, disable the OPTER Bit */
 645:/home/virusv/usart/Libraries/src/stm32f10x_flash.c ****       FLASH->CR &= CR_OPTER_Reset;
 643              		.loc 1 645 0
 644 0064 1749     		ldr	r1, .L43
 645 0066 174B     		ldr	r3, .L43
 646 0068 1A69     		ldr	r2, [r3, #16]
 647 006a 41F6DF73 		movw	r3, #8159
 648 006e 1340     		ands	r3, r3, r2
 649 0070 0B61     		str	r3, [r1, #16]
 646:/home/virusv/usart/Libraries/src/stm32f10x_flash.c ****        
 647:/home/virusv/usart/Libraries/src/stm32f10x_flash.c ****       /* Enable the Option Bytes Programming operation */
 648:/home/virusv/usart/Libraries/src/stm32f10x_flash.c ****       FLASH->CR |= CR_OPTPG_Set;
 650              		.loc 1 648 0
 651 0072 144A     		ldr	r2, .L43
 652 0074 134B     		ldr	r3, .L43
 653 0076 1B69     		ldr	r3, [r3, #16]
 654 0078 43F01003 		orr	r3, r3, #16
 655 007c 1361     		str	r3, [r2, #16]
 649:/home/virusv/usart/Libraries/src/stm32f10x_flash.c ****       /* Restore the last read protection Option Byte value */
 650:/home/virusv/usart/Libraries/src/stm32f10x_flash.c ****       OB->RDP = (uint16_t)rdptmp; 
 656              		.loc 1 650 0
 657 007e 144A     		ldr	r2, .L43+12
 658 0080 FB88     		ldrh	r3, [r7, #6]	@ movhi
 659 0082 1380     		strh	r3, [r2]	@ movhi
 651:/home/virusv/usart/Libraries/src/stm32f10x_flash.c ****       /* Wait for last operation to be completed */
 652:/home/virusv/usart/Libraries/src/stm32f10x_flash.c ****       status = FLASH_WaitForLastOperation(ProgramTimeout);
 660              		.loc 1 652 0
 661 0084 4FF40050 		mov	r0, #8192
 662 0088 FFF7FEFF 		bl	FLASH_WaitForLastOperation
 663 008c 0346     		mov	r3, r0
 664 008e 7B71     		strb	r3, [r7, #5]
 653:/home/virusv/usart/Libraries/src/stm32f10x_flash.c ****  
 654:/home/virusv/usart/Libraries/src/stm32f10x_flash.c ****       if(status != FLASH_TIMEOUT)
 665              		.loc 1 654 0
 666 0090 7B79     		ldrb	r3, [r7, #5]	@ zero_extendqisi2
 667 0092 052B     		cmp	r3, #5
 668 0094 11D0     		beq	.L39
 655:/home/virusv/usart/Libraries/src/stm32f10x_flash.c ****       {
 656:/home/virusv/usart/Libraries/src/stm32f10x_flash.c ****         /* if the program operation is completed, disable the OPTPG Bit */
 657:/home/virusv/usart/Libraries/src/stm32f10x_flash.c ****         FLASH->CR &= CR_OPTPG_Reset;
 669              		.loc 1 657 0
 670 0096 0B49     		ldr	r1, .L43
 671 0098 0A4B     		ldr	r3, .L43
 672 009a 1A69     		ldr	r2, [r3, #16]
 673 009c 41F6EF73 		movw	r3, #8175
 674 00a0 1340     		ands	r3, r3, r2
 675 00a2 0B61     		str	r3, [r1, #16]
 676 00a4 09E0     		b	.L39
 677              	.L40:
 658:/home/virusv/usart/Libraries/src/stm32f10x_flash.c ****       }
 659:/home/virusv/usart/Libraries/src/stm32f10x_flash.c ****     }
 660:/home/virusv/usart/Libraries/src/stm32f10x_flash.c ****     else
 661:/home/virusv/usart/Libraries/src/stm32f10x_flash.c ****     {
 662:/home/virusv/usart/Libraries/src/stm32f10x_flash.c ****       if (status != FLASH_TIMEOUT)
 678              		.loc 1 662 0
 679 00a6 7B79     		ldrb	r3, [r7, #5]	@ zero_extendqisi2
 680 00a8 052B     		cmp	r3, #5
 681 00aa 06D0     		beq	.L39
 663:/home/virusv/usart/Libraries/src/stm32f10x_flash.c ****       {
 664:/home/virusv/usart/Libraries/src/stm32f10x_flash.c ****         /* Disable the OPTPG Bit */
 665:/home/virusv/usart/Libraries/src/stm32f10x_flash.c ****         FLASH->CR &= CR_OPTPG_Reset;
 682              		.loc 1 665 0
 683 00ac 0549     		ldr	r1, .L43
 684 00ae 054B     		ldr	r3, .L43
 685 00b0 1A69     		ldr	r2, [r3, #16]
 686 00b2 41F6EF73 		movw	r3, #8175
 687 00b6 1340     		ands	r3, r3, r2
 688 00b8 0B61     		str	r3, [r1, #16]
 689              	.L39:
 666:/home/virusv/usart/Libraries/src/stm32f10x_flash.c ****       }
 667:/home/virusv/usart/Libraries/src/stm32f10x_flash.c ****     }  
 668:/home/virusv/usart/Libraries/src/stm32f10x_flash.c ****   }
 669:/home/virusv/usart/Libraries/src/stm32f10x_flash.c ****   /* Return the erase status */
 670:/home/virusv/usart/Libraries/src/stm32f10x_flash.c ****   return status;
 690              		.loc 1 670 0
 691 00ba 7B79     		ldrb	r3, [r7, #5]	@ zero_extendqisi2
 671:/home/virusv/usart/Libraries/src/stm32f10x_flash.c **** }
 692              		.loc 1 671 0
 693 00bc 1846     		mov	r0, r3
 694 00be 0837     		adds	r7, r7, #8
 695              		.cfi_def_cfa_offset 8
 696 00c0 BD46     		mov	sp, r7
 697              		.cfi_def_cfa_register 13
 698              		@ sp needed
 699 00c2 80BD     		pop	{r7, pc}
 700              	.L44:
 701              		.align	2
 702              	.L43:
 703 00c4 00200240 		.word	1073881088
 704 00c8 23016745 		.word	1164378403
 705 00cc AB89EFCD 		.word	-839939669
 706 00d0 00F8FF1F 		.word	536868864
 707              		.cfi_endproc
 708              	.LFE39:
 710              		.section	.text.FLASH_ProgramWord,"ax",%progbits
 711              		.align	2
 712              		.global	FLASH_ProgramWord
 713              		.thumb
 714              		.thumb_func
 716              	FLASH_ProgramWord:
 717              	.LFB40:
 672:/home/virusv/usart/Libraries/src/stm32f10x_flash.c **** 
 673:/home/virusv/usart/Libraries/src/stm32f10x_flash.c **** /**
 674:/home/virusv/usart/Libraries/src/stm32f10x_flash.c ****   * @brief  Programs a word at a specified address.
 675:/home/virusv/usart/Libraries/src/stm32f10x_flash.c ****   * @note   This function can be used for all STM32F10x devices.
 676:/home/virusv/usart/Libraries/src/stm32f10x_flash.c ****   * @param  Address: specifies the address to be programmed.
 677:/home/virusv/usart/Libraries/src/stm32f10x_flash.c ****   * @param  Data: specifies the data to be programmed.
 678:/home/virusv/usart/Libraries/src/stm32f10x_flash.c ****   * @retval FLASH Status: The returned value can be: FLASH_ERROR_PG,
 679:/home/virusv/usart/Libraries/src/stm32f10x_flash.c ****   *         FLASH_ERROR_WRP, FLASH_COMPLETE or FLASH_TIMEOUT. 
 680:/home/virusv/usart/Libraries/src/stm32f10x_flash.c ****   */
 681:/home/virusv/usart/Libraries/src/stm32f10x_flash.c **** FLASH_Status FLASH_ProgramWord(uint32_t Address, uint32_t Data)
 682:/home/virusv/usart/Libraries/src/stm32f10x_flash.c **** {
 718              		.loc 1 682 0
 719              		.cfi_startproc
 720              		@ args = 0, pretend = 0, frame = 16
 721              		@ frame_needed = 1, uses_anonymous_args = 0
 722 0000 80B5     		push	{r7, lr}
 723              		.cfi_def_cfa_offset 8
 724              		.cfi_offset 7, -8
 725              		.cfi_offset 14, -4
 726 0002 84B0     		sub	sp, sp, #16
 727              		.cfi_def_cfa_offset 24
 728 0004 00AF     		add	r7, sp, #0
 729              		.cfi_def_cfa_register 7
 730 0006 7860     		str	r0, [r7, #4]
 731 0008 3960     		str	r1, [r7]
 683:/home/virusv/usart/Libraries/src/stm32f10x_flash.c ****   FLASH_Status status = FLASH_COMPLETE;
 732              		.loc 1 683 0
 733 000a 0423     		movs	r3, #4
 734 000c FB73     		strb	r3, [r7, #15]
 684:/home/virusv/usart/Libraries/src/stm32f10x_flash.c ****   __IO uint32_t tmp = 0;
 735              		.loc 1 684 0
 736 000e 0023     		movs	r3, #0
 737 0010 BB60     		str	r3, [r7, #8]
 685:/home/virusv/usart/Libraries/src/stm32f10x_flash.c **** 
 686:/home/virusv/usart/Libraries/src/stm32f10x_flash.c ****   /* Check the parameters */
 687:/home/virusv/usart/Libraries/src/stm32f10x_flash.c ****   assert_param(IS_FLASH_ADDRESS(Address));
 688:/home/virusv/usart/Libraries/src/stm32f10x_flash.c **** 
 689:/home/virusv/usart/Libraries/src/stm32f10x_flash.c **** #ifdef STM32F10X_XL
 690:/home/virusv/usart/Libraries/src/stm32f10x_flash.c ****   if(Address < FLASH_BANK1_END_ADDRESS - 2)
 691:/home/virusv/usart/Libraries/src/stm32f10x_flash.c ****   { 
 692:/home/virusv/usart/Libraries/src/stm32f10x_flash.c ****     /* Wait for last operation to be completed */
 693:/home/virusv/usart/Libraries/src/stm32f10x_flash.c ****     status = FLASH_WaitForLastBank1Operation(ProgramTimeout); 
 694:/home/virusv/usart/Libraries/src/stm32f10x_flash.c ****     if(status == FLASH_COMPLETE)
 695:/home/virusv/usart/Libraries/src/stm32f10x_flash.c ****     {
 696:/home/virusv/usart/Libraries/src/stm32f10x_flash.c ****       /* if the previous operation is completed, proceed to program the new first 
 697:/home/virusv/usart/Libraries/src/stm32f10x_flash.c ****         half word */
 698:/home/virusv/usart/Libraries/src/stm32f10x_flash.c ****       FLASH->CR |= CR_PG_Set;
 699:/home/virusv/usart/Libraries/src/stm32f10x_flash.c ****   
 700:/home/virusv/usart/Libraries/src/stm32f10x_flash.c ****       *(__IO uint16_t*)Address = (uint16_t)Data;
 701:/home/virusv/usart/Libraries/src/stm32f10x_flash.c ****       /* Wait for last operation to be completed */
 702:/home/virusv/usart/Libraries/src/stm32f10x_flash.c ****       status = FLASH_WaitForLastOperation(ProgramTimeout);
 703:/home/virusv/usart/Libraries/src/stm32f10x_flash.c ****  
 704:/home/virusv/usart/Libraries/src/stm32f10x_flash.c ****       if(status == FLASH_COMPLETE)
 705:/home/virusv/usart/Libraries/src/stm32f10x_flash.c ****       {
 706:/home/virusv/usart/Libraries/src/stm32f10x_flash.c ****         /* if the previous operation is completed, proceed to program the new second 
 707:/home/virusv/usart/Libraries/src/stm32f10x_flash.c ****         half word */
 708:/home/virusv/usart/Libraries/src/stm32f10x_flash.c ****         tmp = Address + 2;
 709:/home/virusv/usart/Libraries/src/stm32f10x_flash.c **** 
 710:/home/virusv/usart/Libraries/src/stm32f10x_flash.c ****         *(__IO uint16_t*) tmp = Data >> 16;
 711:/home/virusv/usart/Libraries/src/stm32f10x_flash.c ****     
 712:/home/virusv/usart/Libraries/src/stm32f10x_flash.c ****         /* Wait for last operation to be completed */
 713:/home/virusv/usart/Libraries/src/stm32f10x_flash.c ****         status = FLASH_WaitForLastOperation(ProgramTimeout);
 714:/home/virusv/usart/Libraries/src/stm32f10x_flash.c ****         
 715:/home/virusv/usart/Libraries/src/stm32f10x_flash.c ****         /* Disable the PG Bit */
 716:/home/virusv/usart/Libraries/src/stm32f10x_flash.c ****         FLASH->CR &= CR_PG_Reset;
 717:/home/virusv/usart/Libraries/src/stm32f10x_flash.c ****       }
 718:/home/virusv/usart/Libraries/src/stm32f10x_flash.c ****       else
 719:/home/virusv/usart/Libraries/src/stm32f10x_flash.c ****       {
 720:/home/virusv/usart/Libraries/src/stm32f10x_flash.c ****         /* Disable the PG Bit */
 721:/home/virusv/usart/Libraries/src/stm32f10x_flash.c ****         FLASH->CR &= CR_PG_Reset;
 722:/home/virusv/usart/Libraries/src/stm32f10x_flash.c ****        }
 723:/home/virusv/usart/Libraries/src/stm32f10x_flash.c ****     }
 724:/home/virusv/usart/Libraries/src/stm32f10x_flash.c ****   }
 725:/home/virusv/usart/Libraries/src/stm32f10x_flash.c ****   else if(Address == (FLASH_BANK1_END_ADDRESS - 1))
 726:/home/virusv/usart/Libraries/src/stm32f10x_flash.c ****   {
 727:/home/virusv/usart/Libraries/src/stm32f10x_flash.c ****     /* Wait for last operation to be completed */
 728:/home/virusv/usart/Libraries/src/stm32f10x_flash.c ****     status = FLASH_WaitForLastBank1Operation(ProgramTimeout);
 729:/home/virusv/usart/Libraries/src/stm32f10x_flash.c **** 
 730:/home/virusv/usart/Libraries/src/stm32f10x_flash.c ****     if(status == FLASH_COMPLETE)
 731:/home/virusv/usart/Libraries/src/stm32f10x_flash.c ****     {
 732:/home/virusv/usart/Libraries/src/stm32f10x_flash.c ****       /* if the previous operation is completed, proceed to program the new first 
 733:/home/virusv/usart/Libraries/src/stm32f10x_flash.c ****         half word */
 734:/home/virusv/usart/Libraries/src/stm32f10x_flash.c ****       FLASH->CR |= CR_PG_Set;
 735:/home/virusv/usart/Libraries/src/stm32f10x_flash.c ****   
 736:/home/virusv/usart/Libraries/src/stm32f10x_flash.c ****       *(__IO uint16_t*)Address = (uint16_t)Data;
 737:/home/virusv/usart/Libraries/src/stm32f10x_flash.c **** 
 738:/home/virusv/usart/Libraries/src/stm32f10x_flash.c ****       /* Wait for last operation to be completed */
 739:/home/virusv/usart/Libraries/src/stm32f10x_flash.c ****       status = FLASH_WaitForLastBank1Operation(ProgramTimeout);
 740:/home/virusv/usart/Libraries/src/stm32f10x_flash.c ****       
 741:/home/virusv/usart/Libraries/src/stm32f10x_flash.c **** 	  /* Disable the PG Bit */
 742:/home/virusv/usart/Libraries/src/stm32f10x_flash.c ****       FLASH->CR &= CR_PG_Reset;
 743:/home/virusv/usart/Libraries/src/stm32f10x_flash.c ****     }
 744:/home/virusv/usart/Libraries/src/stm32f10x_flash.c ****     else
 745:/home/virusv/usart/Libraries/src/stm32f10x_flash.c ****     {
 746:/home/virusv/usart/Libraries/src/stm32f10x_flash.c ****       /* Disable the PG Bit */
 747:/home/virusv/usart/Libraries/src/stm32f10x_flash.c ****       FLASH->CR &= CR_PG_Reset;
 748:/home/virusv/usart/Libraries/src/stm32f10x_flash.c ****     }
 749:/home/virusv/usart/Libraries/src/stm32f10x_flash.c **** 
 750:/home/virusv/usart/Libraries/src/stm32f10x_flash.c ****     /* Wait for last operation to be completed */
 751:/home/virusv/usart/Libraries/src/stm32f10x_flash.c ****     status = FLASH_WaitForLastBank2Operation(ProgramTimeout);
 752:/home/virusv/usart/Libraries/src/stm32f10x_flash.c **** 
 753:/home/virusv/usart/Libraries/src/stm32f10x_flash.c ****     if(status == FLASH_COMPLETE)
 754:/home/virusv/usart/Libraries/src/stm32f10x_flash.c ****     {
 755:/home/virusv/usart/Libraries/src/stm32f10x_flash.c ****       /* if the previous operation is completed, proceed to program the new second 
 756:/home/virusv/usart/Libraries/src/stm32f10x_flash.c ****       half word */
 757:/home/virusv/usart/Libraries/src/stm32f10x_flash.c ****       FLASH->CR2 |= CR_PG_Set;
 758:/home/virusv/usart/Libraries/src/stm32f10x_flash.c ****       tmp = Address + 2;
 759:/home/virusv/usart/Libraries/src/stm32f10x_flash.c **** 
 760:/home/virusv/usart/Libraries/src/stm32f10x_flash.c ****       *(__IO uint16_t*) tmp = Data >> 16;
 761:/home/virusv/usart/Libraries/src/stm32f10x_flash.c ****     
 762:/home/virusv/usart/Libraries/src/stm32f10x_flash.c ****       /* Wait for last operation to be completed */
 763:/home/virusv/usart/Libraries/src/stm32f10x_flash.c ****       status = FLASH_WaitForLastBank2Operation(ProgramTimeout);
 764:/home/virusv/usart/Libraries/src/stm32f10x_flash.c ****         
 765:/home/virusv/usart/Libraries/src/stm32f10x_flash.c ****       /* Disable the PG Bit */
 766:/home/virusv/usart/Libraries/src/stm32f10x_flash.c ****       FLASH->CR2 &= CR_PG_Reset;
 767:/home/virusv/usart/Libraries/src/stm32f10x_flash.c ****     }
 768:/home/virusv/usart/Libraries/src/stm32f10x_flash.c ****     else
 769:/home/virusv/usart/Libraries/src/stm32f10x_flash.c ****     {
 770:/home/virusv/usart/Libraries/src/stm32f10x_flash.c ****       /* Disable the PG Bit */
 771:/home/virusv/usart/Libraries/src/stm32f10x_flash.c ****       FLASH->CR2 &= CR_PG_Reset;
 772:/home/virusv/usart/Libraries/src/stm32f10x_flash.c ****     }
 773:/home/virusv/usart/Libraries/src/stm32f10x_flash.c ****   }
 774:/home/virusv/usart/Libraries/src/stm32f10x_flash.c ****   else
 775:/home/virusv/usart/Libraries/src/stm32f10x_flash.c ****   {
 776:/home/virusv/usart/Libraries/src/stm32f10x_flash.c ****     /* Wait for last operation to be completed */
 777:/home/virusv/usart/Libraries/src/stm32f10x_flash.c ****     status = FLASH_WaitForLastBank2Operation(ProgramTimeout);
 778:/home/virusv/usart/Libraries/src/stm32f10x_flash.c **** 
 779:/home/virusv/usart/Libraries/src/stm32f10x_flash.c ****     if(status == FLASH_COMPLETE)
 780:/home/virusv/usart/Libraries/src/stm32f10x_flash.c ****     {
 781:/home/virusv/usart/Libraries/src/stm32f10x_flash.c ****       /* if the previous operation is completed, proceed to program the new first 
 782:/home/virusv/usart/Libraries/src/stm32f10x_flash.c ****         half word */
 783:/home/virusv/usart/Libraries/src/stm32f10x_flash.c ****       FLASH->CR2 |= CR_PG_Set;
 784:/home/virusv/usart/Libraries/src/stm32f10x_flash.c ****   
 785:/home/virusv/usart/Libraries/src/stm32f10x_flash.c ****       *(__IO uint16_t*)Address = (uint16_t)Data;
 786:/home/virusv/usart/Libraries/src/stm32f10x_flash.c ****       /* Wait for last operation to be completed */
 787:/home/virusv/usart/Libraries/src/stm32f10x_flash.c ****       status = FLASH_WaitForLastBank2Operation(ProgramTimeout);
 788:/home/virusv/usart/Libraries/src/stm32f10x_flash.c ****  
 789:/home/virusv/usart/Libraries/src/stm32f10x_flash.c ****       if(status == FLASH_COMPLETE)
 790:/home/virusv/usart/Libraries/src/stm32f10x_flash.c ****       {
 791:/home/virusv/usart/Libraries/src/stm32f10x_flash.c ****         /* if the previous operation is completed, proceed to program the new second 
 792:/home/virusv/usart/Libraries/src/stm32f10x_flash.c ****         half word */
 793:/home/virusv/usart/Libraries/src/stm32f10x_flash.c ****         tmp = Address + 2;
 794:/home/virusv/usart/Libraries/src/stm32f10x_flash.c **** 
 795:/home/virusv/usart/Libraries/src/stm32f10x_flash.c ****         *(__IO uint16_t*) tmp = Data >> 16;
 796:/home/virusv/usart/Libraries/src/stm32f10x_flash.c ****     
 797:/home/virusv/usart/Libraries/src/stm32f10x_flash.c ****         /* Wait for last operation to be completed */
 798:/home/virusv/usart/Libraries/src/stm32f10x_flash.c ****         status = FLASH_WaitForLastBank2Operation(ProgramTimeout);
 799:/home/virusv/usart/Libraries/src/stm32f10x_flash.c ****         
 800:/home/virusv/usart/Libraries/src/stm32f10x_flash.c ****         /* Disable the PG Bit */
 801:/home/virusv/usart/Libraries/src/stm32f10x_flash.c ****         FLASH->CR2 &= CR_PG_Reset;
 802:/home/virusv/usart/Libraries/src/stm32f10x_flash.c ****       }
 803:/home/virusv/usart/Libraries/src/stm32f10x_flash.c ****       else
 804:/home/virusv/usart/Libraries/src/stm32f10x_flash.c ****       {
 805:/home/virusv/usart/Libraries/src/stm32f10x_flash.c ****         /* Disable the PG Bit */
 806:/home/virusv/usart/Libraries/src/stm32f10x_flash.c ****         FLASH->CR2 &= CR_PG_Reset;
 807:/home/virusv/usart/Libraries/src/stm32f10x_flash.c ****       }
 808:/home/virusv/usart/Libraries/src/stm32f10x_flash.c ****     }
 809:/home/virusv/usart/Libraries/src/stm32f10x_flash.c ****   }
 810:/home/virusv/usart/Libraries/src/stm32f10x_flash.c **** #else
 811:/home/virusv/usart/Libraries/src/stm32f10x_flash.c ****   /* Wait for last operation to be completed */
 812:/home/virusv/usart/Libraries/src/stm32f10x_flash.c ****   status = FLASH_WaitForLastOperation(ProgramTimeout);
 738              		.loc 1 812 0
 739 0012 4FF40050 		mov	r0, #8192
 740 0016 FFF7FEFF 		bl	FLASH_WaitForLastOperation
 741 001a 0346     		mov	r3, r0
 742 001c FB73     		strb	r3, [r7, #15]
 813:/home/virusv/usart/Libraries/src/stm32f10x_flash.c ****   
 814:/home/virusv/usart/Libraries/src/stm32f10x_flash.c ****   if(status == FLASH_COMPLETE)
 743              		.loc 1 814 0
 744 001e FB7B     		ldrb	r3, [r7, #15]	@ zero_extendqisi2
 745 0020 042B     		cmp	r3, #4
 746 0022 30D1     		bne	.L46
 815:/home/virusv/usart/Libraries/src/stm32f10x_flash.c ****   {
 816:/home/virusv/usart/Libraries/src/stm32f10x_flash.c ****     /* if the previous operation is completed, proceed to program the new first 
 817:/home/virusv/usart/Libraries/src/stm32f10x_flash.c ****     half word */
 818:/home/virusv/usart/Libraries/src/stm32f10x_flash.c ****     FLASH->CR |= CR_PG_Set;
 747              		.loc 1 818 0
 748 0024 1A4A     		ldr	r2, .L49
 749 0026 1A4B     		ldr	r3, .L49
 750 0028 1B69     		ldr	r3, [r3, #16]
 751 002a 43F00103 		orr	r3, r3, #1
 752 002e 1361     		str	r3, [r2, #16]
 819:/home/virusv/usart/Libraries/src/stm32f10x_flash.c ****   
 820:/home/virusv/usart/Libraries/src/stm32f10x_flash.c ****     *(__IO uint16_t*)Address = (uint16_t)Data;
 753              		.loc 1 820 0
 754 0030 7B68     		ldr	r3, [r7, #4]
 755 0032 3A68     		ldr	r2, [r7]
 756 0034 92B2     		uxth	r2, r2
 757 0036 1A80     		strh	r2, [r3]	@ movhi
 821:/home/virusv/usart/Libraries/src/stm32f10x_flash.c ****     /* Wait for last operation to be completed */
 822:/home/virusv/usart/Libraries/src/stm32f10x_flash.c ****     status = FLASH_WaitForLastOperation(ProgramTimeout);
 758              		.loc 1 822 0
 759 0038 4FF40050 		mov	r0, #8192
 760 003c FFF7FEFF 		bl	FLASH_WaitForLastOperation
 761 0040 0346     		mov	r3, r0
 762 0042 FB73     		strb	r3, [r7, #15]
 823:/home/virusv/usart/Libraries/src/stm32f10x_flash.c ****  
 824:/home/virusv/usart/Libraries/src/stm32f10x_flash.c ****     if(status == FLASH_COMPLETE)
 763              		.loc 1 824 0
 764 0044 FB7B     		ldrb	r3, [r7, #15]	@ zero_extendqisi2
 765 0046 042B     		cmp	r3, #4
 766 0048 16D1     		bne	.L47
 825:/home/virusv/usart/Libraries/src/stm32f10x_flash.c ****     {
 826:/home/virusv/usart/Libraries/src/stm32f10x_flash.c ****       /* if the previous operation is completed, proceed to program the new second 
 827:/home/virusv/usart/Libraries/src/stm32f10x_flash.c ****       half word */
 828:/home/virusv/usart/Libraries/src/stm32f10x_flash.c ****       tmp = Address + 2;
 767              		.loc 1 828 0
 768 004a 7B68     		ldr	r3, [r7, #4]
 769 004c 0233     		adds	r3, r3, #2
 770 004e BB60     		str	r3, [r7, #8]
 829:/home/virusv/usart/Libraries/src/stm32f10x_flash.c **** 
 830:/home/virusv/usart/Libraries/src/stm32f10x_flash.c ****       *(__IO uint16_t*) tmp = Data >> 16;
 771              		.loc 1 830 0
 772 0050 BB68     		ldr	r3, [r7, #8]
 773 0052 1A46     		mov	r2, r3
 774 0054 3B68     		ldr	r3, [r7]
 775 0056 1B0C     		lsrs	r3, r3, #16
 776 0058 9BB2     		uxth	r3, r3
 777 005a 1380     		strh	r3, [r2]	@ movhi
 831:/home/virusv/usart/Libraries/src/stm32f10x_flash.c ****     
 832:/home/virusv/usart/Libraries/src/stm32f10x_flash.c ****       /* Wait for last operation to be completed */
 833:/home/virusv/usart/Libraries/src/stm32f10x_flash.c ****       status = FLASH_WaitForLastOperation(ProgramTimeout);
 778              		.loc 1 833 0
 779 005c 4FF40050 		mov	r0, #8192
 780 0060 FFF7FEFF 		bl	FLASH_WaitForLastOperation
 781 0064 0346     		mov	r3, r0
 782 0066 FB73     		strb	r3, [r7, #15]
 834:/home/virusv/usart/Libraries/src/stm32f10x_flash.c ****         
 835:/home/virusv/usart/Libraries/src/stm32f10x_flash.c ****       /* Disable the PG Bit */
 836:/home/virusv/usart/Libraries/src/stm32f10x_flash.c ****       FLASH->CR &= CR_PG_Reset;
 783              		.loc 1 836 0
 784 0068 0949     		ldr	r1, .L49
 785 006a 094B     		ldr	r3, .L49
 786 006c 1A69     		ldr	r2, [r3, #16]
 787 006e 41F6FE73 		movw	r3, #8190
 788 0072 1340     		ands	r3, r3, r2
 789 0074 0B61     		str	r3, [r1, #16]
 790 0076 06E0     		b	.L46
 791              	.L47:
 837:/home/virusv/usart/Libraries/src/stm32f10x_flash.c ****     }
 838:/home/virusv/usart/Libraries/src/stm32f10x_flash.c ****     else
 839:/home/virusv/usart/Libraries/src/stm32f10x_flash.c ****     {
 840:/home/virusv/usart/Libraries/src/stm32f10x_flash.c ****       /* Disable the PG Bit */
 841:/home/virusv/usart/Libraries/src/stm32f10x_flash.c ****       FLASH->CR &= CR_PG_Reset;
 792              		.loc 1 841 0
 793 0078 0549     		ldr	r1, .L49
 794 007a 054B     		ldr	r3, .L49
 795 007c 1A69     		ldr	r2, [r3, #16]
 796 007e 41F6FE73 		movw	r3, #8190
 797 0082 1340     		ands	r3, r3, r2
 798 0084 0B61     		str	r3, [r1, #16]
 799              	.L46:
 842:/home/virusv/usart/Libraries/src/stm32f10x_flash.c ****     }
 843:/home/virusv/usart/Libraries/src/stm32f10x_flash.c ****   }         
 844:/home/virusv/usart/Libraries/src/stm32f10x_flash.c **** #endif /* STM32F10X_XL */
 845:/home/virusv/usart/Libraries/src/stm32f10x_flash.c ****    
 846:/home/virusv/usart/Libraries/src/stm32f10x_flash.c ****   /* Return the Program Status */
 847:/home/virusv/usart/Libraries/src/stm32f10x_flash.c ****   return status;
 800              		.loc 1 847 0
 801 0086 FB7B     		ldrb	r3, [r7, #15]	@ zero_extendqisi2
 848:/home/virusv/usart/Libraries/src/stm32f10x_flash.c **** }
 802              		.loc 1 848 0
 803 0088 1846     		mov	r0, r3
 804 008a 1037     		adds	r7, r7, #16
 805              		.cfi_def_cfa_offset 8
 806 008c BD46     		mov	sp, r7
 807              		.cfi_def_cfa_register 13
 808              		@ sp needed
 809 008e 80BD     		pop	{r7, pc}
 810              	.L50:
 811              		.align	2
 812              	.L49:
 813 0090 00200240 		.word	1073881088
 814              		.cfi_endproc
 815              	.LFE40:
 817              		.section	.text.FLASH_ProgramHalfWord,"ax",%progbits
 818              		.align	2
 819              		.global	FLASH_ProgramHalfWord
 820              		.thumb
 821              		.thumb_func
 823              	FLASH_ProgramHalfWord:
 824              	.LFB41:
 849:/home/virusv/usart/Libraries/src/stm32f10x_flash.c **** 
 850:/home/virusv/usart/Libraries/src/stm32f10x_flash.c **** /**
 851:/home/virusv/usart/Libraries/src/stm32f10x_flash.c ****   * @brief  Programs a half word at a specified address.
 852:/home/virusv/usart/Libraries/src/stm32f10x_flash.c ****   * @note   This function can be used for all STM32F10x devices.
 853:/home/virusv/usart/Libraries/src/stm32f10x_flash.c ****   * @param  Address: specifies the address to be programmed.
 854:/home/virusv/usart/Libraries/src/stm32f10x_flash.c ****   * @param  Data: specifies the data to be programmed.
 855:/home/virusv/usart/Libraries/src/stm32f10x_flash.c ****   * @retval FLASH Status: The returned value can be: FLASH_ERROR_PG,
 856:/home/virusv/usart/Libraries/src/stm32f10x_flash.c ****   *         FLASH_ERROR_WRP, FLASH_COMPLETE or FLASH_TIMEOUT. 
 857:/home/virusv/usart/Libraries/src/stm32f10x_flash.c ****   */
 858:/home/virusv/usart/Libraries/src/stm32f10x_flash.c **** FLASH_Status FLASH_ProgramHalfWord(uint32_t Address, uint16_t Data)
 859:/home/virusv/usart/Libraries/src/stm32f10x_flash.c **** {
 825              		.loc 1 859 0
 826              		.cfi_startproc
 827              		@ args = 0, pretend = 0, frame = 16
 828              		@ frame_needed = 1, uses_anonymous_args = 0
 829 0000 80B5     		push	{r7, lr}
 830              		.cfi_def_cfa_offset 8
 831              		.cfi_offset 7, -8
 832              		.cfi_offset 14, -4
 833 0002 84B0     		sub	sp, sp, #16
 834              		.cfi_def_cfa_offset 24
 835 0004 00AF     		add	r7, sp, #0
 836              		.cfi_def_cfa_register 7
 837 0006 7860     		str	r0, [r7, #4]
 838 0008 0B46     		mov	r3, r1
 839 000a 7B80     		strh	r3, [r7, #2]	@ movhi
 860:/home/virusv/usart/Libraries/src/stm32f10x_flash.c ****   FLASH_Status status = FLASH_COMPLETE;
 840              		.loc 1 860 0
 841 000c 0423     		movs	r3, #4
 842 000e FB73     		strb	r3, [r7, #15]
 861:/home/virusv/usart/Libraries/src/stm32f10x_flash.c ****   /* Check the parameters */
 862:/home/virusv/usart/Libraries/src/stm32f10x_flash.c ****   assert_param(IS_FLASH_ADDRESS(Address));
 863:/home/virusv/usart/Libraries/src/stm32f10x_flash.c **** 
 864:/home/virusv/usart/Libraries/src/stm32f10x_flash.c **** #ifdef STM32F10X_XL
 865:/home/virusv/usart/Libraries/src/stm32f10x_flash.c ****   /* Wait for last operation to be completed */
 866:/home/virusv/usart/Libraries/src/stm32f10x_flash.c ****   status = FLASH_WaitForLastOperation(ProgramTimeout);
 867:/home/virusv/usart/Libraries/src/stm32f10x_flash.c ****   
 868:/home/virusv/usart/Libraries/src/stm32f10x_flash.c ****   if(Address < FLASH_BANK1_END_ADDRESS)
 869:/home/virusv/usart/Libraries/src/stm32f10x_flash.c ****   {
 870:/home/virusv/usart/Libraries/src/stm32f10x_flash.c ****     if(status == FLASH_COMPLETE)
 871:/home/virusv/usart/Libraries/src/stm32f10x_flash.c ****     {
 872:/home/virusv/usart/Libraries/src/stm32f10x_flash.c ****       /* if the previous operation is completed, proceed to program the new data */
 873:/home/virusv/usart/Libraries/src/stm32f10x_flash.c ****       FLASH->CR |= CR_PG_Set;
 874:/home/virusv/usart/Libraries/src/stm32f10x_flash.c ****   
 875:/home/virusv/usart/Libraries/src/stm32f10x_flash.c ****       *(__IO uint16_t*)Address = Data;
 876:/home/virusv/usart/Libraries/src/stm32f10x_flash.c ****       /* Wait for last operation to be completed */
 877:/home/virusv/usart/Libraries/src/stm32f10x_flash.c ****       status = FLASH_WaitForLastBank1Operation(ProgramTimeout);
 878:/home/virusv/usart/Libraries/src/stm32f10x_flash.c **** 
 879:/home/virusv/usart/Libraries/src/stm32f10x_flash.c ****       /* Disable the PG Bit */
 880:/home/virusv/usart/Libraries/src/stm32f10x_flash.c ****       FLASH->CR &= CR_PG_Reset;
 881:/home/virusv/usart/Libraries/src/stm32f10x_flash.c ****     }
 882:/home/virusv/usart/Libraries/src/stm32f10x_flash.c ****   }
 883:/home/virusv/usart/Libraries/src/stm32f10x_flash.c ****   else
 884:/home/virusv/usart/Libraries/src/stm32f10x_flash.c ****   {
 885:/home/virusv/usart/Libraries/src/stm32f10x_flash.c ****     if(status == FLASH_COMPLETE)
 886:/home/virusv/usart/Libraries/src/stm32f10x_flash.c ****     {
 887:/home/virusv/usart/Libraries/src/stm32f10x_flash.c ****       /* if the previous operation is completed, proceed to program the new data */
 888:/home/virusv/usart/Libraries/src/stm32f10x_flash.c ****       FLASH->CR2 |= CR_PG_Set;
 889:/home/virusv/usart/Libraries/src/stm32f10x_flash.c ****   
 890:/home/virusv/usart/Libraries/src/stm32f10x_flash.c ****       *(__IO uint16_t*)Address = Data;
 891:/home/virusv/usart/Libraries/src/stm32f10x_flash.c ****       /* Wait for last operation to be completed */
 892:/home/virusv/usart/Libraries/src/stm32f10x_flash.c ****       status = FLASH_WaitForLastBank2Operation(ProgramTimeout);
 893:/home/virusv/usart/Libraries/src/stm32f10x_flash.c **** 
 894:/home/virusv/usart/Libraries/src/stm32f10x_flash.c ****       /* Disable the PG Bit */
 895:/home/virusv/usart/Libraries/src/stm32f10x_flash.c ****       FLASH->CR2 &= CR_PG_Reset;
 896:/home/virusv/usart/Libraries/src/stm32f10x_flash.c ****     }
 897:/home/virusv/usart/Libraries/src/stm32f10x_flash.c ****   }
 898:/home/virusv/usart/Libraries/src/stm32f10x_flash.c **** #else
 899:/home/virusv/usart/Libraries/src/stm32f10x_flash.c ****   /* Wait for last operation to be completed */
 900:/home/virusv/usart/Libraries/src/stm32f10x_flash.c ****   status = FLASH_WaitForLastOperation(ProgramTimeout);
 843              		.loc 1 900 0
 844 0010 4FF40050 		mov	r0, #8192
 845 0014 FFF7FEFF 		bl	FLASH_WaitForLastOperation
 846 0018 0346     		mov	r3, r0
 847 001a FB73     		strb	r3, [r7, #15]
 901:/home/virusv/usart/Libraries/src/stm32f10x_flash.c ****   
 902:/home/virusv/usart/Libraries/src/stm32f10x_flash.c ****   if(status == FLASH_COMPLETE)
 848              		.loc 1 902 0
 849 001c FB7B     		ldrb	r3, [r7, #15]	@ zero_extendqisi2
 850 001e 042B     		cmp	r3, #4
 851 0020 15D1     		bne	.L52
 903:/home/virusv/usart/Libraries/src/stm32f10x_flash.c ****   {
 904:/home/virusv/usart/Libraries/src/stm32f10x_flash.c ****     /* if the previous operation is completed, proceed to program the new data */
 905:/home/virusv/usart/Libraries/src/stm32f10x_flash.c ****     FLASH->CR |= CR_PG_Set;
 852              		.loc 1 905 0
 853 0022 0D4A     		ldr	r2, .L54
 854 0024 0C4B     		ldr	r3, .L54
 855 0026 1B69     		ldr	r3, [r3, #16]
 856 0028 43F00103 		orr	r3, r3, #1
 857 002c 1361     		str	r3, [r2, #16]
 906:/home/virusv/usart/Libraries/src/stm32f10x_flash.c ****   
 907:/home/virusv/usart/Libraries/src/stm32f10x_flash.c ****     *(__IO uint16_t*)Address = Data;
 858              		.loc 1 907 0
 859 002e 7B68     		ldr	r3, [r7, #4]
 860 0030 7A88     		ldrh	r2, [r7, #2]	@ movhi
 861 0032 1A80     		strh	r2, [r3]	@ movhi
 908:/home/virusv/usart/Libraries/src/stm32f10x_flash.c ****     /* Wait for last operation to be completed */
 909:/home/virusv/usart/Libraries/src/stm32f10x_flash.c ****     status = FLASH_WaitForLastOperation(ProgramTimeout);
 862              		.loc 1 909 0
 863 0034 4FF40050 		mov	r0, #8192
 864 0038 FFF7FEFF 		bl	FLASH_WaitForLastOperation
 865 003c 0346     		mov	r3, r0
 866 003e FB73     		strb	r3, [r7, #15]
 910:/home/virusv/usart/Libraries/src/stm32f10x_flash.c ****     
 911:/home/virusv/usart/Libraries/src/stm32f10x_flash.c ****     /* Disable the PG Bit */
 912:/home/virusv/usart/Libraries/src/stm32f10x_flash.c ****     FLASH->CR &= CR_PG_Reset;
 867              		.loc 1 912 0
 868 0040 0549     		ldr	r1, .L54
 869 0042 054B     		ldr	r3, .L54
 870 0044 1A69     		ldr	r2, [r3, #16]
 871 0046 41F6FE73 		movw	r3, #8190
 872 004a 1340     		ands	r3, r3, r2
 873 004c 0B61     		str	r3, [r1, #16]
 874              	.L52:
 913:/home/virusv/usart/Libraries/src/stm32f10x_flash.c ****   } 
 914:/home/virusv/usart/Libraries/src/stm32f10x_flash.c **** #endif  /* STM32F10X_XL */
 915:/home/virusv/usart/Libraries/src/stm32f10x_flash.c ****   
 916:/home/virusv/usart/Libraries/src/stm32f10x_flash.c ****   /* Return the Program Status */
 917:/home/virusv/usart/Libraries/src/stm32f10x_flash.c ****   return status;
 875              		.loc 1 917 0
 876 004e FB7B     		ldrb	r3, [r7, #15]	@ zero_extendqisi2
 918:/home/virusv/usart/Libraries/src/stm32f10x_flash.c **** }
 877              		.loc 1 918 0
 878 0050 1846     		mov	r0, r3
 879 0052 1037     		adds	r7, r7, #16
 880              		.cfi_def_cfa_offset 8
 881 0054 BD46     		mov	sp, r7
 882              		.cfi_def_cfa_register 13
 883              		@ sp needed
 884 0056 80BD     		pop	{r7, pc}
 885              	.L55:
 886              		.align	2
 887              	.L54:
 888 0058 00200240 		.word	1073881088
 889              		.cfi_endproc
 890              	.LFE41:
 892              		.section	.text.FLASH_ProgramOptionByteData,"ax",%progbits
 893              		.align	2
 894              		.global	FLASH_ProgramOptionByteData
 895              		.thumb
 896              		.thumb_func
 898              	FLASH_ProgramOptionByteData:
 899              	.LFB42:
 919:/home/virusv/usart/Libraries/src/stm32f10x_flash.c **** 
 920:/home/virusv/usart/Libraries/src/stm32f10x_flash.c **** /**
 921:/home/virusv/usart/Libraries/src/stm32f10x_flash.c ****   * @brief  Programs a half word at a specified Option Byte Data address.
 922:/home/virusv/usart/Libraries/src/stm32f10x_flash.c ****   * @note   This function can be used for all STM32F10x devices.
 923:/home/virusv/usart/Libraries/src/stm32f10x_flash.c ****   * @param  Address: specifies the address to be programmed.
 924:/home/virusv/usart/Libraries/src/stm32f10x_flash.c ****   *   This parameter can be 0x1FFFF804 or 0x1FFFF806. 
 925:/home/virusv/usart/Libraries/src/stm32f10x_flash.c ****   * @param  Data: specifies the data to be programmed.
 926:/home/virusv/usart/Libraries/src/stm32f10x_flash.c ****   * @retval FLASH Status: The returned value can be: FLASH_ERROR_PG,
 927:/home/virusv/usart/Libraries/src/stm32f10x_flash.c ****   *         FLASH_ERROR_WRP, FLASH_COMPLETE or FLASH_TIMEOUT. 
 928:/home/virusv/usart/Libraries/src/stm32f10x_flash.c ****   */
 929:/home/virusv/usart/Libraries/src/stm32f10x_flash.c **** FLASH_Status FLASH_ProgramOptionByteData(uint32_t Address, uint8_t Data)
 930:/home/virusv/usart/Libraries/src/stm32f10x_flash.c **** {
 900              		.loc 1 930 0
 901              		.cfi_startproc
 902              		@ args = 0, pretend = 0, frame = 16
 903              		@ frame_needed = 1, uses_anonymous_args = 0
 904 0000 80B5     		push	{r7, lr}
 905              		.cfi_def_cfa_offset 8
 906              		.cfi_offset 7, -8
 907              		.cfi_offset 14, -4
 908 0002 84B0     		sub	sp, sp, #16
 909              		.cfi_def_cfa_offset 24
 910 0004 00AF     		add	r7, sp, #0
 911              		.cfi_def_cfa_register 7
 912 0006 7860     		str	r0, [r7, #4]
 913 0008 0B46     		mov	r3, r1
 914 000a FB70     		strb	r3, [r7, #3]
 931:/home/virusv/usart/Libraries/src/stm32f10x_flash.c ****   FLASH_Status status = FLASH_COMPLETE;
 915              		.loc 1 931 0
 916 000c 0423     		movs	r3, #4
 917 000e FB73     		strb	r3, [r7, #15]
 932:/home/virusv/usart/Libraries/src/stm32f10x_flash.c ****   /* Check the parameters */
 933:/home/virusv/usart/Libraries/src/stm32f10x_flash.c ****   assert_param(IS_OB_DATA_ADDRESS(Address));
 934:/home/virusv/usart/Libraries/src/stm32f10x_flash.c ****   status = FLASH_WaitForLastOperation(ProgramTimeout);
 918              		.loc 1 934 0
 919 0010 4FF40050 		mov	r0, #8192
 920 0014 FFF7FEFF 		bl	FLASH_WaitForLastOperation
 921 0018 0346     		mov	r3, r0
 922 001a FB73     		strb	r3, [r7, #15]
 935:/home/virusv/usart/Libraries/src/stm32f10x_flash.c **** 
 936:/home/virusv/usart/Libraries/src/stm32f10x_flash.c ****   if(status == FLASH_COMPLETE)
 923              		.loc 1 936 0
 924 001c FB7B     		ldrb	r3, [r7, #15]	@ zero_extendqisi2
 925 001e 042B     		cmp	r3, #4
 926 0020 1FD1     		bne	.L57
 937:/home/virusv/usart/Libraries/src/stm32f10x_flash.c ****   {
 938:/home/virusv/usart/Libraries/src/stm32f10x_flash.c ****     /* Authorize the small information block programming */
 939:/home/virusv/usart/Libraries/src/stm32f10x_flash.c ****     FLASH->OPTKEYR = FLASH_KEY1;
 927              		.loc 1 939 0
 928 0022 124B     		ldr	r3, .L59
 929 0024 124A     		ldr	r2, .L59+4
 930 0026 9A60     		str	r2, [r3, #8]
 940:/home/virusv/usart/Libraries/src/stm32f10x_flash.c ****     FLASH->OPTKEYR = FLASH_KEY2;
 931              		.loc 1 940 0
 932 0028 104B     		ldr	r3, .L59
 933 002a 124A     		ldr	r2, .L59+8
 934 002c 9A60     		str	r2, [r3, #8]
 941:/home/virusv/usart/Libraries/src/stm32f10x_flash.c ****     /* Enables the Option Bytes Programming operation */
 942:/home/virusv/usart/Libraries/src/stm32f10x_flash.c ****     FLASH->CR |= CR_OPTPG_Set; 
 935              		.loc 1 942 0
 936 002e 0F4A     		ldr	r2, .L59
 937 0030 0E4B     		ldr	r3, .L59
 938 0032 1B69     		ldr	r3, [r3, #16]
 939 0034 43F01003 		orr	r3, r3, #16
 940 0038 1361     		str	r3, [r2, #16]
 943:/home/virusv/usart/Libraries/src/stm32f10x_flash.c ****     *(__IO uint16_t*)Address = Data;
 941              		.loc 1 943 0
 942 003a 7B68     		ldr	r3, [r7, #4]
 943 003c FA78     		ldrb	r2, [r7, #3]	@ zero_extendqisi2
 944 003e 92B2     		uxth	r2, r2
 945 0040 1A80     		strh	r2, [r3]	@ movhi
 944:/home/virusv/usart/Libraries/src/stm32f10x_flash.c ****     
 945:/home/virusv/usart/Libraries/src/stm32f10x_flash.c ****     /* Wait for last operation to be completed */
 946:/home/virusv/usart/Libraries/src/stm32f10x_flash.c ****     status = FLASH_WaitForLastOperation(ProgramTimeout);
 946              		.loc 1 946 0
 947 0042 4FF40050 		mov	r0, #8192
 948 0046 FFF7FEFF 		bl	FLASH_WaitForLastOperation
 949 004a 0346     		mov	r3, r0
 950 004c FB73     		strb	r3, [r7, #15]
 947:/home/virusv/usart/Libraries/src/stm32f10x_flash.c ****     if(status != FLASH_TIMEOUT)
 951              		.loc 1 947 0
 952 004e FB7B     		ldrb	r3, [r7, #15]	@ zero_extendqisi2
 953 0050 052B     		cmp	r3, #5
 954 0052 06D0     		beq	.L57
 948:/home/virusv/usart/Libraries/src/stm32f10x_flash.c ****     {
 949:/home/virusv/usart/Libraries/src/stm32f10x_flash.c ****       /* if the program operation is completed, disable the OPTPG Bit */
 950:/home/virusv/usart/Libraries/src/stm32f10x_flash.c ****       FLASH->CR &= CR_OPTPG_Reset;
 955              		.loc 1 950 0
 956 0054 0549     		ldr	r1, .L59
 957 0056 054B     		ldr	r3, .L59
 958 0058 1A69     		ldr	r2, [r3, #16]
 959 005a 41F6EF73 		movw	r3, #8175
 960 005e 1340     		ands	r3, r3, r2
 961 0060 0B61     		str	r3, [r1, #16]
 962              	.L57:
 951:/home/virusv/usart/Libraries/src/stm32f10x_flash.c ****     }
 952:/home/virusv/usart/Libraries/src/stm32f10x_flash.c ****   }
 953:/home/virusv/usart/Libraries/src/stm32f10x_flash.c ****   /* Return the Option Byte Data Program Status */
 954:/home/virusv/usart/Libraries/src/stm32f10x_flash.c ****   return status;
 963              		.loc 1 954 0
 964 0062 FB7B     		ldrb	r3, [r7, #15]	@ zero_extendqisi2
 955:/home/virusv/usart/Libraries/src/stm32f10x_flash.c **** }
 965              		.loc 1 955 0
 966 0064 1846     		mov	r0, r3
 967 0066 1037     		adds	r7, r7, #16
 968              		.cfi_def_cfa_offset 8
 969 0068 BD46     		mov	sp, r7
 970              		.cfi_def_cfa_register 13
 971              		@ sp needed
 972 006a 80BD     		pop	{r7, pc}
 973              	.L60:
 974              		.align	2
 975              	.L59:
 976 006c 00200240 		.word	1073881088
 977 0070 23016745 		.word	1164378403
 978 0074 AB89EFCD 		.word	-839939669
 979              		.cfi_endproc
 980              	.LFE42:
 982              		.section	.text.FLASH_EnableWriteProtection,"ax",%progbits
 983              		.align	2
 984              		.global	FLASH_EnableWriteProtection
 985              		.thumb
 986              		.thumb_func
 988              	FLASH_EnableWriteProtection:
 989              	.LFB43:
 956:/home/virusv/usart/Libraries/src/stm32f10x_flash.c **** 
 957:/home/virusv/usart/Libraries/src/stm32f10x_flash.c **** /**
 958:/home/virusv/usart/Libraries/src/stm32f10x_flash.c ****   * @brief  Write protects the desired pages
 959:/home/virusv/usart/Libraries/src/stm32f10x_flash.c ****   * @note   This function can be used for all STM32F10x devices.
 960:/home/virusv/usart/Libraries/src/stm32f10x_flash.c ****   * @param  FLASH_Pages: specifies the address of the pages to be write protected.
 961:/home/virusv/usart/Libraries/src/stm32f10x_flash.c ****   *   This parameter can be:
 962:/home/virusv/usart/Libraries/src/stm32f10x_flash.c ****   *     @arg For @b STM32_Low-density_devices: value between FLASH_WRProt_Pages0to3 and FLASH_WRPro
 963:/home/virusv/usart/Libraries/src/stm32f10x_flash.c ****   *     @arg For @b STM32_Medium-density_devices: value between FLASH_WRProt_Pages0to3
 964:/home/virusv/usart/Libraries/src/stm32f10x_flash.c ****   *       and FLASH_WRProt_Pages124to127
 965:/home/virusv/usart/Libraries/src/stm32f10x_flash.c ****   *     @arg For @b STM32_High-density_devices: value between FLASH_WRProt_Pages0to1 and
 966:/home/virusv/usart/Libraries/src/stm32f10x_flash.c ****   *       FLASH_WRProt_Pages60to61 or FLASH_WRProt_Pages62to255
 967:/home/virusv/usart/Libraries/src/stm32f10x_flash.c ****   *     @arg For @b STM32_Connectivity_line_devices: value between FLASH_WRProt_Pages0to1 and
 968:/home/virusv/usart/Libraries/src/stm32f10x_flash.c ****   *       FLASH_WRProt_Pages60to61 or FLASH_WRProt_Pages62to127    
 969:/home/virusv/usart/Libraries/src/stm32f10x_flash.c ****   *     @arg For @b STM32_XL-density_devices: value between FLASH_WRProt_Pages0to1 and
 970:/home/virusv/usart/Libraries/src/stm32f10x_flash.c ****   *       FLASH_WRProt_Pages60to61 or FLASH_WRProt_Pages62to511
 971:/home/virusv/usart/Libraries/src/stm32f10x_flash.c ****   *     @arg FLASH_WRProt_AllPages
 972:/home/virusv/usart/Libraries/src/stm32f10x_flash.c ****   * @retval FLASH Status: The returned value can be: FLASH_ERROR_PG,
 973:/home/virusv/usart/Libraries/src/stm32f10x_flash.c ****   *         FLASH_ERROR_WRP, FLASH_COMPLETE or FLASH_TIMEOUT.
 974:/home/virusv/usart/Libraries/src/stm32f10x_flash.c ****   */
 975:/home/virusv/usart/Libraries/src/stm32f10x_flash.c **** FLASH_Status FLASH_EnableWriteProtection(uint32_t FLASH_Pages)
 976:/home/virusv/usart/Libraries/src/stm32f10x_flash.c **** {
 990              		.loc 1 976 0
 991              		.cfi_startproc
 992              		@ args = 0, pretend = 0, frame = 24
 993              		@ frame_needed = 1, uses_anonymous_args = 0
 994 0000 80B5     		push	{r7, lr}
 995              		.cfi_def_cfa_offset 8
 996              		.cfi_offset 7, -8
 997              		.cfi_offset 14, -4
 998 0002 86B0     		sub	sp, sp, #24
 999              		.cfi_def_cfa_offset 32
 1000 0004 00AF     		add	r7, sp, #0
 1001              		.cfi_def_cfa_register 7
 1002 0006 7860     		str	r0, [r7, #4]
 977:/home/virusv/usart/Libraries/src/stm32f10x_flash.c ****   uint16_t WRP0_Data = 0xFFFF, WRP1_Data = 0xFFFF, WRP2_Data = 0xFFFF, WRP3_Data = 0xFFFF;
 1003              		.loc 1 977 0
 1004 0008 4FF6FF73 		movw	r3, #65535
 1005 000c BB82     		strh	r3, [r7, #20]	@ movhi
 1006 000e 4FF6FF73 		movw	r3, #65535
 1007 0012 7B82     		strh	r3, [r7, #18]	@ movhi
 1008 0014 4FF6FF73 		movw	r3, #65535
 1009 0018 3B82     		strh	r3, [r7, #16]	@ movhi
 1010 001a 4FF6FF73 		movw	r3, #65535
 1011 001e FB81     		strh	r3, [r7, #14]	@ movhi
 978:/home/virusv/usart/Libraries/src/stm32f10x_flash.c ****   
 979:/home/virusv/usart/Libraries/src/stm32f10x_flash.c ****   FLASH_Status status = FLASH_COMPLETE;
 1012              		.loc 1 979 0
 1013 0020 0423     		movs	r3, #4
 1014 0022 FB75     		strb	r3, [r7, #23]
 980:/home/virusv/usart/Libraries/src/stm32f10x_flash.c ****   
 981:/home/virusv/usart/Libraries/src/stm32f10x_flash.c ****   /* Check the parameters */
 982:/home/virusv/usart/Libraries/src/stm32f10x_flash.c ****   assert_param(IS_FLASH_WRPROT_PAGE(FLASH_Pages));
 983:/home/virusv/usart/Libraries/src/stm32f10x_flash.c ****   
 984:/home/virusv/usart/Libraries/src/stm32f10x_flash.c ****   FLASH_Pages = (uint32_t)(~FLASH_Pages);
 1015              		.loc 1 984 0
 1016 0024 7B68     		ldr	r3, [r7, #4]
 1017 0026 DB43     		mvns	r3, r3
 1018 0028 7B60     		str	r3, [r7, #4]
 985:/home/virusv/usart/Libraries/src/stm32f10x_flash.c ****   WRP0_Data = (uint16_t)(FLASH_Pages & WRP0_Mask);
 1019              		.loc 1 985 0
 1020 002a 7B68     		ldr	r3, [r7, #4]
 1021 002c 9BB2     		uxth	r3, r3
 1022 002e DBB2     		uxtb	r3, r3
 1023 0030 BB82     		strh	r3, [r7, #20]	@ movhi
 986:/home/virusv/usart/Libraries/src/stm32f10x_flash.c ****   WRP1_Data = (uint16_t)((FLASH_Pages & WRP1_Mask) >> 8);
 1024              		.loc 1 986 0
 1025 0032 7B68     		ldr	r3, [r7, #4]
 1026 0034 03F47F43 		and	r3, r3, #65280
 1027 0038 1B0A     		lsrs	r3, r3, #8
 1028 003a 7B82     		strh	r3, [r7, #18]	@ movhi
 987:/home/virusv/usart/Libraries/src/stm32f10x_flash.c ****   WRP2_Data = (uint16_t)((FLASH_Pages & WRP2_Mask) >> 16);
 1029              		.loc 1 987 0
 1030 003c 7B68     		ldr	r3, [r7, #4]
 1031 003e 03F47F03 		and	r3, r3, #16711680
 1032 0042 1B0C     		lsrs	r3, r3, #16
 1033 0044 3B82     		strh	r3, [r7, #16]	@ movhi
 988:/home/virusv/usart/Libraries/src/stm32f10x_flash.c ****   WRP3_Data = (uint16_t)((FLASH_Pages & WRP3_Mask) >> 24);
 1034              		.loc 1 988 0
 1035 0046 7B68     		ldr	r3, [r7, #4]
 1036 0048 1B0E     		lsrs	r3, r3, #24
 1037 004a FB81     		strh	r3, [r7, #14]	@ movhi
 989:/home/virusv/usart/Libraries/src/stm32f10x_flash.c ****   
 990:/home/virusv/usart/Libraries/src/stm32f10x_flash.c ****   /* Wait for last operation to be completed */
 991:/home/virusv/usart/Libraries/src/stm32f10x_flash.c ****   status = FLASH_WaitForLastOperation(ProgramTimeout);
 1038              		.loc 1 991 0
 1039 004c 4FF40050 		mov	r0, #8192
 1040 0050 FFF7FEFF 		bl	FLASH_WaitForLastOperation
 1041 0054 0346     		mov	r3, r0
 1042 0056 FB75     		strb	r3, [r7, #23]
 992:/home/virusv/usart/Libraries/src/stm32f10x_flash.c ****   
 993:/home/virusv/usart/Libraries/src/stm32f10x_flash.c ****   if(status == FLASH_COMPLETE)
 1043              		.loc 1 993 0
 1044 0058 FB7D     		ldrb	r3, [r7, #23]	@ zero_extendqisi2
 1045 005a 042B     		cmp	r3, #4
 1046 005c 4ED1     		bne	.L62
 994:/home/virusv/usart/Libraries/src/stm32f10x_flash.c ****   {
 995:/home/virusv/usart/Libraries/src/stm32f10x_flash.c ****     /* Authorizes the small information block programming */
 996:/home/virusv/usart/Libraries/src/stm32f10x_flash.c ****     FLASH->OPTKEYR = FLASH_KEY1;
 1047              		.loc 1 996 0
 1048 005e 2A4B     		ldr	r3, .L68
 1049 0060 2A4A     		ldr	r2, .L68+4
 1050 0062 9A60     		str	r2, [r3, #8]
 997:/home/virusv/usart/Libraries/src/stm32f10x_flash.c ****     FLASH->OPTKEYR = FLASH_KEY2;
 1051              		.loc 1 997 0
 1052 0064 284B     		ldr	r3, .L68
 1053 0066 2A4A     		ldr	r2, .L68+8
 1054 0068 9A60     		str	r2, [r3, #8]
 998:/home/virusv/usart/Libraries/src/stm32f10x_flash.c ****     FLASH->CR |= CR_OPTPG_Set;
 1055              		.loc 1 998 0
 1056 006a 274A     		ldr	r2, .L68
 1057 006c 264B     		ldr	r3, .L68
 1058 006e 1B69     		ldr	r3, [r3, #16]
 1059 0070 43F01003 		orr	r3, r3, #16
 1060 0074 1361     		str	r3, [r2, #16]
 999:/home/virusv/usart/Libraries/src/stm32f10x_flash.c ****     if(WRP0_Data != 0xFF)
 1061              		.loc 1 999 0
 1062 0076 BB8A     		ldrh	r3, [r7, #20]
 1063 0078 FF2B     		cmp	r3, #255
 1064 007a 08D0     		beq	.L63
1000:/home/virusv/usart/Libraries/src/stm32f10x_flash.c ****     {
1001:/home/virusv/usart/Libraries/src/stm32f10x_flash.c ****       OB->WRP0 = WRP0_Data;
 1065              		.loc 1 1001 0
 1066 007c 254A     		ldr	r2, .L68+12
 1067 007e BB8A     		ldrh	r3, [r7, #20]	@ movhi
 1068 0080 1381     		strh	r3, [r2, #8]	@ movhi
1002:/home/virusv/usart/Libraries/src/stm32f10x_flash.c ****       
1003:/home/virusv/usart/Libraries/src/stm32f10x_flash.c ****       /* Wait for last operation to be completed */
1004:/home/virusv/usart/Libraries/src/stm32f10x_flash.c ****       status = FLASH_WaitForLastOperation(ProgramTimeout);
 1069              		.loc 1 1004 0
 1070 0082 4FF40050 		mov	r0, #8192
 1071 0086 FFF7FEFF 		bl	FLASH_WaitForLastOperation
 1072 008a 0346     		mov	r3, r0
 1073 008c FB75     		strb	r3, [r7, #23]
 1074              	.L63:
1005:/home/virusv/usart/Libraries/src/stm32f10x_flash.c ****     }
1006:/home/virusv/usart/Libraries/src/stm32f10x_flash.c ****     if((status == FLASH_COMPLETE) && (WRP1_Data != 0xFF))
 1075              		.loc 1 1006 0
 1076 008e FB7D     		ldrb	r3, [r7, #23]	@ zero_extendqisi2
 1077 0090 042B     		cmp	r3, #4
 1078 0092 0BD1     		bne	.L64
 1079              		.loc 1 1006 0 is_stmt 0 discriminator 1
 1080 0094 7B8A     		ldrh	r3, [r7, #18]
 1081 0096 FF2B     		cmp	r3, #255
 1082 0098 08D0     		beq	.L64
1007:/home/virusv/usart/Libraries/src/stm32f10x_flash.c ****     {
1008:/home/virusv/usart/Libraries/src/stm32f10x_flash.c ****       OB->WRP1 = WRP1_Data;
 1083              		.loc 1 1008 0 is_stmt 1
 1084 009a 1E4A     		ldr	r2, .L68+12
 1085 009c 7B8A     		ldrh	r3, [r7, #18]	@ movhi
 1086 009e 5381     		strh	r3, [r2, #10]	@ movhi
1009:/home/virusv/usart/Libraries/src/stm32f10x_flash.c ****       
1010:/home/virusv/usart/Libraries/src/stm32f10x_flash.c ****       /* Wait for last operation to be completed */
1011:/home/virusv/usart/Libraries/src/stm32f10x_flash.c ****       status = FLASH_WaitForLastOperation(ProgramTimeout);
 1087              		.loc 1 1011 0
 1088 00a0 4FF40050 		mov	r0, #8192
 1089 00a4 FFF7FEFF 		bl	FLASH_WaitForLastOperation
 1090 00a8 0346     		mov	r3, r0
 1091 00aa FB75     		strb	r3, [r7, #23]
 1092              	.L64:
1012:/home/virusv/usart/Libraries/src/stm32f10x_flash.c ****     }
1013:/home/virusv/usart/Libraries/src/stm32f10x_flash.c ****     if((status == FLASH_COMPLETE) && (WRP2_Data != 0xFF))
 1093              		.loc 1 1013 0
 1094 00ac FB7D     		ldrb	r3, [r7, #23]	@ zero_extendqisi2
 1095 00ae 042B     		cmp	r3, #4
 1096 00b0 0BD1     		bne	.L65
 1097              		.loc 1 1013 0 is_stmt 0 discriminator 1
 1098 00b2 3B8A     		ldrh	r3, [r7, #16]
 1099 00b4 FF2B     		cmp	r3, #255
 1100 00b6 08D0     		beq	.L65
1014:/home/virusv/usart/Libraries/src/stm32f10x_flash.c ****     {
1015:/home/virusv/usart/Libraries/src/stm32f10x_flash.c ****       OB->WRP2 = WRP2_Data;
 1101              		.loc 1 1015 0 is_stmt 1
 1102 00b8 164A     		ldr	r2, .L68+12
 1103 00ba 3B8A     		ldrh	r3, [r7, #16]	@ movhi
 1104 00bc 9381     		strh	r3, [r2, #12]	@ movhi
1016:/home/virusv/usart/Libraries/src/stm32f10x_flash.c ****       
1017:/home/virusv/usart/Libraries/src/stm32f10x_flash.c ****       /* Wait for last operation to be completed */
1018:/home/virusv/usart/Libraries/src/stm32f10x_flash.c ****       status = FLASH_WaitForLastOperation(ProgramTimeout);
 1105              		.loc 1 1018 0
 1106 00be 4FF40050 		mov	r0, #8192
 1107 00c2 FFF7FEFF 		bl	FLASH_WaitForLastOperation
 1108 00c6 0346     		mov	r3, r0
 1109 00c8 FB75     		strb	r3, [r7, #23]
 1110              	.L65:
1019:/home/virusv/usart/Libraries/src/stm32f10x_flash.c ****     }
1020:/home/virusv/usart/Libraries/src/stm32f10x_flash.c ****     
1021:/home/virusv/usart/Libraries/src/stm32f10x_flash.c ****     if((status == FLASH_COMPLETE)&& (WRP3_Data != 0xFF))
 1111              		.loc 1 1021 0
 1112 00ca FB7D     		ldrb	r3, [r7, #23]	@ zero_extendqisi2
 1113 00cc 042B     		cmp	r3, #4
 1114 00ce 0BD1     		bne	.L66
 1115              		.loc 1 1021 0 is_stmt 0 discriminator 1
 1116 00d0 FB89     		ldrh	r3, [r7, #14]
 1117 00d2 FF2B     		cmp	r3, #255
 1118 00d4 08D0     		beq	.L66
1022:/home/virusv/usart/Libraries/src/stm32f10x_flash.c ****     {
1023:/home/virusv/usart/Libraries/src/stm32f10x_flash.c ****       OB->WRP3 = WRP3_Data;
 1119              		.loc 1 1023 0 is_stmt 1
 1120 00d6 0F4A     		ldr	r2, .L68+12
 1121 00d8 FB89     		ldrh	r3, [r7, #14]	@ movhi
 1122 00da D381     		strh	r3, [r2, #14]	@ movhi
1024:/home/virusv/usart/Libraries/src/stm32f10x_flash.c ****      
1025:/home/virusv/usart/Libraries/src/stm32f10x_flash.c ****       /* Wait for last operation to be completed */
1026:/home/virusv/usart/Libraries/src/stm32f10x_flash.c ****       status = FLASH_WaitForLastOperation(ProgramTimeout);
 1123              		.loc 1 1026 0
 1124 00dc 4FF40050 		mov	r0, #8192
 1125 00e0 FFF7FEFF 		bl	FLASH_WaitForLastOperation
 1126 00e4 0346     		mov	r3, r0
 1127 00e6 FB75     		strb	r3, [r7, #23]
 1128              	.L66:
1027:/home/virusv/usart/Libraries/src/stm32f10x_flash.c ****     }
1028:/home/virusv/usart/Libraries/src/stm32f10x_flash.c ****           
1029:/home/virusv/usart/Libraries/src/stm32f10x_flash.c ****     if(status != FLASH_TIMEOUT)
 1129              		.loc 1 1029 0
 1130 00e8 FB7D     		ldrb	r3, [r7, #23]	@ zero_extendqisi2
 1131 00ea 052B     		cmp	r3, #5
 1132 00ec 06D0     		beq	.L62
1030:/home/virusv/usart/Libraries/src/stm32f10x_flash.c ****     {
1031:/home/virusv/usart/Libraries/src/stm32f10x_flash.c ****       /* if the program operation is completed, disable the OPTPG Bit */
1032:/home/virusv/usart/Libraries/src/stm32f10x_flash.c ****       FLASH->CR &= CR_OPTPG_Reset;
 1133              		.loc 1 1032 0
 1134 00ee 0649     		ldr	r1, .L68
 1135 00f0 054B     		ldr	r3, .L68
 1136 00f2 1A69     		ldr	r2, [r3, #16]
 1137 00f4 41F6EF73 		movw	r3, #8175
 1138 00f8 1340     		ands	r3, r3, r2
 1139 00fa 0B61     		str	r3, [r1, #16]
 1140              	.L62:
1033:/home/virusv/usart/Libraries/src/stm32f10x_flash.c ****     }
1034:/home/virusv/usart/Libraries/src/stm32f10x_flash.c ****   } 
1035:/home/virusv/usart/Libraries/src/stm32f10x_flash.c ****   /* Return the write protection operation Status */
1036:/home/virusv/usart/Libraries/src/stm32f10x_flash.c ****   return status;       
 1141              		.loc 1 1036 0
 1142 00fc FB7D     		ldrb	r3, [r7, #23]	@ zero_extendqisi2
1037:/home/virusv/usart/Libraries/src/stm32f10x_flash.c **** }
 1143              		.loc 1 1037 0
 1144 00fe 1846     		mov	r0, r3
 1145 0100 1837     		adds	r7, r7, #24
 1146              		.cfi_def_cfa_offset 8
 1147 0102 BD46     		mov	sp, r7
 1148              		.cfi_def_cfa_register 13
 1149              		@ sp needed
 1150 0104 80BD     		pop	{r7, pc}
 1151              	.L69:
 1152 0106 00BF     		.align	2
 1153              	.L68:
 1154 0108 00200240 		.word	1073881088
 1155 010c 23016745 		.word	1164378403
 1156 0110 AB89EFCD 		.word	-839939669
 1157 0114 00F8FF1F 		.word	536868864
 1158              		.cfi_endproc
 1159              	.LFE43:
 1161              		.section	.text.FLASH_ReadOutProtection,"ax",%progbits
 1162              		.align	2
 1163              		.global	FLASH_ReadOutProtection
 1164              		.thumb
 1165              		.thumb_func
 1167              	FLASH_ReadOutProtection:
 1168              	.LFB44:
1038:/home/virusv/usart/Libraries/src/stm32f10x_flash.c **** 
1039:/home/virusv/usart/Libraries/src/stm32f10x_flash.c **** /**
1040:/home/virusv/usart/Libraries/src/stm32f10x_flash.c ****   * @brief  Enables or disables the read out protection.
1041:/home/virusv/usart/Libraries/src/stm32f10x_flash.c ****   * @note   If the user has already programmed the other option bytes before calling 
1042:/home/virusv/usart/Libraries/src/stm32f10x_flash.c ****   *   this function, he must re-program them since this function erases all option bytes.
1043:/home/virusv/usart/Libraries/src/stm32f10x_flash.c ****   * @note   This function can be used for all STM32F10x devices.
1044:/home/virusv/usart/Libraries/src/stm32f10x_flash.c ****   * @param  Newstate: new state of the ReadOut Protection.
1045:/home/virusv/usart/Libraries/src/stm32f10x_flash.c ****   *   This parameter can be: ENABLE or DISABLE.
1046:/home/virusv/usart/Libraries/src/stm32f10x_flash.c ****   * @retval FLASH Status: The returned value can be: FLASH_ERROR_PG,
1047:/home/virusv/usart/Libraries/src/stm32f10x_flash.c ****   *         FLASH_ERROR_WRP, FLASH_COMPLETE or FLASH_TIMEOUT.
1048:/home/virusv/usart/Libraries/src/stm32f10x_flash.c ****   */
1049:/home/virusv/usart/Libraries/src/stm32f10x_flash.c **** FLASH_Status FLASH_ReadOutProtection(FunctionalState NewState)
1050:/home/virusv/usart/Libraries/src/stm32f10x_flash.c **** {
 1169              		.loc 1 1050 0
 1170              		.cfi_startproc
 1171              		@ args = 0, pretend = 0, frame = 16
 1172              		@ frame_needed = 1, uses_anonymous_args = 0
 1173 0000 80B5     		push	{r7, lr}
 1174              		.cfi_def_cfa_offset 8
 1175              		.cfi_offset 7, -8
 1176              		.cfi_offset 14, -4
 1177 0002 84B0     		sub	sp, sp, #16
 1178              		.cfi_def_cfa_offset 24
 1179 0004 00AF     		add	r7, sp, #0
 1180              		.cfi_def_cfa_register 7
 1181 0006 0346     		mov	r3, r0
 1182 0008 FB71     		strb	r3, [r7, #7]
1051:/home/virusv/usart/Libraries/src/stm32f10x_flash.c ****   FLASH_Status status = FLASH_COMPLETE;
 1183              		.loc 1 1051 0
 1184 000a 0423     		movs	r3, #4
 1185 000c FB73     		strb	r3, [r7, #15]
1052:/home/virusv/usart/Libraries/src/stm32f10x_flash.c ****   /* Check the parameters */
1053:/home/virusv/usart/Libraries/src/stm32f10x_flash.c ****   assert_param(IS_FUNCTIONAL_STATE(NewState));
1054:/home/virusv/usart/Libraries/src/stm32f10x_flash.c ****   status = FLASH_WaitForLastOperation(EraseTimeout);
 1186              		.loc 1 1054 0
 1187 000e 4FF43020 		mov	r0, #720896
 1188 0012 FFF7FEFF 		bl	FLASH_WaitForLastOperation
 1189 0016 0346     		mov	r3, r0
 1190 0018 FB73     		strb	r3, [r7, #15]
1055:/home/virusv/usart/Libraries/src/stm32f10x_flash.c ****   if(status == FLASH_COMPLETE)
 1191              		.loc 1 1055 0
 1192 001a FB7B     		ldrb	r3, [r7, #15]	@ zero_extendqisi2
 1193 001c 042B     		cmp	r3, #4
 1194 001e 4CD1     		bne	.L71
1056:/home/virusv/usart/Libraries/src/stm32f10x_flash.c ****   {
1057:/home/virusv/usart/Libraries/src/stm32f10x_flash.c ****     /* Authorizes the small information block programming */
1058:/home/virusv/usart/Libraries/src/stm32f10x_flash.c ****     FLASH->OPTKEYR = FLASH_KEY1;
 1195              		.loc 1 1058 0
 1196 0020 284B     		ldr	r3, .L77
 1197 0022 294A     		ldr	r2, .L77+4
 1198 0024 9A60     		str	r2, [r3, #8]
1059:/home/virusv/usart/Libraries/src/stm32f10x_flash.c ****     FLASH->OPTKEYR = FLASH_KEY2;
 1199              		.loc 1 1059 0
 1200 0026 274B     		ldr	r3, .L77
 1201 0028 284A     		ldr	r2, .L77+8
 1202 002a 9A60     		str	r2, [r3, #8]
1060:/home/virusv/usart/Libraries/src/stm32f10x_flash.c ****     FLASH->CR |= CR_OPTER_Set;
 1203              		.loc 1 1060 0
 1204 002c 254A     		ldr	r2, .L77
 1205 002e 254B     		ldr	r3, .L77
 1206 0030 1B69     		ldr	r3, [r3, #16]
 1207 0032 43F02003 		orr	r3, r3, #32
 1208 0036 1361     		str	r3, [r2, #16]
1061:/home/virusv/usart/Libraries/src/stm32f10x_flash.c ****     FLASH->CR |= CR_STRT_Set;
 1209              		.loc 1 1061 0
 1210 0038 224A     		ldr	r2, .L77
 1211 003a 224B     		ldr	r3, .L77
 1212 003c 1B69     		ldr	r3, [r3, #16]
 1213 003e 43F04003 		orr	r3, r3, #64
 1214 0042 1361     		str	r3, [r2, #16]
1062:/home/virusv/usart/Libraries/src/stm32f10x_flash.c ****     /* Wait for last operation to be completed */
1063:/home/virusv/usart/Libraries/src/stm32f10x_flash.c ****     status = FLASH_WaitForLastOperation(EraseTimeout);
 1215              		.loc 1 1063 0
 1216 0044 4FF43020 		mov	r0, #720896
 1217 0048 FFF7FEFF 		bl	FLASH_WaitForLastOperation
 1218 004c 0346     		mov	r3, r0
 1219 004e FB73     		strb	r3, [r7, #15]
1064:/home/virusv/usart/Libraries/src/stm32f10x_flash.c ****     if(status == FLASH_COMPLETE)
 1220              		.loc 1 1064 0
 1221 0050 FB7B     		ldrb	r3, [r7, #15]	@ zero_extendqisi2
 1222 0052 042B     		cmp	r3, #4
 1223 0054 27D1     		bne	.L72
1065:/home/virusv/usart/Libraries/src/stm32f10x_flash.c ****     {
1066:/home/virusv/usart/Libraries/src/stm32f10x_flash.c ****       /* if the erase operation is completed, disable the OPTER Bit */
1067:/home/virusv/usart/Libraries/src/stm32f10x_flash.c ****       FLASH->CR &= CR_OPTER_Reset;
 1224              		.loc 1 1067 0
 1225 0056 1B49     		ldr	r1, .L77
 1226 0058 1A4B     		ldr	r3, .L77
 1227 005a 1A69     		ldr	r2, [r3, #16]
 1228 005c 41F6DF73 		movw	r3, #8159
 1229 0060 1340     		ands	r3, r3, r2
 1230 0062 0B61     		str	r3, [r1, #16]
1068:/home/virusv/usart/Libraries/src/stm32f10x_flash.c ****       /* Enable the Option Bytes Programming operation */
1069:/home/virusv/usart/Libraries/src/stm32f10x_flash.c ****       FLASH->CR |= CR_OPTPG_Set; 
 1231              		.loc 1 1069 0
 1232 0064 174A     		ldr	r2, .L77
 1233 0066 174B     		ldr	r3, .L77
 1234 0068 1B69     		ldr	r3, [r3, #16]
 1235 006a 43F01003 		orr	r3, r3, #16
 1236 006e 1361     		str	r3, [r2, #16]
1070:/home/virusv/usart/Libraries/src/stm32f10x_flash.c ****       if(NewState != DISABLE)
 1237              		.loc 1 1070 0
 1238 0070 FB79     		ldrb	r3, [r7, #7]	@ zero_extendqisi2
 1239 0072 002B     		cmp	r3, #0
 1240 0074 03D0     		beq	.L73
1071:/home/virusv/usart/Libraries/src/stm32f10x_flash.c ****       {
1072:/home/virusv/usart/Libraries/src/stm32f10x_flash.c ****         OB->RDP = 0x00;
 1241              		.loc 1 1072 0
 1242 0076 164B     		ldr	r3, .L77+12
 1243 0078 0022     		movs	r2, #0
 1244 007a 1A80     		strh	r2, [r3]	@ movhi
 1245 007c 02E0     		b	.L74
 1246              	.L73:
1073:/home/virusv/usart/Libraries/src/stm32f10x_flash.c ****       }
1074:/home/virusv/usart/Libraries/src/stm32f10x_flash.c ****       else
1075:/home/virusv/usart/Libraries/src/stm32f10x_flash.c ****       {
1076:/home/virusv/usart/Libraries/src/stm32f10x_flash.c ****         OB->RDP = RDP_Key;  
 1247              		.loc 1 1076 0
 1248 007e 144B     		ldr	r3, .L77+12
 1249 0080 A522     		movs	r2, #165
 1250 0082 1A80     		strh	r2, [r3]	@ movhi
 1251              	.L74:
1077:/home/virusv/usart/Libraries/src/stm32f10x_flash.c ****       }
1078:/home/virusv/usart/Libraries/src/stm32f10x_flash.c ****       /* Wait for last operation to be completed */
1079:/home/virusv/usart/Libraries/src/stm32f10x_flash.c ****       status = FLASH_WaitForLastOperation(EraseTimeout); 
 1252              		.loc 1 1079 0
 1253 0084 4FF43020 		mov	r0, #720896
 1254 0088 FFF7FEFF 		bl	FLASH_WaitForLastOperation
 1255 008c 0346     		mov	r3, r0
 1256 008e FB73     		strb	r3, [r7, #15]
1080:/home/virusv/usart/Libraries/src/stm32f10x_flash.c ****     
1081:/home/virusv/usart/Libraries/src/stm32f10x_flash.c ****       if(status != FLASH_TIMEOUT)
 1257              		.loc 1 1081 0
 1258 0090 FB7B     		ldrb	r3, [r7, #15]	@ zero_extendqisi2
 1259 0092 052B     		cmp	r3, #5
 1260 0094 11D0     		beq	.L71
1082:/home/virusv/usart/Libraries/src/stm32f10x_flash.c ****       {
1083:/home/virusv/usart/Libraries/src/stm32f10x_flash.c ****         /* if the program operation is completed, disable the OPTPG Bit */
1084:/home/virusv/usart/Libraries/src/stm32f10x_flash.c ****         FLASH->CR &= CR_OPTPG_Reset;
 1261              		.loc 1 1084 0
 1262 0096 0B49     		ldr	r1, .L77
 1263 0098 0A4B     		ldr	r3, .L77
 1264 009a 1A69     		ldr	r2, [r3, #16]
 1265 009c 41F6EF73 		movw	r3, #8175
 1266 00a0 1340     		ands	r3, r3, r2
 1267 00a2 0B61     		str	r3, [r1, #16]
 1268 00a4 09E0     		b	.L71
 1269              	.L72:
1085:/home/virusv/usart/Libraries/src/stm32f10x_flash.c ****       }
1086:/home/virusv/usart/Libraries/src/stm32f10x_flash.c ****     }
1087:/home/virusv/usart/Libraries/src/stm32f10x_flash.c ****     else 
1088:/home/virusv/usart/Libraries/src/stm32f10x_flash.c ****     {
1089:/home/virusv/usart/Libraries/src/stm32f10x_flash.c ****       if(status != FLASH_TIMEOUT)
 1270              		.loc 1 1089 0
 1271 00a6 FB7B     		ldrb	r3, [r7, #15]	@ zero_extendqisi2
 1272 00a8 052B     		cmp	r3, #5
 1273 00aa 06D0     		beq	.L71
1090:/home/virusv/usart/Libraries/src/stm32f10x_flash.c ****       {
1091:/home/virusv/usart/Libraries/src/stm32f10x_flash.c ****         /* Disable the OPTER Bit */
1092:/home/virusv/usart/Libraries/src/stm32f10x_flash.c ****         FLASH->CR &= CR_OPTER_Reset;
 1274              		.loc 1 1092 0
 1275 00ac 0549     		ldr	r1, .L77
 1276 00ae 054B     		ldr	r3, .L77
 1277 00b0 1A69     		ldr	r2, [r3, #16]
 1278 00b2 41F6DF73 		movw	r3, #8159
 1279 00b6 1340     		ands	r3, r3, r2
 1280 00b8 0B61     		str	r3, [r1, #16]
 1281              	.L71:
1093:/home/virusv/usart/Libraries/src/stm32f10x_flash.c ****       }
1094:/home/virusv/usart/Libraries/src/stm32f10x_flash.c ****     }
1095:/home/virusv/usart/Libraries/src/stm32f10x_flash.c ****   }
1096:/home/virusv/usart/Libraries/src/stm32f10x_flash.c ****   /* Return the protection operation Status */
1097:/home/virusv/usart/Libraries/src/stm32f10x_flash.c ****   return status;       
 1282              		.loc 1 1097 0
 1283 00ba FB7B     		ldrb	r3, [r7, #15]	@ zero_extendqisi2
1098:/home/virusv/usart/Libraries/src/stm32f10x_flash.c **** }
 1284              		.loc 1 1098 0
 1285 00bc 1846     		mov	r0, r3
 1286 00be 1037     		adds	r7, r7, #16
 1287              		.cfi_def_cfa_offset 8
 1288 00c0 BD46     		mov	sp, r7
 1289              		.cfi_def_cfa_register 13
 1290              		@ sp needed
 1291 00c2 80BD     		pop	{r7, pc}
 1292              	.L78:
 1293              		.align	2
 1294              	.L77:
 1295 00c4 00200240 		.word	1073881088
 1296 00c8 23016745 		.word	1164378403
 1297 00cc AB89EFCD 		.word	-839939669
 1298 00d0 00F8FF1F 		.word	536868864
 1299              		.cfi_endproc
 1300              	.LFE44:
 1302              		.section	.text.FLASH_UserOptionByteConfig,"ax",%progbits
 1303              		.align	2
 1304              		.global	FLASH_UserOptionByteConfig
 1305              		.thumb
 1306              		.thumb_func
 1308              	FLASH_UserOptionByteConfig:
 1309              	.LFB45:
1099:/home/virusv/usart/Libraries/src/stm32f10x_flash.c **** 
1100:/home/virusv/usart/Libraries/src/stm32f10x_flash.c **** /**
1101:/home/virusv/usart/Libraries/src/stm32f10x_flash.c ****   * @brief  Programs the FLASH User Option Byte: IWDG_SW / RST_STOP / RST_STDBY.
1102:/home/virusv/usart/Libraries/src/stm32f10x_flash.c ****   * @note   This function can be used for all STM32F10x devices.
1103:/home/virusv/usart/Libraries/src/stm32f10x_flash.c ****   * @param  OB_IWDG: Selects the IWDG mode
1104:/home/virusv/usart/Libraries/src/stm32f10x_flash.c ****   *   This parameter can be one of the following values:
1105:/home/virusv/usart/Libraries/src/stm32f10x_flash.c ****   *     @arg OB_IWDG_SW: Software IWDG selected
1106:/home/virusv/usart/Libraries/src/stm32f10x_flash.c ****   *     @arg OB_IWDG_HW: Hardware IWDG selected
1107:/home/virusv/usart/Libraries/src/stm32f10x_flash.c ****   * @param  OB_STOP: Reset event when entering STOP mode.
1108:/home/virusv/usart/Libraries/src/stm32f10x_flash.c ****   *   This parameter can be one of the following values:
1109:/home/virusv/usart/Libraries/src/stm32f10x_flash.c ****   *     @arg OB_STOP_NoRST: No reset generated when entering in STOP
1110:/home/virusv/usart/Libraries/src/stm32f10x_flash.c ****   *     @arg OB_STOP_RST: Reset generated when entering in STOP
1111:/home/virusv/usart/Libraries/src/stm32f10x_flash.c ****   * @param  OB_STDBY: Reset event when entering Standby mode.
1112:/home/virusv/usart/Libraries/src/stm32f10x_flash.c ****   *   This parameter can be one of the following values:
1113:/home/virusv/usart/Libraries/src/stm32f10x_flash.c ****   *     @arg OB_STDBY_NoRST: No reset generated when entering in STANDBY
1114:/home/virusv/usart/Libraries/src/stm32f10x_flash.c ****   *     @arg OB_STDBY_RST: Reset generated when entering in STANDBY
1115:/home/virusv/usart/Libraries/src/stm32f10x_flash.c ****   * @retval FLASH Status: The returned value can be: FLASH_ERROR_PG, 
1116:/home/virusv/usart/Libraries/src/stm32f10x_flash.c ****   *         FLASH_ERROR_WRP, FLASH_COMPLETE or FLASH_TIMEOUT.
1117:/home/virusv/usart/Libraries/src/stm32f10x_flash.c ****   */
1118:/home/virusv/usart/Libraries/src/stm32f10x_flash.c **** FLASH_Status FLASH_UserOptionByteConfig(uint16_t OB_IWDG, uint16_t OB_STOP, uint16_t OB_STDBY)
1119:/home/virusv/usart/Libraries/src/stm32f10x_flash.c **** {
 1310              		.loc 1 1119 0
 1311              		.cfi_startproc
 1312              		@ args = 0, pretend = 0, frame = 16
 1313              		@ frame_needed = 1, uses_anonymous_args = 0
 1314 0000 80B5     		push	{r7, lr}
 1315              		.cfi_def_cfa_offset 8
 1316              		.cfi_offset 7, -8
 1317              		.cfi_offset 14, -4
 1318 0002 84B0     		sub	sp, sp, #16
 1319              		.cfi_def_cfa_offset 24
 1320 0004 00AF     		add	r7, sp, #0
 1321              		.cfi_def_cfa_register 7
 1322 0006 0346     		mov	r3, r0
 1323 0008 FB80     		strh	r3, [r7, #6]	@ movhi
 1324 000a 0B46     		mov	r3, r1	@ movhi
 1325 000c BB80     		strh	r3, [r7, #4]	@ movhi
 1326 000e 1346     		mov	r3, r2	@ movhi
 1327 0010 7B80     		strh	r3, [r7, #2]	@ movhi
1120:/home/virusv/usart/Libraries/src/stm32f10x_flash.c ****   FLASH_Status status = FLASH_COMPLETE; 
 1328              		.loc 1 1120 0
 1329 0012 0423     		movs	r3, #4
 1330 0014 FB73     		strb	r3, [r7, #15]
1121:/home/virusv/usart/Libraries/src/stm32f10x_flash.c **** 
1122:/home/virusv/usart/Libraries/src/stm32f10x_flash.c ****   /* Check the parameters */
1123:/home/virusv/usart/Libraries/src/stm32f10x_flash.c ****   assert_param(IS_OB_IWDG_SOURCE(OB_IWDG));
1124:/home/virusv/usart/Libraries/src/stm32f10x_flash.c ****   assert_param(IS_OB_STOP_SOURCE(OB_STOP));
1125:/home/virusv/usart/Libraries/src/stm32f10x_flash.c ****   assert_param(IS_OB_STDBY_SOURCE(OB_STDBY));
1126:/home/virusv/usart/Libraries/src/stm32f10x_flash.c **** 
1127:/home/virusv/usart/Libraries/src/stm32f10x_flash.c ****   /* Authorize the small information block programming */
1128:/home/virusv/usart/Libraries/src/stm32f10x_flash.c ****   FLASH->OPTKEYR = FLASH_KEY1;
 1331              		.loc 1 1128 0
 1332 0016 1B4B     		ldr	r3, .L82
 1333 0018 1B4A     		ldr	r2, .L82+4
 1334 001a 9A60     		str	r2, [r3, #8]
1129:/home/virusv/usart/Libraries/src/stm32f10x_flash.c ****   FLASH->OPTKEYR = FLASH_KEY2;
 1335              		.loc 1 1129 0
 1336 001c 194B     		ldr	r3, .L82
 1337 001e 1B4A     		ldr	r2, .L82+8
 1338 0020 9A60     		str	r2, [r3, #8]
1130:/home/virusv/usart/Libraries/src/stm32f10x_flash.c ****   
1131:/home/virusv/usart/Libraries/src/stm32f10x_flash.c ****   /* Wait for last operation to be completed */
1132:/home/virusv/usart/Libraries/src/stm32f10x_flash.c ****   status = FLASH_WaitForLastOperation(ProgramTimeout);
 1339              		.loc 1 1132 0
 1340 0022 4FF40050 		mov	r0, #8192
 1341 0026 FFF7FEFF 		bl	FLASH_WaitForLastOperation
 1342 002a 0346     		mov	r3, r0
 1343 002c FB73     		strb	r3, [r7, #15]
1133:/home/virusv/usart/Libraries/src/stm32f10x_flash.c ****   
1134:/home/virusv/usart/Libraries/src/stm32f10x_flash.c ****   if(status == FLASH_COMPLETE)
 1344              		.loc 1 1134 0
 1345 002e FB7B     		ldrb	r3, [r7, #15]	@ zero_extendqisi2
 1346 0030 042B     		cmp	r3, #4
 1347 0032 21D1     		bne	.L80
1135:/home/virusv/usart/Libraries/src/stm32f10x_flash.c ****   {  
1136:/home/virusv/usart/Libraries/src/stm32f10x_flash.c ****     /* Enable the Option Bytes Programming operation */
1137:/home/virusv/usart/Libraries/src/stm32f10x_flash.c ****     FLASH->CR |= CR_OPTPG_Set; 
 1348              		.loc 1 1137 0
 1349 0034 134A     		ldr	r2, .L82
 1350 0036 134B     		ldr	r3, .L82
 1351 0038 1B69     		ldr	r3, [r3, #16]
 1352 003a 43F01003 		orr	r3, r3, #16
 1353 003e 1361     		str	r3, [r2, #16]
1138:/home/virusv/usart/Libraries/src/stm32f10x_flash.c ****            
1139:/home/virusv/usart/Libraries/src/stm32f10x_flash.c ****     OB->USER = OB_IWDG | (uint16_t)(OB_STOP | (uint16_t)(OB_STDBY | ((uint16_t)0xF8))); 
 1354              		.loc 1 1139 0
 1355 0040 1349     		ldr	r1, .L82+12
 1356 0042 7A88     		ldrh	r2, [r7, #2]	@ movhi
 1357 0044 BB88     		ldrh	r3, [r7, #4]	@ movhi
 1358 0046 1343     		orrs	r3, r3, r2
 1359 0048 9AB2     		uxth	r2, r3
 1360 004a FB88     		ldrh	r3, [r7, #6]	@ movhi
 1361 004c 1343     		orrs	r3, r3, r2
 1362 004e 9BB2     		uxth	r3, r3
 1363 0050 43F0F803 		orr	r3, r3, #248
 1364 0054 9BB2     		uxth	r3, r3
 1365 0056 4B80     		strh	r3, [r1, #2]	@ movhi
1140:/home/virusv/usart/Libraries/src/stm32f10x_flash.c ****   
1141:/home/virusv/usart/Libraries/src/stm32f10x_flash.c ****     /* Wait for last operation to be completed */
1142:/home/virusv/usart/Libraries/src/stm32f10x_flash.c ****     status = FLASH_WaitForLastOperation(ProgramTimeout);
 1366              		.loc 1 1142 0
 1367 0058 4FF40050 		mov	r0, #8192
 1368 005c FFF7FEFF 		bl	FLASH_WaitForLastOperation
 1369 0060 0346     		mov	r3, r0
 1370 0062 FB73     		strb	r3, [r7, #15]
1143:/home/virusv/usart/Libraries/src/stm32f10x_flash.c ****     if(status != FLASH_TIMEOUT)
 1371              		.loc 1 1143 0
 1372 0064 FB7B     		ldrb	r3, [r7, #15]	@ zero_extendqisi2
 1373 0066 052B     		cmp	r3, #5
 1374 0068 06D0     		beq	.L80
1144:/home/virusv/usart/Libraries/src/stm32f10x_flash.c ****     {
1145:/home/virusv/usart/Libraries/src/stm32f10x_flash.c ****       /* if the program operation is completed, disable the OPTPG Bit */
1146:/home/virusv/usart/Libraries/src/stm32f10x_flash.c ****       FLASH->CR &= CR_OPTPG_Reset;
 1375              		.loc 1 1146 0
 1376 006a 0649     		ldr	r1, .L82
 1377 006c 054B     		ldr	r3, .L82
 1378 006e 1A69     		ldr	r2, [r3, #16]
 1379 0070 41F6EF73 		movw	r3, #8175
 1380 0074 1340     		ands	r3, r3, r2
 1381 0076 0B61     		str	r3, [r1, #16]
 1382              	.L80:
1147:/home/virusv/usart/Libraries/src/stm32f10x_flash.c ****     }
1148:/home/virusv/usart/Libraries/src/stm32f10x_flash.c ****   }    
1149:/home/virusv/usart/Libraries/src/stm32f10x_flash.c ****   /* Return the Option Byte program Status */
1150:/home/virusv/usart/Libraries/src/stm32f10x_flash.c ****   return status;
 1383              		.loc 1 1150 0
 1384 0078 FB7B     		ldrb	r3, [r7, #15]	@ zero_extendqisi2
1151:/home/virusv/usart/Libraries/src/stm32f10x_flash.c **** }
 1385              		.loc 1 1151 0
 1386 007a 1846     		mov	r0, r3
 1387 007c 1037     		adds	r7, r7, #16
 1388              		.cfi_def_cfa_offset 8
 1389 007e BD46     		mov	sp, r7
 1390              		.cfi_def_cfa_register 13
 1391              		@ sp needed
 1392 0080 80BD     		pop	{r7, pc}
 1393              	.L83:
 1394 0082 00BF     		.align	2
 1395              	.L82:
 1396 0084 00200240 		.word	1073881088
 1397 0088 23016745 		.word	1164378403
 1398 008c AB89EFCD 		.word	-839939669
 1399 0090 00F8FF1F 		.word	536868864
 1400              		.cfi_endproc
 1401              	.LFE45:
 1403              		.section	.text.FLASH_GetUserOptionByte,"ax",%progbits
 1404              		.align	2
 1405              		.global	FLASH_GetUserOptionByte
 1406              		.thumb
 1407              		.thumb_func
 1409              	FLASH_GetUserOptionByte:
 1410              	.LFB46:
1152:/home/virusv/usart/Libraries/src/stm32f10x_flash.c **** 
1153:/home/virusv/usart/Libraries/src/stm32f10x_flash.c **** #ifdef STM32F10X_XL
1154:/home/virusv/usart/Libraries/src/stm32f10x_flash.c **** /**
1155:/home/virusv/usart/Libraries/src/stm32f10x_flash.c ****   * @brief  Configures to boot from Bank1 or Bank2.  
1156:/home/virusv/usart/Libraries/src/stm32f10x_flash.c ****   * @note   This function can be used only for STM32F10x_XL density devices.
1157:/home/virusv/usart/Libraries/src/stm32f10x_flash.c ****   * @param  FLASH_BOOT: select the FLASH Bank to boot from.
1158:/home/virusv/usart/Libraries/src/stm32f10x_flash.c ****   *   This parameter can be one of the following values:
1159:/home/virusv/usart/Libraries/src/stm32f10x_flash.c ****   *     @arg FLASH_BOOT_Bank1: At startup, if boot pins are set in boot from user Flash
1160:/home/virusv/usart/Libraries/src/stm32f10x_flash.c ****   *        position and this parameter is selected the device will boot from Bank1(Default).
1161:/home/virusv/usart/Libraries/src/stm32f10x_flash.c ****   *     @arg FLASH_BOOT_Bank2: At startup, if boot pins are set in boot from user Flash
1162:/home/virusv/usart/Libraries/src/stm32f10x_flash.c ****   *        position and this parameter is selected the device will boot from Bank2 or Bank1,
1163:/home/virusv/usart/Libraries/src/stm32f10x_flash.c ****   *        depending on the activation of the bank. The active banks are checked in
1164:/home/virusv/usart/Libraries/src/stm32f10x_flash.c ****   *        the following order: Bank2, followed by Bank1.
1165:/home/virusv/usart/Libraries/src/stm32f10x_flash.c ****   *        The active bank is recognized by the value programmed at the base address
1166:/home/virusv/usart/Libraries/src/stm32f10x_flash.c ****   *        of the respective bank (corresponding to the initial stack pointer value
1167:/home/virusv/usart/Libraries/src/stm32f10x_flash.c ****   *        in the interrupt vector table).
1168:/home/virusv/usart/Libraries/src/stm32f10x_flash.c ****   *        For more information, please refer to AN2606 from www.st.com.    
1169:/home/virusv/usart/Libraries/src/stm32f10x_flash.c ****   * @retval FLASH Status: The returned value can be: FLASH_ERROR_PG, 
1170:/home/virusv/usart/Libraries/src/stm32f10x_flash.c ****   *         FLASH_ERROR_WRP, FLASH_COMPLETE or FLASH_TIMEOUT.
1171:/home/virusv/usart/Libraries/src/stm32f10x_flash.c ****   */
1172:/home/virusv/usart/Libraries/src/stm32f10x_flash.c **** FLASH_Status FLASH_BootConfig(uint16_t FLASH_BOOT)
1173:/home/virusv/usart/Libraries/src/stm32f10x_flash.c **** { 
1174:/home/virusv/usart/Libraries/src/stm32f10x_flash.c ****   FLASH_Status status = FLASH_COMPLETE; 
1175:/home/virusv/usart/Libraries/src/stm32f10x_flash.c ****   assert_param(IS_FLASH_BOOT(FLASH_BOOT));
1176:/home/virusv/usart/Libraries/src/stm32f10x_flash.c ****   /* Authorize the small information block programming */
1177:/home/virusv/usart/Libraries/src/stm32f10x_flash.c ****   FLASH->OPTKEYR = FLASH_KEY1;
1178:/home/virusv/usart/Libraries/src/stm32f10x_flash.c ****   FLASH->OPTKEYR = FLASH_KEY2;
1179:/home/virusv/usart/Libraries/src/stm32f10x_flash.c ****   
1180:/home/virusv/usart/Libraries/src/stm32f10x_flash.c ****   /* Wait for last operation to be completed */
1181:/home/virusv/usart/Libraries/src/stm32f10x_flash.c ****   status = FLASH_WaitForLastOperation(ProgramTimeout);
1182:/home/virusv/usart/Libraries/src/stm32f10x_flash.c ****   
1183:/home/virusv/usart/Libraries/src/stm32f10x_flash.c ****   if(status == FLASH_COMPLETE)
1184:/home/virusv/usart/Libraries/src/stm32f10x_flash.c ****   {  
1185:/home/virusv/usart/Libraries/src/stm32f10x_flash.c ****     /* Enable the Option Bytes Programming operation */
1186:/home/virusv/usart/Libraries/src/stm32f10x_flash.c ****     FLASH->CR |= CR_OPTPG_Set; 
1187:/home/virusv/usart/Libraries/src/stm32f10x_flash.c **** 
1188:/home/virusv/usart/Libraries/src/stm32f10x_flash.c ****     if(FLASH_BOOT == FLASH_BOOT_Bank1)
1189:/home/virusv/usart/Libraries/src/stm32f10x_flash.c ****     {
1190:/home/virusv/usart/Libraries/src/stm32f10x_flash.c ****       OB->USER |= OB_USER_BFB2;
1191:/home/virusv/usart/Libraries/src/stm32f10x_flash.c ****     }
1192:/home/virusv/usart/Libraries/src/stm32f10x_flash.c ****     else
1193:/home/virusv/usart/Libraries/src/stm32f10x_flash.c ****     {
1194:/home/virusv/usart/Libraries/src/stm32f10x_flash.c ****       OB->USER &= (uint16_t)(~(uint16_t)(OB_USER_BFB2));
1195:/home/virusv/usart/Libraries/src/stm32f10x_flash.c ****     }
1196:/home/virusv/usart/Libraries/src/stm32f10x_flash.c ****     /* Wait for last operation to be completed */
1197:/home/virusv/usart/Libraries/src/stm32f10x_flash.c ****     status = FLASH_WaitForLastOperation(ProgramTimeout);
1198:/home/virusv/usart/Libraries/src/stm32f10x_flash.c ****     if(status != FLASH_TIMEOUT)
1199:/home/virusv/usart/Libraries/src/stm32f10x_flash.c ****     {
1200:/home/virusv/usart/Libraries/src/stm32f10x_flash.c ****       /* if the program operation is completed, disable the OPTPG Bit */
1201:/home/virusv/usart/Libraries/src/stm32f10x_flash.c ****       FLASH->CR &= CR_OPTPG_Reset;
1202:/home/virusv/usart/Libraries/src/stm32f10x_flash.c ****     }
1203:/home/virusv/usart/Libraries/src/stm32f10x_flash.c ****   }    
1204:/home/virusv/usart/Libraries/src/stm32f10x_flash.c ****   /* Return the Option Byte program Status */
1205:/home/virusv/usart/Libraries/src/stm32f10x_flash.c ****   return status;
1206:/home/virusv/usart/Libraries/src/stm32f10x_flash.c **** }
1207:/home/virusv/usart/Libraries/src/stm32f10x_flash.c **** #endif /* STM32F10X_XL */
1208:/home/virusv/usart/Libraries/src/stm32f10x_flash.c **** 
1209:/home/virusv/usart/Libraries/src/stm32f10x_flash.c **** /**
1210:/home/virusv/usart/Libraries/src/stm32f10x_flash.c ****   * @brief  Returns the FLASH User Option Bytes values.
1211:/home/virusv/usart/Libraries/src/stm32f10x_flash.c ****   * @note   This function can be used for all STM32F10x devices.
1212:/home/virusv/usart/Libraries/src/stm32f10x_flash.c ****   * @param  None
1213:/home/virusv/usart/Libraries/src/stm32f10x_flash.c ****   * @retval The FLASH User Option Bytes values:IWDG_SW(Bit0), RST_STOP(Bit1)
1214:/home/virusv/usart/Libraries/src/stm32f10x_flash.c ****   *         and RST_STDBY(Bit2).
1215:/home/virusv/usart/Libraries/src/stm32f10x_flash.c ****   */
1216:/home/virusv/usart/Libraries/src/stm32f10x_flash.c **** uint32_t FLASH_GetUserOptionByte(void)
1217:/home/virusv/usart/Libraries/src/stm32f10x_flash.c **** {
 1411              		.loc 1 1217 0
 1412              		.cfi_startproc
 1413              		@ args = 0, pretend = 0, frame = 0
 1414              		@ frame_needed = 1, uses_anonymous_args = 0
 1415              		@ link register save eliminated.
 1416 0000 80B4     		push	{r7}
 1417              		.cfi_def_cfa_offset 4
 1418              		.cfi_offset 7, -4
 1419 0002 00AF     		add	r7, sp, #0
 1420              		.cfi_def_cfa_register 7
1218:/home/virusv/usart/Libraries/src/stm32f10x_flash.c ****   /* Return the User Option Byte */
1219:/home/virusv/usart/Libraries/src/stm32f10x_flash.c ****   return (uint32_t)(FLASH->OBR >> 2);
 1421              		.loc 1 1219 0
 1422 0004 034B     		ldr	r3, .L86
 1423 0006 DB69     		ldr	r3, [r3, #28]
 1424 0008 9B08     		lsrs	r3, r3, #2
1220:/home/virusv/usart/Libraries/src/stm32f10x_flash.c **** }
 1425              		.loc 1 1220 0
 1426 000a 1846     		mov	r0, r3
 1427 000c BD46     		mov	sp, r7
 1428              		.cfi_def_cfa_register 13
 1429              		@ sp needed
 1430 000e 5DF8047B 		ldr	r7, [sp], #4
 1431              		.cfi_restore 7
 1432              		.cfi_def_cfa_offset 0
 1433 0012 7047     		bx	lr
 1434              	.L87:
 1435              		.align	2
 1436              	.L86:
 1437 0014 00200240 		.word	1073881088
 1438              		.cfi_endproc
 1439              	.LFE46:
 1441              		.section	.text.FLASH_GetWriteProtectionOptionByte,"ax",%progbits
 1442              		.align	2
 1443              		.global	FLASH_GetWriteProtectionOptionByte
 1444              		.thumb
 1445              		.thumb_func
 1447              	FLASH_GetWriteProtectionOptionByte:
 1448              	.LFB47:
1221:/home/virusv/usart/Libraries/src/stm32f10x_flash.c **** 
1222:/home/virusv/usart/Libraries/src/stm32f10x_flash.c **** /**
1223:/home/virusv/usart/Libraries/src/stm32f10x_flash.c ****   * @brief  Returns the FLASH Write Protection Option Bytes Register value.
1224:/home/virusv/usart/Libraries/src/stm32f10x_flash.c ****   * @note   This function can be used for all STM32F10x devices.
1225:/home/virusv/usart/Libraries/src/stm32f10x_flash.c ****   * @param  None
1226:/home/virusv/usart/Libraries/src/stm32f10x_flash.c ****   * @retval The FLASH Write Protection  Option Bytes Register value
1227:/home/virusv/usart/Libraries/src/stm32f10x_flash.c ****   */
1228:/home/virusv/usart/Libraries/src/stm32f10x_flash.c **** uint32_t FLASH_GetWriteProtectionOptionByte(void)
1229:/home/virusv/usart/Libraries/src/stm32f10x_flash.c **** {
 1449              		.loc 1 1229 0
 1450              		.cfi_startproc
 1451              		@ args = 0, pretend = 0, frame = 0
 1452              		@ frame_needed = 1, uses_anonymous_args = 0
 1453              		@ link register save eliminated.
 1454 0000 80B4     		push	{r7}
 1455              		.cfi_def_cfa_offset 4
 1456              		.cfi_offset 7, -4
 1457 0002 00AF     		add	r7, sp, #0
 1458              		.cfi_def_cfa_register 7
1230:/home/virusv/usart/Libraries/src/stm32f10x_flash.c ****   /* Return the Flash write protection Register value */
1231:/home/virusv/usart/Libraries/src/stm32f10x_flash.c ****   return (uint32_t)(FLASH->WRPR);
 1459              		.loc 1 1231 0
 1460 0004 034B     		ldr	r3, .L90
 1461 0006 1B6A     		ldr	r3, [r3, #32]
1232:/home/virusv/usart/Libraries/src/stm32f10x_flash.c **** }
 1462              		.loc 1 1232 0
 1463 0008 1846     		mov	r0, r3
 1464 000a BD46     		mov	sp, r7
 1465              		.cfi_def_cfa_register 13
 1466              		@ sp needed
 1467 000c 5DF8047B 		ldr	r7, [sp], #4
 1468              		.cfi_restore 7
 1469              		.cfi_def_cfa_offset 0
 1470 0010 7047     		bx	lr
 1471              	.L91:
 1472 0012 00BF     		.align	2
 1473              	.L90:
 1474 0014 00200240 		.word	1073881088
 1475              		.cfi_endproc
 1476              	.LFE47:
 1478              		.section	.text.FLASH_GetReadOutProtectionStatus,"ax",%progbits
 1479              		.align	2
 1480              		.global	FLASH_GetReadOutProtectionStatus
 1481              		.thumb
 1482              		.thumb_func
 1484              	FLASH_GetReadOutProtectionStatus:
 1485              	.LFB48:
1233:/home/virusv/usart/Libraries/src/stm32f10x_flash.c **** 
1234:/home/virusv/usart/Libraries/src/stm32f10x_flash.c **** /**
1235:/home/virusv/usart/Libraries/src/stm32f10x_flash.c ****   * @brief  Checks whether the FLASH Read Out Protection Status is set or not.
1236:/home/virusv/usart/Libraries/src/stm32f10x_flash.c ****   * @note   This function can be used for all STM32F10x devices.
1237:/home/virusv/usart/Libraries/src/stm32f10x_flash.c ****   * @param  None
1238:/home/virusv/usart/Libraries/src/stm32f10x_flash.c ****   * @retval FLASH ReadOut Protection Status(SET or RESET)
1239:/home/virusv/usart/Libraries/src/stm32f10x_flash.c ****   */
1240:/home/virusv/usart/Libraries/src/stm32f10x_flash.c **** FlagStatus FLASH_GetReadOutProtectionStatus(void)
1241:/home/virusv/usart/Libraries/src/stm32f10x_flash.c **** {
 1486              		.loc 1 1241 0
 1487              		.cfi_startproc
 1488              		@ args = 0, pretend = 0, frame = 8
 1489              		@ frame_needed = 1, uses_anonymous_args = 0
 1490              		@ link register save eliminated.
 1491 0000 80B4     		push	{r7}
 1492              		.cfi_def_cfa_offset 4
 1493              		.cfi_offset 7, -4
 1494 0002 83B0     		sub	sp, sp, #12
 1495              		.cfi_def_cfa_offset 16
 1496 0004 00AF     		add	r7, sp, #0
 1497              		.cfi_def_cfa_register 7
1242:/home/virusv/usart/Libraries/src/stm32f10x_flash.c ****   FlagStatus readoutstatus = RESET;
 1498              		.loc 1 1242 0
 1499 0006 0023     		movs	r3, #0
 1500 0008 FB71     		strb	r3, [r7, #7]
1243:/home/virusv/usart/Libraries/src/stm32f10x_flash.c ****   if ((FLASH->OBR & RDPRT_Mask) != (uint32_t)RESET)
 1501              		.loc 1 1243 0
 1502 000a 094B     		ldr	r3, .L96
 1503 000c DB69     		ldr	r3, [r3, #28]
 1504 000e 03F00203 		and	r3, r3, #2
 1505 0012 002B     		cmp	r3, #0
 1506 0014 02D0     		beq	.L93
1244:/home/virusv/usart/Libraries/src/stm32f10x_flash.c ****   {
1245:/home/virusv/usart/Libraries/src/stm32f10x_flash.c ****     readoutstatus = SET;
 1507              		.loc 1 1245 0
 1508 0016 0123     		movs	r3, #1
 1509 0018 FB71     		strb	r3, [r7, #7]
 1510 001a 01E0     		b	.L94
 1511              	.L93:
1246:/home/virusv/usart/Libraries/src/stm32f10x_flash.c ****   }
1247:/home/virusv/usart/Libraries/src/stm32f10x_flash.c ****   else
1248:/home/virusv/usart/Libraries/src/stm32f10x_flash.c ****   {
1249:/home/virusv/usart/Libraries/src/stm32f10x_flash.c ****     readoutstatus = RESET;
 1512              		.loc 1 1249 0
 1513 001c 0023     		movs	r3, #0
 1514 001e FB71     		strb	r3, [r7, #7]
 1515              	.L94:
1250:/home/virusv/usart/Libraries/src/stm32f10x_flash.c ****   }
1251:/home/virusv/usart/Libraries/src/stm32f10x_flash.c ****   return readoutstatus;
 1516              		.loc 1 1251 0
 1517 0020 FB79     		ldrb	r3, [r7, #7]	@ zero_extendqisi2
1252:/home/virusv/usart/Libraries/src/stm32f10x_flash.c **** }
 1518              		.loc 1 1252 0
 1519 0022 1846     		mov	r0, r3
 1520 0024 0C37     		adds	r7, r7, #12
 1521              		.cfi_def_cfa_offset 4
 1522 0026 BD46     		mov	sp, r7
 1523              		.cfi_def_cfa_register 13
 1524              		@ sp needed
 1525 0028 5DF8047B 		ldr	r7, [sp], #4
 1526              		.cfi_restore 7
 1527              		.cfi_def_cfa_offset 0
 1528 002c 7047     		bx	lr
 1529              	.L97:
 1530 002e 00BF     		.align	2
 1531              	.L96:
 1532 0030 00200240 		.word	1073881088
 1533              		.cfi_endproc
 1534              	.LFE48:
 1536              		.section	.text.FLASH_GetPrefetchBufferStatus,"ax",%progbits
 1537              		.align	2
 1538              		.global	FLASH_GetPrefetchBufferStatus
 1539              		.thumb
 1540              		.thumb_func
 1542              	FLASH_GetPrefetchBufferStatus:
 1543              	.LFB49:
1253:/home/virusv/usart/Libraries/src/stm32f10x_flash.c **** 
1254:/home/virusv/usart/Libraries/src/stm32f10x_flash.c **** /**
1255:/home/virusv/usart/Libraries/src/stm32f10x_flash.c ****   * @brief  Checks whether the FLASH Prefetch Buffer status is set or not.
1256:/home/virusv/usart/Libraries/src/stm32f10x_flash.c ****   * @note   This function can be used for all STM32F10x devices.
1257:/home/virusv/usart/Libraries/src/stm32f10x_flash.c ****   * @param  None
1258:/home/virusv/usart/Libraries/src/stm32f10x_flash.c ****   * @retval FLASH Prefetch Buffer Status (SET or RESET).
1259:/home/virusv/usart/Libraries/src/stm32f10x_flash.c ****   */
1260:/home/virusv/usart/Libraries/src/stm32f10x_flash.c **** FlagStatus FLASH_GetPrefetchBufferStatus(void)
1261:/home/virusv/usart/Libraries/src/stm32f10x_flash.c **** {
 1544              		.loc 1 1261 0
 1545              		.cfi_startproc
 1546              		@ args = 0, pretend = 0, frame = 8
 1547              		@ frame_needed = 1, uses_anonymous_args = 0
 1548              		@ link register save eliminated.
 1549 0000 80B4     		push	{r7}
 1550              		.cfi_def_cfa_offset 4
 1551              		.cfi_offset 7, -4
 1552 0002 83B0     		sub	sp, sp, #12
 1553              		.cfi_def_cfa_offset 16
 1554 0004 00AF     		add	r7, sp, #0
 1555              		.cfi_def_cfa_register 7
1262:/home/virusv/usart/Libraries/src/stm32f10x_flash.c ****   FlagStatus bitstatus = RESET;
 1556              		.loc 1 1262 0
 1557 0006 0023     		movs	r3, #0
 1558 0008 FB71     		strb	r3, [r7, #7]
1263:/home/virusv/usart/Libraries/src/stm32f10x_flash.c ****   
1264:/home/virusv/usart/Libraries/src/stm32f10x_flash.c ****   if ((FLASH->ACR & ACR_PRFTBS_Mask) != (uint32_t)RESET)
 1559              		.loc 1 1264 0
 1560 000a 094B     		ldr	r3, .L102
 1561 000c 1B68     		ldr	r3, [r3]
 1562 000e 03F02003 		and	r3, r3, #32
 1563 0012 002B     		cmp	r3, #0
 1564 0014 02D0     		beq	.L99
1265:/home/virusv/usart/Libraries/src/stm32f10x_flash.c ****   {
1266:/home/virusv/usart/Libraries/src/stm32f10x_flash.c ****     bitstatus = SET;
 1565              		.loc 1 1266 0
 1566 0016 0123     		movs	r3, #1
 1567 0018 FB71     		strb	r3, [r7, #7]
 1568 001a 01E0     		b	.L100
 1569              	.L99:
1267:/home/virusv/usart/Libraries/src/stm32f10x_flash.c ****   }
1268:/home/virusv/usart/Libraries/src/stm32f10x_flash.c ****   else
1269:/home/virusv/usart/Libraries/src/stm32f10x_flash.c ****   {
1270:/home/virusv/usart/Libraries/src/stm32f10x_flash.c ****     bitstatus = RESET;
 1570              		.loc 1 1270 0
 1571 001c 0023     		movs	r3, #0
 1572 001e FB71     		strb	r3, [r7, #7]
 1573              	.L100:
1271:/home/virusv/usart/Libraries/src/stm32f10x_flash.c ****   }
1272:/home/virusv/usart/Libraries/src/stm32f10x_flash.c ****   /* Return the new state of FLASH Prefetch Buffer Status (SET or RESET) */
1273:/home/virusv/usart/Libraries/src/stm32f10x_flash.c ****   return bitstatus; 
 1574              		.loc 1 1273 0
 1575 0020 FB79     		ldrb	r3, [r7, #7]	@ zero_extendqisi2
1274:/home/virusv/usart/Libraries/src/stm32f10x_flash.c **** }
 1576              		.loc 1 1274 0
 1577 0022 1846     		mov	r0, r3
 1578 0024 0C37     		adds	r7, r7, #12
 1579              		.cfi_def_cfa_offset 4
 1580 0026 BD46     		mov	sp, r7
 1581              		.cfi_def_cfa_register 13
 1582              		@ sp needed
 1583 0028 5DF8047B 		ldr	r7, [sp], #4
 1584              		.cfi_restore 7
 1585              		.cfi_def_cfa_offset 0
 1586 002c 7047     		bx	lr
 1587              	.L103:
 1588 002e 00BF     		.align	2
 1589              	.L102:
 1590 0030 00200240 		.word	1073881088
 1591              		.cfi_endproc
 1592              	.LFE49:
 1594              		.section	.text.FLASH_ITConfig,"ax",%progbits
 1595              		.align	2
 1596              		.global	FLASH_ITConfig
 1597              		.thumb
 1598              		.thumb_func
 1600              	FLASH_ITConfig:
 1601              	.LFB50:
1275:/home/virusv/usart/Libraries/src/stm32f10x_flash.c **** 
1276:/home/virusv/usart/Libraries/src/stm32f10x_flash.c **** /**
1277:/home/virusv/usart/Libraries/src/stm32f10x_flash.c ****   * @brief  Enables or disables the specified FLASH interrupts.
1278:/home/virusv/usart/Libraries/src/stm32f10x_flash.c ****   * @note   This function can be used for all STM32F10x devices.
1279:/home/virusv/usart/Libraries/src/stm32f10x_flash.c ****   *         - For STM32F10X_XL devices, enables or disables the specified FLASH interrupts
1280:/home/virusv/usart/Libraries/src/stm32f10x_flash.c ****               for Bank1 and Bank2.
1281:/home/virusv/usart/Libraries/src/stm32f10x_flash.c ****   *         - For other devices it enables or disables the specified FLASH interrupts for Bank1.
1282:/home/virusv/usart/Libraries/src/stm32f10x_flash.c ****   * @param  FLASH_IT: specifies the FLASH interrupt sources to be enabled or disabled.
1283:/home/virusv/usart/Libraries/src/stm32f10x_flash.c ****   *   This parameter can be any combination of the following values:
1284:/home/virusv/usart/Libraries/src/stm32f10x_flash.c ****   *     @arg FLASH_IT_ERROR: FLASH Error Interrupt
1285:/home/virusv/usart/Libraries/src/stm32f10x_flash.c ****   *     @arg FLASH_IT_EOP: FLASH end of operation Interrupt
1286:/home/virusv/usart/Libraries/src/stm32f10x_flash.c ****   * @param  NewState: new state of the specified Flash interrupts.
1287:/home/virusv/usart/Libraries/src/stm32f10x_flash.c ****   *   This parameter can be: ENABLE or DISABLE.      
1288:/home/virusv/usart/Libraries/src/stm32f10x_flash.c ****   * @retval None 
1289:/home/virusv/usart/Libraries/src/stm32f10x_flash.c ****   */
1290:/home/virusv/usart/Libraries/src/stm32f10x_flash.c **** void FLASH_ITConfig(uint32_t FLASH_IT, FunctionalState NewState)
1291:/home/virusv/usart/Libraries/src/stm32f10x_flash.c **** {
 1602              		.loc 1 1291 0
 1603              		.cfi_startproc
 1604              		@ args = 0, pretend = 0, frame = 8
 1605              		@ frame_needed = 1, uses_anonymous_args = 0
 1606              		@ link register save eliminated.
 1607 0000 80B4     		push	{r7}
 1608              		.cfi_def_cfa_offset 4
 1609              		.cfi_offset 7, -4
 1610 0002 83B0     		sub	sp, sp, #12
 1611              		.cfi_def_cfa_offset 16
 1612 0004 00AF     		add	r7, sp, #0
 1613              		.cfi_def_cfa_register 7
 1614 0006 7860     		str	r0, [r7, #4]
 1615 0008 0B46     		mov	r3, r1
 1616 000a FB70     		strb	r3, [r7, #3]
1292:/home/virusv/usart/Libraries/src/stm32f10x_flash.c **** #ifdef STM32F10X_XL
1293:/home/virusv/usart/Libraries/src/stm32f10x_flash.c ****   /* Check the parameters */
1294:/home/virusv/usart/Libraries/src/stm32f10x_flash.c ****   assert_param(IS_FLASH_IT(FLASH_IT)); 
1295:/home/virusv/usart/Libraries/src/stm32f10x_flash.c ****   assert_param(IS_FUNCTIONAL_STATE(NewState));
1296:/home/virusv/usart/Libraries/src/stm32f10x_flash.c **** 
1297:/home/virusv/usart/Libraries/src/stm32f10x_flash.c ****   if((FLASH_IT & 0x80000000) != 0x0)
1298:/home/virusv/usart/Libraries/src/stm32f10x_flash.c ****   {
1299:/home/virusv/usart/Libraries/src/stm32f10x_flash.c ****     if(NewState != DISABLE)
1300:/home/virusv/usart/Libraries/src/stm32f10x_flash.c ****     {
1301:/home/virusv/usart/Libraries/src/stm32f10x_flash.c ****       /* Enable the interrupt sources */
1302:/home/virusv/usart/Libraries/src/stm32f10x_flash.c ****       FLASH->CR2 |= (FLASH_IT & 0x7FFFFFFF);
1303:/home/virusv/usart/Libraries/src/stm32f10x_flash.c ****     }
1304:/home/virusv/usart/Libraries/src/stm32f10x_flash.c ****     else
1305:/home/virusv/usart/Libraries/src/stm32f10x_flash.c ****     {
1306:/home/virusv/usart/Libraries/src/stm32f10x_flash.c ****       /* Disable the interrupt sources */
1307:/home/virusv/usart/Libraries/src/stm32f10x_flash.c ****       FLASH->CR2 &= ~(uint32_t)(FLASH_IT & 0x7FFFFFFF);
1308:/home/virusv/usart/Libraries/src/stm32f10x_flash.c ****     }
1309:/home/virusv/usart/Libraries/src/stm32f10x_flash.c ****   }
1310:/home/virusv/usart/Libraries/src/stm32f10x_flash.c ****   else
1311:/home/virusv/usart/Libraries/src/stm32f10x_flash.c ****   {
1312:/home/virusv/usart/Libraries/src/stm32f10x_flash.c ****     if(NewState != DISABLE)
1313:/home/virusv/usart/Libraries/src/stm32f10x_flash.c ****     {
1314:/home/virusv/usart/Libraries/src/stm32f10x_flash.c ****       /* Enable the interrupt sources */
1315:/home/virusv/usart/Libraries/src/stm32f10x_flash.c ****       FLASH->CR |= FLASH_IT;
1316:/home/virusv/usart/Libraries/src/stm32f10x_flash.c ****     }
1317:/home/virusv/usart/Libraries/src/stm32f10x_flash.c ****     else
1318:/home/virusv/usart/Libraries/src/stm32f10x_flash.c ****     {
1319:/home/virusv/usart/Libraries/src/stm32f10x_flash.c ****       /* Disable the interrupt sources */
1320:/home/virusv/usart/Libraries/src/stm32f10x_flash.c ****       FLASH->CR &= ~(uint32_t)FLASH_IT;
1321:/home/virusv/usart/Libraries/src/stm32f10x_flash.c ****     }
1322:/home/virusv/usart/Libraries/src/stm32f10x_flash.c ****   }
1323:/home/virusv/usart/Libraries/src/stm32f10x_flash.c **** #else
1324:/home/virusv/usart/Libraries/src/stm32f10x_flash.c ****   /* Check the parameters */
1325:/home/virusv/usart/Libraries/src/stm32f10x_flash.c ****   assert_param(IS_FLASH_IT(FLASH_IT)); 
1326:/home/virusv/usart/Libraries/src/stm32f10x_flash.c ****   assert_param(IS_FUNCTIONAL_STATE(NewState));
1327:/home/virusv/usart/Libraries/src/stm32f10x_flash.c **** 
1328:/home/virusv/usart/Libraries/src/stm32f10x_flash.c ****   if(NewState != DISABLE)
 1617              		.loc 1 1328 0
 1618 000c FB78     		ldrb	r3, [r7, #3]	@ zero_extendqisi2
 1619 000e 002B     		cmp	r3, #0
 1620 0010 06D0     		beq	.L105
1329:/home/virusv/usart/Libraries/src/stm32f10x_flash.c ****   {
1330:/home/virusv/usart/Libraries/src/stm32f10x_flash.c ****     /* Enable the interrupt sources */
1331:/home/virusv/usart/Libraries/src/stm32f10x_flash.c ****     FLASH->CR |= FLASH_IT;
 1621              		.loc 1 1331 0
 1622 0012 0949     		ldr	r1, .L107
 1623 0014 084B     		ldr	r3, .L107
 1624 0016 1A69     		ldr	r2, [r3, #16]
 1625 0018 7B68     		ldr	r3, [r7, #4]
 1626 001a 1343     		orrs	r3, r3, r2
 1627 001c 0B61     		str	r3, [r1, #16]
 1628 001e 06E0     		b	.L104
 1629              	.L105:
1332:/home/virusv/usart/Libraries/src/stm32f10x_flash.c ****   }
1333:/home/virusv/usart/Libraries/src/stm32f10x_flash.c ****   else
1334:/home/virusv/usart/Libraries/src/stm32f10x_flash.c ****   {
1335:/home/virusv/usart/Libraries/src/stm32f10x_flash.c ****     /* Disable the interrupt sources */
1336:/home/virusv/usart/Libraries/src/stm32f10x_flash.c ****     FLASH->CR &= ~(uint32_t)FLASH_IT;
 1630              		.loc 1 1336 0
 1631 0020 0549     		ldr	r1, .L107
 1632 0022 054B     		ldr	r3, .L107
 1633 0024 1A69     		ldr	r2, [r3, #16]
 1634 0026 7B68     		ldr	r3, [r7, #4]
 1635 0028 DB43     		mvns	r3, r3
 1636 002a 1340     		ands	r3, r3, r2
 1637 002c 0B61     		str	r3, [r1, #16]
 1638              	.L104:
1337:/home/virusv/usart/Libraries/src/stm32f10x_flash.c ****   }
1338:/home/virusv/usart/Libraries/src/stm32f10x_flash.c **** #endif /* STM32F10X_XL */
1339:/home/virusv/usart/Libraries/src/stm32f10x_flash.c **** }
 1639              		.loc 1 1339 0
 1640 002e 0C37     		adds	r7, r7, #12
 1641              		.cfi_def_cfa_offset 4
 1642 0030 BD46     		mov	sp, r7
 1643              		.cfi_def_cfa_register 13
 1644              		@ sp needed
 1645 0032 5DF8047B 		ldr	r7, [sp], #4
 1646              		.cfi_restore 7
 1647              		.cfi_def_cfa_offset 0
 1648 0036 7047     		bx	lr
 1649              	.L108:
 1650              		.align	2
 1651              	.L107:
 1652 0038 00200240 		.word	1073881088
 1653              		.cfi_endproc
 1654              	.LFE50:
 1656              		.section	.text.FLASH_GetFlagStatus,"ax",%progbits
 1657              		.align	2
 1658              		.global	FLASH_GetFlagStatus
 1659              		.thumb
 1660              		.thumb_func
 1662              	FLASH_GetFlagStatus:
 1663              	.LFB51:
1340:/home/virusv/usart/Libraries/src/stm32f10x_flash.c **** 
1341:/home/virusv/usart/Libraries/src/stm32f10x_flash.c **** /**
1342:/home/virusv/usart/Libraries/src/stm32f10x_flash.c ****   * @brief  Checks whether the specified FLASH flag is set or not.
1343:/home/virusv/usart/Libraries/src/stm32f10x_flash.c ****   * @note   This function can be used for all STM32F10x devices.
1344:/home/virusv/usart/Libraries/src/stm32f10x_flash.c ****   *         - For STM32F10X_XL devices, this function checks whether the specified 
1345:/home/virusv/usart/Libraries/src/stm32f10x_flash.c ****   *           Bank1 or Bank2 flag is set or not.
1346:/home/virusv/usart/Libraries/src/stm32f10x_flash.c ****   *         - For other devices, it checks whether the specified Bank1 flag is 
1347:/home/virusv/usart/Libraries/src/stm32f10x_flash.c ****   *           set or not.
1348:/home/virusv/usart/Libraries/src/stm32f10x_flash.c ****   * @param  FLASH_FLAG: specifies the FLASH flag to check.
1349:/home/virusv/usart/Libraries/src/stm32f10x_flash.c ****   *   This parameter can be one of the following values:
1350:/home/virusv/usart/Libraries/src/stm32f10x_flash.c ****   *     @arg FLASH_FLAG_BSY: FLASH Busy flag           
1351:/home/virusv/usart/Libraries/src/stm32f10x_flash.c ****   *     @arg FLASH_FLAG_PGERR: FLASH Program error flag       
1352:/home/virusv/usart/Libraries/src/stm32f10x_flash.c ****   *     @arg FLASH_FLAG_WRPRTERR: FLASH Write protected error flag      
1353:/home/virusv/usart/Libraries/src/stm32f10x_flash.c ****   *     @arg FLASH_FLAG_EOP: FLASH End of Operation flag           
1354:/home/virusv/usart/Libraries/src/stm32f10x_flash.c ****   *     @arg FLASH_FLAG_OPTERR:  FLASH Option Byte error flag     
1355:/home/virusv/usart/Libraries/src/stm32f10x_flash.c ****   * @retval The new state of FLASH_FLAG (SET or RESET).
1356:/home/virusv/usart/Libraries/src/stm32f10x_flash.c ****   */
1357:/home/virusv/usart/Libraries/src/stm32f10x_flash.c **** FlagStatus FLASH_GetFlagStatus(uint32_t FLASH_FLAG)
1358:/home/virusv/usart/Libraries/src/stm32f10x_flash.c **** {
 1664              		.loc 1 1358 0
 1665              		.cfi_startproc
 1666              		@ args = 0, pretend = 0, frame = 16
 1667              		@ frame_needed = 1, uses_anonymous_args = 0
 1668              		@ link register save eliminated.
 1669 0000 80B4     		push	{r7}
 1670              		.cfi_def_cfa_offset 4
 1671              		.cfi_offset 7, -4
 1672 0002 85B0     		sub	sp, sp, #20
 1673              		.cfi_def_cfa_offset 24
 1674 0004 00AF     		add	r7, sp, #0
 1675              		.cfi_def_cfa_register 7
 1676 0006 7860     		str	r0, [r7, #4]
1359:/home/virusv/usart/Libraries/src/stm32f10x_flash.c ****   FlagStatus bitstatus = RESET;
 1677              		.loc 1 1359 0
 1678 0008 0023     		movs	r3, #0
 1679 000a FB73     		strb	r3, [r7, #15]
1360:/home/virusv/usart/Libraries/src/stm32f10x_flash.c **** 
1361:/home/virusv/usart/Libraries/src/stm32f10x_flash.c **** #ifdef STM32F10X_XL
1362:/home/virusv/usart/Libraries/src/stm32f10x_flash.c ****   /* Check the parameters */
1363:/home/virusv/usart/Libraries/src/stm32f10x_flash.c ****   assert_param(IS_FLASH_GET_FLAG(FLASH_FLAG)) ;
1364:/home/virusv/usart/Libraries/src/stm32f10x_flash.c ****   if(FLASH_FLAG == FLASH_FLAG_OPTERR) 
1365:/home/virusv/usart/Libraries/src/stm32f10x_flash.c ****   {
1366:/home/virusv/usart/Libraries/src/stm32f10x_flash.c ****     if((FLASH->OBR & FLASH_FLAG_OPTERR) != (uint32_t)RESET)
1367:/home/virusv/usart/Libraries/src/stm32f10x_flash.c ****     {
1368:/home/virusv/usart/Libraries/src/stm32f10x_flash.c ****       bitstatus = SET;
1369:/home/virusv/usart/Libraries/src/stm32f10x_flash.c ****     }
1370:/home/virusv/usart/Libraries/src/stm32f10x_flash.c ****     else
1371:/home/virusv/usart/Libraries/src/stm32f10x_flash.c ****     {
1372:/home/virusv/usart/Libraries/src/stm32f10x_flash.c ****       bitstatus = RESET;
1373:/home/virusv/usart/Libraries/src/stm32f10x_flash.c ****     }
1374:/home/virusv/usart/Libraries/src/stm32f10x_flash.c ****   }
1375:/home/virusv/usart/Libraries/src/stm32f10x_flash.c ****   else
1376:/home/virusv/usart/Libraries/src/stm32f10x_flash.c ****   {
1377:/home/virusv/usart/Libraries/src/stm32f10x_flash.c ****     if((FLASH_FLAG & 0x80000000) != 0x0)
1378:/home/virusv/usart/Libraries/src/stm32f10x_flash.c ****     {
1379:/home/virusv/usart/Libraries/src/stm32f10x_flash.c ****       if((FLASH->SR2 & FLASH_FLAG) != (uint32_t)RESET)
1380:/home/virusv/usart/Libraries/src/stm32f10x_flash.c ****       {
1381:/home/virusv/usart/Libraries/src/stm32f10x_flash.c ****         bitstatus = SET;
1382:/home/virusv/usart/Libraries/src/stm32f10x_flash.c ****       }
1383:/home/virusv/usart/Libraries/src/stm32f10x_flash.c ****       else
1384:/home/virusv/usart/Libraries/src/stm32f10x_flash.c ****       {
1385:/home/virusv/usart/Libraries/src/stm32f10x_flash.c ****         bitstatus = RESET;
1386:/home/virusv/usart/Libraries/src/stm32f10x_flash.c ****       }
1387:/home/virusv/usart/Libraries/src/stm32f10x_flash.c ****     }
1388:/home/virusv/usart/Libraries/src/stm32f10x_flash.c ****     else
1389:/home/virusv/usart/Libraries/src/stm32f10x_flash.c ****     {
1390:/home/virusv/usart/Libraries/src/stm32f10x_flash.c ****       if((FLASH->SR & FLASH_FLAG) != (uint32_t)RESET)
1391:/home/virusv/usart/Libraries/src/stm32f10x_flash.c ****       {
1392:/home/virusv/usart/Libraries/src/stm32f10x_flash.c ****         bitstatus = SET;
1393:/home/virusv/usart/Libraries/src/stm32f10x_flash.c ****       }
1394:/home/virusv/usart/Libraries/src/stm32f10x_flash.c ****       else
1395:/home/virusv/usart/Libraries/src/stm32f10x_flash.c ****       {
1396:/home/virusv/usart/Libraries/src/stm32f10x_flash.c ****         bitstatus = RESET;
1397:/home/virusv/usart/Libraries/src/stm32f10x_flash.c ****       }
1398:/home/virusv/usart/Libraries/src/stm32f10x_flash.c ****     }
1399:/home/virusv/usart/Libraries/src/stm32f10x_flash.c ****   }
1400:/home/virusv/usart/Libraries/src/stm32f10x_flash.c **** #else
1401:/home/virusv/usart/Libraries/src/stm32f10x_flash.c ****   /* Check the parameters */
1402:/home/virusv/usart/Libraries/src/stm32f10x_flash.c ****   assert_param(IS_FLASH_GET_FLAG(FLASH_FLAG)) ;
1403:/home/virusv/usart/Libraries/src/stm32f10x_flash.c ****   if(FLASH_FLAG == FLASH_FLAG_OPTERR) 
 1680              		.loc 1 1403 0
 1681 000c 7B68     		ldr	r3, [r7, #4]
 1682 000e 012B     		cmp	r3, #1
 1683 0010 0BD1     		bne	.L110
1404:/home/virusv/usart/Libraries/src/stm32f10x_flash.c ****   {
1405:/home/virusv/usart/Libraries/src/stm32f10x_flash.c ****     if((FLASH->OBR & FLASH_FLAG_OPTERR) != (uint32_t)RESET)
 1684              		.loc 1 1405 0
 1685 0012 0F4B     		ldr	r3, .L116
 1686 0014 DB69     		ldr	r3, [r3, #28]
 1687 0016 03F00103 		and	r3, r3, #1
 1688 001a 002B     		cmp	r3, #0
 1689 001c 02D0     		beq	.L111
1406:/home/virusv/usart/Libraries/src/stm32f10x_flash.c ****     {
1407:/home/virusv/usart/Libraries/src/stm32f10x_flash.c ****       bitstatus = SET;
 1690              		.loc 1 1407 0
 1691 001e 0123     		movs	r3, #1
 1692 0020 FB73     		strb	r3, [r7, #15]
 1693 0022 0DE0     		b	.L113
 1694              	.L111:
1408:/home/virusv/usart/Libraries/src/stm32f10x_flash.c ****     }
1409:/home/virusv/usart/Libraries/src/stm32f10x_flash.c ****     else
1410:/home/virusv/usart/Libraries/src/stm32f10x_flash.c ****     {
1411:/home/virusv/usart/Libraries/src/stm32f10x_flash.c ****       bitstatus = RESET;
 1695              		.loc 1 1411 0
 1696 0024 0023     		movs	r3, #0
 1697 0026 FB73     		strb	r3, [r7, #15]
 1698 0028 0AE0     		b	.L113
 1699              	.L110:
1412:/home/virusv/usart/Libraries/src/stm32f10x_flash.c ****     }
1413:/home/virusv/usart/Libraries/src/stm32f10x_flash.c ****   }
1414:/home/virusv/usart/Libraries/src/stm32f10x_flash.c ****   else
1415:/home/virusv/usart/Libraries/src/stm32f10x_flash.c ****   {
1416:/home/virusv/usart/Libraries/src/stm32f10x_flash.c ****    if((FLASH->SR & FLASH_FLAG) != (uint32_t)RESET)
 1700              		.loc 1 1416 0
 1701 002a 094B     		ldr	r3, .L116
 1702 002c DA68     		ldr	r2, [r3, #12]
 1703 002e 7B68     		ldr	r3, [r7, #4]
 1704 0030 1340     		ands	r3, r3, r2
 1705 0032 002B     		cmp	r3, #0
 1706 0034 02D0     		beq	.L114
1417:/home/virusv/usart/Libraries/src/stm32f10x_flash.c ****     {
1418:/home/virusv/usart/Libraries/src/stm32f10x_flash.c ****       bitstatus = SET;
 1707              		.loc 1 1418 0
 1708 0036 0123     		movs	r3, #1
 1709 0038 FB73     		strb	r3, [r7, #15]
 1710 003a 01E0     		b	.L113
 1711              	.L114:
1419:/home/virusv/usart/Libraries/src/stm32f10x_flash.c ****     }
1420:/home/virusv/usart/Libraries/src/stm32f10x_flash.c ****     else
1421:/home/virusv/usart/Libraries/src/stm32f10x_flash.c ****     {
1422:/home/virusv/usart/Libraries/src/stm32f10x_flash.c ****       bitstatus = RESET;
 1712              		.loc 1 1422 0
 1713 003c 0023     		movs	r3, #0
 1714 003e FB73     		strb	r3, [r7, #15]
 1715              	.L113:
1423:/home/virusv/usart/Libraries/src/stm32f10x_flash.c ****     }
1424:/home/virusv/usart/Libraries/src/stm32f10x_flash.c ****   }
1425:/home/virusv/usart/Libraries/src/stm32f10x_flash.c **** #endif /* STM32F10X_XL */
1426:/home/virusv/usart/Libraries/src/stm32f10x_flash.c **** 
1427:/home/virusv/usart/Libraries/src/stm32f10x_flash.c ****   /* Return the new state of FLASH_FLAG (SET or RESET) */
1428:/home/virusv/usart/Libraries/src/stm32f10x_flash.c ****   return bitstatus;
 1716              		.loc 1 1428 0
 1717 0040 FB7B     		ldrb	r3, [r7, #15]	@ zero_extendqisi2
1429:/home/virusv/usart/Libraries/src/stm32f10x_flash.c **** }
 1718              		.loc 1 1429 0
 1719 0042 1846     		mov	r0, r3
 1720 0044 1437     		adds	r7, r7, #20
 1721              		.cfi_def_cfa_offset 4
 1722 0046 BD46     		mov	sp, r7
 1723              		.cfi_def_cfa_register 13
 1724              		@ sp needed
 1725 0048 5DF8047B 		ldr	r7, [sp], #4
 1726              		.cfi_restore 7
 1727              		.cfi_def_cfa_offset 0
 1728 004c 7047     		bx	lr
 1729              	.L117:
 1730 004e 00BF     		.align	2
 1731              	.L116:
 1732 0050 00200240 		.word	1073881088
 1733              		.cfi_endproc
 1734              	.LFE51:
 1736              		.section	.text.FLASH_ClearFlag,"ax",%progbits
 1737              		.align	2
 1738              		.global	FLASH_ClearFlag
 1739              		.thumb
 1740              		.thumb_func
 1742              	FLASH_ClearFlag:
 1743              	.LFB52:
1430:/home/virusv/usart/Libraries/src/stm32f10x_flash.c **** 
1431:/home/virusv/usart/Libraries/src/stm32f10x_flash.c **** /**
1432:/home/virusv/usart/Libraries/src/stm32f10x_flash.c ****   * @brief  Clears the FLASH's pending flags.
1433:/home/virusv/usart/Libraries/src/stm32f10x_flash.c ****   * @note   This function can be used for all STM32F10x devices.
1434:/home/virusv/usart/Libraries/src/stm32f10x_flash.c ****   *         - For STM32F10X_XL devices, this function clears Bank1 or Bank2s pending flags
1435:/home/virusv/usart/Libraries/src/stm32f10x_flash.c ****   *         - For other devices, it clears Bank1s pending flags.
1436:/home/virusv/usart/Libraries/src/stm32f10x_flash.c ****   * @param  FLASH_FLAG: specifies the FLASH flags to clear.
1437:/home/virusv/usart/Libraries/src/stm32f10x_flash.c ****   *   This parameter can be any combination of the following values:         
1438:/home/virusv/usart/Libraries/src/stm32f10x_flash.c ****   *     @arg FLASH_FLAG_PGERR: FLASH Program error flag       
1439:/home/virusv/usart/Libraries/src/stm32f10x_flash.c ****   *     @arg FLASH_FLAG_WRPRTERR: FLASH Write protected error flag      
1440:/home/virusv/usart/Libraries/src/stm32f10x_flash.c ****   *     @arg FLASH_FLAG_EOP: FLASH End of Operation flag           
1441:/home/virusv/usart/Libraries/src/stm32f10x_flash.c ****   * @retval None
1442:/home/virusv/usart/Libraries/src/stm32f10x_flash.c ****   */
1443:/home/virusv/usart/Libraries/src/stm32f10x_flash.c **** void FLASH_ClearFlag(uint32_t FLASH_FLAG)
1444:/home/virusv/usart/Libraries/src/stm32f10x_flash.c **** {
 1744              		.loc 1 1444 0
 1745              		.cfi_startproc
 1746              		@ args = 0, pretend = 0, frame = 8
 1747              		@ frame_needed = 1, uses_anonymous_args = 0
 1748              		@ link register save eliminated.
 1749 0000 80B4     		push	{r7}
 1750              		.cfi_def_cfa_offset 4
 1751              		.cfi_offset 7, -4
 1752 0002 83B0     		sub	sp, sp, #12
 1753              		.cfi_def_cfa_offset 16
 1754 0004 00AF     		add	r7, sp, #0
 1755              		.cfi_def_cfa_register 7
 1756 0006 7860     		str	r0, [r7, #4]
1445:/home/virusv/usart/Libraries/src/stm32f10x_flash.c **** #ifdef STM32F10X_XL
1446:/home/virusv/usart/Libraries/src/stm32f10x_flash.c ****   /* Check the parameters */
1447:/home/virusv/usart/Libraries/src/stm32f10x_flash.c ****   assert_param(IS_FLASH_CLEAR_FLAG(FLASH_FLAG)) ;
1448:/home/virusv/usart/Libraries/src/stm32f10x_flash.c **** 
1449:/home/virusv/usart/Libraries/src/stm32f10x_flash.c ****   if((FLASH_FLAG & 0x80000000) != 0x0)
1450:/home/virusv/usart/Libraries/src/stm32f10x_flash.c ****   {
1451:/home/virusv/usart/Libraries/src/stm32f10x_flash.c ****     /* Clear the flags */
1452:/home/virusv/usart/Libraries/src/stm32f10x_flash.c ****     FLASH->SR2 = FLASH_FLAG;
1453:/home/virusv/usart/Libraries/src/stm32f10x_flash.c ****   }
1454:/home/virusv/usart/Libraries/src/stm32f10x_flash.c ****   else
1455:/home/virusv/usart/Libraries/src/stm32f10x_flash.c ****   {
1456:/home/virusv/usart/Libraries/src/stm32f10x_flash.c ****     /* Clear the flags */
1457:/home/virusv/usart/Libraries/src/stm32f10x_flash.c ****     FLASH->SR = FLASH_FLAG;
1458:/home/virusv/usart/Libraries/src/stm32f10x_flash.c ****   }  
1459:/home/virusv/usart/Libraries/src/stm32f10x_flash.c **** 
1460:/home/virusv/usart/Libraries/src/stm32f10x_flash.c **** #else
1461:/home/virusv/usart/Libraries/src/stm32f10x_flash.c ****   /* Check the parameters */
1462:/home/virusv/usart/Libraries/src/stm32f10x_flash.c ****   assert_param(IS_FLASH_CLEAR_FLAG(FLASH_FLAG)) ;
1463:/home/virusv/usart/Libraries/src/stm32f10x_flash.c ****   
1464:/home/virusv/usart/Libraries/src/stm32f10x_flash.c ****   /* Clear the flags */
1465:/home/virusv/usart/Libraries/src/stm32f10x_flash.c ****   FLASH->SR = FLASH_FLAG;
 1757              		.loc 1 1465 0
 1758 0008 034A     		ldr	r2, .L119
 1759 000a 7B68     		ldr	r3, [r7, #4]
 1760 000c D360     		str	r3, [r2, #12]
1466:/home/virusv/usart/Libraries/src/stm32f10x_flash.c **** #endif /* STM32F10X_XL */
1467:/home/virusv/usart/Libraries/src/stm32f10x_flash.c **** }
 1761              		.loc 1 1467 0
 1762 000e 0C37     		adds	r7, r7, #12
 1763              		.cfi_def_cfa_offset 4
 1764 0010 BD46     		mov	sp, r7
 1765              		.cfi_def_cfa_register 13
 1766              		@ sp needed
 1767 0012 5DF8047B 		ldr	r7, [sp], #4
 1768              		.cfi_restore 7
 1769              		.cfi_def_cfa_offset 0
 1770 0016 7047     		bx	lr
 1771              	.L120:
 1772              		.align	2
 1773              	.L119:
 1774 0018 00200240 		.word	1073881088
 1775              		.cfi_endproc
 1776              	.LFE52:
 1778              		.section	.text.FLASH_GetStatus,"ax",%progbits
 1779              		.align	2
 1780              		.global	FLASH_GetStatus
 1781              		.thumb
 1782              		.thumb_func
 1784              	FLASH_GetStatus:
 1785              	.LFB53:
1468:/home/virusv/usart/Libraries/src/stm32f10x_flash.c **** 
1469:/home/virusv/usart/Libraries/src/stm32f10x_flash.c **** /**
1470:/home/virusv/usart/Libraries/src/stm32f10x_flash.c ****   * @brief  Returns the FLASH Status.
1471:/home/virusv/usart/Libraries/src/stm32f10x_flash.c ****   * @note   This function can be used for all STM32F10x devices, it is equivalent
1472:/home/virusv/usart/Libraries/src/stm32f10x_flash.c ****   *         to FLASH_GetBank1Status function.
1473:/home/virusv/usart/Libraries/src/stm32f10x_flash.c ****   * @param  None
1474:/home/virusv/usart/Libraries/src/stm32f10x_flash.c ****   * @retval FLASH Status: The returned value can be: FLASH_BUSY, FLASH_ERROR_PG,
1475:/home/virusv/usart/Libraries/src/stm32f10x_flash.c ****   *         FLASH_ERROR_WRP or FLASH_COMPLETE
1476:/home/virusv/usart/Libraries/src/stm32f10x_flash.c ****   */
1477:/home/virusv/usart/Libraries/src/stm32f10x_flash.c **** FLASH_Status FLASH_GetStatus(void)
1478:/home/virusv/usart/Libraries/src/stm32f10x_flash.c **** {
 1786              		.loc 1 1478 0
 1787              		.cfi_startproc
 1788              		@ args = 0, pretend = 0, frame = 8
 1789              		@ frame_needed = 1, uses_anonymous_args = 0
 1790              		@ link register save eliminated.
 1791 0000 80B4     		push	{r7}
 1792              		.cfi_def_cfa_offset 4
 1793              		.cfi_offset 7, -4
 1794 0002 83B0     		sub	sp, sp, #12
 1795              		.cfi_def_cfa_offset 16
 1796 0004 00AF     		add	r7, sp, #0
 1797              		.cfi_def_cfa_register 7
1479:/home/virusv/usart/Libraries/src/stm32f10x_flash.c ****   FLASH_Status flashstatus = FLASH_COMPLETE;
 1798              		.loc 1 1479 0
 1799 0006 0423     		movs	r3, #4
 1800 0008 FB71     		strb	r3, [r7, #7]
1480:/home/virusv/usart/Libraries/src/stm32f10x_flash.c ****   
1481:/home/virusv/usart/Libraries/src/stm32f10x_flash.c ****   if((FLASH->SR & FLASH_FLAG_BSY) == FLASH_FLAG_BSY) 
 1801              		.loc 1 1481 0
 1802 000a 124B     		ldr	r3, .L127
 1803 000c DB68     		ldr	r3, [r3, #12]
 1804 000e 03F00103 		and	r3, r3, #1
 1805 0012 002B     		cmp	r3, #0
 1806 0014 02D0     		beq	.L122
1482:/home/virusv/usart/Libraries/src/stm32f10x_flash.c ****   {
1483:/home/virusv/usart/Libraries/src/stm32f10x_flash.c ****     flashstatus = FLASH_BUSY;
 1807              		.loc 1 1483 0
 1808 0016 0123     		movs	r3, #1
 1809 0018 FB71     		strb	r3, [r7, #7]
 1810 001a 13E0     		b	.L123
 1811              	.L122:
1484:/home/virusv/usart/Libraries/src/stm32f10x_flash.c ****   }
1485:/home/virusv/usart/Libraries/src/stm32f10x_flash.c ****   else 
1486:/home/virusv/usart/Libraries/src/stm32f10x_flash.c ****   {  
1487:/home/virusv/usart/Libraries/src/stm32f10x_flash.c ****     if((FLASH->SR & FLASH_FLAG_PGERR) != 0)
 1812              		.loc 1 1487 0
 1813 001c 0D4B     		ldr	r3, .L127
 1814 001e DB68     		ldr	r3, [r3, #12]
 1815 0020 03F00403 		and	r3, r3, #4
 1816 0024 002B     		cmp	r3, #0
 1817 0026 02D0     		beq	.L124
1488:/home/virusv/usart/Libraries/src/stm32f10x_flash.c ****     { 
1489:/home/virusv/usart/Libraries/src/stm32f10x_flash.c ****       flashstatus = FLASH_ERROR_PG;
 1818              		.loc 1 1489 0
 1819 0028 0223     		movs	r3, #2
 1820 002a FB71     		strb	r3, [r7, #7]
 1821 002c 0AE0     		b	.L123
 1822              	.L124:
1490:/home/virusv/usart/Libraries/src/stm32f10x_flash.c ****     }
1491:/home/virusv/usart/Libraries/src/stm32f10x_flash.c ****     else 
1492:/home/virusv/usart/Libraries/src/stm32f10x_flash.c ****     {
1493:/home/virusv/usart/Libraries/src/stm32f10x_flash.c ****       if((FLASH->SR & FLASH_FLAG_WRPRTERR) != 0 )
 1823              		.loc 1 1493 0
 1824 002e 094B     		ldr	r3, .L127
 1825 0030 DB68     		ldr	r3, [r3, #12]
 1826 0032 03F01003 		and	r3, r3, #16
 1827 0036 002B     		cmp	r3, #0
 1828 0038 02D0     		beq	.L125
1494:/home/virusv/usart/Libraries/src/stm32f10x_flash.c ****       {
1495:/home/virusv/usart/Libraries/src/stm32f10x_flash.c ****         flashstatus = FLASH_ERROR_WRP;
 1829              		.loc 1 1495 0
 1830 003a 0323     		movs	r3, #3
 1831 003c FB71     		strb	r3, [r7, #7]
 1832 003e 01E0     		b	.L123
 1833              	.L125:
1496:/home/virusv/usart/Libraries/src/stm32f10x_flash.c ****       }
1497:/home/virusv/usart/Libraries/src/stm32f10x_flash.c ****       else
1498:/home/virusv/usart/Libraries/src/stm32f10x_flash.c ****       {
1499:/home/virusv/usart/Libraries/src/stm32f10x_flash.c ****         flashstatus = FLASH_COMPLETE;
 1834              		.loc 1 1499 0
 1835 0040 0423     		movs	r3, #4
 1836 0042 FB71     		strb	r3, [r7, #7]
 1837              	.L123:
1500:/home/virusv/usart/Libraries/src/stm32f10x_flash.c ****       }
1501:/home/virusv/usart/Libraries/src/stm32f10x_flash.c ****     }
1502:/home/virusv/usart/Libraries/src/stm32f10x_flash.c ****   }
1503:/home/virusv/usart/Libraries/src/stm32f10x_flash.c ****   /* Return the Flash Status */
1504:/home/virusv/usart/Libraries/src/stm32f10x_flash.c ****   return flashstatus;
 1838              		.loc 1 1504 0
 1839 0044 FB79     		ldrb	r3, [r7, #7]	@ zero_extendqisi2
1505:/home/virusv/usart/Libraries/src/stm32f10x_flash.c **** }
 1840              		.loc 1 1505 0
 1841 0046 1846     		mov	r0, r3
 1842 0048 0C37     		adds	r7, r7, #12
 1843              		.cfi_def_cfa_offset 4
 1844 004a BD46     		mov	sp, r7
 1845              		.cfi_def_cfa_register 13
 1846              		@ sp needed
 1847 004c 5DF8047B 		ldr	r7, [sp], #4
 1848              		.cfi_restore 7
 1849              		.cfi_def_cfa_offset 0
 1850 0050 7047     		bx	lr
 1851              	.L128:
 1852 0052 00BF     		.align	2
 1853              	.L127:
 1854 0054 00200240 		.word	1073881088
 1855              		.cfi_endproc
 1856              	.LFE53:
 1858              		.section	.text.FLASH_GetBank1Status,"ax",%progbits
 1859              		.align	2
 1860              		.global	FLASH_GetBank1Status
 1861              		.thumb
 1862              		.thumb_func
 1864              	FLASH_GetBank1Status:
 1865              	.LFB54:
1506:/home/virusv/usart/Libraries/src/stm32f10x_flash.c **** 
1507:/home/virusv/usart/Libraries/src/stm32f10x_flash.c **** /**
1508:/home/virusv/usart/Libraries/src/stm32f10x_flash.c ****   * @brief  Returns the FLASH Bank1 Status.
1509:/home/virusv/usart/Libraries/src/stm32f10x_flash.c ****   * @note   This function can be used for all STM32F10x devices, it is equivalent
1510:/home/virusv/usart/Libraries/src/stm32f10x_flash.c ****   *         to FLASH_GetStatus function.
1511:/home/virusv/usart/Libraries/src/stm32f10x_flash.c ****   * @param  None
1512:/home/virusv/usart/Libraries/src/stm32f10x_flash.c ****   * @retval FLASH Status: The returned value can be: FLASH_BUSY, FLASH_ERROR_PG,
1513:/home/virusv/usart/Libraries/src/stm32f10x_flash.c ****   *         FLASH_ERROR_WRP or FLASH_COMPLETE
1514:/home/virusv/usart/Libraries/src/stm32f10x_flash.c ****   */
1515:/home/virusv/usart/Libraries/src/stm32f10x_flash.c **** FLASH_Status FLASH_GetBank1Status(void)
1516:/home/virusv/usart/Libraries/src/stm32f10x_flash.c **** {
 1866              		.loc 1 1516 0
 1867              		.cfi_startproc
 1868              		@ args = 0, pretend = 0, frame = 8
 1869              		@ frame_needed = 1, uses_anonymous_args = 0
 1870              		@ link register save eliminated.
 1871 0000 80B4     		push	{r7}
 1872              		.cfi_def_cfa_offset 4
 1873              		.cfi_offset 7, -4
 1874 0002 83B0     		sub	sp, sp, #12
 1875              		.cfi_def_cfa_offset 16
 1876 0004 00AF     		add	r7, sp, #0
 1877              		.cfi_def_cfa_register 7
1517:/home/virusv/usart/Libraries/src/stm32f10x_flash.c ****   FLASH_Status flashstatus = FLASH_COMPLETE;
 1878              		.loc 1 1517 0
 1879 0006 0423     		movs	r3, #4
 1880 0008 FB71     		strb	r3, [r7, #7]
1518:/home/virusv/usart/Libraries/src/stm32f10x_flash.c ****   
1519:/home/virusv/usart/Libraries/src/stm32f10x_flash.c ****   if((FLASH->SR & FLASH_FLAG_BANK1_BSY) == FLASH_FLAG_BSY) 
 1881              		.loc 1 1519 0
 1882 000a 124B     		ldr	r3, .L135
 1883 000c DB68     		ldr	r3, [r3, #12]
 1884 000e 03F00103 		and	r3, r3, #1
 1885 0012 002B     		cmp	r3, #0
 1886 0014 02D0     		beq	.L130
1520:/home/virusv/usart/Libraries/src/stm32f10x_flash.c ****   {
1521:/home/virusv/usart/Libraries/src/stm32f10x_flash.c ****     flashstatus = FLASH_BUSY;
 1887              		.loc 1 1521 0
 1888 0016 0123     		movs	r3, #1
 1889 0018 FB71     		strb	r3, [r7, #7]
 1890 001a 13E0     		b	.L131
 1891              	.L130:
1522:/home/virusv/usart/Libraries/src/stm32f10x_flash.c ****   }
1523:/home/virusv/usart/Libraries/src/stm32f10x_flash.c ****   else 
1524:/home/virusv/usart/Libraries/src/stm32f10x_flash.c ****   {  
1525:/home/virusv/usart/Libraries/src/stm32f10x_flash.c ****     if((FLASH->SR & FLASH_FLAG_BANK1_PGERR) != 0)
 1892              		.loc 1 1525 0
 1893 001c 0D4B     		ldr	r3, .L135
 1894 001e DB68     		ldr	r3, [r3, #12]
 1895 0020 03F00403 		and	r3, r3, #4
 1896 0024 002B     		cmp	r3, #0
 1897 0026 02D0     		beq	.L132
1526:/home/virusv/usart/Libraries/src/stm32f10x_flash.c ****     { 
1527:/home/virusv/usart/Libraries/src/stm32f10x_flash.c ****       flashstatus = FLASH_ERROR_PG;
 1898              		.loc 1 1527 0
 1899 0028 0223     		movs	r3, #2
 1900 002a FB71     		strb	r3, [r7, #7]
 1901 002c 0AE0     		b	.L131
 1902              	.L132:
1528:/home/virusv/usart/Libraries/src/stm32f10x_flash.c ****     }
1529:/home/virusv/usart/Libraries/src/stm32f10x_flash.c ****     else 
1530:/home/virusv/usart/Libraries/src/stm32f10x_flash.c ****     {
1531:/home/virusv/usart/Libraries/src/stm32f10x_flash.c ****       if((FLASH->SR & FLASH_FLAG_BANK1_WRPRTERR) != 0 )
 1903              		.loc 1 1531 0
 1904 002e 094B     		ldr	r3, .L135
 1905 0030 DB68     		ldr	r3, [r3, #12]
 1906 0032 03F01003 		and	r3, r3, #16
 1907 0036 002B     		cmp	r3, #0
 1908 0038 02D0     		beq	.L133
1532:/home/virusv/usart/Libraries/src/stm32f10x_flash.c ****       {
1533:/home/virusv/usart/Libraries/src/stm32f10x_flash.c ****         flashstatus = FLASH_ERROR_WRP;
 1909              		.loc 1 1533 0
 1910 003a 0323     		movs	r3, #3
 1911 003c FB71     		strb	r3, [r7, #7]
 1912 003e 01E0     		b	.L131
 1913              	.L133:
1534:/home/virusv/usart/Libraries/src/stm32f10x_flash.c ****       }
1535:/home/virusv/usart/Libraries/src/stm32f10x_flash.c ****       else
1536:/home/virusv/usart/Libraries/src/stm32f10x_flash.c ****       {
1537:/home/virusv/usart/Libraries/src/stm32f10x_flash.c ****         flashstatus = FLASH_COMPLETE;
 1914              		.loc 1 1537 0
 1915 0040 0423     		movs	r3, #4
 1916 0042 FB71     		strb	r3, [r7, #7]
 1917              	.L131:
1538:/home/virusv/usart/Libraries/src/stm32f10x_flash.c ****       }
1539:/home/virusv/usart/Libraries/src/stm32f10x_flash.c ****     }
1540:/home/virusv/usart/Libraries/src/stm32f10x_flash.c ****   }
1541:/home/virusv/usart/Libraries/src/stm32f10x_flash.c ****   /* Return the Flash Status */
1542:/home/virusv/usart/Libraries/src/stm32f10x_flash.c ****   return flashstatus;
 1918              		.loc 1 1542 0
 1919 0044 FB79     		ldrb	r3, [r7, #7]	@ zero_extendqisi2
1543:/home/virusv/usart/Libraries/src/stm32f10x_flash.c **** }
 1920              		.loc 1 1543 0
 1921 0046 1846     		mov	r0, r3
 1922 0048 0C37     		adds	r7, r7, #12
 1923              		.cfi_def_cfa_offset 4
 1924 004a BD46     		mov	sp, r7
 1925              		.cfi_def_cfa_register 13
 1926              		@ sp needed
 1927 004c 5DF8047B 		ldr	r7, [sp], #4
 1928              		.cfi_restore 7
 1929              		.cfi_def_cfa_offset 0
 1930 0050 7047     		bx	lr
 1931              	.L136:
 1932 0052 00BF     		.align	2
 1933              	.L135:
 1934 0054 00200240 		.word	1073881088
 1935              		.cfi_endproc
 1936              	.LFE54:
 1938              		.section	.text.FLASH_WaitForLastOperation,"ax",%progbits
 1939              		.align	2
 1940              		.global	FLASH_WaitForLastOperation
 1941              		.thumb
 1942              		.thumb_func
 1944              	FLASH_WaitForLastOperation:
 1945              	.LFB55:
1544:/home/virusv/usart/Libraries/src/stm32f10x_flash.c **** 
1545:/home/virusv/usart/Libraries/src/stm32f10x_flash.c **** #ifdef STM32F10X_XL
1546:/home/virusv/usart/Libraries/src/stm32f10x_flash.c **** /**
1547:/home/virusv/usart/Libraries/src/stm32f10x_flash.c ****   * @brief  Returns the FLASH Bank2 Status.
1548:/home/virusv/usart/Libraries/src/stm32f10x_flash.c ****   * @note   This function can be used for STM32F10x_XL density devices.
1549:/home/virusv/usart/Libraries/src/stm32f10x_flash.c ****   * @param  None
1550:/home/virusv/usart/Libraries/src/stm32f10x_flash.c ****   * @retval FLASH Status: The returned value can be: FLASH_BUSY, FLASH_ERROR_PG,
1551:/home/virusv/usart/Libraries/src/stm32f10x_flash.c ****   *        FLASH_ERROR_WRP or FLASH_COMPLETE
1552:/home/virusv/usart/Libraries/src/stm32f10x_flash.c ****   */
1553:/home/virusv/usart/Libraries/src/stm32f10x_flash.c **** FLASH_Status FLASH_GetBank2Status(void)
1554:/home/virusv/usart/Libraries/src/stm32f10x_flash.c **** {
1555:/home/virusv/usart/Libraries/src/stm32f10x_flash.c ****   FLASH_Status flashstatus = FLASH_COMPLETE;
1556:/home/virusv/usart/Libraries/src/stm32f10x_flash.c ****   
1557:/home/virusv/usart/Libraries/src/stm32f10x_flash.c ****   if((FLASH->SR2 & (FLASH_FLAG_BANK2_BSY & 0x7FFFFFFF)) == (FLASH_FLAG_BANK2_BSY & 0x7FFFFFFF)) 
1558:/home/virusv/usart/Libraries/src/stm32f10x_flash.c ****   {
1559:/home/virusv/usart/Libraries/src/stm32f10x_flash.c ****     flashstatus = FLASH_BUSY;
1560:/home/virusv/usart/Libraries/src/stm32f10x_flash.c ****   }
1561:/home/virusv/usart/Libraries/src/stm32f10x_flash.c ****   else 
1562:/home/virusv/usart/Libraries/src/stm32f10x_flash.c ****   {  
1563:/home/virusv/usart/Libraries/src/stm32f10x_flash.c ****     if((FLASH->SR2 & (FLASH_FLAG_BANK2_PGERR & 0x7FFFFFFF)) != 0)
1564:/home/virusv/usart/Libraries/src/stm32f10x_flash.c ****     { 
1565:/home/virusv/usart/Libraries/src/stm32f10x_flash.c ****       flashstatus = FLASH_ERROR_PG;
1566:/home/virusv/usart/Libraries/src/stm32f10x_flash.c ****     }
1567:/home/virusv/usart/Libraries/src/stm32f10x_flash.c ****     else 
1568:/home/virusv/usart/Libraries/src/stm32f10x_flash.c ****     {
1569:/home/virusv/usart/Libraries/src/stm32f10x_flash.c ****       if((FLASH->SR2 & (FLASH_FLAG_BANK2_WRPRTERR & 0x7FFFFFFF)) != 0 )
1570:/home/virusv/usart/Libraries/src/stm32f10x_flash.c ****       {
1571:/home/virusv/usart/Libraries/src/stm32f10x_flash.c ****         flashstatus = FLASH_ERROR_WRP;
1572:/home/virusv/usart/Libraries/src/stm32f10x_flash.c ****       }
1573:/home/virusv/usart/Libraries/src/stm32f10x_flash.c ****       else
1574:/home/virusv/usart/Libraries/src/stm32f10x_flash.c ****       {
1575:/home/virusv/usart/Libraries/src/stm32f10x_flash.c ****         flashstatus = FLASH_COMPLETE;
1576:/home/virusv/usart/Libraries/src/stm32f10x_flash.c ****       }
1577:/home/virusv/usart/Libraries/src/stm32f10x_flash.c ****     }
1578:/home/virusv/usart/Libraries/src/stm32f10x_flash.c ****   }
1579:/home/virusv/usart/Libraries/src/stm32f10x_flash.c ****   /* Return the Flash Status */
1580:/home/virusv/usart/Libraries/src/stm32f10x_flash.c ****   return flashstatus;
1581:/home/virusv/usart/Libraries/src/stm32f10x_flash.c **** }
1582:/home/virusv/usart/Libraries/src/stm32f10x_flash.c **** #endif /* STM32F10X_XL */
1583:/home/virusv/usart/Libraries/src/stm32f10x_flash.c **** /**
1584:/home/virusv/usart/Libraries/src/stm32f10x_flash.c ****   * @brief  Waits for a Flash operation to complete or a TIMEOUT to occur.
1585:/home/virusv/usart/Libraries/src/stm32f10x_flash.c ****   * @note   This function can be used for all STM32F10x devices, 
1586:/home/virusv/usart/Libraries/src/stm32f10x_flash.c ****   *         it is equivalent to FLASH_WaitForLastBank1Operation.
1587:/home/virusv/usart/Libraries/src/stm32f10x_flash.c ****   *         - For STM32F10X_XL devices this function waits for a Bank1 Flash operation
1588:/home/virusv/usart/Libraries/src/stm32f10x_flash.c ****   *           to complete or a TIMEOUT to occur.
1589:/home/virusv/usart/Libraries/src/stm32f10x_flash.c ****   *         - For all other devices it waits for a Flash operation to complete 
1590:/home/virusv/usart/Libraries/src/stm32f10x_flash.c ****   *           or a TIMEOUT to occur.
1591:/home/virusv/usart/Libraries/src/stm32f10x_flash.c ****   * @param  Timeout: FLASH programming Timeout
1592:/home/virusv/usart/Libraries/src/stm32f10x_flash.c ****   * @retval FLASH Status: The returned value can be: FLASH_ERROR_PG,
1593:/home/virusv/usart/Libraries/src/stm32f10x_flash.c ****   *         FLASH_ERROR_WRP, FLASH_COMPLETE or FLASH_TIMEOUT.
1594:/home/virusv/usart/Libraries/src/stm32f10x_flash.c ****   */
1595:/home/virusv/usart/Libraries/src/stm32f10x_flash.c **** FLASH_Status FLASH_WaitForLastOperation(uint32_t Timeout)
1596:/home/virusv/usart/Libraries/src/stm32f10x_flash.c **** { 
 1946              		.loc 1 1596 0
 1947              		.cfi_startproc
 1948              		@ args = 0, pretend = 0, frame = 16
 1949              		@ frame_needed = 1, uses_anonymous_args = 0
 1950 0000 80B5     		push	{r7, lr}
 1951              		.cfi_def_cfa_offset 8
 1952              		.cfi_offset 7, -8
 1953              		.cfi_offset 14, -4
 1954 0002 84B0     		sub	sp, sp, #16
 1955              		.cfi_def_cfa_offset 24
 1956 0004 00AF     		add	r7, sp, #0
 1957              		.cfi_def_cfa_register 7
 1958 0006 7860     		str	r0, [r7, #4]
1597:/home/virusv/usart/Libraries/src/stm32f10x_flash.c ****   FLASH_Status status = FLASH_COMPLETE;
 1959              		.loc 1 1597 0
 1960 0008 0423     		movs	r3, #4
 1961 000a FB73     		strb	r3, [r7, #15]
1598:/home/virusv/usart/Libraries/src/stm32f10x_flash.c ****    
1599:/home/virusv/usart/Libraries/src/stm32f10x_flash.c ****   /* Check for the Flash Status */
1600:/home/virusv/usart/Libraries/src/stm32f10x_flash.c ****   status = FLASH_GetBank1Status();
 1962              		.loc 1 1600 0
 1963 000c FFF7FEFF 		bl	FLASH_GetBank1Status
 1964 0010 0346     		mov	r3, r0
 1965 0012 FB73     		strb	r3, [r7, #15]
1601:/home/virusv/usart/Libraries/src/stm32f10x_flash.c ****   /* Wait for a Flash operation to complete or a TIMEOUT to occur */
1602:/home/virusv/usart/Libraries/src/stm32f10x_flash.c ****   while((status == FLASH_BUSY) && (Timeout != 0x00))
 1966              		.loc 1 1602 0
 1967 0014 06E0     		b	.L138
 1968              	.L140:
1603:/home/virusv/usart/Libraries/src/stm32f10x_flash.c ****   {
1604:/home/virusv/usart/Libraries/src/stm32f10x_flash.c ****     status = FLASH_GetBank1Status();
 1969              		.loc 1 1604 0
 1970 0016 FFF7FEFF 		bl	FLASH_GetBank1Status
 1971 001a 0346     		mov	r3, r0
 1972 001c FB73     		strb	r3, [r7, #15]
1605:/home/virusv/usart/Libraries/src/stm32f10x_flash.c ****     Timeout--;
 1973              		.loc 1 1605 0
 1974 001e 7B68     		ldr	r3, [r7, #4]
 1975 0020 013B     		subs	r3, r3, #1
 1976 0022 7B60     		str	r3, [r7, #4]
 1977              	.L138:
1602:/home/virusv/usart/Libraries/src/stm32f10x_flash.c ****   {
 1978              		.loc 1 1602 0
 1979 0024 FB7B     		ldrb	r3, [r7, #15]	@ zero_extendqisi2
 1980 0026 012B     		cmp	r3, #1
 1981 0028 02D1     		bne	.L139
1602:/home/virusv/usart/Libraries/src/stm32f10x_flash.c ****   {
 1982              		.loc 1 1602 0 is_stmt 0 discriminator 1
 1983 002a 7B68     		ldr	r3, [r7, #4]
 1984 002c 002B     		cmp	r3, #0
 1985 002e F2D1     		bne	.L140
 1986              	.L139:
1606:/home/virusv/usart/Libraries/src/stm32f10x_flash.c ****   }
1607:/home/virusv/usart/Libraries/src/stm32f10x_flash.c ****   if(Timeout == 0x00 )
 1987              		.loc 1 1607 0 is_stmt 1
 1988 0030 7B68     		ldr	r3, [r7, #4]
 1989 0032 002B     		cmp	r3, #0
 1990 0034 01D1     		bne	.L141
1608:/home/virusv/usart/Libraries/src/stm32f10x_flash.c ****   {
1609:/home/virusv/usart/Libraries/src/stm32f10x_flash.c ****     status = FLASH_TIMEOUT;
 1991              		.loc 1 1609 0
 1992 0036 0523     		movs	r3, #5
 1993 0038 FB73     		strb	r3, [r7, #15]
 1994              	.L141:
1610:/home/virusv/usart/Libraries/src/stm32f10x_flash.c ****   }
1611:/home/virusv/usart/Libraries/src/stm32f10x_flash.c ****   /* Return the operation status */
1612:/home/virusv/usart/Libraries/src/stm32f10x_flash.c ****   return status;
 1995              		.loc 1 1612 0
 1996 003a FB7B     		ldrb	r3, [r7, #15]	@ zero_extendqisi2
1613:/home/virusv/usart/Libraries/src/stm32f10x_flash.c **** }
 1997              		.loc 1 1613 0
 1998 003c 1846     		mov	r0, r3
 1999 003e 1037     		adds	r7, r7, #16
 2000              		.cfi_def_cfa_offset 8
 2001 0040 BD46     		mov	sp, r7
 2002              		.cfi_def_cfa_register 13
 2003              		@ sp needed
 2004 0042 80BD     		pop	{r7, pc}
 2005              		.cfi_endproc
 2006              	.LFE55:
 2008              		.section	.text.FLASH_WaitForLastBank1Operation,"ax",%progbits
 2009              		.align	2
 2010              		.global	FLASH_WaitForLastBank1Operation
 2011              		.thumb
 2012              		.thumb_func
 2014              	FLASH_WaitForLastBank1Operation:
 2015              	.LFB56:
1614:/home/virusv/usart/Libraries/src/stm32f10x_flash.c **** 
1615:/home/virusv/usart/Libraries/src/stm32f10x_flash.c **** /**
1616:/home/virusv/usart/Libraries/src/stm32f10x_flash.c ****   * @brief  Waits for a Flash operation on Bank1 to complete or a TIMEOUT to occur.
1617:/home/virusv/usart/Libraries/src/stm32f10x_flash.c ****   * @note   This function can be used for all STM32F10x devices, 
1618:/home/virusv/usart/Libraries/src/stm32f10x_flash.c ****   *         it is equivalent to FLASH_WaitForLastOperation.
1619:/home/virusv/usart/Libraries/src/stm32f10x_flash.c ****   * @param  Timeout: FLASH programming Timeout
1620:/home/virusv/usart/Libraries/src/stm32f10x_flash.c ****   * @retval FLASH Status: The returned value can be: FLASH_ERROR_PG,
1621:/home/virusv/usart/Libraries/src/stm32f10x_flash.c ****   *         FLASH_ERROR_WRP, FLASH_COMPLETE or FLASH_TIMEOUT.
1622:/home/virusv/usart/Libraries/src/stm32f10x_flash.c ****   */
1623:/home/virusv/usart/Libraries/src/stm32f10x_flash.c **** FLASH_Status FLASH_WaitForLastBank1Operation(uint32_t Timeout)
1624:/home/virusv/usart/Libraries/src/stm32f10x_flash.c **** { 
 2016              		.loc 1 1624 0
 2017              		.cfi_startproc
 2018              		@ args = 0, pretend = 0, frame = 16
 2019              		@ frame_needed = 1, uses_anonymous_args = 0
 2020 0000 80B5     		push	{r7, lr}
 2021              		.cfi_def_cfa_offset 8
 2022              		.cfi_offset 7, -8
 2023              		.cfi_offset 14, -4
 2024 0002 84B0     		sub	sp, sp, #16
 2025              		.cfi_def_cfa_offset 24
 2026 0004 00AF     		add	r7, sp, #0
 2027              		.cfi_def_cfa_register 7
 2028 0006 7860     		str	r0, [r7, #4]
1625:/home/virusv/usart/Libraries/src/stm32f10x_flash.c ****   FLASH_Status status = FLASH_COMPLETE;
 2029              		.loc 1 1625 0
 2030 0008 0423     		movs	r3, #4
 2031 000a FB73     		strb	r3, [r7, #15]
1626:/home/virusv/usart/Libraries/src/stm32f10x_flash.c ****    
1627:/home/virusv/usart/Libraries/src/stm32f10x_flash.c ****   /* Check for the Flash Status */
1628:/home/virusv/usart/Libraries/src/stm32f10x_flash.c ****   status = FLASH_GetBank1Status();
 2032              		.loc 1 1628 0
 2033 000c FFF7FEFF 		bl	FLASH_GetBank1Status
 2034 0010 0346     		mov	r3, r0
 2035 0012 FB73     		strb	r3, [r7, #15]
1629:/home/virusv/usart/Libraries/src/stm32f10x_flash.c ****   /* Wait for a Flash operation to complete or a TIMEOUT to occur */
1630:/home/virusv/usart/Libraries/src/stm32f10x_flash.c ****   while((status == FLASH_FLAG_BANK1_BSY) && (Timeout != 0x00))
 2036              		.loc 1 1630 0
 2037 0014 06E0     		b	.L144
 2038              	.L146:
1631:/home/virusv/usart/Libraries/src/stm32f10x_flash.c ****   {
1632:/home/virusv/usart/Libraries/src/stm32f10x_flash.c ****     status = FLASH_GetBank1Status();
 2039              		.loc 1 1632 0
 2040 0016 FFF7FEFF 		bl	FLASH_GetBank1Status
 2041 001a 0346     		mov	r3, r0
 2042 001c FB73     		strb	r3, [r7, #15]
1633:/home/virusv/usart/Libraries/src/stm32f10x_flash.c ****     Timeout--;
 2043              		.loc 1 1633 0
 2044 001e 7B68     		ldr	r3, [r7, #4]
 2045 0020 013B     		subs	r3, r3, #1
 2046 0022 7B60     		str	r3, [r7, #4]
 2047              	.L144:
1630:/home/virusv/usart/Libraries/src/stm32f10x_flash.c ****   {
 2048              		.loc 1 1630 0
 2049 0024 FB7B     		ldrb	r3, [r7, #15]	@ zero_extendqisi2
 2050 0026 012B     		cmp	r3, #1
 2051 0028 02D1     		bne	.L145
1630:/home/virusv/usart/Libraries/src/stm32f10x_flash.c ****   {
 2052              		.loc 1 1630 0 is_stmt 0 discriminator 1
 2053 002a 7B68     		ldr	r3, [r7, #4]
 2054 002c 002B     		cmp	r3, #0
 2055 002e F2D1     		bne	.L146
 2056              	.L145:
1634:/home/virusv/usart/Libraries/src/stm32f10x_flash.c ****   }
1635:/home/virusv/usart/Libraries/src/stm32f10x_flash.c ****   if(Timeout == 0x00 )
 2057              		.loc 1 1635 0 is_stmt 1
 2058 0030 7B68     		ldr	r3, [r7, #4]
 2059 0032 002B     		cmp	r3, #0
 2060 0034 01D1     		bne	.L147
1636:/home/virusv/usart/Libraries/src/stm32f10x_flash.c ****   {
1637:/home/virusv/usart/Libraries/src/stm32f10x_flash.c ****     status = FLASH_TIMEOUT;
 2061              		.loc 1 1637 0
 2062 0036 0523     		movs	r3, #5
 2063 0038 FB73     		strb	r3, [r7, #15]
 2064              	.L147:
1638:/home/virusv/usart/Libraries/src/stm32f10x_flash.c ****   }
1639:/home/virusv/usart/Libraries/src/stm32f10x_flash.c ****   /* Return the operation status */
1640:/home/virusv/usart/Libraries/src/stm32f10x_flash.c ****   return status;
 2065              		.loc 1 1640 0
 2066 003a FB7B     		ldrb	r3, [r7, #15]	@ zero_extendqisi2
1641:/home/virusv/usart/Libraries/src/stm32f10x_flash.c **** }
 2067              		.loc 1 1641 0
 2068 003c 1846     		mov	r0, r3
 2069 003e 1037     		adds	r7, r7, #16
 2070              		.cfi_def_cfa_offset 8
 2071 0040 BD46     		mov	sp, r7
 2072              		.cfi_def_cfa_register 13
 2073              		@ sp needed
 2074 0042 80BD     		pop	{r7, pc}
 2075              		.cfi_endproc
 2076              	.LFE56:
 2078              		.text
 2079              	.Letext0:
 2080              		.file 2 "/usr/include/newlib/machine/_default_types.h"
 2081              		.file 3 "/usr/include/newlib/sys/_stdint.h"
 2082              		.file 4 "/home/virusv/usart/CMSIS/CM3/DeviceSupport/ST/STM32F10x/stm32f10x.h"
 2083              		.file 5 "/home/virusv/usart/Libraries/inc/stm32f10x_flash.h"
 2084              		.file 6 "/home/virusv/usart/CMSIS/CM3/CoreSupport/core_cm3.h"