   1              		.syntax unified
   2              		.cpu cortex-m3
   3              		.fpu softvfp
   4              		.eabi_attribute 20, 1
   5              		.eabi_attribute 21, 1
   6              		.eabi_attribute 23, 3
   7              		.eabi_attribute 24, 1
   8              		.eabi_attribute 25, 1
   9              		.eabi_attribute 26, 1
  10              		.eabi_attribute 30, 6
  11              		.eabi_attribute 34, 1
  12              		.eabi_attribute 18, 4
  13              		.thumb
  14              		.file	"stm32f10x_tim.c"
  15              		.text
  16              	.Ltext0:
  17              		.cfi_sections	.debug_frame
  18              		.section	.text.TIM_DeInit,"ax",%progbits
  19              		.align	2
  20              		.global	TIM_DeInit
  21              		.thumb
  22              		.thumb_func
  24              	TIM_DeInit:
  25              	.LFB29:
  26              		.file 1 "/home/virusv/TDSAST_IOT/Libraries/src/stm32f10x_tim.c"
   1:/home/virusv/TDSAST_IOT/Libraries/src/stm32f10x_tim.c **** /**
   2:/home/virusv/TDSAST_IOT/Libraries/src/stm32f10x_tim.c ****   ******************************************************************************
   3:/home/virusv/TDSAST_IOT/Libraries/src/stm32f10x_tim.c ****   * @file    stm32f10x_tim.c
   4:/home/virusv/TDSAST_IOT/Libraries/src/stm32f10x_tim.c ****   * @author  MCD Application Team
   5:/home/virusv/TDSAST_IOT/Libraries/src/stm32f10x_tim.c ****   * @version V3.5.0
   6:/home/virusv/TDSAST_IOT/Libraries/src/stm32f10x_tim.c ****   * @date    11-March-2011
   7:/home/virusv/TDSAST_IOT/Libraries/src/stm32f10x_tim.c ****   * @brief   This file provides all the TIM firmware functions.
   8:/home/virusv/TDSAST_IOT/Libraries/src/stm32f10x_tim.c ****   ******************************************************************************
   9:/home/virusv/TDSAST_IOT/Libraries/src/stm32f10x_tim.c ****   * @attention
  10:/home/virusv/TDSAST_IOT/Libraries/src/stm32f10x_tim.c ****   *
  11:/home/virusv/TDSAST_IOT/Libraries/src/stm32f10x_tim.c ****   * THE PRESENT FIRMWARE WHICH IS FOR GUIDANCE ONLY AIMS AT PROVIDING CUSTOMERS
  12:/home/virusv/TDSAST_IOT/Libraries/src/stm32f10x_tim.c ****   * WITH CODING INFORMATION REGARDING THEIR PRODUCTS IN ORDER FOR THEM TO SAVE
  13:/home/virusv/TDSAST_IOT/Libraries/src/stm32f10x_tim.c ****   * TIME. AS A RESULT, STMICROELECTRONICS SHALL NOT BE HELD LIABLE FOR ANY
  14:/home/virusv/TDSAST_IOT/Libraries/src/stm32f10x_tim.c ****   * DIRECT, INDIRECT OR CONSEQUENTIAL DAMAGES WITH RESPECT TO ANY CLAIMS ARISING
  15:/home/virusv/TDSAST_IOT/Libraries/src/stm32f10x_tim.c ****   * FROM THE CONTENT OF SUCH FIRMWARE AND/OR THE USE MADE BY CUSTOMERS OF THE
  16:/home/virusv/TDSAST_IOT/Libraries/src/stm32f10x_tim.c ****   * CODING INFORMATION CONTAINED HEREIN IN CONNECTION WITH THEIR PRODUCTS.
  17:/home/virusv/TDSAST_IOT/Libraries/src/stm32f10x_tim.c ****   *
  18:/home/virusv/TDSAST_IOT/Libraries/src/stm32f10x_tim.c ****   * <h2><center>&copy; COPYRIGHT 2011 STMicroelectronics</center></h2>
  19:/home/virusv/TDSAST_IOT/Libraries/src/stm32f10x_tim.c ****   ******************************************************************************
  20:/home/virusv/TDSAST_IOT/Libraries/src/stm32f10x_tim.c ****   */
  21:/home/virusv/TDSAST_IOT/Libraries/src/stm32f10x_tim.c **** 
  22:/home/virusv/TDSAST_IOT/Libraries/src/stm32f10x_tim.c **** /* Includes ------------------------------------------------------------------*/
  23:/home/virusv/TDSAST_IOT/Libraries/src/stm32f10x_tim.c **** #include "stm32f10x_tim.h"
  24:/home/virusv/TDSAST_IOT/Libraries/src/stm32f10x_tim.c **** #include "stm32f10x_rcc.h"
  25:/home/virusv/TDSAST_IOT/Libraries/src/stm32f10x_tim.c **** 
  26:/home/virusv/TDSAST_IOT/Libraries/src/stm32f10x_tim.c **** /** @addtogroup STM32F10x_StdPeriph_Driver
  27:/home/virusv/TDSAST_IOT/Libraries/src/stm32f10x_tim.c ****   * @{
  28:/home/virusv/TDSAST_IOT/Libraries/src/stm32f10x_tim.c ****   */
  29:/home/virusv/TDSAST_IOT/Libraries/src/stm32f10x_tim.c **** 
  30:/home/virusv/TDSAST_IOT/Libraries/src/stm32f10x_tim.c **** /** @defgroup TIM 
  31:/home/virusv/TDSAST_IOT/Libraries/src/stm32f10x_tim.c ****   * @brief TIM driver modules
  32:/home/virusv/TDSAST_IOT/Libraries/src/stm32f10x_tim.c ****   * @{
  33:/home/virusv/TDSAST_IOT/Libraries/src/stm32f10x_tim.c ****   */
  34:/home/virusv/TDSAST_IOT/Libraries/src/stm32f10x_tim.c **** 
  35:/home/virusv/TDSAST_IOT/Libraries/src/stm32f10x_tim.c **** /** @defgroup TIM_Private_TypesDefinitions
  36:/home/virusv/TDSAST_IOT/Libraries/src/stm32f10x_tim.c ****   * @{
  37:/home/virusv/TDSAST_IOT/Libraries/src/stm32f10x_tim.c ****   */
  38:/home/virusv/TDSAST_IOT/Libraries/src/stm32f10x_tim.c **** 
  39:/home/virusv/TDSAST_IOT/Libraries/src/stm32f10x_tim.c **** /**
  40:/home/virusv/TDSAST_IOT/Libraries/src/stm32f10x_tim.c ****   * @}
  41:/home/virusv/TDSAST_IOT/Libraries/src/stm32f10x_tim.c ****   */
  42:/home/virusv/TDSAST_IOT/Libraries/src/stm32f10x_tim.c **** 
  43:/home/virusv/TDSAST_IOT/Libraries/src/stm32f10x_tim.c **** /** @defgroup TIM_Private_Defines
  44:/home/virusv/TDSAST_IOT/Libraries/src/stm32f10x_tim.c ****   * @{
  45:/home/virusv/TDSAST_IOT/Libraries/src/stm32f10x_tim.c ****   */
  46:/home/virusv/TDSAST_IOT/Libraries/src/stm32f10x_tim.c **** 
  47:/home/virusv/TDSAST_IOT/Libraries/src/stm32f10x_tim.c **** /* ---------------------- TIM registers bit mask ------------------------ */
  48:/home/virusv/TDSAST_IOT/Libraries/src/stm32f10x_tim.c **** #define SMCR_ETR_Mask               ((uint16_t)0x00FF) 
  49:/home/virusv/TDSAST_IOT/Libraries/src/stm32f10x_tim.c **** #define CCMR_Offset                 ((uint16_t)0x0018)
  50:/home/virusv/TDSAST_IOT/Libraries/src/stm32f10x_tim.c **** #define CCER_CCE_Set                ((uint16_t)0x0001)  
  51:/home/virusv/TDSAST_IOT/Libraries/src/stm32f10x_tim.c **** #define	CCER_CCNE_Set               ((uint16_t)0x0004) 
  52:/home/virusv/TDSAST_IOT/Libraries/src/stm32f10x_tim.c **** 
  53:/home/virusv/TDSAST_IOT/Libraries/src/stm32f10x_tim.c **** /**
  54:/home/virusv/TDSAST_IOT/Libraries/src/stm32f10x_tim.c ****   * @}
  55:/home/virusv/TDSAST_IOT/Libraries/src/stm32f10x_tim.c ****   */
  56:/home/virusv/TDSAST_IOT/Libraries/src/stm32f10x_tim.c **** 
  57:/home/virusv/TDSAST_IOT/Libraries/src/stm32f10x_tim.c **** /** @defgroup TIM_Private_Macros
  58:/home/virusv/TDSAST_IOT/Libraries/src/stm32f10x_tim.c ****   * @{
  59:/home/virusv/TDSAST_IOT/Libraries/src/stm32f10x_tim.c ****   */
  60:/home/virusv/TDSAST_IOT/Libraries/src/stm32f10x_tim.c **** 
  61:/home/virusv/TDSAST_IOT/Libraries/src/stm32f10x_tim.c **** /**
  62:/home/virusv/TDSAST_IOT/Libraries/src/stm32f10x_tim.c ****   * @}
  63:/home/virusv/TDSAST_IOT/Libraries/src/stm32f10x_tim.c ****   */
  64:/home/virusv/TDSAST_IOT/Libraries/src/stm32f10x_tim.c **** 
  65:/home/virusv/TDSAST_IOT/Libraries/src/stm32f10x_tim.c **** /** @defgroup TIM_Private_Variables
  66:/home/virusv/TDSAST_IOT/Libraries/src/stm32f10x_tim.c ****   * @{
  67:/home/virusv/TDSAST_IOT/Libraries/src/stm32f10x_tim.c ****   */
  68:/home/virusv/TDSAST_IOT/Libraries/src/stm32f10x_tim.c **** 
  69:/home/virusv/TDSAST_IOT/Libraries/src/stm32f10x_tim.c **** /**
  70:/home/virusv/TDSAST_IOT/Libraries/src/stm32f10x_tim.c ****   * @}
  71:/home/virusv/TDSAST_IOT/Libraries/src/stm32f10x_tim.c ****   */
  72:/home/virusv/TDSAST_IOT/Libraries/src/stm32f10x_tim.c **** 
  73:/home/virusv/TDSAST_IOT/Libraries/src/stm32f10x_tim.c **** /** @defgroup TIM_Private_FunctionPrototypes
  74:/home/virusv/TDSAST_IOT/Libraries/src/stm32f10x_tim.c ****   * @{
  75:/home/virusv/TDSAST_IOT/Libraries/src/stm32f10x_tim.c ****   */
  76:/home/virusv/TDSAST_IOT/Libraries/src/stm32f10x_tim.c **** 
  77:/home/virusv/TDSAST_IOT/Libraries/src/stm32f10x_tim.c **** static void TI1_Config(TIM_TypeDef* TIMx, uint16_t TIM_ICPolarity, uint16_t TIM_ICSelection,
  78:/home/virusv/TDSAST_IOT/Libraries/src/stm32f10x_tim.c ****                        uint16_t TIM_ICFilter);
  79:/home/virusv/TDSAST_IOT/Libraries/src/stm32f10x_tim.c **** static void TI2_Config(TIM_TypeDef* TIMx, uint16_t TIM_ICPolarity, uint16_t TIM_ICSelection,
  80:/home/virusv/TDSAST_IOT/Libraries/src/stm32f10x_tim.c ****                        uint16_t TIM_ICFilter);
  81:/home/virusv/TDSAST_IOT/Libraries/src/stm32f10x_tim.c **** static void TI3_Config(TIM_TypeDef* TIMx, uint16_t TIM_ICPolarity, uint16_t TIM_ICSelection,
  82:/home/virusv/TDSAST_IOT/Libraries/src/stm32f10x_tim.c ****                        uint16_t TIM_ICFilter);
  83:/home/virusv/TDSAST_IOT/Libraries/src/stm32f10x_tim.c **** static void TI4_Config(TIM_TypeDef* TIMx, uint16_t TIM_ICPolarity, uint16_t TIM_ICSelection,
  84:/home/virusv/TDSAST_IOT/Libraries/src/stm32f10x_tim.c ****                        uint16_t TIM_ICFilter);
  85:/home/virusv/TDSAST_IOT/Libraries/src/stm32f10x_tim.c **** /**
  86:/home/virusv/TDSAST_IOT/Libraries/src/stm32f10x_tim.c ****   * @}
  87:/home/virusv/TDSAST_IOT/Libraries/src/stm32f10x_tim.c ****   */
  88:/home/virusv/TDSAST_IOT/Libraries/src/stm32f10x_tim.c **** 
  89:/home/virusv/TDSAST_IOT/Libraries/src/stm32f10x_tim.c **** /** @defgroup TIM_Private_Macros
  90:/home/virusv/TDSAST_IOT/Libraries/src/stm32f10x_tim.c ****   * @{
  91:/home/virusv/TDSAST_IOT/Libraries/src/stm32f10x_tim.c ****   */
  92:/home/virusv/TDSAST_IOT/Libraries/src/stm32f10x_tim.c **** 
  93:/home/virusv/TDSAST_IOT/Libraries/src/stm32f10x_tim.c **** /**
  94:/home/virusv/TDSAST_IOT/Libraries/src/stm32f10x_tim.c ****   * @}
  95:/home/virusv/TDSAST_IOT/Libraries/src/stm32f10x_tim.c ****   */
  96:/home/virusv/TDSAST_IOT/Libraries/src/stm32f10x_tim.c **** 
  97:/home/virusv/TDSAST_IOT/Libraries/src/stm32f10x_tim.c **** /** @defgroup TIM_Private_Variables
  98:/home/virusv/TDSAST_IOT/Libraries/src/stm32f10x_tim.c ****   * @{
  99:/home/virusv/TDSAST_IOT/Libraries/src/stm32f10x_tim.c ****   */
 100:/home/virusv/TDSAST_IOT/Libraries/src/stm32f10x_tim.c **** 
 101:/home/virusv/TDSAST_IOT/Libraries/src/stm32f10x_tim.c **** /**
 102:/home/virusv/TDSAST_IOT/Libraries/src/stm32f10x_tim.c ****   * @}
 103:/home/virusv/TDSAST_IOT/Libraries/src/stm32f10x_tim.c ****   */
 104:/home/virusv/TDSAST_IOT/Libraries/src/stm32f10x_tim.c **** 
 105:/home/virusv/TDSAST_IOT/Libraries/src/stm32f10x_tim.c **** /** @defgroup TIM_Private_FunctionPrototypes
 106:/home/virusv/TDSAST_IOT/Libraries/src/stm32f10x_tim.c ****   * @{
 107:/home/virusv/TDSAST_IOT/Libraries/src/stm32f10x_tim.c ****   */
 108:/home/virusv/TDSAST_IOT/Libraries/src/stm32f10x_tim.c **** 
 109:/home/virusv/TDSAST_IOT/Libraries/src/stm32f10x_tim.c **** /**
 110:/home/virusv/TDSAST_IOT/Libraries/src/stm32f10x_tim.c ****   * @}
 111:/home/virusv/TDSAST_IOT/Libraries/src/stm32f10x_tim.c ****   */
 112:/home/virusv/TDSAST_IOT/Libraries/src/stm32f10x_tim.c **** 
 113:/home/virusv/TDSAST_IOT/Libraries/src/stm32f10x_tim.c **** /** @defgroup TIM_Private_Functions
 114:/home/virusv/TDSAST_IOT/Libraries/src/stm32f10x_tim.c ****   * @{
 115:/home/virusv/TDSAST_IOT/Libraries/src/stm32f10x_tim.c ****   */
 116:/home/virusv/TDSAST_IOT/Libraries/src/stm32f10x_tim.c **** 
 117:/home/virusv/TDSAST_IOT/Libraries/src/stm32f10x_tim.c **** /**
 118:/home/virusv/TDSAST_IOT/Libraries/src/stm32f10x_tim.c ****   * @brief  Deinitializes the TIMx peripheral registers to their default reset values.
 119:/home/virusv/TDSAST_IOT/Libraries/src/stm32f10x_tim.c ****   * @param  TIMx: where x can be 1 to 17 to select the TIM peripheral.
 120:/home/virusv/TDSAST_IOT/Libraries/src/stm32f10x_tim.c ****   * @retval None
 121:/home/virusv/TDSAST_IOT/Libraries/src/stm32f10x_tim.c ****   */
 122:/home/virusv/TDSAST_IOT/Libraries/src/stm32f10x_tim.c **** void TIM_DeInit(TIM_TypeDef* TIMx)
 123:/home/virusv/TDSAST_IOT/Libraries/src/stm32f10x_tim.c **** {
  27              		.loc 1 123 0
  28              		.cfi_startproc
  29              		@ args = 0, pretend = 0, frame = 8
  30              		@ frame_needed = 1, uses_anonymous_args = 0
  31 0000 80B5     		push	{r7, lr}
  32              		.cfi_def_cfa_offset 8
  33              		.cfi_offset 7, -8
  34              		.cfi_offset 14, -4
  35 0002 82B0     		sub	sp, sp, #8
  36              		.cfi_def_cfa_offset 16
  37 0004 00AF     		add	r7, sp, #0
  38              		.cfi_def_cfa_register 7
  39 0006 7860     		str	r0, [r7, #4]
 124:/home/virusv/TDSAST_IOT/Libraries/src/stm32f10x_tim.c ****   /* Check the parameters */
 125:/home/virusv/TDSAST_IOT/Libraries/src/stm32f10x_tim.c ****   assert_param(IS_TIM_ALL_PERIPH(TIMx)); 
 126:/home/virusv/TDSAST_IOT/Libraries/src/stm32f10x_tim.c ****  
 127:/home/virusv/TDSAST_IOT/Libraries/src/stm32f10x_tim.c ****   if (TIMx == TIM1)
  40              		.loc 1 127 0
  41 0008 7B68     		ldr	r3, [r7, #4]
  42 000a 784A     		ldr	r2, .L19
  43 000c 9342     		cmp	r3, r2
  44 000e 0AD1     		bne	.L2
 128:/home/virusv/TDSAST_IOT/Libraries/src/stm32f10x_tim.c ****   {
 129:/home/virusv/TDSAST_IOT/Libraries/src/stm32f10x_tim.c ****     RCC_APB2PeriphResetCmd(RCC_APB2Periph_TIM1, ENABLE);
  45              		.loc 1 129 0
  46 0010 4FF40060 		mov	r0, #2048
  47 0014 0121     		movs	r1, #1
  48 0016 FFF7FEFF 		bl	RCC_APB2PeriphResetCmd
 130:/home/virusv/TDSAST_IOT/Libraries/src/stm32f10x_tim.c ****     RCC_APB2PeriphResetCmd(RCC_APB2Periph_TIM1, DISABLE);  
  49              		.loc 1 130 0
  50 001a 4FF40060 		mov	r0, #2048
  51 001e 0021     		movs	r1, #0
  52 0020 FFF7FEFF 		bl	RCC_APB2PeriphResetCmd
  53 0024 DEE0     		b	.L1
  54              	.L2:
 131:/home/virusv/TDSAST_IOT/Libraries/src/stm32f10x_tim.c ****   }     
 132:/home/virusv/TDSAST_IOT/Libraries/src/stm32f10x_tim.c ****   else if (TIMx == TIM2)
  55              		.loc 1 132 0
  56 0026 7B68     		ldr	r3, [r7, #4]
  57 0028 B3F1804F 		cmp	r3, #1073741824
  58 002c 08D1     		bne	.L4
 133:/home/virusv/TDSAST_IOT/Libraries/src/stm32f10x_tim.c ****   {
 134:/home/virusv/TDSAST_IOT/Libraries/src/stm32f10x_tim.c ****     RCC_APB1PeriphResetCmd(RCC_APB1Periph_TIM2, ENABLE);
  59              		.loc 1 134 0
  60 002e 0120     		movs	r0, #1
  61 0030 0121     		movs	r1, #1
  62 0032 FFF7FEFF 		bl	RCC_APB1PeriphResetCmd
 135:/home/virusv/TDSAST_IOT/Libraries/src/stm32f10x_tim.c ****     RCC_APB1PeriphResetCmd(RCC_APB1Periph_TIM2, DISABLE);
  63              		.loc 1 135 0
  64 0036 0120     		movs	r0, #1
  65 0038 0021     		movs	r1, #0
  66 003a FFF7FEFF 		bl	RCC_APB1PeriphResetCmd
  67 003e D1E0     		b	.L1
  68              	.L4:
 136:/home/virusv/TDSAST_IOT/Libraries/src/stm32f10x_tim.c ****   }
 137:/home/virusv/TDSAST_IOT/Libraries/src/stm32f10x_tim.c ****   else if (TIMx == TIM3)
  69              		.loc 1 137 0
  70 0040 7B68     		ldr	r3, [r7, #4]
  71 0042 6B4A     		ldr	r2, .L19+4
  72 0044 9342     		cmp	r3, r2
  73 0046 08D1     		bne	.L5
 138:/home/virusv/TDSAST_IOT/Libraries/src/stm32f10x_tim.c ****   {
 139:/home/virusv/TDSAST_IOT/Libraries/src/stm32f10x_tim.c ****     RCC_APB1PeriphResetCmd(RCC_APB1Periph_TIM3, ENABLE);
  74              		.loc 1 139 0
  75 0048 0220     		movs	r0, #2
  76 004a 0121     		movs	r1, #1
  77 004c FFF7FEFF 		bl	RCC_APB1PeriphResetCmd
 140:/home/virusv/TDSAST_IOT/Libraries/src/stm32f10x_tim.c ****     RCC_APB1PeriphResetCmd(RCC_APB1Periph_TIM3, DISABLE);
  78              		.loc 1 140 0
  79 0050 0220     		movs	r0, #2
  80 0052 0021     		movs	r1, #0
  81 0054 FFF7FEFF 		bl	RCC_APB1PeriphResetCmd
  82 0058 C4E0     		b	.L1
  83              	.L5:
 141:/home/virusv/TDSAST_IOT/Libraries/src/stm32f10x_tim.c ****   }
 142:/home/virusv/TDSAST_IOT/Libraries/src/stm32f10x_tim.c ****   else if (TIMx == TIM4)
  84              		.loc 1 142 0
  85 005a 7B68     		ldr	r3, [r7, #4]
  86 005c 654A     		ldr	r2, .L19+8
  87 005e 9342     		cmp	r3, r2
  88 0060 08D1     		bne	.L6
 143:/home/virusv/TDSAST_IOT/Libraries/src/stm32f10x_tim.c ****   {
 144:/home/virusv/TDSAST_IOT/Libraries/src/stm32f10x_tim.c ****     RCC_APB1PeriphResetCmd(RCC_APB1Periph_TIM4, ENABLE);
  89              		.loc 1 144 0
  90 0062 0420     		movs	r0, #4
  91 0064 0121     		movs	r1, #1
  92 0066 FFF7FEFF 		bl	RCC_APB1PeriphResetCmd
 145:/home/virusv/TDSAST_IOT/Libraries/src/stm32f10x_tim.c ****     RCC_APB1PeriphResetCmd(RCC_APB1Periph_TIM4, DISABLE);
  93              		.loc 1 145 0
  94 006a 0420     		movs	r0, #4
  95 006c 0021     		movs	r1, #0
  96 006e FFF7FEFF 		bl	RCC_APB1PeriphResetCmd
  97 0072 B7E0     		b	.L1
  98              	.L6:
 146:/home/virusv/TDSAST_IOT/Libraries/src/stm32f10x_tim.c ****   } 
 147:/home/virusv/TDSAST_IOT/Libraries/src/stm32f10x_tim.c ****   else if (TIMx == TIM5)
  99              		.loc 1 147 0
 100 0074 7B68     		ldr	r3, [r7, #4]
 101 0076 604A     		ldr	r2, .L19+12
 102 0078 9342     		cmp	r3, r2
 103 007a 08D1     		bne	.L7
 148:/home/virusv/TDSAST_IOT/Libraries/src/stm32f10x_tim.c ****   {
 149:/home/virusv/TDSAST_IOT/Libraries/src/stm32f10x_tim.c ****     RCC_APB1PeriphResetCmd(RCC_APB1Periph_TIM5, ENABLE);
 104              		.loc 1 149 0
 105 007c 0820     		movs	r0, #8
 106 007e 0121     		movs	r1, #1
 107 0080 FFF7FEFF 		bl	RCC_APB1PeriphResetCmd
 150:/home/virusv/TDSAST_IOT/Libraries/src/stm32f10x_tim.c ****     RCC_APB1PeriphResetCmd(RCC_APB1Periph_TIM5, DISABLE);
 108              		.loc 1 150 0
 109 0084 0820     		movs	r0, #8
 110 0086 0021     		movs	r1, #0
 111 0088 FFF7FEFF 		bl	RCC_APB1PeriphResetCmd
 112 008c AAE0     		b	.L1
 113              	.L7:
 151:/home/virusv/TDSAST_IOT/Libraries/src/stm32f10x_tim.c ****   } 
 152:/home/virusv/TDSAST_IOT/Libraries/src/stm32f10x_tim.c ****   else if (TIMx == TIM6)
 114              		.loc 1 152 0
 115 008e 7B68     		ldr	r3, [r7, #4]
 116 0090 5A4A     		ldr	r2, .L19+16
 117 0092 9342     		cmp	r3, r2
 118 0094 08D1     		bne	.L8
 153:/home/virusv/TDSAST_IOT/Libraries/src/stm32f10x_tim.c ****   {
 154:/home/virusv/TDSAST_IOT/Libraries/src/stm32f10x_tim.c ****     RCC_APB1PeriphResetCmd(RCC_APB1Periph_TIM6, ENABLE);
 119              		.loc 1 154 0
 120 0096 1020     		movs	r0, #16
 121 0098 0121     		movs	r1, #1
 122 009a FFF7FEFF 		bl	RCC_APB1PeriphResetCmd
 155:/home/virusv/TDSAST_IOT/Libraries/src/stm32f10x_tim.c ****     RCC_APB1PeriphResetCmd(RCC_APB1Periph_TIM6, DISABLE);
 123              		.loc 1 155 0
 124 009e 1020     		movs	r0, #16
 125 00a0 0021     		movs	r1, #0
 126 00a2 FFF7FEFF 		bl	RCC_APB1PeriphResetCmd
 127 00a6 9DE0     		b	.L1
 128              	.L8:
 156:/home/virusv/TDSAST_IOT/Libraries/src/stm32f10x_tim.c ****   } 
 157:/home/virusv/TDSAST_IOT/Libraries/src/stm32f10x_tim.c ****   else if (TIMx == TIM7)
 129              		.loc 1 157 0
 130 00a8 7B68     		ldr	r3, [r7, #4]
 131 00aa 554A     		ldr	r2, .L19+20
 132 00ac 9342     		cmp	r3, r2
 133 00ae 08D1     		bne	.L9
 158:/home/virusv/TDSAST_IOT/Libraries/src/stm32f10x_tim.c ****   {
 159:/home/virusv/TDSAST_IOT/Libraries/src/stm32f10x_tim.c ****     RCC_APB1PeriphResetCmd(RCC_APB1Periph_TIM7, ENABLE);
 134              		.loc 1 159 0
 135 00b0 2020     		movs	r0, #32
 136 00b2 0121     		movs	r1, #1
 137 00b4 FFF7FEFF 		bl	RCC_APB1PeriphResetCmd
 160:/home/virusv/TDSAST_IOT/Libraries/src/stm32f10x_tim.c ****     RCC_APB1PeriphResetCmd(RCC_APB1Periph_TIM7, DISABLE);
 138              		.loc 1 160 0
 139 00b8 2020     		movs	r0, #32
 140 00ba 0021     		movs	r1, #0
 141 00bc FFF7FEFF 		bl	RCC_APB1PeriphResetCmd
 142 00c0 90E0     		b	.L1
 143              	.L9:
 161:/home/virusv/TDSAST_IOT/Libraries/src/stm32f10x_tim.c ****   } 
 162:/home/virusv/TDSAST_IOT/Libraries/src/stm32f10x_tim.c ****   else if (TIMx == TIM8)
 144              		.loc 1 162 0
 145 00c2 7B68     		ldr	r3, [r7, #4]
 146 00c4 4F4A     		ldr	r2, .L19+24
 147 00c6 9342     		cmp	r3, r2
 148 00c8 0AD1     		bne	.L10
 163:/home/virusv/TDSAST_IOT/Libraries/src/stm32f10x_tim.c ****   {
 164:/home/virusv/TDSAST_IOT/Libraries/src/stm32f10x_tim.c ****     RCC_APB2PeriphResetCmd(RCC_APB2Periph_TIM8, ENABLE);
 149              		.loc 1 164 0
 150 00ca 4FF40050 		mov	r0, #8192
 151 00ce 0121     		movs	r1, #1
 152 00d0 FFF7FEFF 		bl	RCC_APB2PeriphResetCmd
 165:/home/virusv/TDSAST_IOT/Libraries/src/stm32f10x_tim.c ****     RCC_APB2PeriphResetCmd(RCC_APB2Periph_TIM8, DISABLE);
 153              		.loc 1 165 0
 154 00d4 4FF40050 		mov	r0, #8192
 155 00d8 0021     		movs	r1, #0
 156 00da FFF7FEFF 		bl	RCC_APB2PeriphResetCmd
 157 00de 81E0     		b	.L1
 158              	.L10:
 166:/home/virusv/TDSAST_IOT/Libraries/src/stm32f10x_tim.c ****   }
 167:/home/virusv/TDSAST_IOT/Libraries/src/stm32f10x_tim.c ****   else if (TIMx == TIM9)
 159              		.loc 1 167 0
 160 00e0 7B68     		ldr	r3, [r7, #4]
 161 00e2 494A     		ldr	r2, .L19+28
 162 00e4 9342     		cmp	r3, r2
 163 00e6 0AD1     		bne	.L11
 168:/home/virusv/TDSAST_IOT/Libraries/src/stm32f10x_tim.c ****   {      
 169:/home/virusv/TDSAST_IOT/Libraries/src/stm32f10x_tim.c ****     RCC_APB2PeriphResetCmd(RCC_APB2Periph_TIM9, ENABLE);
 164              		.loc 1 169 0
 165 00e8 4FF40020 		mov	r0, #524288
 166 00ec 0121     		movs	r1, #1
 167 00ee FFF7FEFF 		bl	RCC_APB2PeriphResetCmd
 170:/home/virusv/TDSAST_IOT/Libraries/src/stm32f10x_tim.c ****     RCC_APB2PeriphResetCmd(RCC_APB2Periph_TIM9, DISABLE);  
 168              		.loc 1 170 0
 169 00f2 4FF40020 		mov	r0, #524288
 170 00f6 0021     		movs	r1, #0
 171 00f8 FFF7FEFF 		bl	RCC_APB2PeriphResetCmd
 172 00fc 72E0     		b	.L1
 173              	.L11:
 171:/home/virusv/TDSAST_IOT/Libraries/src/stm32f10x_tim.c ****    }  
 172:/home/virusv/TDSAST_IOT/Libraries/src/stm32f10x_tim.c ****   else if (TIMx == TIM10)
 174              		.loc 1 172 0
 175 00fe 7B68     		ldr	r3, [r7, #4]
 176 0100 424A     		ldr	r2, .L19+32
 177 0102 9342     		cmp	r3, r2
 178 0104 0AD1     		bne	.L12
 173:/home/virusv/TDSAST_IOT/Libraries/src/stm32f10x_tim.c ****   {      
 174:/home/virusv/TDSAST_IOT/Libraries/src/stm32f10x_tim.c ****     RCC_APB2PeriphResetCmd(RCC_APB2Periph_TIM10, ENABLE);
 179              		.loc 1 174 0
 180 0106 4FF48010 		mov	r0, #1048576
 181 010a 0121     		movs	r1, #1
 182 010c FFF7FEFF 		bl	RCC_APB2PeriphResetCmd
 175:/home/virusv/TDSAST_IOT/Libraries/src/stm32f10x_tim.c ****     RCC_APB2PeriphResetCmd(RCC_APB2Periph_TIM10, DISABLE);  
 183              		.loc 1 175 0
 184 0110 4FF48010 		mov	r0, #1048576
 185 0114 0021     		movs	r1, #0
 186 0116 FFF7FEFF 		bl	RCC_APB2PeriphResetCmd
 187 011a 63E0     		b	.L1
 188              	.L12:
 176:/home/virusv/TDSAST_IOT/Libraries/src/stm32f10x_tim.c ****   }  
 177:/home/virusv/TDSAST_IOT/Libraries/src/stm32f10x_tim.c ****   else if (TIMx == TIM11) 
 189              		.loc 1 177 0
 190 011c 7B68     		ldr	r3, [r7, #4]
 191 011e 3C4A     		ldr	r2, .L19+36
 192 0120 9342     		cmp	r3, r2
 193 0122 0AD1     		bne	.L13
 178:/home/virusv/TDSAST_IOT/Libraries/src/stm32f10x_tim.c ****   {     
 179:/home/virusv/TDSAST_IOT/Libraries/src/stm32f10x_tim.c ****     RCC_APB2PeriphResetCmd(RCC_APB2Periph_TIM11, ENABLE);
 194              		.loc 1 179 0
 195 0124 4FF40010 		mov	r0, #2097152
 196 0128 0121     		movs	r1, #1
 197 012a FFF7FEFF 		bl	RCC_APB2PeriphResetCmd
 180:/home/virusv/TDSAST_IOT/Libraries/src/stm32f10x_tim.c ****     RCC_APB2PeriphResetCmd(RCC_APB2Periph_TIM11, DISABLE);  
 198              		.loc 1 180 0
 199 012e 4FF40010 		mov	r0, #2097152
 200 0132 0021     		movs	r1, #0
 201 0134 FFF7FEFF 		bl	RCC_APB2PeriphResetCmd
 202 0138 54E0     		b	.L1
 203              	.L13:
 181:/home/virusv/TDSAST_IOT/Libraries/src/stm32f10x_tim.c ****   }  
 182:/home/virusv/TDSAST_IOT/Libraries/src/stm32f10x_tim.c ****   else if (TIMx == TIM12)
 204              		.loc 1 182 0
 205 013a 7B68     		ldr	r3, [r7, #4]
 206 013c 354A     		ldr	r2, .L19+40
 207 013e 9342     		cmp	r3, r2
 208 0140 08D1     		bne	.L14
 183:/home/virusv/TDSAST_IOT/Libraries/src/stm32f10x_tim.c ****   {      
 184:/home/virusv/TDSAST_IOT/Libraries/src/stm32f10x_tim.c ****     RCC_APB1PeriphResetCmd(RCC_APB1Periph_TIM12, ENABLE);
 209              		.loc 1 184 0
 210 0142 4020     		movs	r0, #64
 211 0144 0121     		movs	r1, #1
 212 0146 FFF7FEFF 		bl	RCC_APB1PeriphResetCmd
 185:/home/virusv/TDSAST_IOT/Libraries/src/stm32f10x_tim.c ****     RCC_APB1PeriphResetCmd(RCC_APB1Periph_TIM12, DISABLE);  
 213              		.loc 1 185 0
 214 014a 4020     		movs	r0, #64
 215 014c 0021     		movs	r1, #0
 216 014e FFF7FEFF 		bl	RCC_APB1PeriphResetCmd
 217 0152 47E0     		b	.L1
 218              	.L14:
 186:/home/virusv/TDSAST_IOT/Libraries/src/stm32f10x_tim.c ****   }  
 187:/home/virusv/TDSAST_IOT/Libraries/src/stm32f10x_tim.c ****   else if (TIMx == TIM13) 
 219              		.loc 1 187 0
 220 0154 7B68     		ldr	r3, [r7, #4]
 221 0156 304A     		ldr	r2, .L19+44
 222 0158 9342     		cmp	r3, r2
 223 015a 08D1     		bne	.L15
 188:/home/virusv/TDSAST_IOT/Libraries/src/stm32f10x_tim.c ****   {       
 189:/home/virusv/TDSAST_IOT/Libraries/src/stm32f10x_tim.c ****     RCC_APB1PeriphResetCmd(RCC_APB1Periph_TIM13, ENABLE);
 224              		.loc 1 189 0
 225 015c 8020     		movs	r0, #128
 226 015e 0121     		movs	r1, #1
 227 0160 FFF7FEFF 		bl	RCC_APB1PeriphResetCmd
 190:/home/virusv/TDSAST_IOT/Libraries/src/stm32f10x_tim.c ****     RCC_APB1PeriphResetCmd(RCC_APB1Periph_TIM13, DISABLE);  
 228              		.loc 1 190 0
 229 0164 8020     		movs	r0, #128
 230 0166 0021     		movs	r1, #0
 231 0168 FFF7FEFF 		bl	RCC_APB1PeriphResetCmd
 232 016c 3AE0     		b	.L1
 233              	.L15:
 191:/home/virusv/TDSAST_IOT/Libraries/src/stm32f10x_tim.c ****   }
 192:/home/virusv/TDSAST_IOT/Libraries/src/stm32f10x_tim.c ****   else if (TIMx == TIM14) 
 234              		.loc 1 192 0
 235 016e 7B68     		ldr	r3, [r7, #4]
 236 0170 2A4A     		ldr	r2, .L19+48
 237 0172 9342     		cmp	r3, r2
 238 0174 0AD1     		bne	.L16
 193:/home/virusv/TDSAST_IOT/Libraries/src/stm32f10x_tim.c ****   {       
 194:/home/virusv/TDSAST_IOT/Libraries/src/stm32f10x_tim.c ****     RCC_APB1PeriphResetCmd(RCC_APB1Periph_TIM14, ENABLE);
 239              		.loc 1 194 0
 240 0176 4FF48070 		mov	r0, #256
 241 017a 0121     		movs	r1, #1
 242 017c FFF7FEFF 		bl	RCC_APB1PeriphResetCmd
 195:/home/virusv/TDSAST_IOT/Libraries/src/stm32f10x_tim.c ****     RCC_APB1PeriphResetCmd(RCC_APB1Periph_TIM14, DISABLE);  
 243              		.loc 1 195 0
 244 0180 4FF48070 		mov	r0, #256
 245 0184 0021     		movs	r1, #0
 246 0186 FFF7FEFF 		bl	RCC_APB1PeriphResetCmd
 247 018a 2BE0     		b	.L1
 248              	.L16:
 196:/home/virusv/TDSAST_IOT/Libraries/src/stm32f10x_tim.c ****   }        
 197:/home/virusv/TDSAST_IOT/Libraries/src/stm32f10x_tim.c ****   else if (TIMx == TIM15)
 249              		.loc 1 197 0
 250 018c 7B68     		ldr	r3, [r7, #4]
 251 018e 244A     		ldr	r2, .L19+52
 252 0190 9342     		cmp	r3, r2
 253 0192 0AD1     		bne	.L17
 198:/home/virusv/TDSAST_IOT/Libraries/src/stm32f10x_tim.c ****   {
 199:/home/virusv/TDSAST_IOT/Libraries/src/stm32f10x_tim.c ****     RCC_APB2PeriphResetCmd(RCC_APB2Periph_TIM15, ENABLE);
 254              		.loc 1 199 0
 255 0194 4FF48030 		mov	r0, #65536
 256 0198 0121     		movs	r1, #1
 257 019a FFF7FEFF 		bl	RCC_APB2PeriphResetCmd
 200:/home/virusv/TDSAST_IOT/Libraries/src/stm32f10x_tim.c ****     RCC_APB2PeriphResetCmd(RCC_APB2Periph_TIM15, DISABLE);
 258              		.loc 1 200 0
 259 019e 4FF48030 		mov	r0, #65536
 260 01a2 0021     		movs	r1, #0
 261 01a4 FFF7FEFF 		bl	RCC_APB2PeriphResetCmd
 262 01a8 1CE0     		b	.L1
 263              	.L17:
 201:/home/virusv/TDSAST_IOT/Libraries/src/stm32f10x_tim.c ****   } 
 202:/home/virusv/TDSAST_IOT/Libraries/src/stm32f10x_tim.c ****   else if (TIMx == TIM16)
 264              		.loc 1 202 0
 265 01aa 7B68     		ldr	r3, [r7, #4]
 266 01ac 1D4A     		ldr	r2, .L19+56
 267 01ae 9342     		cmp	r3, r2
 268 01b0 0AD1     		bne	.L18
 203:/home/virusv/TDSAST_IOT/Libraries/src/stm32f10x_tim.c ****   {
 204:/home/virusv/TDSAST_IOT/Libraries/src/stm32f10x_tim.c ****     RCC_APB2PeriphResetCmd(RCC_APB2Periph_TIM16, ENABLE);
 269              		.loc 1 204 0
 270 01b2 4FF40030 		mov	r0, #131072
 271 01b6 0121     		movs	r1, #1
 272 01b8 FFF7FEFF 		bl	RCC_APB2PeriphResetCmd
 205:/home/virusv/TDSAST_IOT/Libraries/src/stm32f10x_tim.c ****     RCC_APB2PeriphResetCmd(RCC_APB2Periph_TIM16, DISABLE);
 273              		.loc 1 205 0
 274 01bc 4FF40030 		mov	r0, #131072
 275 01c0 0021     		movs	r1, #0
 276 01c2 FFF7FEFF 		bl	RCC_APB2PeriphResetCmd
 277 01c6 0DE0     		b	.L1
 278              	.L18:
 206:/home/virusv/TDSAST_IOT/Libraries/src/stm32f10x_tim.c ****   } 
 207:/home/virusv/TDSAST_IOT/Libraries/src/stm32f10x_tim.c ****   else
 208:/home/virusv/TDSAST_IOT/Libraries/src/stm32f10x_tim.c ****   {
 209:/home/virusv/TDSAST_IOT/Libraries/src/stm32f10x_tim.c ****     if (TIMx == TIM17)
 279              		.loc 1 209 0
 280 01c8 7B68     		ldr	r3, [r7, #4]
 281 01ca 174A     		ldr	r2, .L19+60
 282 01cc 9342     		cmp	r3, r2
 283 01ce 09D1     		bne	.L1
 210:/home/virusv/TDSAST_IOT/Libraries/src/stm32f10x_tim.c ****     {
 211:/home/virusv/TDSAST_IOT/Libraries/src/stm32f10x_tim.c ****       RCC_APB2PeriphResetCmd(RCC_APB2Periph_TIM17, ENABLE);
 284              		.loc 1 211 0
 285 01d0 4FF48020 		mov	r0, #262144
 286 01d4 0121     		movs	r1, #1
 287 01d6 FFF7FEFF 		bl	RCC_APB2PeriphResetCmd
 212:/home/virusv/TDSAST_IOT/Libraries/src/stm32f10x_tim.c ****       RCC_APB2PeriphResetCmd(RCC_APB2Periph_TIM17, DISABLE);
 288              		.loc 1 212 0
 289 01da 4FF48020 		mov	r0, #262144
 290 01de 0021     		movs	r1, #0
 291 01e0 FFF7FEFF 		bl	RCC_APB2PeriphResetCmd
 292              	.L1:
 213:/home/virusv/TDSAST_IOT/Libraries/src/stm32f10x_tim.c ****     }  
 214:/home/virusv/TDSAST_IOT/Libraries/src/stm32f10x_tim.c ****   }
 215:/home/virusv/TDSAST_IOT/Libraries/src/stm32f10x_tim.c **** }
 293              		.loc 1 215 0
 294 01e4 0837     		adds	r7, r7, #8
 295              		.cfi_def_cfa_offset 8
 296 01e6 BD46     		mov	sp, r7
 297              		.cfi_def_cfa_register 13
 298              		@ sp needed
 299 01e8 80BD     		pop	{r7, pc}
 300              	.L20:
 301 01ea 00BF     		.align	2
 302              	.L19:
 303 01ec 002C0140 		.word	1073818624
 304 01f0 00040040 		.word	1073742848
 305 01f4 00080040 		.word	1073743872
 306 01f8 000C0040 		.word	1073744896
 307 01fc 00100040 		.word	1073745920
 308 0200 00140040 		.word	1073746944
 309 0204 00340140 		.word	1073820672
 310 0208 004C0140 		.word	1073826816
 311 020c 00500140 		.word	1073827840
 312 0210 00540140 		.word	1073828864
 313 0214 00180040 		.word	1073747968
 314 0218 001C0040 		.word	1073748992
 315 021c 00200040 		.word	1073750016
 316 0220 00400140 		.word	1073823744
 317 0224 00440140 		.word	1073824768
 318 0228 00480140 		.word	1073825792
 319              		.cfi_endproc
 320              	.LFE29:
 322              		.section	.text.TIM_TimeBaseInit,"ax",%progbits
 323              		.align	2
 324              		.global	TIM_TimeBaseInit
 325              		.thumb
 326              		.thumb_func
 328              	TIM_TimeBaseInit:
 329              	.LFB30:
 216:/home/virusv/TDSAST_IOT/Libraries/src/stm32f10x_tim.c **** 
 217:/home/virusv/TDSAST_IOT/Libraries/src/stm32f10x_tim.c **** /**
 218:/home/virusv/TDSAST_IOT/Libraries/src/stm32f10x_tim.c ****   * @brief  Initializes the TIMx Time Base Unit peripheral according to 
 219:/home/virusv/TDSAST_IOT/Libraries/src/stm32f10x_tim.c ****   *         the specified parameters in the TIM_TimeBaseInitStruct.
 220:/home/virusv/TDSAST_IOT/Libraries/src/stm32f10x_tim.c ****   * @param  TIMx: where x can be 1 to 17 to select the TIM peripheral.
 221:/home/virusv/TDSAST_IOT/Libraries/src/stm32f10x_tim.c ****   * @param  TIM_TimeBaseInitStruct: pointer to a TIM_TimeBaseInitTypeDef
 222:/home/virusv/TDSAST_IOT/Libraries/src/stm32f10x_tim.c ****   *         structure that contains the configuration information for the 
 223:/home/virusv/TDSAST_IOT/Libraries/src/stm32f10x_tim.c ****   *         specified TIM peripheral.
 224:/home/virusv/TDSAST_IOT/Libraries/src/stm32f10x_tim.c ****   * @retval None
 225:/home/virusv/TDSAST_IOT/Libraries/src/stm32f10x_tim.c ****   */
 226:/home/virusv/TDSAST_IOT/Libraries/src/stm32f10x_tim.c **** void TIM_TimeBaseInit(TIM_TypeDef* TIMx, TIM_TimeBaseInitTypeDef* TIM_TimeBaseInitStruct)
 227:/home/virusv/TDSAST_IOT/Libraries/src/stm32f10x_tim.c **** {
 330              		.loc 1 227 0
 331              		.cfi_startproc
 332              		@ args = 0, pretend = 0, frame = 16
 333              		@ frame_needed = 1, uses_anonymous_args = 0
 334              		@ link register save eliminated.
 335 0000 80B4     		push	{r7}
 336              		.cfi_def_cfa_offset 4
 337              		.cfi_offset 7, -4
 338 0002 85B0     		sub	sp, sp, #20
 339              		.cfi_def_cfa_offset 24
 340 0004 00AF     		add	r7, sp, #0
 341              		.cfi_def_cfa_register 7
 342 0006 7860     		str	r0, [r7, #4]
 343 0008 3960     		str	r1, [r7]
 228:/home/virusv/TDSAST_IOT/Libraries/src/stm32f10x_tim.c ****   uint16_t tmpcr1 = 0;
 344              		.loc 1 228 0
 345 000a 0023     		movs	r3, #0
 346 000c FB81     		strh	r3, [r7, #14]	@ movhi
 229:/home/virusv/TDSAST_IOT/Libraries/src/stm32f10x_tim.c **** 
 230:/home/virusv/TDSAST_IOT/Libraries/src/stm32f10x_tim.c ****   /* Check the parameters */
 231:/home/virusv/TDSAST_IOT/Libraries/src/stm32f10x_tim.c ****   assert_param(IS_TIM_ALL_PERIPH(TIMx)); 
 232:/home/virusv/TDSAST_IOT/Libraries/src/stm32f10x_tim.c ****   assert_param(IS_TIM_COUNTER_MODE(TIM_TimeBaseInitStruct->TIM_CounterMode));
 233:/home/virusv/TDSAST_IOT/Libraries/src/stm32f10x_tim.c ****   assert_param(IS_TIM_CKD_DIV(TIM_TimeBaseInitStruct->TIM_ClockDivision));
 234:/home/virusv/TDSAST_IOT/Libraries/src/stm32f10x_tim.c **** 
 235:/home/virusv/TDSAST_IOT/Libraries/src/stm32f10x_tim.c ****   tmpcr1 = TIMx->CR1;  
 347              		.loc 1 235 0
 348 000e 7B68     		ldr	r3, [r7, #4]
 349 0010 1B88     		ldrh	r3, [r3]	@ movhi
 350 0012 FB81     		strh	r3, [r7, #14]	@ movhi
 236:/home/virusv/TDSAST_IOT/Libraries/src/stm32f10x_tim.c **** 
 237:/home/virusv/TDSAST_IOT/Libraries/src/stm32f10x_tim.c ****   if((TIMx == TIM1) || (TIMx == TIM8)|| (TIMx == TIM2) || (TIMx == TIM3)||
 351              		.loc 1 237 0
 352 0014 7B68     		ldr	r3, [r7, #4]
 353 0016 2E4A     		ldr	r2, .L27
 354 0018 9342     		cmp	r3, r2
 355 001a 13D0     		beq	.L22
 356              		.loc 1 237 0 is_stmt 0 discriminator 1
 357 001c 7B68     		ldr	r3, [r7, #4]
 358 001e 2D4A     		ldr	r2, .L27+4
 359 0020 9342     		cmp	r3, r2
 360 0022 0FD0     		beq	.L22
 361              		.loc 1 237 0 discriminator 2
 362 0024 7B68     		ldr	r3, [r7, #4]
 363 0026 B3F1804F 		cmp	r3, #1073741824
 364 002a 0BD0     		beq	.L22
 365              		.loc 1 237 0 discriminator 3
 366 002c 7B68     		ldr	r3, [r7, #4]
 367 002e 2A4A     		ldr	r2, .L27+8
 368 0030 9342     		cmp	r3, r2
 369 0032 07D0     		beq	.L22
 370              		.loc 1 237 0 discriminator 4
 371 0034 7B68     		ldr	r3, [r7, #4]
 372 0036 294A     		ldr	r2, .L27+12
 373 0038 9342     		cmp	r3, r2
 374 003a 03D0     		beq	.L22
 238:/home/virusv/TDSAST_IOT/Libraries/src/stm32f10x_tim.c ****      (TIMx == TIM4) || (TIMx == TIM5)) 
 375              		.loc 1 238 0 is_stmt 1
 376 003c 7B68     		ldr	r3, [r7, #4]
 377 003e 284A     		ldr	r2, .L27+16
 378 0040 9342     		cmp	r3, r2
 379 0042 08D1     		bne	.L23
 380              	.L22:
 239:/home/virusv/TDSAST_IOT/Libraries/src/stm32f10x_tim.c ****   {
 240:/home/virusv/TDSAST_IOT/Libraries/src/stm32f10x_tim.c ****     /* Select the Counter Mode */
 241:/home/virusv/TDSAST_IOT/Libraries/src/stm32f10x_tim.c ****     tmpcr1 &= (uint16_t)(~((uint16_t)(TIM_CR1_DIR | TIM_CR1_CMS)));
 381              		.loc 1 241 0
 382 0044 FB89     		ldrh	r3, [r7, #14]	@ movhi
 383 0046 23F07003 		bic	r3, r3, #112
 384 004a FB81     		strh	r3, [r7, #14]	@ movhi
 242:/home/virusv/TDSAST_IOT/Libraries/src/stm32f10x_tim.c ****     tmpcr1 |= (uint32_t)TIM_TimeBaseInitStruct->TIM_CounterMode;
 385              		.loc 1 242 0
 386 004c 3B68     		ldr	r3, [r7]
 387 004e 5A88     		ldrh	r2, [r3, #2]
 388 0050 FB89     		ldrh	r3, [r7, #14]	@ movhi
 389 0052 1343     		orrs	r3, r3, r2
 390 0054 FB81     		strh	r3, [r7, #14]	@ movhi
 391              	.L23:
 243:/home/virusv/TDSAST_IOT/Libraries/src/stm32f10x_tim.c ****   }
 244:/home/virusv/TDSAST_IOT/Libraries/src/stm32f10x_tim.c ****  
 245:/home/virusv/TDSAST_IOT/Libraries/src/stm32f10x_tim.c ****   if((TIMx != TIM6) && (TIMx != TIM7))
 392              		.loc 1 245 0
 393 0056 7B68     		ldr	r3, [r7, #4]
 394 0058 224A     		ldr	r2, .L27+20
 395 005a 9342     		cmp	r3, r2
 396 005c 0CD0     		beq	.L24
 397              		.loc 1 245 0 is_stmt 0 discriminator 1
 398 005e 7B68     		ldr	r3, [r7, #4]
 399 0060 214A     		ldr	r2, .L27+24
 400 0062 9342     		cmp	r3, r2
 401 0064 08D0     		beq	.L24
 246:/home/virusv/TDSAST_IOT/Libraries/src/stm32f10x_tim.c ****   {
 247:/home/virusv/TDSAST_IOT/Libraries/src/stm32f10x_tim.c ****     /* Set the clock division */
 248:/home/virusv/TDSAST_IOT/Libraries/src/stm32f10x_tim.c ****     tmpcr1 &= (uint16_t)(~((uint16_t)TIM_CR1_CKD));
 402              		.loc 1 248 0 is_stmt 1
 403 0066 FB89     		ldrh	r3, [r7, #14]	@ movhi
 404 0068 23F44073 		bic	r3, r3, #768
 405 006c FB81     		strh	r3, [r7, #14]	@ movhi
 249:/home/virusv/TDSAST_IOT/Libraries/src/stm32f10x_tim.c ****     tmpcr1 |= (uint32_t)TIM_TimeBaseInitStruct->TIM_ClockDivision;
 406              		.loc 1 249 0
 407 006e 3B68     		ldr	r3, [r7]
 408 0070 DA88     		ldrh	r2, [r3, #6]
 409 0072 FB89     		ldrh	r3, [r7, #14]	@ movhi
 410 0074 1343     		orrs	r3, r3, r2
 411 0076 FB81     		strh	r3, [r7, #14]	@ movhi
 412              	.L24:
 250:/home/virusv/TDSAST_IOT/Libraries/src/stm32f10x_tim.c ****   }
 251:/home/virusv/TDSAST_IOT/Libraries/src/stm32f10x_tim.c **** 
 252:/home/virusv/TDSAST_IOT/Libraries/src/stm32f10x_tim.c ****   TIMx->CR1 = tmpcr1;
 413              		.loc 1 252 0
 414 0078 7B68     		ldr	r3, [r7, #4]
 415 007a FA89     		ldrh	r2, [r7, #14]	@ movhi
 416 007c 1A80     		strh	r2, [r3]	@ movhi
 253:/home/virusv/TDSAST_IOT/Libraries/src/stm32f10x_tim.c **** 
 254:/home/virusv/TDSAST_IOT/Libraries/src/stm32f10x_tim.c ****   /* Set the Autoreload value */
 255:/home/virusv/TDSAST_IOT/Libraries/src/stm32f10x_tim.c ****   TIMx->ARR = TIM_TimeBaseInitStruct->TIM_Period ;
 417              		.loc 1 255 0
 418 007e 3B68     		ldr	r3, [r7]
 419 0080 9A88     		ldrh	r2, [r3, #4]
 420 0082 7B68     		ldr	r3, [r7, #4]
 421 0084 9A85     		strh	r2, [r3, #44]	@ movhi
 256:/home/virusv/TDSAST_IOT/Libraries/src/stm32f10x_tim.c ****  
 257:/home/virusv/TDSAST_IOT/Libraries/src/stm32f10x_tim.c ****   /* Set the Prescaler value */
 258:/home/virusv/TDSAST_IOT/Libraries/src/stm32f10x_tim.c ****   TIMx->PSC = TIM_TimeBaseInitStruct->TIM_Prescaler;
 422              		.loc 1 258 0
 423 0086 3B68     		ldr	r3, [r7]
 424 0088 1A88     		ldrh	r2, [r3]
 425 008a 7B68     		ldr	r3, [r7, #4]
 426 008c 1A85     		strh	r2, [r3, #40]	@ movhi
 259:/home/virusv/TDSAST_IOT/Libraries/src/stm32f10x_tim.c ****     
 260:/home/virusv/TDSAST_IOT/Libraries/src/stm32f10x_tim.c ****   if ((TIMx == TIM1) || (TIMx == TIM8)|| (TIMx == TIM15)|| (TIMx == TIM16) || (TIMx == TIM17))  
 427              		.loc 1 260 0
 428 008e 7B68     		ldr	r3, [r7, #4]
 429 0090 0F4A     		ldr	r2, .L27
 430 0092 9342     		cmp	r3, r2
 431 0094 0FD0     		beq	.L25
 432              		.loc 1 260 0 is_stmt 0 discriminator 1
 433 0096 7B68     		ldr	r3, [r7, #4]
 434 0098 0E4A     		ldr	r2, .L27+4
 435 009a 9342     		cmp	r3, r2
 436 009c 0BD0     		beq	.L25
 437              		.loc 1 260 0 discriminator 2
 438 009e 7B68     		ldr	r3, [r7, #4]
 439 00a0 124A     		ldr	r2, .L27+28
 440 00a2 9342     		cmp	r3, r2
 441 00a4 07D0     		beq	.L25
 442              		.loc 1 260 0 discriminator 3
 443 00a6 7B68     		ldr	r3, [r7, #4]
 444 00a8 114A     		ldr	r2, .L27+32
 445 00aa 9342     		cmp	r3, r2
 446 00ac 03D0     		beq	.L25
 447              		.loc 1 260 0 discriminator 4
 448 00ae 7B68     		ldr	r3, [r7, #4]
 449 00b0 104A     		ldr	r2, .L27+36
 450 00b2 9342     		cmp	r3, r2
 451 00b4 04D1     		bne	.L26
 452              	.L25:
 261:/home/virusv/TDSAST_IOT/Libraries/src/stm32f10x_tim.c ****   {
 262:/home/virusv/TDSAST_IOT/Libraries/src/stm32f10x_tim.c ****     /* Set the Repetition Counter value */
 263:/home/virusv/TDSAST_IOT/Libraries/src/stm32f10x_tim.c ****     TIMx->RCR = TIM_TimeBaseInitStruct->TIM_RepetitionCounter;
 453              		.loc 1 263 0 is_stmt 1
 454 00b6 3B68     		ldr	r3, [r7]
 455 00b8 1B7A     		ldrb	r3, [r3, #8]	@ zero_extendqisi2
 456 00ba 9AB2     		uxth	r2, r3
 457 00bc 7B68     		ldr	r3, [r7, #4]
 458 00be 1A86     		strh	r2, [r3, #48]	@ movhi
 459              	.L26:
 264:/home/virusv/TDSAST_IOT/Libraries/src/stm32f10x_tim.c ****   }
 265:/home/virusv/TDSAST_IOT/Libraries/src/stm32f10x_tim.c **** 
 266:/home/virusv/TDSAST_IOT/Libraries/src/stm32f10x_tim.c ****   /* Generate an update event to reload the Prescaler and the Repetition counter
 267:/home/virusv/TDSAST_IOT/Libraries/src/stm32f10x_tim.c ****      values immediately */
 268:/home/virusv/TDSAST_IOT/Libraries/src/stm32f10x_tim.c ****   TIMx->EGR = TIM_PSCReloadMode_Immediate;           
 460              		.loc 1 268 0
 461 00c0 7B68     		ldr	r3, [r7, #4]
 462 00c2 0122     		movs	r2, #1
 463 00c4 9A82     		strh	r2, [r3, #20]	@ movhi
 269:/home/virusv/TDSAST_IOT/Libraries/src/stm32f10x_tim.c **** }
 464              		.loc 1 269 0
 465 00c6 1437     		adds	r7, r7, #20
 466              		.cfi_def_cfa_offset 4
 467 00c8 BD46     		mov	sp, r7
 468              		.cfi_def_cfa_register 13
 469              		@ sp needed
 470 00ca 5DF8047B 		ldr	r7, [sp], #4
 471              		.cfi_restore 7
 472              		.cfi_def_cfa_offset 0
 473 00ce 7047     		bx	lr
 474              	.L28:
 475              		.align	2
 476              	.L27:
 477 00d0 002C0140 		.word	1073818624
 478 00d4 00340140 		.word	1073820672
 479 00d8 00040040 		.word	1073742848
 480 00dc 00080040 		.word	1073743872
 481 00e0 000C0040 		.word	1073744896
 482 00e4 00100040 		.word	1073745920
 483 00e8 00140040 		.word	1073746944
 484 00ec 00400140 		.word	1073823744
 485 00f0 00440140 		.word	1073824768
 486 00f4 00480140 		.word	1073825792
 487              		.cfi_endproc
 488              	.LFE30:
 490              		.section	.text.TIM_OC1Init,"ax",%progbits
 491              		.align	2
 492              		.global	TIM_OC1Init
 493              		.thumb
 494              		.thumb_func
 496              	TIM_OC1Init:
 497              	.LFB31:
 270:/home/virusv/TDSAST_IOT/Libraries/src/stm32f10x_tim.c **** 
 271:/home/virusv/TDSAST_IOT/Libraries/src/stm32f10x_tim.c **** /**
 272:/home/virusv/TDSAST_IOT/Libraries/src/stm32f10x_tim.c ****   * @brief  Initializes the TIMx Channel1 according to the specified
 273:/home/virusv/TDSAST_IOT/Libraries/src/stm32f10x_tim.c ****   *         parameters in the TIM_OCInitStruct.
 274:/home/virusv/TDSAST_IOT/Libraries/src/stm32f10x_tim.c ****   * @param  TIMx: where x can be  1 to 17 except 6 and 7 to select the TIM peripheral.
 275:/home/virusv/TDSAST_IOT/Libraries/src/stm32f10x_tim.c ****   * @param  TIM_OCInitStruct: pointer to a TIM_OCInitTypeDef structure
 276:/home/virusv/TDSAST_IOT/Libraries/src/stm32f10x_tim.c ****   *         that contains the configuration information for the specified TIM peripheral.
 277:/home/virusv/TDSAST_IOT/Libraries/src/stm32f10x_tim.c ****   * @retval None
 278:/home/virusv/TDSAST_IOT/Libraries/src/stm32f10x_tim.c ****   */
 279:/home/virusv/TDSAST_IOT/Libraries/src/stm32f10x_tim.c **** void TIM_OC1Init(TIM_TypeDef* TIMx, TIM_OCInitTypeDef* TIM_OCInitStruct)
 280:/home/virusv/TDSAST_IOT/Libraries/src/stm32f10x_tim.c **** {
 498              		.loc 1 280 0
 499              		.cfi_startproc
 500              		@ args = 0, pretend = 0, frame = 16
 501              		@ frame_needed = 1, uses_anonymous_args = 0
 502              		@ link register save eliminated.
 503 0000 80B4     		push	{r7}
 504              		.cfi_def_cfa_offset 4
 505              		.cfi_offset 7, -4
 506 0002 85B0     		sub	sp, sp, #20
 507              		.cfi_def_cfa_offset 24
 508 0004 00AF     		add	r7, sp, #0
 509              		.cfi_def_cfa_register 7
 510 0006 7860     		str	r0, [r7, #4]
 511 0008 3960     		str	r1, [r7]
 281:/home/virusv/TDSAST_IOT/Libraries/src/stm32f10x_tim.c ****   uint16_t tmpccmrx = 0, tmpccer = 0, tmpcr2 = 0;
 512              		.loc 1 281 0
 513 000a 0023     		movs	r3, #0
 514 000c 7B81     		strh	r3, [r7, #10]	@ movhi
 515 000e 0023     		movs	r3, #0
 516 0010 FB81     		strh	r3, [r7, #14]	@ movhi
 517 0012 0023     		movs	r3, #0
 518 0014 BB81     		strh	r3, [r7, #12]	@ movhi
 282:/home/virusv/TDSAST_IOT/Libraries/src/stm32f10x_tim.c ****    
 283:/home/virusv/TDSAST_IOT/Libraries/src/stm32f10x_tim.c ****   /* Check the parameters */
 284:/home/virusv/TDSAST_IOT/Libraries/src/stm32f10x_tim.c ****   assert_param(IS_TIM_LIST8_PERIPH(TIMx));
 285:/home/virusv/TDSAST_IOT/Libraries/src/stm32f10x_tim.c ****   assert_param(IS_TIM_OC_MODE(TIM_OCInitStruct->TIM_OCMode));
 286:/home/virusv/TDSAST_IOT/Libraries/src/stm32f10x_tim.c ****   assert_param(IS_TIM_OUTPUT_STATE(TIM_OCInitStruct->TIM_OutputState));
 287:/home/virusv/TDSAST_IOT/Libraries/src/stm32f10x_tim.c ****   assert_param(IS_TIM_OC_POLARITY(TIM_OCInitStruct->TIM_OCPolarity));   
 288:/home/virusv/TDSAST_IOT/Libraries/src/stm32f10x_tim.c ****  /* Disable the Channel 1: Reset the CC1E Bit */
 289:/home/virusv/TDSAST_IOT/Libraries/src/stm32f10x_tim.c ****   TIMx->CCER &= (uint16_t)(~(uint16_t)TIM_CCER_CC1E);
 519              		.loc 1 289 0
 520 0016 7B68     		ldr	r3, [r7, #4]
 521 0018 1B8C     		ldrh	r3, [r3, #32]	@ movhi
 522 001a 9BB2     		uxth	r3, r3
 523 001c 23F00103 		bic	r3, r3, #1
 524 0020 9AB2     		uxth	r2, r3
 525 0022 7B68     		ldr	r3, [r7, #4]
 526 0024 1A84     		strh	r2, [r3, #32]	@ movhi
 290:/home/virusv/TDSAST_IOT/Libraries/src/stm32f10x_tim.c ****   /* Get the TIMx CCER register value */
 291:/home/virusv/TDSAST_IOT/Libraries/src/stm32f10x_tim.c ****   tmpccer = TIMx->CCER;
 527              		.loc 1 291 0
 528 0026 7B68     		ldr	r3, [r7, #4]
 529 0028 1B8C     		ldrh	r3, [r3, #32]	@ movhi
 530 002a FB81     		strh	r3, [r7, #14]	@ movhi
 292:/home/virusv/TDSAST_IOT/Libraries/src/stm32f10x_tim.c ****   /* Get the TIMx CR2 register value */
 293:/home/virusv/TDSAST_IOT/Libraries/src/stm32f10x_tim.c ****   tmpcr2 =  TIMx->CR2;
 531              		.loc 1 293 0
 532 002c 7B68     		ldr	r3, [r7, #4]
 533 002e 9B88     		ldrh	r3, [r3, #4]	@ movhi
 534 0030 BB81     		strh	r3, [r7, #12]	@ movhi
 294:/home/virusv/TDSAST_IOT/Libraries/src/stm32f10x_tim.c ****   
 295:/home/virusv/TDSAST_IOT/Libraries/src/stm32f10x_tim.c ****   /* Get the TIMx CCMR1 register value */
 296:/home/virusv/TDSAST_IOT/Libraries/src/stm32f10x_tim.c ****   tmpccmrx = TIMx->CCMR1;
 535              		.loc 1 296 0
 536 0032 7B68     		ldr	r3, [r7, #4]
 537 0034 1B8B     		ldrh	r3, [r3, #24]	@ movhi
 538 0036 7B81     		strh	r3, [r7, #10]	@ movhi
 297:/home/virusv/TDSAST_IOT/Libraries/src/stm32f10x_tim.c ****     
 298:/home/virusv/TDSAST_IOT/Libraries/src/stm32f10x_tim.c ****   /* Reset the Output Compare Mode Bits */
 299:/home/virusv/TDSAST_IOT/Libraries/src/stm32f10x_tim.c ****   tmpccmrx &= (uint16_t)(~((uint16_t)TIM_CCMR1_OC1M));
 539              		.loc 1 299 0
 540 0038 7B89     		ldrh	r3, [r7, #10]	@ movhi
 541 003a 23F07003 		bic	r3, r3, #112
 542 003e 7B81     		strh	r3, [r7, #10]	@ movhi
 300:/home/virusv/TDSAST_IOT/Libraries/src/stm32f10x_tim.c ****   tmpccmrx &= (uint16_t)(~((uint16_t)TIM_CCMR1_CC1S));
 543              		.loc 1 300 0
 544 0040 7B89     		ldrh	r3, [r7, #10]	@ movhi
 545 0042 23F00303 		bic	r3, r3, #3
 546 0046 7B81     		strh	r3, [r7, #10]	@ movhi
 301:/home/virusv/TDSAST_IOT/Libraries/src/stm32f10x_tim.c **** 
 302:/home/virusv/TDSAST_IOT/Libraries/src/stm32f10x_tim.c ****   /* Select the Output Compare Mode */
 303:/home/virusv/TDSAST_IOT/Libraries/src/stm32f10x_tim.c ****   tmpccmrx |= TIM_OCInitStruct->TIM_OCMode;
 547              		.loc 1 303 0
 548 0048 3B68     		ldr	r3, [r7]
 549 004a 1A88     		ldrh	r2, [r3]
 550 004c 7B89     		ldrh	r3, [r7, #10]	@ movhi
 551 004e 1343     		orrs	r3, r3, r2
 552 0050 7B81     		strh	r3, [r7, #10]	@ movhi
 304:/home/virusv/TDSAST_IOT/Libraries/src/stm32f10x_tim.c ****   
 305:/home/virusv/TDSAST_IOT/Libraries/src/stm32f10x_tim.c ****   /* Reset the Output Polarity level */
 306:/home/virusv/TDSAST_IOT/Libraries/src/stm32f10x_tim.c ****   tmpccer &= (uint16_t)(~((uint16_t)TIM_CCER_CC1P));
 553              		.loc 1 306 0
 554 0052 FB89     		ldrh	r3, [r7, #14]	@ movhi
 555 0054 23F00203 		bic	r3, r3, #2
 556 0058 FB81     		strh	r3, [r7, #14]	@ movhi
 307:/home/virusv/TDSAST_IOT/Libraries/src/stm32f10x_tim.c ****   /* Set the Output Compare Polarity */
 308:/home/virusv/TDSAST_IOT/Libraries/src/stm32f10x_tim.c ****   tmpccer |= TIM_OCInitStruct->TIM_OCPolarity;
 557              		.loc 1 308 0
 558 005a 3B68     		ldr	r3, [r7]
 559 005c 1A89     		ldrh	r2, [r3, #8]
 560 005e FB89     		ldrh	r3, [r7, #14]	@ movhi
 561 0060 1343     		orrs	r3, r3, r2
 562 0062 FB81     		strh	r3, [r7, #14]	@ movhi
 309:/home/virusv/TDSAST_IOT/Libraries/src/stm32f10x_tim.c ****   
 310:/home/virusv/TDSAST_IOT/Libraries/src/stm32f10x_tim.c ****   /* Set the Output State */
 311:/home/virusv/TDSAST_IOT/Libraries/src/stm32f10x_tim.c ****   tmpccer |= TIM_OCInitStruct->TIM_OutputState;
 563              		.loc 1 311 0
 564 0064 3B68     		ldr	r3, [r7]
 565 0066 5A88     		ldrh	r2, [r3, #2]
 566 0068 FB89     		ldrh	r3, [r7, #14]	@ movhi
 567 006a 1343     		orrs	r3, r3, r2
 568 006c FB81     		strh	r3, [r7, #14]	@ movhi
 312:/home/virusv/TDSAST_IOT/Libraries/src/stm32f10x_tim.c ****     
 313:/home/virusv/TDSAST_IOT/Libraries/src/stm32f10x_tim.c ****   if((TIMx == TIM1) || (TIMx == TIM8)|| (TIMx == TIM15)||
 569              		.loc 1 313 0
 570 006e 7B68     		ldr	r3, [r7, #4]
 571 0070 244A     		ldr	r2, .L32
 572 0072 9342     		cmp	r3, r2
 573 0074 0FD0     		beq	.L30
 574              		.loc 1 313 0 is_stmt 0 discriminator 1
 575 0076 7B68     		ldr	r3, [r7, #4]
 576 0078 234A     		ldr	r2, .L32+4
 577 007a 9342     		cmp	r3, r2
 578 007c 0BD0     		beq	.L30
 579              		.loc 1 313 0 discriminator 2
 580 007e 7B68     		ldr	r3, [r7, #4]
 581 0080 224A     		ldr	r2, .L32+8
 582 0082 9342     		cmp	r3, r2
 583 0084 07D0     		beq	.L30
 584              		.loc 1 313 0 discriminator 3
 585 0086 7B68     		ldr	r3, [r7, #4]
 586 0088 214A     		ldr	r2, .L32+12
 587 008a 9342     		cmp	r3, r2
 588 008c 03D0     		beq	.L30
 314:/home/virusv/TDSAST_IOT/Libraries/src/stm32f10x_tim.c ****      (TIMx == TIM16)|| (TIMx == TIM17))
 589              		.loc 1 314 0 is_stmt 1
 590 008e 7B68     		ldr	r3, [r7, #4]
 591 0090 204A     		ldr	r2, .L32+16
 592 0092 9342     		cmp	r3, r2
 593 0094 23D1     		bne	.L31
 594              	.L30:
 315:/home/virusv/TDSAST_IOT/Libraries/src/stm32f10x_tim.c ****   {
 316:/home/virusv/TDSAST_IOT/Libraries/src/stm32f10x_tim.c ****     assert_param(IS_TIM_OUTPUTN_STATE(TIM_OCInitStruct->TIM_OutputNState));
 317:/home/virusv/TDSAST_IOT/Libraries/src/stm32f10x_tim.c ****     assert_param(IS_TIM_OCN_POLARITY(TIM_OCInitStruct->TIM_OCNPolarity));
 318:/home/virusv/TDSAST_IOT/Libraries/src/stm32f10x_tim.c ****     assert_param(IS_TIM_OCNIDLE_STATE(TIM_OCInitStruct->TIM_OCNIdleState));
 319:/home/virusv/TDSAST_IOT/Libraries/src/stm32f10x_tim.c ****     assert_param(IS_TIM_OCIDLE_STATE(TIM_OCInitStruct->TIM_OCIdleState));
 320:/home/virusv/TDSAST_IOT/Libraries/src/stm32f10x_tim.c ****     
 321:/home/virusv/TDSAST_IOT/Libraries/src/stm32f10x_tim.c ****     /* Reset the Output N Polarity level */
 322:/home/virusv/TDSAST_IOT/Libraries/src/stm32f10x_tim.c ****     tmpccer &= (uint16_t)(~((uint16_t)TIM_CCER_CC1NP));
 595              		.loc 1 322 0
 596 0096 FB89     		ldrh	r3, [r7, #14]	@ movhi
 597 0098 23F00803 		bic	r3, r3, #8
 598 009c FB81     		strh	r3, [r7, #14]	@ movhi
 323:/home/virusv/TDSAST_IOT/Libraries/src/stm32f10x_tim.c ****     /* Set the Output N Polarity */
 324:/home/virusv/TDSAST_IOT/Libraries/src/stm32f10x_tim.c ****     tmpccer |= TIM_OCInitStruct->TIM_OCNPolarity;
 599              		.loc 1 324 0
 600 009e 3B68     		ldr	r3, [r7]
 601 00a0 5A89     		ldrh	r2, [r3, #10]
 602 00a2 FB89     		ldrh	r3, [r7, #14]	@ movhi
 603 00a4 1343     		orrs	r3, r3, r2
 604 00a6 FB81     		strh	r3, [r7, #14]	@ movhi
 325:/home/virusv/TDSAST_IOT/Libraries/src/stm32f10x_tim.c ****     
 326:/home/virusv/TDSAST_IOT/Libraries/src/stm32f10x_tim.c ****     /* Reset the Output N State */
 327:/home/virusv/TDSAST_IOT/Libraries/src/stm32f10x_tim.c ****     tmpccer &= (uint16_t)(~((uint16_t)TIM_CCER_CC1NE));    
 605              		.loc 1 327 0
 606 00a8 FB89     		ldrh	r3, [r7, #14]	@ movhi
 607 00aa 23F00403 		bic	r3, r3, #4
 608 00ae FB81     		strh	r3, [r7, #14]	@ movhi
 328:/home/virusv/TDSAST_IOT/Libraries/src/stm32f10x_tim.c ****     /* Set the Output N State */
 329:/home/virusv/TDSAST_IOT/Libraries/src/stm32f10x_tim.c ****     tmpccer |= TIM_OCInitStruct->TIM_OutputNState;
 609              		.loc 1 329 0
 610 00b0 3B68     		ldr	r3, [r7]
 611 00b2 9A88     		ldrh	r2, [r3, #4]
 612 00b4 FB89     		ldrh	r3, [r7, #14]	@ movhi
 613 00b6 1343     		orrs	r3, r3, r2
 614 00b8 FB81     		strh	r3, [r7, #14]	@ movhi
 330:/home/virusv/TDSAST_IOT/Libraries/src/stm32f10x_tim.c ****     
 331:/home/virusv/TDSAST_IOT/Libraries/src/stm32f10x_tim.c ****     /* Reset the Output Compare and Output Compare N IDLE State */
 332:/home/virusv/TDSAST_IOT/Libraries/src/stm32f10x_tim.c ****     tmpcr2 &= (uint16_t)(~((uint16_t)TIM_CR2_OIS1));
 615              		.loc 1 332 0
 616 00ba BB89     		ldrh	r3, [r7, #12]	@ movhi
 617 00bc 23F48073 		bic	r3, r3, #256
 618 00c0 BB81     		strh	r3, [r7, #12]	@ movhi
 333:/home/virusv/TDSAST_IOT/Libraries/src/stm32f10x_tim.c ****     tmpcr2 &= (uint16_t)(~((uint16_t)TIM_CR2_OIS1N));
 619              		.loc 1 333 0
 620 00c2 BB89     		ldrh	r3, [r7, #12]	@ movhi
 621 00c4 23F40073 		bic	r3, r3, #512
 622 00c8 BB81     		strh	r3, [r7, #12]	@ movhi
 334:/home/virusv/TDSAST_IOT/Libraries/src/stm32f10x_tim.c ****     
 335:/home/virusv/TDSAST_IOT/Libraries/src/stm32f10x_tim.c ****     /* Set the Output Idle state */
 336:/home/virusv/TDSAST_IOT/Libraries/src/stm32f10x_tim.c ****     tmpcr2 |= TIM_OCInitStruct->TIM_OCIdleState;
 623              		.loc 1 336 0
 624 00ca 3B68     		ldr	r3, [r7]
 625 00cc 9A89     		ldrh	r2, [r3, #12]
 626 00ce BB89     		ldrh	r3, [r7, #12]	@ movhi
 627 00d0 1343     		orrs	r3, r3, r2
 628 00d2 BB81     		strh	r3, [r7, #12]	@ movhi
 337:/home/virusv/TDSAST_IOT/Libraries/src/stm32f10x_tim.c ****     /* Set the Output N Idle state */
 338:/home/virusv/TDSAST_IOT/Libraries/src/stm32f10x_tim.c ****     tmpcr2 |= TIM_OCInitStruct->TIM_OCNIdleState;
 629              		.loc 1 338 0
 630 00d4 3B68     		ldr	r3, [r7]
 631 00d6 DA89     		ldrh	r2, [r3, #14]
 632 00d8 BB89     		ldrh	r3, [r7, #12]	@ movhi
 633 00da 1343     		orrs	r3, r3, r2
 634 00dc BB81     		strh	r3, [r7, #12]	@ movhi
 635              	.L31:
 339:/home/virusv/TDSAST_IOT/Libraries/src/stm32f10x_tim.c ****   }
 340:/home/virusv/TDSAST_IOT/Libraries/src/stm32f10x_tim.c ****   /* Write to TIMx CR2 */
 341:/home/virusv/TDSAST_IOT/Libraries/src/stm32f10x_tim.c ****   TIMx->CR2 = tmpcr2;
 636              		.loc 1 341 0
 637 00de 7B68     		ldr	r3, [r7, #4]
 638 00e0 BA89     		ldrh	r2, [r7, #12]	@ movhi
 639 00e2 9A80     		strh	r2, [r3, #4]	@ movhi
 342:/home/virusv/TDSAST_IOT/Libraries/src/stm32f10x_tim.c ****   
 343:/home/virusv/TDSAST_IOT/Libraries/src/stm32f10x_tim.c ****   /* Write to TIMx CCMR1 */
 344:/home/virusv/TDSAST_IOT/Libraries/src/stm32f10x_tim.c ****   TIMx->CCMR1 = tmpccmrx;
 640              		.loc 1 344 0
 641 00e4 7B68     		ldr	r3, [r7, #4]
 642 00e6 7A89     		ldrh	r2, [r7, #10]	@ movhi
 643 00e8 1A83     		strh	r2, [r3, #24]	@ movhi
 345:/home/virusv/TDSAST_IOT/Libraries/src/stm32f10x_tim.c **** 
 346:/home/virusv/TDSAST_IOT/Libraries/src/stm32f10x_tim.c ****   /* Set the Capture Compare Register value */
 347:/home/virusv/TDSAST_IOT/Libraries/src/stm32f10x_tim.c ****   TIMx->CCR1 = TIM_OCInitStruct->TIM_Pulse; 
 644              		.loc 1 347 0
 645 00ea 3B68     		ldr	r3, [r7]
 646 00ec DA88     		ldrh	r2, [r3, #6]
 647 00ee 7B68     		ldr	r3, [r7, #4]
 648 00f0 9A86     		strh	r2, [r3, #52]	@ movhi
 348:/home/virusv/TDSAST_IOT/Libraries/src/stm32f10x_tim.c ****  
 349:/home/virusv/TDSAST_IOT/Libraries/src/stm32f10x_tim.c ****   /* Write to TIMx CCER */
 350:/home/virusv/TDSAST_IOT/Libraries/src/stm32f10x_tim.c ****   TIMx->CCER = tmpccer;
 649              		.loc 1 350 0
 650 00f2 7B68     		ldr	r3, [r7, #4]
 651 00f4 FA89     		ldrh	r2, [r7, #14]	@ movhi
 652 00f6 1A84     		strh	r2, [r3, #32]	@ movhi
 351:/home/virusv/TDSAST_IOT/Libraries/src/stm32f10x_tim.c **** }
 653              		.loc 1 351 0
 654 00f8 1437     		adds	r7, r7, #20
 655              		.cfi_def_cfa_offset 4
 656 00fa BD46     		mov	sp, r7
 657              		.cfi_def_cfa_register 13
 658              		@ sp needed
 659 00fc 5DF8047B 		ldr	r7, [sp], #4
 660              		.cfi_restore 7
 661              		.cfi_def_cfa_offset 0
 662 0100 7047     		bx	lr
 663              	.L33:
 664 0102 00BF     		.align	2
 665              	.L32:
 666 0104 002C0140 		.word	1073818624
 667 0108 00340140 		.word	1073820672
 668 010c 00400140 		.word	1073823744
 669 0110 00440140 		.word	1073824768
 670 0114 00480140 		.word	1073825792
 671              		.cfi_endproc
 672              	.LFE31:
 674              		.section	.text.TIM_OC2Init,"ax",%progbits
 675              		.align	2
 676              		.global	TIM_OC2Init
 677              		.thumb
 678              		.thumb_func
 680              	TIM_OC2Init:
 681              	.LFB32:
 352:/home/virusv/TDSAST_IOT/Libraries/src/stm32f10x_tim.c **** 
 353:/home/virusv/TDSAST_IOT/Libraries/src/stm32f10x_tim.c **** /**
 354:/home/virusv/TDSAST_IOT/Libraries/src/stm32f10x_tim.c ****   * @brief  Initializes the TIMx Channel2 according to the specified
 355:/home/virusv/TDSAST_IOT/Libraries/src/stm32f10x_tim.c ****   *         parameters in the TIM_OCInitStruct.
 356:/home/virusv/TDSAST_IOT/Libraries/src/stm32f10x_tim.c ****   * @param  TIMx: where x can be  1, 2, 3, 4, 5, 8, 9, 12 or 15 to select 
 357:/home/virusv/TDSAST_IOT/Libraries/src/stm32f10x_tim.c ****   *         the TIM peripheral.
 358:/home/virusv/TDSAST_IOT/Libraries/src/stm32f10x_tim.c ****   * @param  TIM_OCInitStruct: pointer to a TIM_OCInitTypeDef structure
 359:/home/virusv/TDSAST_IOT/Libraries/src/stm32f10x_tim.c ****   *         that contains the configuration information for the specified TIM peripheral.
 360:/home/virusv/TDSAST_IOT/Libraries/src/stm32f10x_tim.c ****   * @retval None
 361:/home/virusv/TDSAST_IOT/Libraries/src/stm32f10x_tim.c ****   */
 362:/home/virusv/TDSAST_IOT/Libraries/src/stm32f10x_tim.c **** void TIM_OC2Init(TIM_TypeDef* TIMx, TIM_OCInitTypeDef* TIM_OCInitStruct)
 363:/home/virusv/TDSAST_IOT/Libraries/src/stm32f10x_tim.c **** {
 682              		.loc 1 363 0
 683              		.cfi_startproc
 684              		@ args = 0, pretend = 0, frame = 16
 685              		@ frame_needed = 1, uses_anonymous_args = 0
 686              		@ link register save eliminated.
 687 0000 80B4     		push	{r7}
 688              		.cfi_def_cfa_offset 4
 689              		.cfi_offset 7, -4
 690 0002 85B0     		sub	sp, sp, #20
 691              		.cfi_def_cfa_offset 24
 692 0004 00AF     		add	r7, sp, #0
 693              		.cfi_def_cfa_register 7
 694 0006 7860     		str	r0, [r7, #4]
 695 0008 3960     		str	r1, [r7]
 364:/home/virusv/TDSAST_IOT/Libraries/src/stm32f10x_tim.c ****   uint16_t tmpccmrx = 0, tmpccer = 0, tmpcr2 = 0;
 696              		.loc 1 364 0
 697 000a 0023     		movs	r3, #0
 698 000c 7B81     		strh	r3, [r7, #10]	@ movhi
 699 000e 0023     		movs	r3, #0
 700 0010 FB81     		strh	r3, [r7, #14]	@ movhi
 701 0012 0023     		movs	r3, #0
 702 0014 BB81     		strh	r3, [r7, #12]	@ movhi
 365:/home/virusv/TDSAST_IOT/Libraries/src/stm32f10x_tim.c ****    
 366:/home/virusv/TDSAST_IOT/Libraries/src/stm32f10x_tim.c ****   /* Check the parameters */
 367:/home/virusv/TDSAST_IOT/Libraries/src/stm32f10x_tim.c ****   assert_param(IS_TIM_LIST6_PERIPH(TIMx)); 
 368:/home/virusv/TDSAST_IOT/Libraries/src/stm32f10x_tim.c ****   assert_param(IS_TIM_OC_MODE(TIM_OCInitStruct->TIM_OCMode));
 369:/home/virusv/TDSAST_IOT/Libraries/src/stm32f10x_tim.c ****   assert_param(IS_TIM_OUTPUT_STATE(TIM_OCInitStruct->TIM_OutputState));
 370:/home/virusv/TDSAST_IOT/Libraries/src/stm32f10x_tim.c ****   assert_param(IS_TIM_OC_POLARITY(TIM_OCInitStruct->TIM_OCPolarity));   
 371:/home/virusv/TDSAST_IOT/Libraries/src/stm32f10x_tim.c ****    /* Disable the Channel 2: Reset the CC2E Bit */
 372:/home/virusv/TDSAST_IOT/Libraries/src/stm32f10x_tim.c ****   TIMx->CCER &= (uint16_t)(~((uint16_t)TIM_CCER_CC2E));
 703              		.loc 1 372 0
 704 0016 7B68     		ldr	r3, [r7, #4]
 705 0018 1B8C     		ldrh	r3, [r3, #32]	@ movhi
 706 001a 9BB2     		uxth	r3, r3
 707 001c 23F01003 		bic	r3, r3, #16
 708 0020 9AB2     		uxth	r2, r3
 709 0022 7B68     		ldr	r3, [r7, #4]
 710 0024 1A84     		strh	r2, [r3, #32]	@ movhi
 373:/home/virusv/TDSAST_IOT/Libraries/src/stm32f10x_tim.c ****   
 374:/home/virusv/TDSAST_IOT/Libraries/src/stm32f10x_tim.c ****   /* Get the TIMx CCER register value */  
 375:/home/virusv/TDSAST_IOT/Libraries/src/stm32f10x_tim.c ****   tmpccer = TIMx->CCER;
 711              		.loc 1 375 0
 712 0026 7B68     		ldr	r3, [r7, #4]
 713 0028 1B8C     		ldrh	r3, [r3, #32]	@ movhi
 714 002a FB81     		strh	r3, [r7, #14]	@ movhi
 376:/home/virusv/TDSAST_IOT/Libraries/src/stm32f10x_tim.c ****   /* Get the TIMx CR2 register value */
 377:/home/virusv/TDSAST_IOT/Libraries/src/stm32f10x_tim.c ****   tmpcr2 =  TIMx->CR2;
 715              		.loc 1 377 0
 716 002c 7B68     		ldr	r3, [r7, #4]
 717 002e 9B88     		ldrh	r3, [r3, #4]	@ movhi
 718 0030 BB81     		strh	r3, [r7, #12]	@ movhi
 378:/home/virusv/TDSAST_IOT/Libraries/src/stm32f10x_tim.c ****   
 379:/home/virusv/TDSAST_IOT/Libraries/src/stm32f10x_tim.c ****   /* Get the TIMx CCMR1 register value */
 380:/home/virusv/TDSAST_IOT/Libraries/src/stm32f10x_tim.c ****   tmpccmrx = TIMx->CCMR1;
 719              		.loc 1 380 0
 720 0032 7B68     		ldr	r3, [r7, #4]
 721 0034 1B8B     		ldrh	r3, [r3, #24]	@ movhi
 722 0036 7B81     		strh	r3, [r7, #10]	@ movhi
 381:/home/virusv/TDSAST_IOT/Libraries/src/stm32f10x_tim.c ****     
 382:/home/virusv/TDSAST_IOT/Libraries/src/stm32f10x_tim.c ****   /* Reset the Output Compare mode and Capture/Compare selection Bits */
 383:/home/virusv/TDSAST_IOT/Libraries/src/stm32f10x_tim.c ****   tmpccmrx &= (uint16_t)(~((uint16_t)TIM_CCMR1_OC2M));
 723              		.loc 1 383 0
 724 0038 7B89     		ldrh	r3, [r7, #10]	@ movhi
 725 003a 23F4E043 		bic	r3, r3, #28672
 726 003e 7B81     		strh	r3, [r7, #10]	@ movhi
 384:/home/virusv/TDSAST_IOT/Libraries/src/stm32f10x_tim.c ****   tmpccmrx &= (uint16_t)(~((uint16_t)TIM_CCMR1_CC2S));
 727              		.loc 1 384 0
 728 0040 7B89     		ldrh	r3, [r7, #10]	@ movhi
 729 0042 23F44073 		bic	r3, r3, #768
 730 0046 7B81     		strh	r3, [r7, #10]	@ movhi
 385:/home/virusv/TDSAST_IOT/Libraries/src/stm32f10x_tim.c ****   
 386:/home/virusv/TDSAST_IOT/Libraries/src/stm32f10x_tim.c ****   /* Select the Output Compare Mode */
 387:/home/virusv/TDSAST_IOT/Libraries/src/stm32f10x_tim.c ****   tmpccmrx |= (uint16_t)(TIM_OCInitStruct->TIM_OCMode << 8);
 731              		.loc 1 387 0
 732 0048 3B68     		ldr	r3, [r7]
 733 004a 1B88     		ldrh	r3, [r3]
 734 004c 1B02     		lsls	r3, r3, #8
 735 004e 9AB2     		uxth	r2, r3
 736 0050 7B89     		ldrh	r3, [r7, #10]	@ movhi
 737 0052 1343     		orrs	r3, r3, r2
 738 0054 7B81     		strh	r3, [r7, #10]	@ movhi
 388:/home/virusv/TDSAST_IOT/Libraries/src/stm32f10x_tim.c ****   
 389:/home/virusv/TDSAST_IOT/Libraries/src/stm32f10x_tim.c ****   /* Reset the Output Polarity level */
 390:/home/virusv/TDSAST_IOT/Libraries/src/stm32f10x_tim.c ****   tmpccer &= (uint16_t)(~((uint16_t)TIM_CCER_CC2P));
 739              		.loc 1 390 0
 740 0056 FB89     		ldrh	r3, [r7, #14]	@ movhi
 741 0058 23F02003 		bic	r3, r3, #32
 742 005c FB81     		strh	r3, [r7, #14]	@ movhi
 391:/home/virusv/TDSAST_IOT/Libraries/src/stm32f10x_tim.c ****   /* Set the Output Compare Polarity */
 392:/home/virusv/TDSAST_IOT/Libraries/src/stm32f10x_tim.c ****   tmpccer |= (uint16_t)(TIM_OCInitStruct->TIM_OCPolarity << 4);
 743              		.loc 1 392 0
 744 005e 3B68     		ldr	r3, [r7]
 745 0060 1B89     		ldrh	r3, [r3, #8]
 746 0062 1B01     		lsls	r3, r3, #4
 747 0064 9AB2     		uxth	r2, r3
 748 0066 FB89     		ldrh	r3, [r7, #14]	@ movhi
 749 0068 1343     		orrs	r3, r3, r2
 750 006a FB81     		strh	r3, [r7, #14]	@ movhi
 393:/home/virusv/TDSAST_IOT/Libraries/src/stm32f10x_tim.c ****   
 394:/home/virusv/TDSAST_IOT/Libraries/src/stm32f10x_tim.c ****   /* Set the Output State */
 395:/home/virusv/TDSAST_IOT/Libraries/src/stm32f10x_tim.c ****   tmpccer |= (uint16_t)(TIM_OCInitStruct->TIM_OutputState << 4);
 751              		.loc 1 395 0
 752 006c 3B68     		ldr	r3, [r7]
 753 006e 5B88     		ldrh	r3, [r3, #2]
 754 0070 1B01     		lsls	r3, r3, #4
 755 0072 9AB2     		uxth	r2, r3
 756 0074 FB89     		ldrh	r3, [r7, #14]	@ movhi
 757 0076 1343     		orrs	r3, r3, r2
 758 0078 FB81     		strh	r3, [r7, #14]	@ movhi
 396:/home/virusv/TDSAST_IOT/Libraries/src/stm32f10x_tim.c ****     
 397:/home/virusv/TDSAST_IOT/Libraries/src/stm32f10x_tim.c ****   if((TIMx == TIM1) || (TIMx == TIM8))
 759              		.loc 1 397 0
 760 007a 7B68     		ldr	r3, [r7, #4]
 761 007c 224A     		ldr	r2, .L37
 762 007e 9342     		cmp	r3, r2
 763 0080 03D0     		beq	.L35
 764              		.loc 1 397 0 is_stmt 0 discriminator 1
 765 0082 7B68     		ldr	r3, [r7, #4]
 766 0084 214A     		ldr	r2, .L37+4
 767 0086 9342     		cmp	r3, r2
 768 0088 2BD1     		bne	.L36
 769              	.L35:
 398:/home/virusv/TDSAST_IOT/Libraries/src/stm32f10x_tim.c ****   {
 399:/home/virusv/TDSAST_IOT/Libraries/src/stm32f10x_tim.c ****     assert_param(IS_TIM_OUTPUTN_STATE(TIM_OCInitStruct->TIM_OutputNState));
 400:/home/virusv/TDSAST_IOT/Libraries/src/stm32f10x_tim.c ****     assert_param(IS_TIM_OCN_POLARITY(TIM_OCInitStruct->TIM_OCNPolarity));
 401:/home/virusv/TDSAST_IOT/Libraries/src/stm32f10x_tim.c ****     assert_param(IS_TIM_OCNIDLE_STATE(TIM_OCInitStruct->TIM_OCNIdleState));
 402:/home/virusv/TDSAST_IOT/Libraries/src/stm32f10x_tim.c ****     assert_param(IS_TIM_OCIDLE_STATE(TIM_OCInitStruct->TIM_OCIdleState));
 403:/home/virusv/TDSAST_IOT/Libraries/src/stm32f10x_tim.c ****     
 404:/home/virusv/TDSAST_IOT/Libraries/src/stm32f10x_tim.c ****     /* Reset the Output N Polarity level */
 405:/home/virusv/TDSAST_IOT/Libraries/src/stm32f10x_tim.c ****     tmpccer &= (uint16_t)(~((uint16_t)TIM_CCER_CC2NP));
 770              		.loc 1 405 0 is_stmt 1
 771 008a FB89     		ldrh	r3, [r7, #14]	@ movhi
 772 008c 23F08003 		bic	r3, r3, #128
 773 0090 FB81     		strh	r3, [r7, #14]	@ movhi
 406:/home/virusv/TDSAST_IOT/Libraries/src/stm32f10x_tim.c ****     /* Set the Output N Polarity */
 407:/home/virusv/TDSAST_IOT/Libraries/src/stm32f10x_tim.c ****     tmpccer |= (uint16_t)(TIM_OCInitStruct->TIM_OCNPolarity << 4);
 774              		.loc 1 407 0
 775 0092 3B68     		ldr	r3, [r7]
 776 0094 5B89     		ldrh	r3, [r3, #10]
 777 0096 1B01     		lsls	r3, r3, #4
 778 0098 9AB2     		uxth	r2, r3
 779 009a FB89     		ldrh	r3, [r7, #14]	@ movhi
 780 009c 1343     		orrs	r3, r3, r2
 781 009e FB81     		strh	r3, [r7, #14]	@ movhi
 408:/home/virusv/TDSAST_IOT/Libraries/src/stm32f10x_tim.c ****     
 409:/home/virusv/TDSAST_IOT/Libraries/src/stm32f10x_tim.c ****     /* Reset the Output N State */
 410:/home/virusv/TDSAST_IOT/Libraries/src/stm32f10x_tim.c ****     tmpccer &= (uint16_t)(~((uint16_t)TIM_CCER_CC2NE));    
 782              		.loc 1 410 0
 783 00a0 FB89     		ldrh	r3, [r7, #14]	@ movhi
 784 00a2 23F04003 		bic	r3, r3, #64
 785 00a6 FB81     		strh	r3, [r7, #14]	@ movhi
 411:/home/virusv/TDSAST_IOT/Libraries/src/stm32f10x_tim.c ****     /* Set the Output N State */
 412:/home/virusv/TDSAST_IOT/Libraries/src/stm32f10x_tim.c ****     tmpccer |= (uint16_t)(TIM_OCInitStruct->TIM_OutputNState << 4);
 786              		.loc 1 412 0
 787 00a8 3B68     		ldr	r3, [r7]
 788 00aa 9B88     		ldrh	r3, [r3, #4]
 789 00ac 1B01     		lsls	r3, r3, #4
 790 00ae 9AB2     		uxth	r2, r3
 791 00b0 FB89     		ldrh	r3, [r7, #14]	@ movhi
 792 00b2 1343     		orrs	r3, r3, r2
 793 00b4 FB81     		strh	r3, [r7, #14]	@ movhi
 413:/home/virusv/TDSAST_IOT/Libraries/src/stm32f10x_tim.c ****     
 414:/home/virusv/TDSAST_IOT/Libraries/src/stm32f10x_tim.c ****     /* Reset the Output Compare and Output Compare N IDLE State */
 415:/home/virusv/TDSAST_IOT/Libraries/src/stm32f10x_tim.c ****     tmpcr2 &= (uint16_t)(~((uint16_t)TIM_CR2_OIS2));
 794              		.loc 1 415 0
 795 00b6 BB89     		ldrh	r3, [r7, #12]	@ movhi
 796 00b8 23F48063 		bic	r3, r3, #1024
 797 00bc BB81     		strh	r3, [r7, #12]	@ movhi
 416:/home/virusv/TDSAST_IOT/Libraries/src/stm32f10x_tim.c ****     tmpcr2 &= (uint16_t)(~((uint16_t)TIM_CR2_OIS2N));
 798              		.loc 1 416 0
 799 00be BB89     		ldrh	r3, [r7, #12]	@ movhi
 800 00c0 23F40063 		bic	r3, r3, #2048
 801 00c4 BB81     		strh	r3, [r7, #12]	@ movhi
 417:/home/virusv/TDSAST_IOT/Libraries/src/stm32f10x_tim.c ****     
 418:/home/virusv/TDSAST_IOT/Libraries/src/stm32f10x_tim.c ****     /* Set the Output Idle state */
 419:/home/virusv/TDSAST_IOT/Libraries/src/stm32f10x_tim.c ****     tmpcr2 |= (uint16_t)(TIM_OCInitStruct->TIM_OCIdleState << 2);
 802              		.loc 1 419 0
 803 00c6 3B68     		ldr	r3, [r7]
 804 00c8 9B89     		ldrh	r3, [r3, #12]
 805 00ca 9B00     		lsls	r3, r3, #2
 806 00cc 9AB2     		uxth	r2, r3
 807 00ce BB89     		ldrh	r3, [r7, #12]	@ movhi
 808 00d0 1343     		orrs	r3, r3, r2
 809 00d2 BB81     		strh	r3, [r7, #12]	@ movhi
 420:/home/virusv/TDSAST_IOT/Libraries/src/stm32f10x_tim.c ****     /* Set the Output N Idle state */
 421:/home/virusv/TDSAST_IOT/Libraries/src/stm32f10x_tim.c ****     tmpcr2 |= (uint16_t)(TIM_OCInitStruct->TIM_OCNIdleState << 2);
 810              		.loc 1 421 0
 811 00d4 3B68     		ldr	r3, [r7]
 812 00d6 DB89     		ldrh	r3, [r3, #14]
 813 00d8 9B00     		lsls	r3, r3, #2
 814 00da 9AB2     		uxth	r2, r3
 815 00dc BB89     		ldrh	r3, [r7, #12]	@ movhi
 816 00de 1343     		orrs	r3, r3, r2
 817 00e0 BB81     		strh	r3, [r7, #12]	@ movhi
 818              	.L36:
 422:/home/virusv/TDSAST_IOT/Libraries/src/stm32f10x_tim.c ****   }
 423:/home/virusv/TDSAST_IOT/Libraries/src/stm32f10x_tim.c ****   /* Write to TIMx CR2 */
 424:/home/virusv/TDSAST_IOT/Libraries/src/stm32f10x_tim.c ****   TIMx->CR2 = tmpcr2;
 819              		.loc 1 424 0
 820 00e2 7B68     		ldr	r3, [r7, #4]
 821 00e4 BA89     		ldrh	r2, [r7, #12]	@ movhi
 822 00e6 9A80     		strh	r2, [r3, #4]	@ movhi
 425:/home/virusv/TDSAST_IOT/Libraries/src/stm32f10x_tim.c ****   
 426:/home/virusv/TDSAST_IOT/Libraries/src/stm32f10x_tim.c ****   /* Write to TIMx CCMR1 */
 427:/home/virusv/TDSAST_IOT/Libraries/src/stm32f10x_tim.c ****   TIMx->CCMR1 = tmpccmrx;
 823              		.loc 1 427 0
 824 00e8 7B68     		ldr	r3, [r7, #4]
 825 00ea 7A89     		ldrh	r2, [r7, #10]	@ movhi
 826 00ec 1A83     		strh	r2, [r3, #24]	@ movhi
 428:/home/virusv/TDSAST_IOT/Libraries/src/stm32f10x_tim.c **** 
 429:/home/virusv/TDSAST_IOT/Libraries/src/stm32f10x_tim.c ****   /* Set the Capture Compare Register value */
 430:/home/virusv/TDSAST_IOT/Libraries/src/stm32f10x_tim.c ****   TIMx->CCR2 = TIM_OCInitStruct->TIM_Pulse;
 827              		.loc 1 430 0
 828 00ee 3B68     		ldr	r3, [r7]
 829 00f0 DA88     		ldrh	r2, [r3, #6]
 830 00f2 7B68     		ldr	r3, [r7, #4]
 831 00f4 1A87     		strh	r2, [r3, #56]	@ movhi
 431:/home/virusv/TDSAST_IOT/Libraries/src/stm32f10x_tim.c ****   
 432:/home/virusv/TDSAST_IOT/Libraries/src/stm32f10x_tim.c ****   /* Write to TIMx CCER */
 433:/home/virusv/TDSAST_IOT/Libraries/src/stm32f10x_tim.c ****   TIMx->CCER = tmpccer;
 832              		.loc 1 433 0
 833 00f6 7B68     		ldr	r3, [r7, #4]
 834 00f8 FA89     		ldrh	r2, [r7, #14]	@ movhi
 835 00fa 1A84     		strh	r2, [r3, #32]	@ movhi
 434:/home/virusv/TDSAST_IOT/Libraries/src/stm32f10x_tim.c **** }
 836              		.loc 1 434 0
 837 00fc 1437     		adds	r7, r7, #20
 838              		.cfi_def_cfa_offset 4
 839 00fe BD46     		mov	sp, r7
 840              		.cfi_def_cfa_register 13
 841              		@ sp needed
 842 0100 5DF8047B 		ldr	r7, [sp], #4
 843              		.cfi_restore 7
 844              		.cfi_def_cfa_offset 0
 845 0104 7047     		bx	lr
 846              	.L38:
 847 0106 00BF     		.align	2
 848              	.L37:
 849 0108 002C0140 		.word	1073818624
 850 010c 00340140 		.word	1073820672
 851              		.cfi_endproc
 852              	.LFE32:
 854              		.section	.text.TIM_OC3Init,"ax",%progbits
 855              		.align	2
 856              		.global	TIM_OC3Init
 857              		.thumb
 858              		.thumb_func
 860              	TIM_OC3Init:
 861              	.LFB33:
 435:/home/virusv/TDSAST_IOT/Libraries/src/stm32f10x_tim.c **** 
 436:/home/virusv/TDSAST_IOT/Libraries/src/stm32f10x_tim.c **** /**
 437:/home/virusv/TDSAST_IOT/Libraries/src/stm32f10x_tim.c ****   * @brief  Initializes the TIMx Channel3 according to the specified
 438:/home/virusv/TDSAST_IOT/Libraries/src/stm32f10x_tim.c ****   *         parameters in the TIM_OCInitStruct.
 439:/home/virusv/TDSAST_IOT/Libraries/src/stm32f10x_tim.c ****   * @param  TIMx: where x can be  1, 2, 3, 4, 5 or 8 to select the TIM peripheral.
 440:/home/virusv/TDSAST_IOT/Libraries/src/stm32f10x_tim.c ****   * @param  TIM_OCInitStruct: pointer to a TIM_OCInitTypeDef structure
 441:/home/virusv/TDSAST_IOT/Libraries/src/stm32f10x_tim.c ****   *         that contains the configuration information for the specified TIM peripheral.
 442:/home/virusv/TDSAST_IOT/Libraries/src/stm32f10x_tim.c ****   * @retval None
 443:/home/virusv/TDSAST_IOT/Libraries/src/stm32f10x_tim.c ****   */
 444:/home/virusv/TDSAST_IOT/Libraries/src/stm32f10x_tim.c **** void TIM_OC3Init(TIM_TypeDef* TIMx, TIM_OCInitTypeDef* TIM_OCInitStruct)
 445:/home/virusv/TDSAST_IOT/Libraries/src/stm32f10x_tim.c **** {
 862              		.loc 1 445 0
 863              		.cfi_startproc
 864              		@ args = 0, pretend = 0, frame = 16
 865              		@ frame_needed = 1, uses_anonymous_args = 0
 866              		@ link register save eliminated.
 867 0000 80B4     		push	{r7}
 868              		.cfi_def_cfa_offset 4
 869              		.cfi_offset 7, -4
 870 0002 85B0     		sub	sp, sp, #20
 871              		.cfi_def_cfa_offset 24
 872 0004 00AF     		add	r7, sp, #0
 873              		.cfi_def_cfa_register 7
 874 0006 7860     		str	r0, [r7, #4]
 875 0008 3960     		str	r1, [r7]
 446:/home/virusv/TDSAST_IOT/Libraries/src/stm32f10x_tim.c ****   uint16_t tmpccmrx = 0, tmpccer = 0, tmpcr2 = 0;
 876              		.loc 1 446 0
 877 000a 0023     		movs	r3, #0
 878 000c 7B81     		strh	r3, [r7, #10]	@ movhi
 879 000e 0023     		movs	r3, #0
 880 0010 FB81     		strh	r3, [r7, #14]	@ movhi
 881 0012 0023     		movs	r3, #0
 882 0014 BB81     		strh	r3, [r7, #12]	@ movhi
 447:/home/virusv/TDSAST_IOT/Libraries/src/stm32f10x_tim.c ****    
 448:/home/virusv/TDSAST_IOT/Libraries/src/stm32f10x_tim.c ****   /* Check the parameters */
 449:/home/virusv/TDSAST_IOT/Libraries/src/stm32f10x_tim.c ****   assert_param(IS_TIM_LIST3_PERIPH(TIMx)); 
 450:/home/virusv/TDSAST_IOT/Libraries/src/stm32f10x_tim.c ****   assert_param(IS_TIM_OC_MODE(TIM_OCInitStruct->TIM_OCMode));
 451:/home/virusv/TDSAST_IOT/Libraries/src/stm32f10x_tim.c ****   assert_param(IS_TIM_OUTPUT_STATE(TIM_OCInitStruct->TIM_OutputState));
 452:/home/virusv/TDSAST_IOT/Libraries/src/stm32f10x_tim.c ****   assert_param(IS_TIM_OC_POLARITY(TIM_OCInitStruct->TIM_OCPolarity));   
 453:/home/virusv/TDSAST_IOT/Libraries/src/stm32f10x_tim.c ****   /* Disable the Channel 2: Reset the CC2E Bit */
 454:/home/virusv/TDSAST_IOT/Libraries/src/stm32f10x_tim.c ****   TIMx->CCER &= (uint16_t)(~((uint16_t)TIM_CCER_CC3E));
 883              		.loc 1 454 0
 884 0016 7B68     		ldr	r3, [r7, #4]
 885 0018 1B8C     		ldrh	r3, [r3, #32]	@ movhi
 886 001a 9BB2     		uxth	r3, r3
 887 001c 23F48073 		bic	r3, r3, #256
 888 0020 9AB2     		uxth	r2, r3
 889 0022 7B68     		ldr	r3, [r7, #4]
 890 0024 1A84     		strh	r2, [r3, #32]	@ movhi
 455:/home/virusv/TDSAST_IOT/Libraries/src/stm32f10x_tim.c ****   
 456:/home/virusv/TDSAST_IOT/Libraries/src/stm32f10x_tim.c ****   /* Get the TIMx CCER register value */
 457:/home/virusv/TDSAST_IOT/Libraries/src/stm32f10x_tim.c ****   tmpccer = TIMx->CCER;
 891              		.loc 1 457 0
 892 0026 7B68     		ldr	r3, [r7, #4]
 893 0028 1B8C     		ldrh	r3, [r3, #32]	@ movhi
 894 002a FB81     		strh	r3, [r7, #14]	@ movhi
 458:/home/virusv/TDSAST_IOT/Libraries/src/stm32f10x_tim.c ****   /* Get the TIMx CR2 register value */
 459:/home/virusv/TDSAST_IOT/Libraries/src/stm32f10x_tim.c ****   tmpcr2 =  TIMx->CR2;
 895              		.loc 1 459 0
 896 002c 7B68     		ldr	r3, [r7, #4]
 897 002e 9B88     		ldrh	r3, [r3, #4]	@ movhi
 898 0030 BB81     		strh	r3, [r7, #12]	@ movhi
 460:/home/virusv/TDSAST_IOT/Libraries/src/stm32f10x_tim.c ****   
 461:/home/virusv/TDSAST_IOT/Libraries/src/stm32f10x_tim.c ****   /* Get the TIMx CCMR2 register value */
 462:/home/virusv/TDSAST_IOT/Libraries/src/stm32f10x_tim.c ****   tmpccmrx = TIMx->CCMR2;
 899              		.loc 1 462 0
 900 0032 7B68     		ldr	r3, [r7, #4]
 901 0034 9B8B     		ldrh	r3, [r3, #28]	@ movhi
 902 0036 7B81     		strh	r3, [r7, #10]	@ movhi
 463:/home/virusv/TDSAST_IOT/Libraries/src/stm32f10x_tim.c ****     
 464:/home/virusv/TDSAST_IOT/Libraries/src/stm32f10x_tim.c ****   /* Reset the Output Compare mode and Capture/Compare selection Bits */
 465:/home/virusv/TDSAST_IOT/Libraries/src/stm32f10x_tim.c ****   tmpccmrx &= (uint16_t)(~((uint16_t)TIM_CCMR2_OC3M));
 903              		.loc 1 465 0
 904 0038 7B89     		ldrh	r3, [r7, #10]	@ movhi
 905 003a 23F07003 		bic	r3, r3, #112
 906 003e 7B81     		strh	r3, [r7, #10]	@ movhi
 466:/home/virusv/TDSAST_IOT/Libraries/src/stm32f10x_tim.c ****   tmpccmrx &= (uint16_t)(~((uint16_t)TIM_CCMR2_CC3S));  
 907              		.loc 1 466 0
 908 0040 7B89     		ldrh	r3, [r7, #10]	@ movhi
 909 0042 23F00303 		bic	r3, r3, #3
 910 0046 7B81     		strh	r3, [r7, #10]	@ movhi
 467:/home/virusv/TDSAST_IOT/Libraries/src/stm32f10x_tim.c ****   /* Select the Output Compare Mode */
 468:/home/virusv/TDSAST_IOT/Libraries/src/stm32f10x_tim.c ****   tmpccmrx |= TIM_OCInitStruct->TIM_OCMode;
 911              		.loc 1 468 0
 912 0048 3B68     		ldr	r3, [r7]
 913 004a 1A88     		ldrh	r2, [r3]
 914 004c 7B89     		ldrh	r3, [r7, #10]	@ movhi
 915 004e 1343     		orrs	r3, r3, r2
 916 0050 7B81     		strh	r3, [r7, #10]	@ movhi
 469:/home/virusv/TDSAST_IOT/Libraries/src/stm32f10x_tim.c ****   
 470:/home/virusv/TDSAST_IOT/Libraries/src/stm32f10x_tim.c ****   /* Reset the Output Polarity level */
 471:/home/virusv/TDSAST_IOT/Libraries/src/stm32f10x_tim.c ****   tmpccer &= (uint16_t)(~((uint16_t)TIM_CCER_CC3P));
 917              		.loc 1 471 0
 918 0052 FB89     		ldrh	r3, [r7, #14]	@ movhi
 919 0054 23F40073 		bic	r3, r3, #512
 920 0058 FB81     		strh	r3, [r7, #14]	@ movhi
 472:/home/virusv/TDSAST_IOT/Libraries/src/stm32f10x_tim.c ****   /* Set the Output Compare Polarity */
 473:/home/virusv/TDSAST_IOT/Libraries/src/stm32f10x_tim.c ****   tmpccer |= (uint16_t)(TIM_OCInitStruct->TIM_OCPolarity << 8);
 921              		.loc 1 473 0
 922 005a 3B68     		ldr	r3, [r7]
 923 005c 1B89     		ldrh	r3, [r3, #8]
 924 005e 1B02     		lsls	r3, r3, #8
 925 0060 9AB2     		uxth	r2, r3
 926 0062 FB89     		ldrh	r3, [r7, #14]	@ movhi
 927 0064 1343     		orrs	r3, r3, r2
 928 0066 FB81     		strh	r3, [r7, #14]	@ movhi
 474:/home/virusv/TDSAST_IOT/Libraries/src/stm32f10x_tim.c ****   
 475:/home/virusv/TDSAST_IOT/Libraries/src/stm32f10x_tim.c ****   /* Set the Output State */
 476:/home/virusv/TDSAST_IOT/Libraries/src/stm32f10x_tim.c ****   tmpccer |= (uint16_t)(TIM_OCInitStruct->TIM_OutputState << 8);
 929              		.loc 1 476 0
 930 0068 3B68     		ldr	r3, [r7]
 931 006a 5B88     		ldrh	r3, [r3, #2]
 932 006c 1B02     		lsls	r3, r3, #8
 933 006e 9AB2     		uxth	r2, r3
 934 0070 FB89     		ldrh	r3, [r7, #14]	@ movhi
 935 0072 1343     		orrs	r3, r3, r2
 936 0074 FB81     		strh	r3, [r7, #14]	@ movhi
 477:/home/virusv/TDSAST_IOT/Libraries/src/stm32f10x_tim.c ****     
 478:/home/virusv/TDSAST_IOT/Libraries/src/stm32f10x_tim.c ****   if((TIMx == TIM1) || (TIMx == TIM8))
 937              		.loc 1 478 0
 938 0076 7B68     		ldr	r3, [r7, #4]
 939 0078 224A     		ldr	r2, .L42
 940 007a 9342     		cmp	r3, r2
 941 007c 03D0     		beq	.L40
 942              		.loc 1 478 0 is_stmt 0 discriminator 1
 943 007e 7B68     		ldr	r3, [r7, #4]
 944 0080 214A     		ldr	r2, .L42+4
 945 0082 9342     		cmp	r3, r2
 946 0084 2BD1     		bne	.L41
 947              	.L40:
 479:/home/virusv/TDSAST_IOT/Libraries/src/stm32f10x_tim.c ****   {
 480:/home/virusv/TDSAST_IOT/Libraries/src/stm32f10x_tim.c ****     assert_param(IS_TIM_OUTPUTN_STATE(TIM_OCInitStruct->TIM_OutputNState));
 481:/home/virusv/TDSAST_IOT/Libraries/src/stm32f10x_tim.c ****     assert_param(IS_TIM_OCN_POLARITY(TIM_OCInitStruct->TIM_OCNPolarity));
 482:/home/virusv/TDSAST_IOT/Libraries/src/stm32f10x_tim.c ****     assert_param(IS_TIM_OCNIDLE_STATE(TIM_OCInitStruct->TIM_OCNIdleState));
 483:/home/virusv/TDSAST_IOT/Libraries/src/stm32f10x_tim.c ****     assert_param(IS_TIM_OCIDLE_STATE(TIM_OCInitStruct->TIM_OCIdleState));
 484:/home/virusv/TDSAST_IOT/Libraries/src/stm32f10x_tim.c ****     
 485:/home/virusv/TDSAST_IOT/Libraries/src/stm32f10x_tim.c ****     /* Reset the Output N Polarity level */
 486:/home/virusv/TDSAST_IOT/Libraries/src/stm32f10x_tim.c ****     tmpccer &= (uint16_t)(~((uint16_t)TIM_CCER_CC3NP));
 948              		.loc 1 486 0 is_stmt 1
 949 0086 FB89     		ldrh	r3, [r7, #14]	@ movhi
 950 0088 23F40063 		bic	r3, r3, #2048
 951 008c FB81     		strh	r3, [r7, #14]	@ movhi
 487:/home/virusv/TDSAST_IOT/Libraries/src/stm32f10x_tim.c ****     /* Set the Output N Polarity */
 488:/home/virusv/TDSAST_IOT/Libraries/src/stm32f10x_tim.c ****     tmpccer |= (uint16_t)(TIM_OCInitStruct->TIM_OCNPolarity << 8);
 952              		.loc 1 488 0
 953 008e 3B68     		ldr	r3, [r7]
 954 0090 5B89     		ldrh	r3, [r3, #10]
 955 0092 1B02     		lsls	r3, r3, #8
 956 0094 9AB2     		uxth	r2, r3
 957 0096 FB89     		ldrh	r3, [r7, #14]	@ movhi
 958 0098 1343     		orrs	r3, r3, r2
 959 009a FB81     		strh	r3, [r7, #14]	@ movhi
 489:/home/virusv/TDSAST_IOT/Libraries/src/stm32f10x_tim.c ****     /* Reset the Output N State */
 490:/home/virusv/TDSAST_IOT/Libraries/src/stm32f10x_tim.c ****     tmpccer &= (uint16_t)(~((uint16_t)TIM_CCER_CC3NE));
 960              		.loc 1 490 0
 961 009c FB89     		ldrh	r3, [r7, #14]	@ movhi
 962 009e 23F48063 		bic	r3, r3, #1024
 963 00a2 FB81     		strh	r3, [r7, #14]	@ movhi
 491:/home/virusv/TDSAST_IOT/Libraries/src/stm32f10x_tim.c ****     
 492:/home/virusv/TDSAST_IOT/Libraries/src/stm32f10x_tim.c ****     /* Set the Output N State */
 493:/home/virusv/TDSAST_IOT/Libraries/src/stm32f10x_tim.c ****     tmpccer |= (uint16_t)(TIM_OCInitStruct->TIM_OutputNState << 8);
 964              		.loc 1 493 0
 965 00a4 3B68     		ldr	r3, [r7]
 966 00a6 9B88     		ldrh	r3, [r3, #4]
 967 00a8 1B02     		lsls	r3, r3, #8
 968 00aa 9AB2     		uxth	r2, r3
 969 00ac FB89     		ldrh	r3, [r7, #14]	@ movhi
 970 00ae 1343     		orrs	r3, r3, r2
 971 00b0 FB81     		strh	r3, [r7, #14]	@ movhi
 494:/home/virusv/TDSAST_IOT/Libraries/src/stm32f10x_tim.c ****     /* Reset the Output Compare and Output Compare N IDLE State */
 495:/home/virusv/TDSAST_IOT/Libraries/src/stm32f10x_tim.c ****     tmpcr2 &= (uint16_t)(~((uint16_t)TIM_CR2_OIS3));
 972              		.loc 1 495 0
 973 00b2 BB89     		ldrh	r3, [r7, #12]	@ movhi
 974 00b4 23F48053 		bic	r3, r3, #4096
 975 00b8 BB81     		strh	r3, [r7, #12]	@ movhi
 496:/home/virusv/TDSAST_IOT/Libraries/src/stm32f10x_tim.c ****     tmpcr2 &= (uint16_t)(~((uint16_t)TIM_CR2_OIS3N));
 976              		.loc 1 496 0
 977 00ba BB89     		ldrh	r3, [r7, #12]	@ movhi
 978 00bc 23F40053 		bic	r3, r3, #8192
 979 00c0 BB81     		strh	r3, [r7, #12]	@ movhi
 497:/home/virusv/TDSAST_IOT/Libraries/src/stm32f10x_tim.c ****     /* Set the Output Idle state */
 498:/home/virusv/TDSAST_IOT/Libraries/src/stm32f10x_tim.c ****     tmpcr2 |= (uint16_t)(TIM_OCInitStruct->TIM_OCIdleState << 4);
 980              		.loc 1 498 0
 981 00c2 3B68     		ldr	r3, [r7]
 982 00c4 9B89     		ldrh	r3, [r3, #12]
 983 00c6 1B01     		lsls	r3, r3, #4
 984 00c8 9AB2     		uxth	r2, r3
 985 00ca BB89     		ldrh	r3, [r7, #12]	@ movhi
 986 00cc 1343     		orrs	r3, r3, r2
 987 00ce BB81     		strh	r3, [r7, #12]	@ movhi
 499:/home/virusv/TDSAST_IOT/Libraries/src/stm32f10x_tim.c ****     /* Set the Output N Idle state */
 500:/home/virusv/TDSAST_IOT/Libraries/src/stm32f10x_tim.c ****     tmpcr2 |= (uint16_t)(TIM_OCInitStruct->TIM_OCNIdleState << 4);
 988              		.loc 1 500 0
 989 00d0 3B68     		ldr	r3, [r7]
 990 00d2 DB89     		ldrh	r3, [r3, #14]
 991 00d4 1B01     		lsls	r3, r3, #4
 992 00d6 9AB2     		uxth	r2, r3
 993 00d8 BB89     		ldrh	r3, [r7, #12]	@ movhi
 994 00da 1343     		orrs	r3, r3, r2
 995 00dc BB81     		strh	r3, [r7, #12]	@ movhi
 996              	.L41:
 501:/home/virusv/TDSAST_IOT/Libraries/src/stm32f10x_tim.c ****   }
 502:/home/virusv/TDSAST_IOT/Libraries/src/stm32f10x_tim.c ****   /* Write to TIMx CR2 */
 503:/home/virusv/TDSAST_IOT/Libraries/src/stm32f10x_tim.c ****   TIMx->CR2 = tmpcr2;
 997              		.loc 1 503 0
 998 00de 7B68     		ldr	r3, [r7, #4]
 999 00e0 BA89     		ldrh	r2, [r7, #12]	@ movhi
 1000 00e2 9A80     		strh	r2, [r3, #4]	@ movhi
 504:/home/virusv/TDSAST_IOT/Libraries/src/stm32f10x_tim.c ****   
 505:/home/virusv/TDSAST_IOT/Libraries/src/stm32f10x_tim.c ****   /* Write to TIMx CCMR2 */
 506:/home/virusv/TDSAST_IOT/Libraries/src/stm32f10x_tim.c ****   TIMx->CCMR2 = tmpccmrx;
 1001              		.loc 1 506 0
 1002 00e4 7B68     		ldr	r3, [r7, #4]
 1003 00e6 7A89     		ldrh	r2, [r7, #10]	@ movhi
 1004 00e8 9A83     		strh	r2, [r3, #28]	@ movhi
 507:/home/virusv/TDSAST_IOT/Libraries/src/stm32f10x_tim.c **** 
 508:/home/virusv/TDSAST_IOT/Libraries/src/stm32f10x_tim.c ****   /* Set the Capture Compare Register value */
 509:/home/virusv/TDSAST_IOT/Libraries/src/stm32f10x_tim.c ****   TIMx->CCR3 = TIM_OCInitStruct->TIM_Pulse;
 1005              		.loc 1 509 0
 1006 00ea 3B68     		ldr	r3, [r7]
 1007 00ec DA88     		ldrh	r2, [r3, #6]
 1008 00ee 7B68     		ldr	r3, [r7, #4]
 1009 00f0 9A87     		strh	r2, [r3, #60]	@ movhi
 510:/home/virusv/TDSAST_IOT/Libraries/src/stm32f10x_tim.c ****   
 511:/home/virusv/TDSAST_IOT/Libraries/src/stm32f10x_tim.c ****   /* Write to TIMx CCER */
 512:/home/virusv/TDSAST_IOT/Libraries/src/stm32f10x_tim.c ****   TIMx->CCER = tmpccer;
 1010              		.loc 1 512 0
 1011 00f2 7B68     		ldr	r3, [r7, #4]
 1012 00f4 FA89     		ldrh	r2, [r7, #14]	@ movhi
 1013 00f6 1A84     		strh	r2, [r3, #32]	@ movhi
 513:/home/virusv/TDSAST_IOT/Libraries/src/stm32f10x_tim.c **** }
 1014              		.loc 1 513 0
 1015 00f8 1437     		adds	r7, r7, #20
 1016              		.cfi_def_cfa_offset 4
 1017 00fa BD46     		mov	sp, r7
 1018              		.cfi_def_cfa_register 13
 1019              		@ sp needed
 1020 00fc 5DF8047B 		ldr	r7, [sp], #4
 1021              		.cfi_restore 7
 1022              		.cfi_def_cfa_offset 0
 1023 0100 7047     		bx	lr
 1024              	.L43:
 1025 0102 00BF     		.align	2
 1026              	.L42:
 1027 0104 002C0140 		.word	1073818624
 1028 0108 00340140 		.word	1073820672
 1029              		.cfi_endproc
 1030              	.LFE33:
 1032              		.section	.text.TIM_OC4Init,"ax",%progbits
 1033              		.align	2
 1034              		.global	TIM_OC4Init
 1035              		.thumb
 1036              		.thumb_func
 1038              	TIM_OC4Init:
 1039              	.LFB34:
 514:/home/virusv/TDSAST_IOT/Libraries/src/stm32f10x_tim.c **** 
 515:/home/virusv/TDSAST_IOT/Libraries/src/stm32f10x_tim.c **** /**
 516:/home/virusv/TDSAST_IOT/Libraries/src/stm32f10x_tim.c ****   * @brief  Initializes the TIMx Channel4 according to the specified
 517:/home/virusv/TDSAST_IOT/Libraries/src/stm32f10x_tim.c ****   *         parameters in the TIM_OCInitStruct.
 518:/home/virusv/TDSAST_IOT/Libraries/src/stm32f10x_tim.c ****   * @param  TIMx: where x can be  1, 2, 3, 4, 5 or 8 to select the TIM peripheral.
 519:/home/virusv/TDSAST_IOT/Libraries/src/stm32f10x_tim.c ****   * @param  TIM_OCInitStruct: pointer to a TIM_OCInitTypeDef structure
 520:/home/virusv/TDSAST_IOT/Libraries/src/stm32f10x_tim.c ****   *         that contains the configuration information for the specified TIM peripheral.
 521:/home/virusv/TDSAST_IOT/Libraries/src/stm32f10x_tim.c ****   * @retval None
 522:/home/virusv/TDSAST_IOT/Libraries/src/stm32f10x_tim.c ****   */
 523:/home/virusv/TDSAST_IOT/Libraries/src/stm32f10x_tim.c **** void TIM_OC4Init(TIM_TypeDef* TIMx, TIM_OCInitTypeDef* TIM_OCInitStruct)
 524:/home/virusv/TDSAST_IOT/Libraries/src/stm32f10x_tim.c **** {
 1040              		.loc 1 524 0
 1041              		.cfi_startproc
 1042              		@ args = 0, pretend = 0, frame = 16
 1043              		@ frame_needed = 1, uses_anonymous_args = 0
 1044              		@ link register save eliminated.
 1045 0000 80B4     		push	{r7}
 1046              		.cfi_def_cfa_offset 4
 1047              		.cfi_offset 7, -4
 1048 0002 85B0     		sub	sp, sp, #20
 1049              		.cfi_def_cfa_offset 24
 1050 0004 00AF     		add	r7, sp, #0
 1051              		.cfi_def_cfa_register 7
 1052 0006 7860     		str	r0, [r7, #4]
 1053 0008 3960     		str	r1, [r7]
 525:/home/virusv/TDSAST_IOT/Libraries/src/stm32f10x_tim.c ****   uint16_t tmpccmrx = 0, tmpccer = 0, tmpcr2 = 0;
 1054              		.loc 1 525 0
 1055 000a 0023     		movs	r3, #0
 1056 000c BB81     		strh	r3, [r7, #12]	@ movhi
 1057 000e 0023     		movs	r3, #0
 1058 0010 7B81     		strh	r3, [r7, #10]	@ movhi
 1059 0012 0023     		movs	r3, #0
 1060 0014 FB81     		strh	r3, [r7, #14]	@ movhi
 526:/home/virusv/TDSAST_IOT/Libraries/src/stm32f10x_tim.c ****    
 527:/home/virusv/TDSAST_IOT/Libraries/src/stm32f10x_tim.c ****   /* Check the parameters */
 528:/home/virusv/TDSAST_IOT/Libraries/src/stm32f10x_tim.c ****   assert_param(IS_TIM_LIST3_PERIPH(TIMx)); 
 529:/home/virusv/TDSAST_IOT/Libraries/src/stm32f10x_tim.c ****   assert_param(IS_TIM_OC_MODE(TIM_OCInitStruct->TIM_OCMode));
 530:/home/virusv/TDSAST_IOT/Libraries/src/stm32f10x_tim.c ****   assert_param(IS_TIM_OUTPUT_STATE(TIM_OCInitStruct->TIM_OutputState));
 531:/home/virusv/TDSAST_IOT/Libraries/src/stm32f10x_tim.c ****   assert_param(IS_TIM_OC_POLARITY(TIM_OCInitStruct->TIM_OCPolarity));   
 532:/home/virusv/TDSAST_IOT/Libraries/src/stm32f10x_tim.c ****   /* Disable the Channel 2: Reset the CC4E Bit */
 533:/home/virusv/TDSAST_IOT/Libraries/src/stm32f10x_tim.c ****   TIMx->CCER &= (uint16_t)(~((uint16_t)TIM_CCER_CC4E));
 1061              		.loc 1 533 0
 1062 0016 7B68     		ldr	r3, [r7, #4]
 1063 0018 1B8C     		ldrh	r3, [r3, #32]	@ movhi
 1064 001a 9BB2     		uxth	r3, r3
 1065 001c 23F48053 		bic	r3, r3, #4096
 1066 0020 9AB2     		uxth	r2, r3
 1067 0022 7B68     		ldr	r3, [r7, #4]
 1068 0024 1A84     		strh	r2, [r3, #32]	@ movhi
 534:/home/virusv/TDSAST_IOT/Libraries/src/stm32f10x_tim.c ****   
 535:/home/virusv/TDSAST_IOT/Libraries/src/stm32f10x_tim.c ****   /* Get the TIMx CCER register value */
 536:/home/virusv/TDSAST_IOT/Libraries/src/stm32f10x_tim.c ****   tmpccer = TIMx->CCER;
 1069              		.loc 1 536 0
 1070 0026 7B68     		ldr	r3, [r7, #4]
 1071 0028 1B8C     		ldrh	r3, [r3, #32]	@ movhi
 1072 002a 7B81     		strh	r3, [r7, #10]	@ movhi
 537:/home/virusv/TDSAST_IOT/Libraries/src/stm32f10x_tim.c ****   /* Get the TIMx CR2 register value */
 538:/home/virusv/TDSAST_IOT/Libraries/src/stm32f10x_tim.c ****   tmpcr2 =  TIMx->CR2;
 1073              		.loc 1 538 0
 1074 002c 7B68     		ldr	r3, [r7, #4]
 1075 002e 9B88     		ldrh	r3, [r3, #4]	@ movhi
 1076 0030 FB81     		strh	r3, [r7, #14]	@ movhi
 539:/home/virusv/TDSAST_IOT/Libraries/src/stm32f10x_tim.c ****   
 540:/home/virusv/TDSAST_IOT/Libraries/src/stm32f10x_tim.c ****   /* Get the TIMx CCMR2 register value */
 541:/home/virusv/TDSAST_IOT/Libraries/src/stm32f10x_tim.c ****   tmpccmrx = TIMx->CCMR2;
 1077              		.loc 1 541 0
 1078 0032 7B68     		ldr	r3, [r7, #4]
 1079 0034 9B8B     		ldrh	r3, [r3, #28]	@ movhi
 1080 0036 BB81     		strh	r3, [r7, #12]	@ movhi
 542:/home/virusv/TDSAST_IOT/Libraries/src/stm32f10x_tim.c ****     
 543:/home/virusv/TDSAST_IOT/Libraries/src/stm32f10x_tim.c ****   /* Reset the Output Compare mode and Capture/Compare selection Bits */
 544:/home/virusv/TDSAST_IOT/Libraries/src/stm32f10x_tim.c ****   tmpccmrx &= (uint16_t)(~((uint16_t)TIM_CCMR2_OC4M));
 1081              		.loc 1 544 0
 1082 0038 BB89     		ldrh	r3, [r7, #12]	@ movhi
 1083 003a 23F4E043 		bic	r3, r3, #28672
 1084 003e BB81     		strh	r3, [r7, #12]	@ movhi
 545:/home/virusv/TDSAST_IOT/Libraries/src/stm32f10x_tim.c ****   tmpccmrx &= (uint16_t)(~((uint16_t)TIM_CCMR2_CC4S));
 1085              		.loc 1 545 0
 1086 0040 BB89     		ldrh	r3, [r7, #12]	@ movhi
 1087 0042 23F44073 		bic	r3, r3, #768
 1088 0046 BB81     		strh	r3, [r7, #12]	@ movhi
 546:/home/virusv/TDSAST_IOT/Libraries/src/stm32f10x_tim.c ****   
 547:/home/virusv/TDSAST_IOT/Libraries/src/stm32f10x_tim.c ****   /* Select the Output Compare Mode */
 548:/home/virusv/TDSAST_IOT/Libraries/src/stm32f10x_tim.c ****   tmpccmrx |= (uint16_t)(TIM_OCInitStruct->TIM_OCMode << 8);
 1089              		.loc 1 548 0
 1090 0048 3B68     		ldr	r3, [r7]
 1091 004a 1B88     		ldrh	r3, [r3]
 1092 004c 1B02     		lsls	r3, r3, #8
 1093 004e 9AB2     		uxth	r2, r3
 1094 0050 BB89     		ldrh	r3, [r7, #12]	@ movhi
 1095 0052 1343     		orrs	r3, r3, r2
 1096 0054 BB81     		strh	r3, [r7, #12]	@ movhi
 549:/home/virusv/TDSAST_IOT/Libraries/src/stm32f10x_tim.c ****   
 550:/home/virusv/TDSAST_IOT/Libraries/src/stm32f10x_tim.c ****   /* Reset the Output Polarity level */
 551:/home/virusv/TDSAST_IOT/Libraries/src/stm32f10x_tim.c ****   tmpccer &= (uint16_t)(~((uint16_t)TIM_CCER_CC4P));
 1097              		.loc 1 551 0
 1098 0056 7B89     		ldrh	r3, [r7, #10]	@ movhi
 1099 0058 23F40053 		bic	r3, r3, #8192
 1100 005c 7B81     		strh	r3, [r7, #10]	@ movhi
 552:/home/virusv/TDSAST_IOT/Libraries/src/stm32f10x_tim.c ****   /* Set the Output Compare Polarity */
 553:/home/virusv/TDSAST_IOT/Libraries/src/stm32f10x_tim.c ****   tmpccer |= (uint16_t)(TIM_OCInitStruct->TIM_OCPolarity << 12);
 1101              		.loc 1 553 0
 1102 005e 3B68     		ldr	r3, [r7]
 1103 0060 1B89     		ldrh	r3, [r3, #8]
 1104 0062 1B03     		lsls	r3, r3, #12
 1105 0064 9AB2     		uxth	r2, r3
 1106 0066 7B89     		ldrh	r3, [r7, #10]	@ movhi
 1107 0068 1343     		orrs	r3, r3, r2
 1108 006a 7B81     		strh	r3, [r7, #10]	@ movhi
 554:/home/virusv/TDSAST_IOT/Libraries/src/stm32f10x_tim.c ****   
 555:/home/virusv/TDSAST_IOT/Libraries/src/stm32f10x_tim.c ****   /* Set the Output State */
 556:/home/virusv/TDSAST_IOT/Libraries/src/stm32f10x_tim.c ****   tmpccer |= (uint16_t)(TIM_OCInitStruct->TIM_OutputState << 12);
 1109              		.loc 1 556 0
 1110 006c 3B68     		ldr	r3, [r7]
 1111 006e 5B88     		ldrh	r3, [r3, #2]
 1112 0070 1B03     		lsls	r3, r3, #12
 1113 0072 9AB2     		uxth	r2, r3
 1114 0074 7B89     		ldrh	r3, [r7, #10]	@ movhi
 1115 0076 1343     		orrs	r3, r3, r2
 1116 0078 7B81     		strh	r3, [r7, #10]	@ movhi
 557:/home/virusv/TDSAST_IOT/Libraries/src/stm32f10x_tim.c ****     
 558:/home/virusv/TDSAST_IOT/Libraries/src/stm32f10x_tim.c ****   if((TIMx == TIM1) || (TIMx == TIM8))
 1117              		.loc 1 558 0
 1118 007a 7B68     		ldr	r3, [r7, #4]
 1119 007c 124A     		ldr	r2, .L47
 1120 007e 9342     		cmp	r3, r2
 1121 0080 03D0     		beq	.L45
 1122              		.loc 1 558 0 is_stmt 0 discriminator 1
 1123 0082 7B68     		ldr	r3, [r7, #4]
 1124 0084 114A     		ldr	r2, .L47+4
 1125 0086 9342     		cmp	r3, r2
 1126 0088 0AD1     		bne	.L46
 1127              	.L45:
 559:/home/virusv/TDSAST_IOT/Libraries/src/stm32f10x_tim.c ****   {
 560:/home/virusv/TDSAST_IOT/Libraries/src/stm32f10x_tim.c ****     assert_param(IS_TIM_OCIDLE_STATE(TIM_OCInitStruct->TIM_OCIdleState));
 561:/home/virusv/TDSAST_IOT/Libraries/src/stm32f10x_tim.c ****     /* Reset the Output Compare IDLE State */
 562:/home/virusv/TDSAST_IOT/Libraries/src/stm32f10x_tim.c ****     tmpcr2 &= (uint16_t)(~((uint16_t)TIM_CR2_OIS4));
 1128              		.loc 1 562 0 is_stmt 1
 1129 008a FB89     		ldrh	r3, [r7, #14]	@ movhi
 1130 008c 23F48043 		bic	r3, r3, #16384
 1131 0090 FB81     		strh	r3, [r7, #14]	@ movhi
 563:/home/virusv/TDSAST_IOT/Libraries/src/stm32f10x_tim.c ****     /* Set the Output Idle state */
 564:/home/virusv/TDSAST_IOT/Libraries/src/stm32f10x_tim.c ****     tmpcr2 |= (uint16_t)(TIM_OCInitStruct->TIM_OCIdleState << 6);
 1132              		.loc 1 564 0
 1133 0092 3B68     		ldr	r3, [r7]
 1134 0094 9B89     		ldrh	r3, [r3, #12]
 1135 0096 9B01     		lsls	r3, r3, #6
 1136 0098 9AB2     		uxth	r2, r3
 1137 009a FB89     		ldrh	r3, [r7, #14]	@ movhi
 1138 009c 1343     		orrs	r3, r3, r2
 1139 009e FB81     		strh	r3, [r7, #14]	@ movhi
 1140              	.L46:
 565:/home/virusv/TDSAST_IOT/Libraries/src/stm32f10x_tim.c ****   }
 566:/home/virusv/TDSAST_IOT/Libraries/src/stm32f10x_tim.c ****   /* Write to TIMx CR2 */
 567:/home/virusv/TDSAST_IOT/Libraries/src/stm32f10x_tim.c ****   TIMx->CR2 = tmpcr2;
 1141              		.loc 1 567 0
 1142 00a0 7B68     		ldr	r3, [r7, #4]
 1143 00a2 FA89     		ldrh	r2, [r7, #14]	@ movhi
 1144 00a4 9A80     		strh	r2, [r3, #4]	@ movhi
 568:/home/virusv/TDSAST_IOT/Libraries/src/stm32f10x_tim.c ****   
 569:/home/virusv/TDSAST_IOT/Libraries/src/stm32f10x_tim.c ****   /* Write to TIMx CCMR2 */  
 570:/home/virusv/TDSAST_IOT/Libraries/src/stm32f10x_tim.c ****   TIMx->CCMR2 = tmpccmrx;
 1145              		.loc 1 570 0
 1146 00a6 7B68     		ldr	r3, [r7, #4]
 1147 00a8 BA89     		ldrh	r2, [r7, #12]	@ movhi
 1148 00aa 9A83     		strh	r2, [r3, #28]	@ movhi
 571:/home/virusv/TDSAST_IOT/Libraries/src/stm32f10x_tim.c **** 
 572:/home/virusv/TDSAST_IOT/Libraries/src/stm32f10x_tim.c ****   /* Set the Capture Compare Register value */
 573:/home/virusv/TDSAST_IOT/Libraries/src/stm32f10x_tim.c ****   TIMx->CCR4 = TIM_OCInitStruct->TIM_Pulse;
 1149              		.loc 1 573 0
 1150 00ac 3B68     		ldr	r3, [r7]
 1151 00ae DA88     		ldrh	r2, [r3, #6]
 1152 00b0 7B68     		ldr	r3, [r7, #4]
 1153 00b2 A3F84020 		strh	r2, [r3, #64]	@ movhi
 574:/home/virusv/TDSAST_IOT/Libraries/src/stm32f10x_tim.c ****   
 575:/home/virusv/TDSAST_IOT/Libraries/src/stm32f10x_tim.c ****   /* Write to TIMx CCER */
 576:/home/virusv/TDSAST_IOT/Libraries/src/stm32f10x_tim.c ****   TIMx->CCER = tmpccer;
 1154              		.loc 1 576 0
 1155 00b6 7B68     		ldr	r3, [r7, #4]
 1156 00b8 7A89     		ldrh	r2, [r7, #10]	@ movhi
 1157 00ba 1A84     		strh	r2, [r3, #32]	@ movhi
 577:/home/virusv/TDSAST_IOT/Libraries/src/stm32f10x_tim.c **** }
 1158              		.loc 1 577 0
 1159 00bc 1437     		adds	r7, r7, #20
 1160              		.cfi_def_cfa_offset 4
 1161 00be BD46     		mov	sp, r7
 1162              		.cfi_def_cfa_register 13
 1163              		@ sp needed
 1164 00c0 5DF8047B 		ldr	r7, [sp], #4
 1165              		.cfi_restore 7
 1166              		.cfi_def_cfa_offset 0
 1167 00c4 7047     		bx	lr
 1168              	.L48:
 1169 00c6 00BF     		.align	2
 1170              	.L47:
 1171 00c8 002C0140 		.word	1073818624
 1172 00cc 00340140 		.word	1073820672
 1173              		.cfi_endproc
 1174              	.LFE34:
 1176              		.section	.text.TIM_ICInit,"ax",%progbits
 1177              		.align	2
 1178              		.global	TIM_ICInit
 1179              		.thumb
 1180              		.thumb_func
 1182              	TIM_ICInit:
 1183              	.LFB35:
 578:/home/virusv/TDSAST_IOT/Libraries/src/stm32f10x_tim.c **** 
 579:/home/virusv/TDSAST_IOT/Libraries/src/stm32f10x_tim.c **** /**
 580:/home/virusv/TDSAST_IOT/Libraries/src/stm32f10x_tim.c ****   * @brief  Initializes the TIM peripheral according to the specified
 581:/home/virusv/TDSAST_IOT/Libraries/src/stm32f10x_tim.c ****   *         parameters in the TIM_ICInitStruct.
 582:/home/virusv/TDSAST_IOT/Libraries/src/stm32f10x_tim.c ****   * @param  TIMx: where x can be  1 to 17 except 6 and 7 to select the TIM peripheral.
 583:/home/virusv/TDSAST_IOT/Libraries/src/stm32f10x_tim.c ****   * @param  TIM_ICInitStruct: pointer to a TIM_ICInitTypeDef structure
 584:/home/virusv/TDSAST_IOT/Libraries/src/stm32f10x_tim.c ****   *         that contains the configuration information for the specified TIM peripheral.
 585:/home/virusv/TDSAST_IOT/Libraries/src/stm32f10x_tim.c ****   * @retval None
 586:/home/virusv/TDSAST_IOT/Libraries/src/stm32f10x_tim.c ****   */
 587:/home/virusv/TDSAST_IOT/Libraries/src/stm32f10x_tim.c **** void TIM_ICInit(TIM_TypeDef* TIMx, TIM_ICInitTypeDef* TIM_ICInitStruct)
 588:/home/virusv/TDSAST_IOT/Libraries/src/stm32f10x_tim.c **** {
 1184              		.loc 1 588 0
 1185              		.cfi_startproc
 1186              		@ args = 0, pretend = 0, frame = 8
 1187              		@ frame_needed = 1, uses_anonymous_args = 0
 1188 0000 80B5     		push	{r7, lr}
 1189              		.cfi_def_cfa_offset 8
 1190              		.cfi_offset 7, -8
 1191              		.cfi_offset 14, -4
 1192 0002 82B0     		sub	sp, sp, #8
 1193              		.cfi_def_cfa_offset 16
 1194 0004 00AF     		add	r7, sp, #0
 1195              		.cfi_def_cfa_register 7
 1196 0006 7860     		str	r0, [r7, #4]
 1197 0008 3960     		str	r1, [r7]
 589:/home/virusv/TDSAST_IOT/Libraries/src/stm32f10x_tim.c ****   /* Check the parameters */
 590:/home/virusv/TDSAST_IOT/Libraries/src/stm32f10x_tim.c ****   assert_param(IS_TIM_CHANNEL(TIM_ICInitStruct->TIM_Channel));  
 591:/home/virusv/TDSAST_IOT/Libraries/src/stm32f10x_tim.c ****   assert_param(IS_TIM_IC_SELECTION(TIM_ICInitStruct->TIM_ICSelection));
 592:/home/virusv/TDSAST_IOT/Libraries/src/stm32f10x_tim.c ****   assert_param(IS_TIM_IC_PRESCALER(TIM_ICInitStruct->TIM_ICPrescaler));
 593:/home/virusv/TDSAST_IOT/Libraries/src/stm32f10x_tim.c ****   assert_param(IS_TIM_IC_FILTER(TIM_ICInitStruct->TIM_ICFilter));
 594:/home/virusv/TDSAST_IOT/Libraries/src/stm32f10x_tim.c ****   
 595:/home/virusv/TDSAST_IOT/Libraries/src/stm32f10x_tim.c ****   if((TIMx == TIM1) || (TIMx == TIM8) || (TIMx == TIM2) || (TIMx == TIM3) ||
 596:/home/virusv/TDSAST_IOT/Libraries/src/stm32f10x_tim.c ****      (TIMx == TIM4) ||(TIMx == TIM5))
 597:/home/virusv/TDSAST_IOT/Libraries/src/stm32f10x_tim.c ****   {
 598:/home/virusv/TDSAST_IOT/Libraries/src/stm32f10x_tim.c ****     assert_param(IS_TIM_IC_POLARITY(TIM_ICInitStruct->TIM_ICPolarity));
 599:/home/virusv/TDSAST_IOT/Libraries/src/stm32f10x_tim.c ****   }
 600:/home/virusv/TDSAST_IOT/Libraries/src/stm32f10x_tim.c ****   else
 601:/home/virusv/TDSAST_IOT/Libraries/src/stm32f10x_tim.c ****   {
 602:/home/virusv/TDSAST_IOT/Libraries/src/stm32f10x_tim.c ****     assert_param(IS_TIM_IC_POLARITY_LITE(TIM_ICInitStruct->TIM_ICPolarity));
 603:/home/virusv/TDSAST_IOT/Libraries/src/stm32f10x_tim.c ****   }
 604:/home/virusv/TDSAST_IOT/Libraries/src/stm32f10x_tim.c ****   if (TIM_ICInitStruct->TIM_Channel == TIM_Channel_1)
 1198              		.loc 1 604 0
 1199 000a 3B68     		ldr	r3, [r7]
 1200 000c 1B88     		ldrh	r3, [r3]
 1201 000e 002B     		cmp	r3, #0
 1202 0010 0FD1     		bne	.L50
 605:/home/virusv/TDSAST_IOT/Libraries/src/stm32f10x_tim.c ****   {
 606:/home/virusv/TDSAST_IOT/Libraries/src/stm32f10x_tim.c ****     assert_param(IS_TIM_LIST8_PERIPH(TIMx));
 607:/home/virusv/TDSAST_IOT/Libraries/src/stm32f10x_tim.c ****     /* TI1 Configuration */
 608:/home/virusv/TDSAST_IOT/Libraries/src/stm32f10x_tim.c ****     TI1_Config(TIMx, TIM_ICInitStruct->TIM_ICPolarity,
 1203              		.loc 1 608 0
 1204 0012 3B68     		ldr	r3, [r7]
 1205 0014 5988     		ldrh	r1, [r3, #2]
 1206 0016 3B68     		ldr	r3, [r7]
 1207 0018 9A88     		ldrh	r2, [r3, #4]
 1208 001a 3B68     		ldr	r3, [r7]
 1209 001c 1B89     		ldrh	r3, [r3, #8]
 1210 001e 7868     		ldr	r0, [r7, #4]
 1211 0020 FFF7FEFF 		bl	TI1_Config
 609:/home/virusv/TDSAST_IOT/Libraries/src/stm32f10x_tim.c ****                TIM_ICInitStruct->TIM_ICSelection,
 610:/home/virusv/TDSAST_IOT/Libraries/src/stm32f10x_tim.c ****                TIM_ICInitStruct->TIM_ICFilter);
 611:/home/virusv/TDSAST_IOT/Libraries/src/stm32f10x_tim.c ****     /* Set the Input Capture Prescaler value */
 612:/home/virusv/TDSAST_IOT/Libraries/src/stm32f10x_tim.c ****     TIM_SetIC1Prescaler(TIMx, TIM_ICInitStruct->TIM_ICPrescaler);
 1212              		.loc 1 612 0
 1213 0024 3B68     		ldr	r3, [r7]
 1214 0026 DB88     		ldrh	r3, [r3, #6]
 1215 0028 7868     		ldr	r0, [r7, #4]
 1216 002a 1946     		mov	r1, r3
 1217 002c FFF7FEFF 		bl	TIM_SetIC1Prescaler
 1218 0030 36E0     		b	.L49
 1219              	.L50:
 613:/home/virusv/TDSAST_IOT/Libraries/src/stm32f10x_tim.c ****   }
 614:/home/virusv/TDSAST_IOT/Libraries/src/stm32f10x_tim.c ****   else if (TIM_ICInitStruct->TIM_Channel == TIM_Channel_2)
 1220              		.loc 1 614 0
 1221 0032 3B68     		ldr	r3, [r7]
 1222 0034 1B88     		ldrh	r3, [r3]
 1223 0036 042B     		cmp	r3, #4
 1224 0038 0FD1     		bne	.L52
 615:/home/virusv/TDSAST_IOT/Libraries/src/stm32f10x_tim.c ****   {
 616:/home/virusv/TDSAST_IOT/Libraries/src/stm32f10x_tim.c ****     assert_param(IS_TIM_LIST6_PERIPH(TIMx));
 617:/home/virusv/TDSAST_IOT/Libraries/src/stm32f10x_tim.c ****     /* TI2 Configuration */
 618:/home/virusv/TDSAST_IOT/Libraries/src/stm32f10x_tim.c ****     TI2_Config(TIMx, TIM_ICInitStruct->TIM_ICPolarity,
 1225              		.loc 1 618 0
 1226 003a 3B68     		ldr	r3, [r7]
 1227 003c 5988     		ldrh	r1, [r3, #2]
 1228 003e 3B68     		ldr	r3, [r7]
 1229 0040 9A88     		ldrh	r2, [r3, #4]
 1230 0042 3B68     		ldr	r3, [r7]
 1231 0044 1B89     		ldrh	r3, [r3, #8]
 1232 0046 7868     		ldr	r0, [r7, #4]
 1233 0048 FFF7FEFF 		bl	TI2_Config
 619:/home/virusv/TDSAST_IOT/Libraries/src/stm32f10x_tim.c ****                TIM_ICInitStruct->TIM_ICSelection,
 620:/home/virusv/TDSAST_IOT/Libraries/src/stm32f10x_tim.c ****                TIM_ICInitStruct->TIM_ICFilter);
 621:/home/virusv/TDSAST_IOT/Libraries/src/stm32f10x_tim.c ****     /* Set the Input Capture Prescaler value */
 622:/home/virusv/TDSAST_IOT/Libraries/src/stm32f10x_tim.c ****     TIM_SetIC2Prescaler(TIMx, TIM_ICInitStruct->TIM_ICPrescaler);
 1234              		.loc 1 622 0
 1235 004c 3B68     		ldr	r3, [r7]
 1236 004e DB88     		ldrh	r3, [r3, #6]
 1237 0050 7868     		ldr	r0, [r7, #4]
 1238 0052 1946     		mov	r1, r3
 1239 0054 FFF7FEFF 		bl	TIM_SetIC2Prescaler
 1240 0058 22E0     		b	.L49
 1241              	.L52:
 623:/home/virusv/TDSAST_IOT/Libraries/src/stm32f10x_tim.c ****   }
 624:/home/virusv/TDSAST_IOT/Libraries/src/stm32f10x_tim.c ****   else if (TIM_ICInitStruct->TIM_Channel == TIM_Channel_3)
 1242              		.loc 1 624 0
 1243 005a 3B68     		ldr	r3, [r7]
 1244 005c 1B88     		ldrh	r3, [r3]
 1245 005e 082B     		cmp	r3, #8
 1246 0060 0FD1     		bne	.L53
 625:/home/virusv/TDSAST_IOT/Libraries/src/stm32f10x_tim.c ****   {
 626:/home/virusv/TDSAST_IOT/Libraries/src/stm32f10x_tim.c ****     assert_param(IS_TIM_LIST3_PERIPH(TIMx));
 627:/home/virusv/TDSAST_IOT/Libraries/src/stm32f10x_tim.c ****     /* TI3 Configuration */
 628:/home/virusv/TDSAST_IOT/Libraries/src/stm32f10x_tim.c ****     TI3_Config(TIMx,  TIM_ICInitStruct->TIM_ICPolarity,
 1247              		.loc 1 628 0
 1248 0062 3B68     		ldr	r3, [r7]
 1249 0064 5988     		ldrh	r1, [r3, #2]
 1250 0066 3B68     		ldr	r3, [r7]
 1251 0068 9A88     		ldrh	r2, [r3, #4]
 1252 006a 3B68     		ldr	r3, [r7]
 1253 006c 1B89     		ldrh	r3, [r3, #8]
 1254 006e 7868     		ldr	r0, [r7, #4]
 1255 0070 FFF7FEFF 		bl	TI3_Config
 629:/home/virusv/TDSAST_IOT/Libraries/src/stm32f10x_tim.c ****                TIM_ICInitStruct->TIM_ICSelection,
 630:/home/virusv/TDSAST_IOT/Libraries/src/stm32f10x_tim.c ****                TIM_ICInitStruct->TIM_ICFilter);
 631:/home/virusv/TDSAST_IOT/Libraries/src/stm32f10x_tim.c ****     /* Set the Input Capture Prescaler value */
 632:/home/virusv/TDSAST_IOT/Libraries/src/stm32f10x_tim.c ****     TIM_SetIC3Prescaler(TIMx, TIM_ICInitStruct->TIM_ICPrescaler);
 1256              		.loc 1 632 0
 1257 0074 3B68     		ldr	r3, [r7]
 1258 0076 DB88     		ldrh	r3, [r3, #6]
 1259 0078 7868     		ldr	r0, [r7, #4]
 1260 007a 1946     		mov	r1, r3
 1261 007c FFF7FEFF 		bl	TIM_SetIC3Prescaler
 1262 0080 0EE0     		b	.L49
 1263              	.L53:
 633:/home/virusv/TDSAST_IOT/Libraries/src/stm32f10x_tim.c ****   }
 634:/home/virusv/TDSAST_IOT/Libraries/src/stm32f10x_tim.c ****   else
 635:/home/virusv/TDSAST_IOT/Libraries/src/stm32f10x_tim.c ****   {
 636:/home/virusv/TDSAST_IOT/Libraries/src/stm32f10x_tim.c ****     assert_param(IS_TIM_LIST3_PERIPH(TIMx));
 637:/home/virusv/TDSAST_IOT/Libraries/src/stm32f10x_tim.c ****     /* TI4 Configuration */
 638:/home/virusv/TDSAST_IOT/Libraries/src/stm32f10x_tim.c ****     TI4_Config(TIMx, TIM_ICInitStruct->TIM_ICPolarity,
 1264              		.loc 1 638 0
 1265 0082 3B68     		ldr	r3, [r7]
 1266 0084 5988     		ldrh	r1, [r3, #2]
 1267 0086 3B68     		ldr	r3, [r7]
 1268 0088 9A88     		ldrh	r2, [r3, #4]
 1269 008a 3B68     		ldr	r3, [r7]
 1270 008c 1B89     		ldrh	r3, [r3, #8]
 1271 008e 7868     		ldr	r0, [r7, #4]
 1272 0090 FFF7FEFF 		bl	TI4_Config
 639:/home/virusv/TDSAST_IOT/Libraries/src/stm32f10x_tim.c ****                TIM_ICInitStruct->TIM_ICSelection,
 640:/home/virusv/TDSAST_IOT/Libraries/src/stm32f10x_tim.c ****                TIM_ICInitStruct->TIM_ICFilter);
 641:/home/virusv/TDSAST_IOT/Libraries/src/stm32f10x_tim.c ****     /* Set the Input Capture Prescaler value */
 642:/home/virusv/TDSAST_IOT/Libraries/src/stm32f10x_tim.c ****     TIM_SetIC4Prescaler(TIMx, TIM_ICInitStruct->TIM_ICPrescaler);
 1273              		.loc 1 642 0
 1274 0094 3B68     		ldr	r3, [r7]
 1275 0096 DB88     		ldrh	r3, [r3, #6]
 1276 0098 7868     		ldr	r0, [r7, #4]
 1277 009a 1946     		mov	r1, r3
 1278 009c FFF7FEFF 		bl	TIM_SetIC4Prescaler
 1279              	.L49:
 643:/home/virusv/TDSAST_IOT/Libraries/src/stm32f10x_tim.c ****   }
 644:/home/virusv/TDSAST_IOT/Libraries/src/stm32f10x_tim.c **** }
 1280              		.loc 1 644 0
 1281 00a0 0837     		adds	r7, r7, #8
 1282              		.cfi_def_cfa_offset 8
 1283 00a2 BD46     		mov	sp, r7
 1284              		.cfi_def_cfa_register 13
 1285              		@ sp needed
 1286 00a4 80BD     		pop	{r7, pc}
 1287              		.cfi_endproc
 1288              	.LFE35:
 1290 00a6 00BF     		.section	.text.TIM_PWMIConfig,"ax",%progbits
 1291              		.align	2
 1292              		.global	TIM_PWMIConfig
 1293              		.thumb
 1294              		.thumb_func
 1296              	TIM_PWMIConfig:
 1297              	.LFB36:
 645:/home/virusv/TDSAST_IOT/Libraries/src/stm32f10x_tim.c **** 
 646:/home/virusv/TDSAST_IOT/Libraries/src/stm32f10x_tim.c **** /**
 647:/home/virusv/TDSAST_IOT/Libraries/src/stm32f10x_tim.c ****   * @brief  Configures the TIM peripheral according to the specified
 648:/home/virusv/TDSAST_IOT/Libraries/src/stm32f10x_tim.c ****   *         parameters in the TIM_ICInitStruct to measure an external PWM signal.
 649:/home/virusv/TDSAST_IOT/Libraries/src/stm32f10x_tim.c ****   * @param  TIMx: where x can be  1, 2, 3, 4, 5, 8, 9, 12 or 15 to select the TIM peripheral.
 650:/home/virusv/TDSAST_IOT/Libraries/src/stm32f10x_tim.c ****   * @param  TIM_ICInitStruct: pointer to a TIM_ICInitTypeDef structure
 651:/home/virusv/TDSAST_IOT/Libraries/src/stm32f10x_tim.c ****   *         that contains the configuration information for the specified TIM peripheral.
 652:/home/virusv/TDSAST_IOT/Libraries/src/stm32f10x_tim.c ****   * @retval None
 653:/home/virusv/TDSAST_IOT/Libraries/src/stm32f10x_tim.c ****   */
 654:/home/virusv/TDSAST_IOT/Libraries/src/stm32f10x_tim.c **** void TIM_PWMIConfig(TIM_TypeDef* TIMx, TIM_ICInitTypeDef* TIM_ICInitStruct)
 655:/home/virusv/TDSAST_IOT/Libraries/src/stm32f10x_tim.c **** {
 1298              		.loc 1 655 0
 1299              		.cfi_startproc
 1300              		@ args = 0, pretend = 0, frame = 16
 1301              		@ frame_needed = 1, uses_anonymous_args = 0
 1302 0000 80B5     		push	{r7, lr}
 1303              		.cfi_def_cfa_offset 8
 1304              		.cfi_offset 7, -8
 1305              		.cfi_offset 14, -4
 1306 0002 84B0     		sub	sp, sp, #16
 1307              		.cfi_def_cfa_offset 24
 1308 0004 00AF     		add	r7, sp, #0
 1309              		.cfi_def_cfa_register 7
 1310 0006 7860     		str	r0, [r7, #4]
 1311 0008 3960     		str	r1, [r7]
 656:/home/virusv/TDSAST_IOT/Libraries/src/stm32f10x_tim.c ****   uint16_t icoppositepolarity = TIM_ICPolarity_Rising;
 1312              		.loc 1 656 0
 1313 000a 0023     		movs	r3, #0
 1314 000c FB81     		strh	r3, [r7, #14]	@ movhi
 657:/home/virusv/TDSAST_IOT/Libraries/src/stm32f10x_tim.c ****   uint16_t icoppositeselection = TIM_ICSelection_DirectTI;
 1315              		.loc 1 657 0
 1316 000e 0123     		movs	r3, #1
 1317 0010 BB81     		strh	r3, [r7, #12]	@ movhi
 658:/home/virusv/TDSAST_IOT/Libraries/src/stm32f10x_tim.c ****   /* Check the parameters */
 659:/home/virusv/TDSAST_IOT/Libraries/src/stm32f10x_tim.c ****   assert_param(IS_TIM_LIST6_PERIPH(TIMx));
 660:/home/virusv/TDSAST_IOT/Libraries/src/stm32f10x_tim.c ****   /* Select the Opposite Input Polarity */
 661:/home/virusv/TDSAST_IOT/Libraries/src/stm32f10x_tim.c ****   if (TIM_ICInitStruct->TIM_ICPolarity == TIM_ICPolarity_Rising)
 1318              		.loc 1 661 0
 1319 0012 3B68     		ldr	r3, [r7]
 1320 0014 5B88     		ldrh	r3, [r3, #2]
 1321 0016 002B     		cmp	r3, #0
 1322 0018 02D1     		bne	.L55
 662:/home/virusv/TDSAST_IOT/Libraries/src/stm32f10x_tim.c ****   {
 663:/home/virusv/TDSAST_IOT/Libraries/src/stm32f10x_tim.c ****     icoppositepolarity = TIM_ICPolarity_Falling;
 1323              		.loc 1 663 0
 1324 001a 0223     		movs	r3, #2
 1325 001c FB81     		strh	r3, [r7, #14]	@ movhi
 1326 001e 01E0     		b	.L56
 1327              	.L55:
 664:/home/virusv/TDSAST_IOT/Libraries/src/stm32f10x_tim.c ****   }
 665:/home/virusv/TDSAST_IOT/Libraries/src/stm32f10x_tim.c ****   else
 666:/home/virusv/TDSAST_IOT/Libraries/src/stm32f10x_tim.c ****   {
 667:/home/virusv/TDSAST_IOT/Libraries/src/stm32f10x_tim.c ****     icoppositepolarity = TIM_ICPolarity_Rising;
 1328              		.loc 1 667 0
 1329 0020 0023     		movs	r3, #0
 1330 0022 FB81     		strh	r3, [r7, #14]	@ movhi
 1331              	.L56:
 668:/home/virusv/TDSAST_IOT/Libraries/src/stm32f10x_tim.c ****   }
 669:/home/virusv/TDSAST_IOT/Libraries/src/stm32f10x_tim.c ****   /* Select the Opposite Input */
 670:/home/virusv/TDSAST_IOT/Libraries/src/stm32f10x_tim.c ****   if (TIM_ICInitStruct->TIM_ICSelection == TIM_ICSelection_DirectTI)
 1332              		.loc 1 670 0
 1333 0024 3B68     		ldr	r3, [r7]
 1334 0026 9B88     		ldrh	r3, [r3, #4]
 1335 0028 012B     		cmp	r3, #1
 1336 002a 02D1     		bne	.L57
 671:/home/virusv/TDSAST_IOT/Libraries/src/stm32f10x_tim.c ****   {
 672:/home/virusv/TDSAST_IOT/Libraries/src/stm32f10x_tim.c ****     icoppositeselection = TIM_ICSelection_IndirectTI;
 1337              		.loc 1 672 0
 1338 002c 0223     		movs	r3, #2
 1339 002e BB81     		strh	r3, [r7, #12]	@ movhi
 1340 0030 01E0     		b	.L58
 1341              	.L57:
 673:/home/virusv/TDSAST_IOT/Libraries/src/stm32f10x_tim.c ****   }
 674:/home/virusv/TDSAST_IOT/Libraries/src/stm32f10x_tim.c ****   else
 675:/home/virusv/TDSAST_IOT/Libraries/src/stm32f10x_tim.c ****   {
 676:/home/virusv/TDSAST_IOT/Libraries/src/stm32f10x_tim.c ****     icoppositeselection = TIM_ICSelection_DirectTI;
 1342              		.loc 1 676 0
 1343 0032 0123     		movs	r3, #1
 1344 0034 BB81     		strh	r3, [r7, #12]	@ movhi
 1345              	.L58:
 677:/home/virusv/TDSAST_IOT/Libraries/src/stm32f10x_tim.c ****   }
 678:/home/virusv/TDSAST_IOT/Libraries/src/stm32f10x_tim.c ****   if (TIM_ICInitStruct->TIM_Channel == TIM_Channel_1)
 1346              		.loc 1 678 0
 1347 0036 3B68     		ldr	r3, [r7]
 1348 0038 1B88     		ldrh	r3, [r3]
 1349 003a 002B     		cmp	r3, #0
 1350 003c 1CD1     		bne	.L59
 679:/home/virusv/TDSAST_IOT/Libraries/src/stm32f10x_tim.c ****   {
 680:/home/virusv/TDSAST_IOT/Libraries/src/stm32f10x_tim.c ****     /* TI1 Configuration */
 681:/home/virusv/TDSAST_IOT/Libraries/src/stm32f10x_tim.c ****     TI1_Config(TIMx, TIM_ICInitStruct->TIM_ICPolarity, TIM_ICInitStruct->TIM_ICSelection,
 1351              		.loc 1 681 0
 1352 003e 3B68     		ldr	r3, [r7]
 1353 0040 5988     		ldrh	r1, [r3, #2]
 1354 0042 3B68     		ldr	r3, [r7]
 1355 0044 9A88     		ldrh	r2, [r3, #4]
 1356 0046 3B68     		ldr	r3, [r7]
 1357 0048 1B89     		ldrh	r3, [r3, #8]
 1358 004a 7868     		ldr	r0, [r7, #4]
 1359 004c FFF7FEFF 		bl	TI1_Config
 682:/home/virusv/TDSAST_IOT/Libraries/src/stm32f10x_tim.c ****                TIM_ICInitStruct->TIM_ICFilter);
 683:/home/virusv/TDSAST_IOT/Libraries/src/stm32f10x_tim.c ****     /* Set the Input Capture Prescaler value */
 684:/home/virusv/TDSAST_IOT/Libraries/src/stm32f10x_tim.c ****     TIM_SetIC1Prescaler(TIMx, TIM_ICInitStruct->TIM_ICPrescaler);
 1360              		.loc 1 684 0
 1361 0050 3B68     		ldr	r3, [r7]
 1362 0052 DB88     		ldrh	r3, [r3, #6]
 1363 0054 7868     		ldr	r0, [r7, #4]
 1364 0056 1946     		mov	r1, r3
 1365 0058 FFF7FEFF 		bl	TIM_SetIC1Prescaler
 685:/home/virusv/TDSAST_IOT/Libraries/src/stm32f10x_tim.c ****     /* TI2 Configuration */
 686:/home/virusv/TDSAST_IOT/Libraries/src/stm32f10x_tim.c ****     TI2_Config(TIMx, icoppositepolarity, icoppositeselection, TIM_ICInitStruct->TIM_ICFilter);
 1366              		.loc 1 686 0
 1367 005c 3B68     		ldr	r3, [r7]
 1368 005e 1B89     		ldrh	r3, [r3, #8]
 1369 0060 F989     		ldrh	r1, [r7, #14]
 1370 0062 BA89     		ldrh	r2, [r7, #12]
 1371 0064 7868     		ldr	r0, [r7, #4]
 1372 0066 FFF7FEFF 		bl	TI2_Config
 687:/home/virusv/TDSAST_IOT/Libraries/src/stm32f10x_tim.c ****     /* Set the Input Capture Prescaler value */
 688:/home/virusv/TDSAST_IOT/Libraries/src/stm32f10x_tim.c ****     TIM_SetIC2Prescaler(TIMx, TIM_ICInitStruct->TIM_ICPrescaler);
 1373              		.loc 1 688 0
 1374 006a 3B68     		ldr	r3, [r7]
 1375 006c DB88     		ldrh	r3, [r3, #6]
 1376 006e 7868     		ldr	r0, [r7, #4]
 1377 0070 1946     		mov	r1, r3
 1378 0072 FFF7FEFF 		bl	TIM_SetIC2Prescaler
 1379 0076 1BE0     		b	.L54
 1380              	.L59:
 689:/home/virusv/TDSAST_IOT/Libraries/src/stm32f10x_tim.c ****   }
 690:/home/virusv/TDSAST_IOT/Libraries/src/stm32f10x_tim.c ****   else
 691:/home/virusv/TDSAST_IOT/Libraries/src/stm32f10x_tim.c ****   { 
 692:/home/virusv/TDSAST_IOT/Libraries/src/stm32f10x_tim.c ****     /* TI2 Configuration */
 693:/home/virusv/TDSAST_IOT/Libraries/src/stm32f10x_tim.c ****     TI2_Config(TIMx, TIM_ICInitStruct->TIM_ICPolarity, TIM_ICInitStruct->TIM_ICSelection,
 1381              		.loc 1 693 0
 1382 0078 3B68     		ldr	r3, [r7]
 1383 007a 5988     		ldrh	r1, [r3, #2]
 1384 007c 3B68     		ldr	r3, [r7]
 1385 007e 9A88     		ldrh	r2, [r3, #4]
 1386 0080 3B68     		ldr	r3, [r7]
 1387 0082 1B89     		ldrh	r3, [r3, #8]
 1388 0084 7868     		ldr	r0, [r7, #4]
 1389 0086 FFF7FEFF 		bl	TI2_Config
 694:/home/virusv/TDSAST_IOT/Libraries/src/stm32f10x_tim.c ****                TIM_ICInitStruct->TIM_ICFilter);
 695:/home/virusv/TDSAST_IOT/Libraries/src/stm32f10x_tim.c ****     /* Set the Input Capture Prescaler value */
 696:/home/virusv/TDSAST_IOT/Libraries/src/stm32f10x_tim.c ****     TIM_SetIC2Prescaler(TIMx, TIM_ICInitStruct->TIM_ICPrescaler);
 1390              		.loc 1 696 0
 1391 008a 3B68     		ldr	r3, [r7]
 1392 008c DB88     		ldrh	r3, [r3, #6]
 1393 008e 7868     		ldr	r0, [r7, #4]
 1394 0090 1946     		mov	r1, r3
 1395 0092 FFF7FEFF 		bl	TIM_SetIC2Prescaler
 697:/home/virusv/TDSAST_IOT/Libraries/src/stm32f10x_tim.c ****     /* TI1 Configuration */
 698:/home/virusv/TDSAST_IOT/Libraries/src/stm32f10x_tim.c ****     TI1_Config(TIMx, icoppositepolarity, icoppositeselection, TIM_ICInitStruct->TIM_ICFilter);
 1396              		.loc 1 698 0
 1397 0096 3B68     		ldr	r3, [r7]
 1398 0098 1B89     		ldrh	r3, [r3, #8]
 1399 009a F989     		ldrh	r1, [r7, #14]
 1400 009c BA89     		ldrh	r2, [r7, #12]
 1401 009e 7868     		ldr	r0, [r7, #4]
 1402 00a0 FFF7FEFF 		bl	TI1_Config
 699:/home/virusv/TDSAST_IOT/Libraries/src/stm32f10x_tim.c ****     /* Set the Input Capture Prescaler value */
 700:/home/virusv/TDSAST_IOT/Libraries/src/stm32f10x_tim.c ****     TIM_SetIC1Prescaler(TIMx, TIM_ICInitStruct->TIM_ICPrescaler);
 1403              		.loc 1 700 0
 1404 00a4 3B68     		ldr	r3, [r7]
 1405 00a6 DB88     		ldrh	r3, [r3, #6]
 1406 00a8 7868     		ldr	r0, [r7, #4]
 1407 00aa 1946     		mov	r1, r3
 1408 00ac FFF7FEFF 		bl	TIM_SetIC1Prescaler
 1409              	.L54:
 701:/home/virusv/TDSAST_IOT/Libraries/src/stm32f10x_tim.c ****   }
 702:/home/virusv/TDSAST_IOT/Libraries/src/stm32f10x_tim.c **** }
 1410              		.loc 1 702 0
 1411 00b0 1037     		adds	r7, r7, #16
 1412              		.cfi_def_cfa_offset 8
 1413 00b2 BD46     		mov	sp, r7
 1414              		.cfi_def_cfa_register 13
 1415              		@ sp needed
 1416 00b4 80BD     		pop	{r7, pc}
 1417              		.cfi_endproc
 1418              	.LFE36:
 1420 00b6 00BF     		.section	.text.TIM_BDTRConfig,"ax",%progbits
 1421              		.align	2
 1422              		.global	TIM_BDTRConfig
 1423              		.thumb
 1424              		.thumb_func
 1426              	TIM_BDTRConfig:
 1427              	.LFB37:
 703:/home/virusv/TDSAST_IOT/Libraries/src/stm32f10x_tim.c **** 
 704:/home/virusv/TDSAST_IOT/Libraries/src/stm32f10x_tim.c **** /**
 705:/home/virusv/TDSAST_IOT/Libraries/src/stm32f10x_tim.c ****   * @brief  Configures the: Break feature, dead time, Lock level, the OSSI,
 706:/home/virusv/TDSAST_IOT/Libraries/src/stm32f10x_tim.c ****   *         the OSSR State and the AOE(automatic output enable).
 707:/home/virusv/TDSAST_IOT/Libraries/src/stm32f10x_tim.c ****   * @param  TIMx: where x can be  1 or 8 to select the TIM 
 708:/home/virusv/TDSAST_IOT/Libraries/src/stm32f10x_tim.c ****   * @param  TIM_BDTRInitStruct: pointer to a TIM_BDTRInitTypeDef structure that
 709:/home/virusv/TDSAST_IOT/Libraries/src/stm32f10x_tim.c ****   *         contains the BDTR Register configuration  information for the TIM peripheral.
 710:/home/virusv/TDSAST_IOT/Libraries/src/stm32f10x_tim.c ****   * @retval None
 711:/home/virusv/TDSAST_IOT/Libraries/src/stm32f10x_tim.c ****   */
 712:/home/virusv/TDSAST_IOT/Libraries/src/stm32f10x_tim.c **** void TIM_BDTRConfig(TIM_TypeDef* TIMx, TIM_BDTRInitTypeDef *TIM_BDTRInitStruct)
 713:/home/virusv/TDSAST_IOT/Libraries/src/stm32f10x_tim.c **** {
 1428              		.loc 1 713 0
 1429              		.cfi_startproc
 1430              		@ args = 0, pretend = 0, frame = 8
 1431              		@ frame_needed = 1, uses_anonymous_args = 0
 1432              		@ link register save eliminated.
 1433 0000 80B4     		push	{r7}
 1434              		.cfi_def_cfa_offset 4
 1435              		.cfi_offset 7, -4
 1436 0002 83B0     		sub	sp, sp, #12
 1437              		.cfi_def_cfa_offset 16
 1438 0004 00AF     		add	r7, sp, #0
 1439              		.cfi_def_cfa_register 7
 1440 0006 7860     		str	r0, [r7, #4]
 1441 0008 3960     		str	r1, [r7]
 714:/home/virusv/TDSAST_IOT/Libraries/src/stm32f10x_tim.c ****   /* Check the parameters */
 715:/home/virusv/TDSAST_IOT/Libraries/src/stm32f10x_tim.c ****   assert_param(IS_TIM_LIST2_PERIPH(TIMx));
 716:/home/virusv/TDSAST_IOT/Libraries/src/stm32f10x_tim.c ****   assert_param(IS_TIM_OSSR_STATE(TIM_BDTRInitStruct->TIM_OSSRState));
 717:/home/virusv/TDSAST_IOT/Libraries/src/stm32f10x_tim.c ****   assert_param(IS_TIM_OSSI_STATE(TIM_BDTRInitStruct->TIM_OSSIState));
 718:/home/virusv/TDSAST_IOT/Libraries/src/stm32f10x_tim.c ****   assert_param(IS_TIM_LOCK_LEVEL(TIM_BDTRInitStruct->TIM_LOCKLevel));
 719:/home/virusv/TDSAST_IOT/Libraries/src/stm32f10x_tim.c ****   assert_param(IS_TIM_BREAK_STATE(TIM_BDTRInitStruct->TIM_Break));
 720:/home/virusv/TDSAST_IOT/Libraries/src/stm32f10x_tim.c ****   assert_param(IS_TIM_BREAK_POLARITY(TIM_BDTRInitStruct->TIM_BreakPolarity));
 721:/home/virusv/TDSAST_IOT/Libraries/src/stm32f10x_tim.c ****   assert_param(IS_TIM_AUTOMATIC_OUTPUT_STATE(TIM_BDTRInitStruct->TIM_AutomaticOutput));
 722:/home/virusv/TDSAST_IOT/Libraries/src/stm32f10x_tim.c ****   /* Set the Lock level, the Break enable Bit and the Ploarity, the OSSR State,
 723:/home/virusv/TDSAST_IOT/Libraries/src/stm32f10x_tim.c ****      the OSSI State, the dead time value and the Automatic Output Enable Bit */
 724:/home/virusv/TDSAST_IOT/Libraries/src/stm32f10x_tim.c ****   TIMx->BDTR = (uint32_t)TIM_BDTRInitStruct->TIM_OSSRState | TIM_BDTRInitStruct->TIM_OSSIState |
 1442              		.loc 1 724 0
 1443 000a 3B68     		ldr	r3, [r7]
 1444 000c 1A88     		ldrh	r2, [r3]
 1445 000e 3B68     		ldr	r3, [r7]
 1446 0010 5B88     		ldrh	r3, [r3, #2]
 1447 0012 1343     		orrs	r3, r3, r2
 1448 0014 9AB2     		uxth	r2, r3
 725:/home/virusv/TDSAST_IOT/Libraries/src/stm32f10x_tim.c ****              TIM_BDTRInitStruct->TIM_LOCKLevel | TIM_BDTRInitStruct->TIM_DeadTime |
 1449              		.loc 1 725 0
 1450 0016 3B68     		ldr	r3, [r7]
 1451 0018 9B88     		ldrh	r3, [r3, #4]
 724:/home/virusv/TDSAST_IOT/Libraries/src/stm32f10x_tim.c ****              TIM_BDTRInitStruct->TIM_LOCKLevel | TIM_BDTRInitStruct->TIM_DeadTime |
 1452              		.loc 1 724 0
 1453 001a 1343     		orrs	r3, r3, r2
 1454 001c 9AB2     		uxth	r2, r3
 1455              		.loc 1 725 0
 1456 001e 3B68     		ldr	r3, [r7]
 1457 0020 DB88     		ldrh	r3, [r3, #6]
 724:/home/virusv/TDSAST_IOT/Libraries/src/stm32f10x_tim.c ****              TIM_BDTRInitStruct->TIM_LOCKLevel | TIM_BDTRInitStruct->TIM_DeadTime |
 1458              		.loc 1 724 0
 1459 0022 1343     		orrs	r3, r3, r2
 1460 0024 9AB2     		uxth	r2, r3
 726:/home/virusv/TDSAST_IOT/Libraries/src/stm32f10x_tim.c ****              TIM_BDTRInitStruct->TIM_Break | TIM_BDTRInitStruct->TIM_BreakPolarity |
 1461              		.loc 1 726 0
 1462 0026 3B68     		ldr	r3, [r7]
 1463 0028 1B89     		ldrh	r3, [r3, #8]
 724:/home/virusv/TDSAST_IOT/Libraries/src/stm32f10x_tim.c ****              TIM_BDTRInitStruct->TIM_LOCKLevel | TIM_BDTRInitStruct->TIM_DeadTime |
 1464              		.loc 1 724 0
 1465 002a 1343     		orrs	r3, r3, r2
 1466 002c 9AB2     		uxth	r2, r3
 1467              		.loc 1 726 0
 1468 002e 3B68     		ldr	r3, [r7]
 1469 0030 5B89     		ldrh	r3, [r3, #10]
 724:/home/virusv/TDSAST_IOT/Libraries/src/stm32f10x_tim.c ****              TIM_BDTRInitStruct->TIM_LOCKLevel | TIM_BDTRInitStruct->TIM_DeadTime |
 1470              		.loc 1 724 0
 1471 0032 1343     		orrs	r3, r3, r2
 1472 0034 9AB2     		uxth	r2, r3
 727:/home/virusv/TDSAST_IOT/Libraries/src/stm32f10x_tim.c ****              TIM_BDTRInitStruct->TIM_AutomaticOutput;
 1473              		.loc 1 727 0
 1474 0036 3B68     		ldr	r3, [r7]
 1475 0038 9B89     		ldrh	r3, [r3, #12]
 724:/home/virusv/TDSAST_IOT/Libraries/src/stm32f10x_tim.c ****              TIM_BDTRInitStruct->TIM_LOCKLevel | TIM_BDTRInitStruct->TIM_DeadTime |
 1476              		.loc 1 724 0
 1477 003a 1343     		orrs	r3, r3, r2
 1478 003c 9AB2     		uxth	r2, r3
 1479 003e 7B68     		ldr	r3, [r7, #4]
 1480 0040 A3F84420 		strh	r2, [r3, #68]	@ movhi
 728:/home/virusv/TDSAST_IOT/Libraries/src/stm32f10x_tim.c **** }
 1481              		.loc 1 728 0
 1482 0044 0C37     		adds	r7, r7, #12
 1483              		.cfi_def_cfa_offset 4
 1484 0046 BD46     		mov	sp, r7
 1485              		.cfi_def_cfa_register 13
 1486              		@ sp needed
 1487 0048 5DF8047B 		ldr	r7, [sp], #4
 1488              		.cfi_restore 7
 1489              		.cfi_def_cfa_offset 0
 1490 004c 7047     		bx	lr
 1491              		.cfi_endproc
 1492              	.LFE37:
 1494 004e 00BF     		.section	.text.TIM_TimeBaseStructInit,"ax",%progbits
 1495              		.align	2
 1496              		.global	TIM_TimeBaseStructInit
 1497              		.thumb
 1498              		.thumb_func
 1500              	TIM_TimeBaseStructInit:
 1501              	.LFB38:
 729:/home/virusv/TDSAST_IOT/Libraries/src/stm32f10x_tim.c **** 
 730:/home/virusv/TDSAST_IOT/Libraries/src/stm32f10x_tim.c **** /**
 731:/home/virusv/TDSAST_IOT/Libraries/src/stm32f10x_tim.c ****   * @brief  Fills each TIM_TimeBaseInitStruct member with its default value.
 732:/home/virusv/TDSAST_IOT/Libraries/src/stm32f10x_tim.c ****   * @param  TIM_TimeBaseInitStruct : pointer to a TIM_TimeBaseInitTypeDef
 733:/home/virusv/TDSAST_IOT/Libraries/src/stm32f10x_tim.c ****   *         structure which will be initialized.
 734:/home/virusv/TDSAST_IOT/Libraries/src/stm32f10x_tim.c ****   * @retval None
 735:/home/virusv/TDSAST_IOT/Libraries/src/stm32f10x_tim.c ****   */
 736:/home/virusv/TDSAST_IOT/Libraries/src/stm32f10x_tim.c **** void TIM_TimeBaseStructInit(TIM_TimeBaseInitTypeDef* TIM_TimeBaseInitStruct)
 737:/home/virusv/TDSAST_IOT/Libraries/src/stm32f10x_tim.c **** {
 1502              		.loc 1 737 0
 1503              		.cfi_startproc
 1504              		@ args = 0, pretend = 0, frame = 8
 1505              		@ frame_needed = 1, uses_anonymous_args = 0
 1506              		@ link register save eliminated.
 1507 0000 80B4     		push	{r7}
 1508              		.cfi_def_cfa_offset 4
 1509              		.cfi_offset 7, -4
 1510 0002 83B0     		sub	sp, sp, #12
 1511              		.cfi_def_cfa_offset 16
 1512 0004 00AF     		add	r7, sp, #0
 1513              		.cfi_def_cfa_register 7
 1514 0006 7860     		str	r0, [r7, #4]
 738:/home/virusv/TDSAST_IOT/Libraries/src/stm32f10x_tim.c ****   /* Set the default configuration */
 739:/home/virusv/TDSAST_IOT/Libraries/src/stm32f10x_tim.c ****   TIM_TimeBaseInitStruct->TIM_Period = 0xFFFF;
 1515              		.loc 1 739 0
 1516 0008 7B68     		ldr	r3, [r7, #4]
 1517 000a 4FF6FF72 		movw	r2, #65535
 1518 000e 9A80     		strh	r2, [r3, #4]	@ movhi
 740:/home/virusv/TDSAST_IOT/Libraries/src/stm32f10x_tim.c ****   TIM_TimeBaseInitStruct->TIM_Prescaler = 0x0000;
 1519              		.loc 1 740 0
 1520 0010 7B68     		ldr	r3, [r7, #4]
 1521 0012 0022     		movs	r2, #0
 1522 0014 1A80     		strh	r2, [r3]	@ movhi
 741:/home/virusv/TDSAST_IOT/Libraries/src/stm32f10x_tim.c ****   TIM_TimeBaseInitStruct->TIM_ClockDivision = TIM_CKD_DIV1;
 1523              		.loc 1 741 0
 1524 0016 7B68     		ldr	r3, [r7, #4]
 1525 0018 0022     		movs	r2, #0
 1526 001a DA80     		strh	r2, [r3, #6]	@ movhi
 742:/home/virusv/TDSAST_IOT/Libraries/src/stm32f10x_tim.c ****   TIM_TimeBaseInitStruct->TIM_CounterMode = TIM_CounterMode_Up;
 1527              		.loc 1 742 0
 1528 001c 7B68     		ldr	r3, [r7, #4]
 1529 001e 0022     		movs	r2, #0
 1530 0020 5A80     		strh	r2, [r3, #2]	@ movhi
 743:/home/virusv/TDSAST_IOT/Libraries/src/stm32f10x_tim.c ****   TIM_TimeBaseInitStruct->TIM_RepetitionCounter = 0x0000;
 1531              		.loc 1 743 0
 1532 0022 7B68     		ldr	r3, [r7, #4]
 1533 0024 0022     		movs	r2, #0
 1534 0026 1A72     		strb	r2, [r3, #8]
 744:/home/virusv/TDSAST_IOT/Libraries/src/stm32f10x_tim.c **** }
 1535              		.loc 1 744 0
 1536 0028 0C37     		adds	r7, r7, #12
 1537              		.cfi_def_cfa_offset 4
 1538 002a BD46     		mov	sp, r7
 1539              		.cfi_def_cfa_register 13
 1540              		@ sp needed
 1541 002c 5DF8047B 		ldr	r7, [sp], #4
 1542              		.cfi_restore 7
 1543              		.cfi_def_cfa_offset 0
 1544 0030 7047     		bx	lr
 1545              		.cfi_endproc
 1546              	.LFE38:
 1548 0032 00BF     		.section	.text.TIM_OCStructInit,"ax",%progbits
 1549              		.align	2
 1550              		.global	TIM_OCStructInit
 1551              		.thumb
 1552              		.thumb_func
 1554              	TIM_OCStructInit:
 1555              	.LFB39:
 745:/home/virusv/TDSAST_IOT/Libraries/src/stm32f10x_tim.c **** 
 746:/home/virusv/TDSAST_IOT/Libraries/src/stm32f10x_tim.c **** /**
 747:/home/virusv/TDSAST_IOT/Libraries/src/stm32f10x_tim.c ****   * @brief  Fills each TIM_OCInitStruct member with its default value.
 748:/home/virusv/TDSAST_IOT/Libraries/src/stm32f10x_tim.c ****   * @param  TIM_OCInitStruct : pointer to a TIM_OCInitTypeDef structure which will
 749:/home/virusv/TDSAST_IOT/Libraries/src/stm32f10x_tim.c ****   *         be initialized.
 750:/home/virusv/TDSAST_IOT/Libraries/src/stm32f10x_tim.c ****   * @retval None
 751:/home/virusv/TDSAST_IOT/Libraries/src/stm32f10x_tim.c ****   */
 752:/home/virusv/TDSAST_IOT/Libraries/src/stm32f10x_tim.c **** void TIM_OCStructInit(TIM_OCInitTypeDef* TIM_OCInitStruct)
 753:/home/virusv/TDSAST_IOT/Libraries/src/stm32f10x_tim.c **** {
 1556              		.loc 1 753 0
 1557              		.cfi_startproc
 1558              		@ args = 0, pretend = 0, frame = 8
 1559              		@ frame_needed = 1, uses_anonymous_args = 0
 1560              		@ link register save eliminated.
 1561 0000 80B4     		push	{r7}
 1562              		.cfi_def_cfa_offset 4
 1563              		.cfi_offset 7, -4
 1564 0002 83B0     		sub	sp, sp, #12
 1565              		.cfi_def_cfa_offset 16
 1566 0004 00AF     		add	r7, sp, #0
 1567              		.cfi_def_cfa_register 7
 1568 0006 7860     		str	r0, [r7, #4]
 754:/home/virusv/TDSAST_IOT/Libraries/src/stm32f10x_tim.c ****   /* Set the default configuration */
 755:/home/virusv/TDSAST_IOT/Libraries/src/stm32f10x_tim.c ****   TIM_OCInitStruct->TIM_OCMode = TIM_OCMode_Timing;
 1569              		.loc 1 755 0
 1570 0008 7B68     		ldr	r3, [r7, #4]
 1571 000a 0022     		movs	r2, #0
 1572 000c 1A80     		strh	r2, [r3]	@ movhi
 756:/home/virusv/TDSAST_IOT/Libraries/src/stm32f10x_tim.c ****   TIM_OCInitStruct->TIM_OutputState = TIM_OutputState_Disable;
 1573              		.loc 1 756 0
 1574 000e 7B68     		ldr	r3, [r7, #4]
 1575 0010 0022     		movs	r2, #0
 1576 0012 5A80     		strh	r2, [r3, #2]	@ movhi
 757:/home/virusv/TDSAST_IOT/Libraries/src/stm32f10x_tim.c ****   TIM_OCInitStruct->TIM_OutputNState = TIM_OutputNState_Disable;
 1577              		.loc 1 757 0
 1578 0014 7B68     		ldr	r3, [r7, #4]
 1579 0016 0022     		movs	r2, #0
 1580 0018 9A80     		strh	r2, [r3, #4]	@ movhi
 758:/home/virusv/TDSAST_IOT/Libraries/src/stm32f10x_tim.c ****   TIM_OCInitStruct->TIM_Pulse = 0x0000;
 1581              		.loc 1 758 0
 1582 001a 7B68     		ldr	r3, [r7, #4]
 1583 001c 0022     		movs	r2, #0
 1584 001e DA80     		strh	r2, [r3, #6]	@ movhi
 759:/home/virusv/TDSAST_IOT/Libraries/src/stm32f10x_tim.c ****   TIM_OCInitStruct->TIM_OCPolarity = TIM_OCPolarity_High;
 1585              		.loc 1 759 0
 1586 0020 7B68     		ldr	r3, [r7, #4]
 1587 0022 0022     		movs	r2, #0
 1588 0024 1A81     		strh	r2, [r3, #8]	@ movhi
 760:/home/virusv/TDSAST_IOT/Libraries/src/stm32f10x_tim.c ****   TIM_OCInitStruct->TIM_OCNPolarity = TIM_OCPolarity_High;
 1589              		.loc 1 760 0
 1590 0026 7B68     		ldr	r3, [r7, #4]
 1591 0028 0022     		movs	r2, #0
 1592 002a 5A81     		strh	r2, [r3, #10]	@ movhi
 761:/home/virusv/TDSAST_IOT/Libraries/src/stm32f10x_tim.c ****   TIM_OCInitStruct->TIM_OCIdleState = TIM_OCIdleState_Reset;
 1593              		.loc 1 761 0
 1594 002c 7B68     		ldr	r3, [r7, #4]
 1595 002e 0022     		movs	r2, #0
 1596 0030 9A81     		strh	r2, [r3, #12]	@ movhi
 762:/home/virusv/TDSAST_IOT/Libraries/src/stm32f10x_tim.c ****   TIM_OCInitStruct->TIM_OCNIdleState = TIM_OCNIdleState_Reset;
 1597              		.loc 1 762 0
 1598 0032 7B68     		ldr	r3, [r7, #4]
 1599 0034 0022     		movs	r2, #0
 1600 0036 DA81     		strh	r2, [r3, #14]	@ movhi
 763:/home/virusv/TDSAST_IOT/Libraries/src/stm32f10x_tim.c **** }
 1601              		.loc 1 763 0
 1602 0038 0C37     		adds	r7, r7, #12
 1603              		.cfi_def_cfa_offset 4
 1604 003a BD46     		mov	sp, r7
 1605              		.cfi_def_cfa_register 13
 1606              		@ sp needed
 1607 003c 5DF8047B 		ldr	r7, [sp], #4
 1608              		.cfi_restore 7
 1609              		.cfi_def_cfa_offset 0
 1610 0040 7047     		bx	lr
 1611              		.cfi_endproc
 1612              	.LFE39:
 1614 0042 00BF     		.section	.text.TIM_ICStructInit,"ax",%progbits
 1615              		.align	2
 1616              		.global	TIM_ICStructInit
 1617              		.thumb
 1618              		.thumb_func
 1620              	TIM_ICStructInit:
 1621              	.LFB40:
 764:/home/virusv/TDSAST_IOT/Libraries/src/stm32f10x_tim.c **** 
 765:/home/virusv/TDSAST_IOT/Libraries/src/stm32f10x_tim.c **** /**
 766:/home/virusv/TDSAST_IOT/Libraries/src/stm32f10x_tim.c ****   * @brief  Fills each TIM_ICInitStruct member with its default value.
 767:/home/virusv/TDSAST_IOT/Libraries/src/stm32f10x_tim.c ****   * @param  TIM_ICInitStruct: pointer to a TIM_ICInitTypeDef structure which will
 768:/home/virusv/TDSAST_IOT/Libraries/src/stm32f10x_tim.c ****   *         be initialized.
 769:/home/virusv/TDSAST_IOT/Libraries/src/stm32f10x_tim.c ****   * @retval None
 770:/home/virusv/TDSAST_IOT/Libraries/src/stm32f10x_tim.c ****   */
 771:/home/virusv/TDSAST_IOT/Libraries/src/stm32f10x_tim.c **** void TIM_ICStructInit(TIM_ICInitTypeDef* TIM_ICInitStruct)
 772:/home/virusv/TDSAST_IOT/Libraries/src/stm32f10x_tim.c **** {
 1622              		.loc 1 772 0
 1623              		.cfi_startproc
 1624              		@ args = 0, pretend = 0, frame = 8
 1625              		@ frame_needed = 1, uses_anonymous_args = 0
 1626              		@ link register save eliminated.
 1627 0000 80B4     		push	{r7}
 1628              		.cfi_def_cfa_offset 4
 1629              		.cfi_offset 7, -4
 1630 0002 83B0     		sub	sp, sp, #12
 1631              		.cfi_def_cfa_offset 16
 1632 0004 00AF     		add	r7, sp, #0
 1633              		.cfi_def_cfa_register 7
 1634 0006 7860     		str	r0, [r7, #4]
 773:/home/virusv/TDSAST_IOT/Libraries/src/stm32f10x_tim.c ****   /* Set the default configuration */
 774:/home/virusv/TDSAST_IOT/Libraries/src/stm32f10x_tim.c ****   TIM_ICInitStruct->TIM_Channel = TIM_Channel_1;
 1635              		.loc 1 774 0
 1636 0008 7B68     		ldr	r3, [r7, #4]
 1637 000a 0022     		movs	r2, #0
 1638 000c 1A80     		strh	r2, [r3]	@ movhi
 775:/home/virusv/TDSAST_IOT/Libraries/src/stm32f10x_tim.c ****   TIM_ICInitStruct->TIM_ICPolarity = TIM_ICPolarity_Rising;
 1639              		.loc 1 775 0
 1640 000e 7B68     		ldr	r3, [r7, #4]
 1641 0010 0022     		movs	r2, #0
 1642 0012 5A80     		strh	r2, [r3, #2]	@ movhi
 776:/home/virusv/TDSAST_IOT/Libraries/src/stm32f10x_tim.c ****   TIM_ICInitStruct->TIM_ICSelection = TIM_ICSelection_DirectTI;
 1643              		.loc 1 776 0
 1644 0014 7B68     		ldr	r3, [r7, #4]
 1645 0016 0122     		movs	r2, #1
 1646 0018 9A80     		strh	r2, [r3, #4]	@ movhi
 777:/home/virusv/TDSAST_IOT/Libraries/src/stm32f10x_tim.c ****   TIM_ICInitStruct->TIM_ICPrescaler = TIM_ICPSC_DIV1;
 1647              		.loc 1 777 0
 1648 001a 7B68     		ldr	r3, [r7, #4]
 1649 001c 0022     		movs	r2, #0
 1650 001e DA80     		strh	r2, [r3, #6]	@ movhi
 778:/home/virusv/TDSAST_IOT/Libraries/src/stm32f10x_tim.c ****   TIM_ICInitStruct->TIM_ICFilter = 0x00;
 1651              		.loc 1 778 0
 1652 0020 7B68     		ldr	r3, [r7, #4]
 1653 0022 0022     		movs	r2, #0
 1654 0024 1A81     		strh	r2, [r3, #8]	@ movhi
 779:/home/virusv/TDSAST_IOT/Libraries/src/stm32f10x_tim.c **** }
 1655              		.loc 1 779 0
 1656 0026 0C37     		adds	r7, r7, #12
 1657              		.cfi_def_cfa_offset 4
 1658 0028 BD46     		mov	sp, r7
 1659              		.cfi_def_cfa_register 13
 1660              		@ sp needed
 1661 002a 5DF8047B 		ldr	r7, [sp], #4
 1662              		.cfi_restore 7
 1663              		.cfi_def_cfa_offset 0
 1664 002e 7047     		bx	lr
 1665              		.cfi_endproc
 1666              	.LFE40:
 1668              		.section	.text.TIM_BDTRStructInit,"ax",%progbits
 1669              		.align	2
 1670              		.global	TIM_BDTRStructInit
 1671              		.thumb
 1672              		.thumb_func
 1674              	TIM_BDTRStructInit:
 1675              	.LFB41:
 780:/home/virusv/TDSAST_IOT/Libraries/src/stm32f10x_tim.c **** 
 781:/home/virusv/TDSAST_IOT/Libraries/src/stm32f10x_tim.c **** /**
 782:/home/virusv/TDSAST_IOT/Libraries/src/stm32f10x_tim.c ****   * @brief  Fills each TIM_BDTRInitStruct member with its default value.
 783:/home/virusv/TDSAST_IOT/Libraries/src/stm32f10x_tim.c ****   * @param  TIM_BDTRInitStruct: pointer to a TIM_BDTRInitTypeDef structure which
 784:/home/virusv/TDSAST_IOT/Libraries/src/stm32f10x_tim.c ****   *         will be initialized.
 785:/home/virusv/TDSAST_IOT/Libraries/src/stm32f10x_tim.c ****   * @retval None
 786:/home/virusv/TDSAST_IOT/Libraries/src/stm32f10x_tim.c ****   */
 787:/home/virusv/TDSAST_IOT/Libraries/src/stm32f10x_tim.c **** void TIM_BDTRStructInit(TIM_BDTRInitTypeDef* TIM_BDTRInitStruct)
 788:/home/virusv/TDSAST_IOT/Libraries/src/stm32f10x_tim.c **** {
 1676              		.loc 1 788 0
 1677              		.cfi_startproc
 1678              		@ args = 0, pretend = 0, frame = 8
 1679              		@ frame_needed = 1, uses_anonymous_args = 0
 1680              		@ link register save eliminated.
 1681 0000 80B4     		push	{r7}
 1682              		.cfi_def_cfa_offset 4
 1683              		.cfi_offset 7, -4
 1684 0002 83B0     		sub	sp, sp, #12
 1685              		.cfi_def_cfa_offset 16
 1686 0004 00AF     		add	r7, sp, #0
 1687              		.cfi_def_cfa_register 7
 1688 0006 7860     		str	r0, [r7, #4]
 789:/home/virusv/TDSAST_IOT/Libraries/src/stm32f10x_tim.c ****   /* Set the default configuration */
 790:/home/virusv/TDSAST_IOT/Libraries/src/stm32f10x_tim.c ****   TIM_BDTRInitStruct->TIM_OSSRState = TIM_OSSRState_Disable;
 1689              		.loc 1 790 0
 1690 0008 7B68     		ldr	r3, [r7, #4]
 1691 000a 0022     		movs	r2, #0
 1692 000c 1A80     		strh	r2, [r3]	@ movhi
 791:/home/virusv/TDSAST_IOT/Libraries/src/stm32f10x_tim.c ****   TIM_BDTRInitStruct->TIM_OSSIState = TIM_OSSIState_Disable;
 1693              		.loc 1 791 0
 1694 000e 7B68     		ldr	r3, [r7, #4]
 1695 0010 0022     		movs	r2, #0
 1696 0012 5A80     		strh	r2, [r3, #2]	@ movhi
 792:/home/virusv/TDSAST_IOT/Libraries/src/stm32f10x_tim.c ****   TIM_BDTRInitStruct->TIM_LOCKLevel = TIM_LOCKLevel_OFF;
 1697              		.loc 1 792 0
 1698 0014 7B68     		ldr	r3, [r7, #4]
 1699 0016 0022     		movs	r2, #0
 1700 0018 9A80     		strh	r2, [r3, #4]	@ movhi
 793:/home/virusv/TDSAST_IOT/Libraries/src/stm32f10x_tim.c ****   TIM_BDTRInitStruct->TIM_DeadTime = 0x00;
 1701              		.loc 1 793 0
 1702 001a 7B68     		ldr	r3, [r7, #4]
 1703 001c 0022     		movs	r2, #0
 1704 001e DA80     		strh	r2, [r3, #6]	@ movhi
 794:/home/virusv/TDSAST_IOT/Libraries/src/stm32f10x_tim.c ****   TIM_BDTRInitStruct->TIM_Break = TIM_Break_Disable;
 1705              		.loc 1 794 0
 1706 0020 7B68     		ldr	r3, [r7, #4]
 1707 0022 0022     		movs	r2, #0
 1708 0024 1A81     		strh	r2, [r3, #8]	@ movhi
 795:/home/virusv/TDSAST_IOT/Libraries/src/stm32f10x_tim.c ****   TIM_BDTRInitStruct->TIM_BreakPolarity = TIM_BreakPolarity_Low;
 1709              		.loc 1 795 0
 1710 0026 7B68     		ldr	r3, [r7, #4]
 1711 0028 0022     		movs	r2, #0
 1712 002a 5A81     		strh	r2, [r3, #10]	@ movhi
 796:/home/virusv/TDSAST_IOT/Libraries/src/stm32f10x_tim.c ****   TIM_BDTRInitStruct->TIM_AutomaticOutput = TIM_AutomaticOutput_Disable;
 1713              		.loc 1 796 0
 1714 002c 7B68     		ldr	r3, [r7, #4]
 1715 002e 0022     		movs	r2, #0
 1716 0030 9A81     		strh	r2, [r3, #12]	@ movhi
 797:/home/virusv/TDSAST_IOT/Libraries/src/stm32f10x_tim.c **** }
 1717              		.loc 1 797 0
 1718 0032 0C37     		adds	r7, r7, #12
 1719              		.cfi_def_cfa_offset 4
 1720 0034 BD46     		mov	sp, r7
 1721              		.cfi_def_cfa_register 13
 1722              		@ sp needed
 1723 0036 5DF8047B 		ldr	r7, [sp], #4
 1724              		.cfi_restore 7
 1725              		.cfi_def_cfa_offset 0
 1726 003a 7047     		bx	lr
 1727              		.cfi_endproc
 1728              	.LFE41:
 1730              		.section	.text.TIM_Cmd,"ax",%progbits
 1731              		.align	2
 1732              		.global	TIM_Cmd
 1733              		.thumb
 1734              		.thumb_func
 1736              	TIM_Cmd:
 1737              	.LFB42:
 798:/home/virusv/TDSAST_IOT/Libraries/src/stm32f10x_tim.c **** 
 799:/home/virusv/TDSAST_IOT/Libraries/src/stm32f10x_tim.c **** /**
 800:/home/virusv/TDSAST_IOT/Libraries/src/stm32f10x_tim.c ****   * @brief  Enables or disables the specified TIM peripheral.
 801:/home/virusv/TDSAST_IOT/Libraries/src/stm32f10x_tim.c ****   * @param  TIMx: where x can be 1 to 17 to select the TIMx peripheral.
 802:/home/virusv/TDSAST_IOT/Libraries/src/stm32f10x_tim.c ****   * @param  NewState: new state of the TIMx peripheral.
 803:/home/virusv/TDSAST_IOT/Libraries/src/stm32f10x_tim.c ****   *   This parameter can be: ENABLE or DISABLE.
 804:/home/virusv/TDSAST_IOT/Libraries/src/stm32f10x_tim.c ****   * @retval None
 805:/home/virusv/TDSAST_IOT/Libraries/src/stm32f10x_tim.c ****   */
 806:/home/virusv/TDSAST_IOT/Libraries/src/stm32f10x_tim.c **** void TIM_Cmd(TIM_TypeDef* TIMx, FunctionalState NewState)
 807:/home/virusv/TDSAST_IOT/Libraries/src/stm32f10x_tim.c **** {
 1738              		.loc 1 807 0
 1739              		.cfi_startproc
 1740              		@ args = 0, pretend = 0, frame = 8
 1741              		@ frame_needed = 1, uses_anonymous_args = 0
 1742              		@ link register save eliminated.
 1743 0000 80B4     		push	{r7}
 1744              		.cfi_def_cfa_offset 4
 1745              		.cfi_offset 7, -4
 1746 0002 83B0     		sub	sp, sp, #12
 1747              		.cfi_def_cfa_offset 16
 1748 0004 00AF     		add	r7, sp, #0
 1749              		.cfi_def_cfa_register 7
 1750 0006 7860     		str	r0, [r7, #4]
 1751 0008 0B46     		mov	r3, r1
 1752 000a FB70     		strb	r3, [r7, #3]
 808:/home/virusv/TDSAST_IOT/Libraries/src/stm32f10x_tim.c ****   /* Check the parameters */
 809:/home/virusv/TDSAST_IOT/Libraries/src/stm32f10x_tim.c ****   assert_param(IS_TIM_ALL_PERIPH(TIMx));
 810:/home/virusv/TDSAST_IOT/Libraries/src/stm32f10x_tim.c ****   assert_param(IS_FUNCTIONAL_STATE(NewState));
 811:/home/virusv/TDSAST_IOT/Libraries/src/stm32f10x_tim.c ****   
 812:/home/virusv/TDSAST_IOT/Libraries/src/stm32f10x_tim.c ****   if (NewState != DISABLE)
 1753              		.loc 1 812 0
 1754 000c FB78     		ldrb	r3, [r7, #3]	@ zero_extendqisi2
 1755 000e 002B     		cmp	r3, #0
 1756 0010 08D0     		beq	.L67
 813:/home/virusv/TDSAST_IOT/Libraries/src/stm32f10x_tim.c ****   {
 814:/home/virusv/TDSAST_IOT/Libraries/src/stm32f10x_tim.c ****     /* Enable the TIM Counter */
 815:/home/virusv/TDSAST_IOT/Libraries/src/stm32f10x_tim.c ****     TIMx->CR1 |= TIM_CR1_CEN;
 1757              		.loc 1 815 0
 1758 0012 7B68     		ldr	r3, [r7, #4]
 1759 0014 1B88     		ldrh	r3, [r3]	@ movhi
 1760 0016 9BB2     		uxth	r3, r3
 1761 0018 43F00103 		orr	r3, r3, #1
 1762 001c 9AB2     		uxth	r2, r3
 1763 001e 7B68     		ldr	r3, [r7, #4]
 1764 0020 1A80     		strh	r2, [r3]	@ movhi
 1765 0022 07E0     		b	.L66
 1766              	.L67:
 816:/home/virusv/TDSAST_IOT/Libraries/src/stm32f10x_tim.c ****   }
 817:/home/virusv/TDSAST_IOT/Libraries/src/stm32f10x_tim.c ****   else
 818:/home/virusv/TDSAST_IOT/Libraries/src/stm32f10x_tim.c ****   {
 819:/home/virusv/TDSAST_IOT/Libraries/src/stm32f10x_tim.c ****     /* Disable the TIM Counter */
 820:/home/virusv/TDSAST_IOT/Libraries/src/stm32f10x_tim.c ****     TIMx->CR1 &= (uint16_t)(~((uint16_t)TIM_CR1_CEN));
 1767              		.loc 1 820 0
 1768 0024 7B68     		ldr	r3, [r7, #4]
 1769 0026 1B88     		ldrh	r3, [r3]	@ movhi
 1770 0028 9BB2     		uxth	r3, r3
 1771 002a 23F00103 		bic	r3, r3, #1
 1772 002e 9AB2     		uxth	r2, r3
 1773 0030 7B68     		ldr	r3, [r7, #4]
 1774 0032 1A80     		strh	r2, [r3]	@ movhi
 1775              	.L66:
 821:/home/virusv/TDSAST_IOT/Libraries/src/stm32f10x_tim.c ****   }
 822:/home/virusv/TDSAST_IOT/Libraries/src/stm32f10x_tim.c **** }
 1776              		.loc 1 822 0
 1777 0034 0C37     		adds	r7, r7, #12
 1778              		.cfi_def_cfa_offset 4
 1779 0036 BD46     		mov	sp, r7
 1780              		.cfi_def_cfa_register 13
 1781              		@ sp needed
 1782 0038 5DF8047B 		ldr	r7, [sp], #4
 1783              		.cfi_restore 7
 1784              		.cfi_def_cfa_offset 0
 1785 003c 7047     		bx	lr
 1786              		.cfi_endproc
 1787              	.LFE42:
 1789 003e 00BF     		.section	.text.TIM_CtrlPWMOutputs,"ax",%progbits
 1790              		.align	2
 1791              		.global	TIM_CtrlPWMOutputs
 1792              		.thumb
 1793              		.thumb_func
 1795              	TIM_CtrlPWMOutputs:
 1796              	.LFB43:
 823:/home/virusv/TDSAST_IOT/Libraries/src/stm32f10x_tim.c **** 
 824:/home/virusv/TDSAST_IOT/Libraries/src/stm32f10x_tim.c **** /**
 825:/home/virusv/TDSAST_IOT/Libraries/src/stm32f10x_tim.c ****   * @brief  Enables or disables the TIM peripheral Main Outputs.
 826:/home/virusv/TDSAST_IOT/Libraries/src/stm32f10x_tim.c ****   * @param  TIMx: where x can be 1, 8, 15, 16 or 17 to select the TIMx peripheral.
 827:/home/virusv/TDSAST_IOT/Libraries/src/stm32f10x_tim.c ****   * @param  NewState: new state of the TIM peripheral Main Outputs.
 828:/home/virusv/TDSAST_IOT/Libraries/src/stm32f10x_tim.c ****   *   This parameter can be: ENABLE or DISABLE.
 829:/home/virusv/TDSAST_IOT/Libraries/src/stm32f10x_tim.c ****   * @retval None
 830:/home/virusv/TDSAST_IOT/Libraries/src/stm32f10x_tim.c ****   */
 831:/home/virusv/TDSAST_IOT/Libraries/src/stm32f10x_tim.c **** void TIM_CtrlPWMOutputs(TIM_TypeDef* TIMx, FunctionalState NewState)
 832:/home/virusv/TDSAST_IOT/Libraries/src/stm32f10x_tim.c **** {
 1797              		.loc 1 832 0
 1798              		.cfi_startproc
 1799              		@ args = 0, pretend = 0, frame = 8
 1800              		@ frame_needed = 1, uses_anonymous_args = 0
 1801              		@ link register save eliminated.
 1802 0000 80B4     		push	{r7}
 1803              		.cfi_def_cfa_offset 4
 1804              		.cfi_offset 7, -4
 1805 0002 83B0     		sub	sp, sp, #12
 1806              		.cfi_def_cfa_offset 16
 1807 0004 00AF     		add	r7, sp, #0
 1808              		.cfi_def_cfa_register 7
 1809 0006 7860     		str	r0, [r7, #4]
 1810 0008 0B46     		mov	r3, r1
 1811 000a FB70     		strb	r3, [r7, #3]
 833:/home/virusv/TDSAST_IOT/Libraries/src/stm32f10x_tim.c ****   /* Check the parameters */
 834:/home/virusv/TDSAST_IOT/Libraries/src/stm32f10x_tim.c ****   assert_param(IS_TIM_LIST2_PERIPH(TIMx));
 835:/home/virusv/TDSAST_IOT/Libraries/src/stm32f10x_tim.c ****   assert_param(IS_FUNCTIONAL_STATE(NewState));
 836:/home/virusv/TDSAST_IOT/Libraries/src/stm32f10x_tim.c ****   if (NewState != DISABLE)
 1812              		.loc 1 836 0
 1813 000c FB78     		ldrb	r3, [r7, #3]	@ zero_extendqisi2
 1814 000e 002B     		cmp	r3, #0
 1815 0010 0CD0     		beq	.L70
 837:/home/virusv/TDSAST_IOT/Libraries/src/stm32f10x_tim.c ****   {
 838:/home/virusv/TDSAST_IOT/Libraries/src/stm32f10x_tim.c ****     /* Enable the TIM Main Output */
 839:/home/virusv/TDSAST_IOT/Libraries/src/stm32f10x_tim.c ****     TIMx->BDTR |= TIM_BDTR_MOE;
 1816              		.loc 1 839 0
 1817 0012 7B68     		ldr	r3, [r7, #4]
 1818 0014 B3F84430 		ldrh	r3, [r3, #68]	@ movhi
 1819 0018 9BB2     		uxth	r3, r3
 1820 001a 6FEA4343 		mvn	r3, r3, lsl #17
 1821 001e 6FEA5343 		mvn	r3, r3, lsr #17
 1822 0022 9AB2     		uxth	r2, r3
 1823 0024 7B68     		ldr	r3, [r7, #4]
 1824 0026 A3F84420 		strh	r2, [r3, #68]	@ movhi
 1825 002a 09E0     		b	.L69
 1826              	.L70:
 840:/home/virusv/TDSAST_IOT/Libraries/src/stm32f10x_tim.c ****   }
 841:/home/virusv/TDSAST_IOT/Libraries/src/stm32f10x_tim.c ****   else
 842:/home/virusv/TDSAST_IOT/Libraries/src/stm32f10x_tim.c ****   {
 843:/home/virusv/TDSAST_IOT/Libraries/src/stm32f10x_tim.c ****     /* Disable the TIM Main Output */
 844:/home/virusv/TDSAST_IOT/Libraries/src/stm32f10x_tim.c ****     TIMx->BDTR &= (uint16_t)(~((uint16_t)TIM_BDTR_MOE));
 1827              		.loc 1 844 0
 1828 002c 7B68     		ldr	r3, [r7, #4]
 1829 002e B3F84430 		ldrh	r3, [r3, #68]	@ movhi
 1830 0032 9BB2     		uxth	r3, r3
 1831 0034 C3F30E03 		ubfx	r3, r3, #0, #15
 1832 0038 9AB2     		uxth	r2, r3
 1833 003a 7B68     		ldr	r3, [r7, #4]
 1834 003c A3F84420 		strh	r2, [r3, #68]	@ movhi
 1835              	.L69:
 845:/home/virusv/TDSAST_IOT/Libraries/src/stm32f10x_tim.c ****   }  
 846:/home/virusv/TDSAST_IOT/Libraries/src/stm32f10x_tim.c **** }
 1836              		.loc 1 846 0
 1837 0040 0C37     		adds	r7, r7, #12
 1838              		.cfi_def_cfa_offset 4
 1839 0042 BD46     		mov	sp, r7
 1840              		.cfi_def_cfa_register 13
 1841              		@ sp needed
 1842 0044 5DF8047B 		ldr	r7, [sp], #4
 1843              		.cfi_restore 7
 1844              		.cfi_def_cfa_offset 0
 1845 0048 7047     		bx	lr
 1846              		.cfi_endproc
 1847              	.LFE43:
 1849 004a 00BF     		.section	.text.TIM_ITConfig,"ax",%progbits
 1850              		.align	2
 1851              		.global	TIM_ITConfig
 1852              		.thumb
 1853              		.thumb_func
 1855              	TIM_ITConfig:
 1856              	.LFB44:
 847:/home/virusv/TDSAST_IOT/Libraries/src/stm32f10x_tim.c **** 
 848:/home/virusv/TDSAST_IOT/Libraries/src/stm32f10x_tim.c **** /**
 849:/home/virusv/TDSAST_IOT/Libraries/src/stm32f10x_tim.c ****   * @brief  Enables or disables the specified TIM interrupts.
 850:/home/virusv/TDSAST_IOT/Libraries/src/stm32f10x_tim.c ****   * @param  TIMx: where x can be 1 to 17 to select the TIMx peripheral.
 851:/home/virusv/TDSAST_IOT/Libraries/src/stm32f10x_tim.c ****   * @param  TIM_IT: specifies the TIM interrupts sources to be enabled or disabled.
 852:/home/virusv/TDSAST_IOT/Libraries/src/stm32f10x_tim.c ****   *   This parameter can be any combination of the following values:
 853:/home/virusv/TDSAST_IOT/Libraries/src/stm32f10x_tim.c ****   *     @arg TIM_IT_Update: TIM update Interrupt source
 854:/home/virusv/TDSAST_IOT/Libraries/src/stm32f10x_tim.c ****   *     @arg TIM_IT_CC1: TIM Capture Compare 1 Interrupt source
 855:/home/virusv/TDSAST_IOT/Libraries/src/stm32f10x_tim.c ****   *     @arg TIM_IT_CC2: TIM Capture Compare 2 Interrupt source
 856:/home/virusv/TDSAST_IOT/Libraries/src/stm32f10x_tim.c ****   *     @arg TIM_IT_CC3: TIM Capture Compare 3 Interrupt source
 857:/home/virusv/TDSAST_IOT/Libraries/src/stm32f10x_tim.c ****   *     @arg TIM_IT_CC4: TIM Capture Compare 4 Interrupt source
 858:/home/virusv/TDSAST_IOT/Libraries/src/stm32f10x_tim.c ****   *     @arg TIM_IT_COM: TIM Commutation Interrupt source
 859:/home/virusv/TDSAST_IOT/Libraries/src/stm32f10x_tim.c ****   *     @arg TIM_IT_Trigger: TIM Trigger Interrupt source
 860:/home/virusv/TDSAST_IOT/Libraries/src/stm32f10x_tim.c ****   *     @arg TIM_IT_Break: TIM Break Interrupt source
 861:/home/virusv/TDSAST_IOT/Libraries/src/stm32f10x_tim.c ****   * @note 
 862:/home/virusv/TDSAST_IOT/Libraries/src/stm32f10x_tim.c ****   *   - TIM6 and TIM7 can only generate an update interrupt.
 863:/home/virusv/TDSAST_IOT/Libraries/src/stm32f10x_tim.c ****   *   - TIM9, TIM12 and TIM15 can have only TIM_IT_Update, TIM_IT_CC1,
 864:/home/virusv/TDSAST_IOT/Libraries/src/stm32f10x_tim.c ****   *      TIM_IT_CC2 or TIM_IT_Trigger. 
 865:/home/virusv/TDSAST_IOT/Libraries/src/stm32f10x_tim.c ****   *   - TIM10, TIM11, TIM13, TIM14, TIM16 and TIM17 can have TIM_IT_Update or TIM_IT_CC1.   
 866:/home/virusv/TDSAST_IOT/Libraries/src/stm32f10x_tim.c ****   *   - TIM_IT_Break is used only with TIM1, TIM8 and TIM15. 
 867:/home/virusv/TDSAST_IOT/Libraries/src/stm32f10x_tim.c ****   *   - TIM_IT_COM is used only with TIM1, TIM8, TIM15, TIM16 and TIM17.    
 868:/home/virusv/TDSAST_IOT/Libraries/src/stm32f10x_tim.c ****   * @param  NewState: new state of the TIM interrupts.
 869:/home/virusv/TDSAST_IOT/Libraries/src/stm32f10x_tim.c ****   *   This parameter can be: ENABLE or DISABLE.
 870:/home/virusv/TDSAST_IOT/Libraries/src/stm32f10x_tim.c ****   * @retval None
 871:/home/virusv/TDSAST_IOT/Libraries/src/stm32f10x_tim.c ****   */
 872:/home/virusv/TDSAST_IOT/Libraries/src/stm32f10x_tim.c **** void TIM_ITConfig(TIM_TypeDef* TIMx, uint16_t TIM_IT, FunctionalState NewState)
 873:/home/virusv/TDSAST_IOT/Libraries/src/stm32f10x_tim.c **** {  
 1857              		.loc 1 873 0
 1858              		.cfi_startproc
 1859              		@ args = 0, pretend = 0, frame = 8
 1860              		@ frame_needed = 1, uses_anonymous_args = 0
 1861              		@ link register save eliminated.
 1862 0000 80B4     		push	{r7}
 1863              		.cfi_def_cfa_offset 4
 1864              		.cfi_offset 7, -4
 1865 0002 83B0     		sub	sp, sp, #12
 1866              		.cfi_def_cfa_offset 16
 1867 0004 00AF     		add	r7, sp, #0
 1868              		.cfi_def_cfa_register 7
 1869 0006 7860     		str	r0, [r7, #4]
 1870 0008 0B46     		mov	r3, r1
 1871 000a 7B80     		strh	r3, [r7, #2]	@ movhi
 1872 000c 1346     		mov	r3, r2
 1873 000e 7B70     		strb	r3, [r7, #1]
 874:/home/virusv/TDSAST_IOT/Libraries/src/stm32f10x_tim.c ****   /* Check the parameters */
 875:/home/virusv/TDSAST_IOT/Libraries/src/stm32f10x_tim.c ****   assert_param(IS_TIM_ALL_PERIPH(TIMx));
 876:/home/virusv/TDSAST_IOT/Libraries/src/stm32f10x_tim.c ****   assert_param(IS_TIM_IT(TIM_IT));
 877:/home/virusv/TDSAST_IOT/Libraries/src/stm32f10x_tim.c ****   assert_param(IS_FUNCTIONAL_STATE(NewState));
 878:/home/virusv/TDSAST_IOT/Libraries/src/stm32f10x_tim.c ****   
 879:/home/virusv/TDSAST_IOT/Libraries/src/stm32f10x_tim.c ****   if (NewState != DISABLE)
 1874              		.loc 1 879 0
 1875 0010 7B78     		ldrb	r3, [r7, #1]	@ zero_extendqisi2
 1876 0012 002B     		cmp	r3, #0
 1877 0014 08D0     		beq	.L73
 880:/home/virusv/TDSAST_IOT/Libraries/src/stm32f10x_tim.c ****   {
 881:/home/virusv/TDSAST_IOT/Libraries/src/stm32f10x_tim.c ****     /* Enable the Interrupt sources */
 882:/home/virusv/TDSAST_IOT/Libraries/src/stm32f10x_tim.c ****     TIMx->DIER |= TIM_IT;
 1878              		.loc 1 882 0
 1879 0016 7B68     		ldr	r3, [r7, #4]
 1880 0018 9B89     		ldrh	r3, [r3, #12]	@ movhi
 1881 001a 9AB2     		uxth	r2, r3
 1882 001c 7B88     		ldrh	r3, [r7, #2]	@ movhi
 1883 001e 1343     		orrs	r3, r3, r2
 1884 0020 9AB2     		uxth	r2, r3
 1885 0022 7B68     		ldr	r3, [r7, #4]
 1886 0024 9A81     		strh	r2, [r3, #12]	@ movhi
 1887 0026 09E0     		b	.L72
 1888              	.L73:
 883:/home/virusv/TDSAST_IOT/Libraries/src/stm32f10x_tim.c ****   }
 884:/home/virusv/TDSAST_IOT/Libraries/src/stm32f10x_tim.c ****   else
 885:/home/virusv/TDSAST_IOT/Libraries/src/stm32f10x_tim.c ****   {
 886:/home/virusv/TDSAST_IOT/Libraries/src/stm32f10x_tim.c ****     /* Disable the Interrupt sources */
 887:/home/virusv/TDSAST_IOT/Libraries/src/stm32f10x_tim.c ****     TIMx->DIER &= (uint16_t)~TIM_IT;
 1889              		.loc 1 887 0
 1890 0028 7B68     		ldr	r3, [r7, #4]
 1891 002a 9B89     		ldrh	r3, [r3, #12]	@ movhi
 1892 002c 9AB2     		uxth	r2, r3
 1893 002e 7B88     		ldrh	r3, [r7, #2]	@ movhi
 1894 0030 DB43     		mvns	r3, r3
 1895 0032 9BB2     		uxth	r3, r3
 1896 0034 1340     		ands	r3, r3, r2
 1897 0036 9AB2     		uxth	r2, r3
 1898 0038 7B68     		ldr	r3, [r7, #4]
 1899 003a 9A81     		strh	r2, [r3, #12]	@ movhi
 1900              	.L72:
 888:/home/virusv/TDSAST_IOT/Libraries/src/stm32f10x_tim.c ****   }
 889:/home/virusv/TDSAST_IOT/Libraries/src/stm32f10x_tim.c **** }
 1901              		.loc 1 889 0
 1902 003c 0C37     		adds	r7, r7, #12
 1903              		.cfi_def_cfa_offset 4
 1904 003e BD46     		mov	sp, r7
 1905              		.cfi_def_cfa_register 13
 1906              		@ sp needed
 1907 0040 5DF8047B 		ldr	r7, [sp], #4
 1908              		.cfi_restore 7
 1909              		.cfi_def_cfa_offset 0
 1910 0044 7047     		bx	lr
 1911              		.cfi_endproc
 1912              	.LFE44:
 1914 0046 00BF     		.section	.text.TIM_GenerateEvent,"ax",%progbits
 1915              		.align	2
 1916              		.global	TIM_GenerateEvent
 1917              		.thumb
 1918              		.thumb_func
 1920              	TIM_GenerateEvent:
 1921              	.LFB45:
 890:/home/virusv/TDSAST_IOT/Libraries/src/stm32f10x_tim.c **** 
 891:/home/virusv/TDSAST_IOT/Libraries/src/stm32f10x_tim.c **** /**
 892:/home/virusv/TDSAST_IOT/Libraries/src/stm32f10x_tim.c ****   * @brief  Configures the TIMx event to be generate by software.
 893:/home/virusv/TDSAST_IOT/Libraries/src/stm32f10x_tim.c ****   * @param  TIMx: where x can be 1 to 17 to select the TIM peripheral.
 894:/home/virusv/TDSAST_IOT/Libraries/src/stm32f10x_tim.c ****   * @param  TIM_EventSource: specifies the event source.
 895:/home/virusv/TDSAST_IOT/Libraries/src/stm32f10x_tim.c ****   *   This parameter can be one or more of the following values:	   
 896:/home/virusv/TDSAST_IOT/Libraries/src/stm32f10x_tim.c ****   *     @arg TIM_EventSource_Update: Timer update Event source
 897:/home/virusv/TDSAST_IOT/Libraries/src/stm32f10x_tim.c ****   *     @arg TIM_EventSource_CC1: Timer Capture Compare 1 Event source
 898:/home/virusv/TDSAST_IOT/Libraries/src/stm32f10x_tim.c ****   *     @arg TIM_EventSource_CC2: Timer Capture Compare 2 Event source
 899:/home/virusv/TDSAST_IOT/Libraries/src/stm32f10x_tim.c ****   *     @arg TIM_EventSource_CC3: Timer Capture Compare 3 Event source
 900:/home/virusv/TDSAST_IOT/Libraries/src/stm32f10x_tim.c ****   *     @arg TIM_EventSource_CC4: Timer Capture Compare 4 Event source
 901:/home/virusv/TDSAST_IOT/Libraries/src/stm32f10x_tim.c ****   *     @arg TIM_EventSource_COM: Timer COM event source  
 902:/home/virusv/TDSAST_IOT/Libraries/src/stm32f10x_tim.c ****   *     @arg TIM_EventSource_Trigger: Timer Trigger Event source
 903:/home/virusv/TDSAST_IOT/Libraries/src/stm32f10x_tim.c ****   *     @arg TIM_EventSource_Break: Timer Break event source
 904:/home/virusv/TDSAST_IOT/Libraries/src/stm32f10x_tim.c ****   * @note 
 905:/home/virusv/TDSAST_IOT/Libraries/src/stm32f10x_tim.c ****   *   - TIM6 and TIM7 can only generate an update event. 
 906:/home/virusv/TDSAST_IOT/Libraries/src/stm32f10x_tim.c ****   *   - TIM_EventSource_COM and TIM_EventSource_Break are used only with TIM1 and TIM8.      
 907:/home/virusv/TDSAST_IOT/Libraries/src/stm32f10x_tim.c ****   * @retval None
 908:/home/virusv/TDSAST_IOT/Libraries/src/stm32f10x_tim.c ****   */
 909:/home/virusv/TDSAST_IOT/Libraries/src/stm32f10x_tim.c **** void TIM_GenerateEvent(TIM_TypeDef* TIMx, uint16_t TIM_EventSource)
 910:/home/virusv/TDSAST_IOT/Libraries/src/stm32f10x_tim.c **** { 
 1922              		.loc 1 910 0
 1923              		.cfi_startproc
 1924              		@ args = 0, pretend = 0, frame = 8
 1925              		@ frame_needed = 1, uses_anonymous_args = 0
 1926              		@ link register save eliminated.
 1927 0000 80B4     		push	{r7}
 1928              		.cfi_def_cfa_offset 4
 1929              		.cfi_offset 7, -4
 1930 0002 83B0     		sub	sp, sp, #12
 1931              		.cfi_def_cfa_offset 16
 1932 0004 00AF     		add	r7, sp, #0
 1933              		.cfi_def_cfa_register 7
 1934 0006 7860     		str	r0, [r7, #4]
 1935 0008 0B46     		mov	r3, r1
 1936 000a 7B80     		strh	r3, [r7, #2]	@ movhi
 911:/home/virusv/TDSAST_IOT/Libraries/src/stm32f10x_tim.c ****   /* Check the parameters */
 912:/home/virusv/TDSAST_IOT/Libraries/src/stm32f10x_tim.c ****   assert_param(IS_TIM_ALL_PERIPH(TIMx));
 913:/home/virusv/TDSAST_IOT/Libraries/src/stm32f10x_tim.c ****   assert_param(IS_TIM_EVENT_SOURCE(TIM_EventSource));
 914:/home/virusv/TDSAST_IOT/Libraries/src/stm32f10x_tim.c ****   
 915:/home/virusv/TDSAST_IOT/Libraries/src/stm32f10x_tim.c ****   /* Set the event sources */
 916:/home/virusv/TDSAST_IOT/Libraries/src/stm32f10x_tim.c ****   TIMx->EGR = TIM_EventSource;
 1937              		.loc 1 916 0
 1938 000c 7B68     		ldr	r3, [r7, #4]
 1939 000e 7A88     		ldrh	r2, [r7, #2]	@ movhi
 1940 0010 9A82     		strh	r2, [r3, #20]	@ movhi
 917:/home/virusv/TDSAST_IOT/Libraries/src/stm32f10x_tim.c **** }
 1941              		.loc 1 917 0
 1942 0012 0C37     		adds	r7, r7, #12
 1943              		.cfi_def_cfa_offset 4
 1944 0014 BD46     		mov	sp, r7
 1945              		.cfi_def_cfa_register 13
 1946              		@ sp needed
 1947 0016 5DF8047B 		ldr	r7, [sp], #4
 1948              		.cfi_restore 7
 1949              		.cfi_def_cfa_offset 0
 1950 001a 7047     		bx	lr
 1951              		.cfi_endproc
 1952              	.LFE45:
 1954              		.section	.text.TIM_DMAConfig,"ax",%progbits
 1955              		.align	2
 1956              		.global	TIM_DMAConfig
 1957              		.thumb
 1958              		.thumb_func
 1960              	TIM_DMAConfig:
 1961              	.LFB46:
 918:/home/virusv/TDSAST_IOT/Libraries/src/stm32f10x_tim.c **** 
 919:/home/virusv/TDSAST_IOT/Libraries/src/stm32f10x_tim.c **** /**
 920:/home/virusv/TDSAST_IOT/Libraries/src/stm32f10x_tim.c ****   * @brief  Configures the TIMx's DMA interface.
 921:/home/virusv/TDSAST_IOT/Libraries/src/stm32f10x_tim.c ****   * @param  TIMx: where x can be  1, 2, 3, 4, 5, 8, 15, 16 or 17 to select 
 922:/home/virusv/TDSAST_IOT/Libraries/src/stm32f10x_tim.c ****   *   the TIM peripheral.
 923:/home/virusv/TDSAST_IOT/Libraries/src/stm32f10x_tim.c ****   * @param  TIM_DMABase: DMA Base address.
 924:/home/virusv/TDSAST_IOT/Libraries/src/stm32f10x_tim.c ****   *   This parameter can be one of the following values:
 925:/home/virusv/TDSAST_IOT/Libraries/src/stm32f10x_tim.c ****   *     @arg TIM_DMABase_CR, TIM_DMABase_CR2, TIM_DMABase_SMCR,
 926:/home/virusv/TDSAST_IOT/Libraries/src/stm32f10x_tim.c ****   *          TIM_DMABase_DIER, TIM1_DMABase_SR, TIM_DMABase_EGR,
 927:/home/virusv/TDSAST_IOT/Libraries/src/stm32f10x_tim.c ****   *          TIM_DMABase_CCMR1, TIM_DMABase_CCMR2, TIM_DMABase_CCER,
 928:/home/virusv/TDSAST_IOT/Libraries/src/stm32f10x_tim.c ****   *          TIM_DMABase_CNT, TIM_DMABase_PSC, TIM_DMABase_ARR,
 929:/home/virusv/TDSAST_IOT/Libraries/src/stm32f10x_tim.c ****   *          TIM_DMABase_RCR, TIM_DMABase_CCR1, TIM_DMABase_CCR2,
 930:/home/virusv/TDSAST_IOT/Libraries/src/stm32f10x_tim.c ****   *          TIM_DMABase_CCR3, TIM_DMABase_CCR4, TIM_DMABase_BDTR,
 931:/home/virusv/TDSAST_IOT/Libraries/src/stm32f10x_tim.c ****   *          TIM_DMABase_DCR.
 932:/home/virusv/TDSAST_IOT/Libraries/src/stm32f10x_tim.c ****   * @param  TIM_DMABurstLength: DMA Burst length.
 933:/home/virusv/TDSAST_IOT/Libraries/src/stm32f10x_tim.c ****   *   This parameter can be one value between:
 934:/home/virusv/TDSAST_IOT/Libraries/src/stm32f10x_tim.c ****   *   TIM_DMABurstLength_1Transfer and TIM_DMABurstLength_18Transfers.
 935:/home/virusv/TDSAST_IOT/Libraries/src/stm32f10x_tim.c ****   * @retval None
 936:/home/virusv/TDSAST_IOT/Libraries/src/stm32f10x_tim.c ****   */
 937:/home/virusv/TDSAST_IOT/Libraries/src/stm32f10x_tim.c **** void TIM_DMAConfig(TIM_TypeDef* TIMx, uint16_t TIM_DMABase, uint16_t TIM_DMABurstLength)
 938:/home/virusv/TDSAST_IOT/Libraries/src/stm32f10x_tim.c **** {
 1962              		.loc 1 938 0
 1963              		.cfi_startproc
 1964              		@ args = 0, pretend = 0, frame = 8
 1965              		@ frame_needed = 1, uses_anonymous_args = 0
 1966              		@ link register save eliminated.
 1967 0000 80B4     		push	{r7}
 1968              		.cfi_def_cfa_offset 4
 1969              		.cfi_offset 7, -4
 1970 0002 83B0     		sub	sp, sp, #12
 1971              		.cfi_def_cfa_offset 16
 1972 0004 00AF     		add	r7, sp, #0
 1973              		.cfi_def_cfa_register 7
 1974 0006 7860     		str	r0, [r7, #4]
 1975 0008 0B46     		mov	r3, r1
 1976 000a 7B80     		strh	r3, [r7, #2]	@ movhi
 1977 000c 1346     		mov	r3, r2	@ movhi
 1978 000e 3B80     		strh	r3, [r7]	@ movhi
 939:/home/virusv/TDSAST_IOT/Libraries/src/stm32f10x_tim.c ****   /* Check the parameters */
 940:/home/virusv/TDSAST_IOT/Libraries/src/stm32f10x_tim.c ****   assert_param(IS_TIM_LIST4_PERIPH(TIMx));
 941:/home/virusv/TDSAST_IOT/Libraries/src/stm32f10x_tim.c ****   assert_param(IS_TIM_DMA_BASE(TIM_DMABase));
 942:/home/virusv/TDSAST_IOT/Libraries/src/stm32f10x_tim.c ****   assert_param(IS_TIM_DMA_LENGTH(TIM_DMABurstLength));
 943:/home/virusv/TDSAST_IOT/Libraries/src/stm32f10x_tim.c ****   /* Set the DMA Base and the DMA Burst Length */
 944:/home/virusv/TDSAST_IOT/Libraries/src/stm32f10x_tim.c ****   TIMx->DCR = TIM_DMABase | TIM_DMABurstLength;
 1979              		.loc 1 944 0
 1980 0010 7A88     		ldrh	r2, [r7, #2]	@ movhi
 1981 0012 3B88     		ldrh	r3, [r7]	@ movhi
 1982 0014 1343     		orrs	r3, r3, r2
 1983 0016 9AB2     		uxth	r2, r3
 1984 0018 7B68     		ldr	r3, [r7, #4]
 1985 001a A3F84820 		strh	r2, [r3, #72]	@ movhi
 945:/home/virusv/TDSAST_IOT/Libraries/src/stm32f10x_tim.c **** }
 1986              		.loc 1 945 0
 1987 001e 0C37     		adds	r7, r7, #12
 1988              		.cfi_def_cfa_offset 4
 1989 0020 BD46     		mov	sp, r7
 1990              		.cfi_def_cfa_register 13
 1991              		@ sp needed
 1992 0022 5DF8047B 		ldr	r7, [sp], #4
 1993              		.cfi_restore 7
 1994              		.cfi_def_cfa_offset 0
 1995 0026 7047     		bx	lr
 1996              		.cfi_endproc
 1997              	.LFE46:
 1999              		.section	.text.TIM_DMACmd,"ax",%progbits
 2000              		.align	2
 2001              		.global	TIM_DMACmd
 2002              		.thumb
 2003              		.thumb_func
 2005              	TIM_DMACmd:
 2006              	.LFB47:
 946:/home/virusv/TDSAST_IOT/Libraries/src/stm32f10x_tim.c **** 
 947:/home/virusv/TDSAST_IOT/Libraries/src/stm32f10x_tim.c **** /**
 948:/home/virusv/TDSAST_IOT/Libraries/src/stm32f10x_tim.c ****   * @brief  Enables or disables the TIMx's DMA Requests.
 949:/home/virusv/TDSAST_IOT/Libraries/src/stm32f10x_tim.c ****   * @param  TIMx: where x can be  1, 2, 3, 4, 5, 6, 7, 8, 15, 16 or 17 
 950:/home/virusv/TDSAST_IOT/Libraries/src/stm32f10x_tim.c ****   *   to select the TIM peripheral. 
 951:/home/virusv/TDSAST_IOT/Libraries/src/stm32f10x_tim.c ****   * @param  TIM_DMASource: specifies the DMA Request sources.
 952:/home/virusv/TDSAST_IOT/Libraries/src/stm32f10x_tim.c ****   *   This parameter can be any combination of the following values:
 953:/home/virusv/TDSAST_IOT/Libraries/src/stm32f10x_tim.c ****   *     @arg TIM_DMA_Update: TIM update Interrupt source
 954:/home/virusv/TDSAST_IOT/Libraries/src/stm32f10x_tim.c ****   *     @arg TIM_DMA_CC1: TIM Capture Compare 1 DMA source
 955:/home/virusv/TDSAST_IOT/Libraries/src/stm32f10x_tim.c ****   *     @arg TIM_DMA_CC2: TIM Capture Compare 2 DMA source
 956:/home/virusv/TDSAST_IOT/Libraries/src/stm32f10x_tim.c ****   *     @arg TIM_DMA_CC3: TIM Capture Compare 3 DMA source
 957:/home/virusv/TDSAST_IOT/Libraries/src/stm32f10x_tim.c ****   *     @arg TIM_DMA_CC4: TIM Capture Compare 4 DMA source
 958:/home/virusv/TDSAST_IOT/Libraries/src/stm32f10x_tim.c ****   *     @arg TIM_DMA_COM: TIM Commutation DMA source
 959:/home/virusv/TDSAST_IOT/Libraries/src/stm32f10x_tim.c ****   *     @arg TIM_DMA_Trigger: TIM Trigger DMA source
 960:/home/virusv/TDSAST_IOT/Libraries/src/stm32f10x_tim.c ****   * @param  NewState: new state of the DMA Request sources.
 961:/home/virusv/TDSAST_IOT/Libraries/src/stm32f10x_tim.c ****   *   This parameter can be: ENABLE or DISABLE.
 962:/home/virusv/TDSAST_IOT/Libraries/src/stm32f10x_tim.c ****   * @retval None
 963:/home/virusv/TDSAST_IOT/Libraries/src/stm32f10x_tim.c ****   */
 964:/home/virusv/TDSAST_IOT/Libraries/src/stm32f10x_tim.c **** void TIM_DMACmd(TIM_TypeDef* TIMx, uint16_t TIM_DMASource, FunctionalState NewState)
 965:/home/virusv/TDSAST_IOT/Libraries/src/stm32f10x_tim.c **** { 
 2007              		.loc 1 965 0
 2008              		.cfi_startproc
 2009              		@ args = 0, pretend = 0, frame = 8
 2010              		@ frame_needed = 1, uses_anonymous_args = 0
 2011              		@ link register save eliminated.
 2012 0000 80B4     		push	{r7}
 2013              		.cfi_def_cfa_offset 4
 2014              		.cfi_offset 7, -4
 2015 0002 83B0     		sub	sp, sp, #12
 2016              		.cfi_def_cfa_offset 16
 2017 0004 00AF     		add	r7, sp, #0
 2018              		.cfi_def_cfa_register 7
 2019 0006 7860     		str	r0, [r7, #4]
 2020 0008 0B46     		mov	r3, r1
 2021 000a 7B80     		strh	r3, [r7, #2]	@ movhi
 2022 000c 1346     		mov	r3, r2
 2023 000e 7B70     		strb	r3, [r7, #1]
 966:/home/virusv/TDSAST_IOT/Libraries/src/stm32f10x_tim.c ****   /* Check the parameters */
 967:/home/virusv/TDSAST_IOT/Libraries/src/stm32f10x_tim.c ****   assert_param(IS_TIM_LIST9_PERIPH(TIMx));
 968:/home/virusv/TDSAST_IOT/Libraries/src/stm32f10x_tim.c ****   assert_param(IS_TIM_DMA_SOURCE(TIM_DMASource));
 969:/home/virusv/TDSAST_IOT/Libraries/src/stm32f10x_tim.c ****   assert_param(IS_FUNCTIONAL_STATE(NewState));
 970:/home/virusv/TDSAST_IOT/Libraries/src/stm32f10x_tim.c ****   
 971:/home/virusv/TDSAST_IOT/Libraries/src/stm32f10x_tim.c ****   if (NewState != DISABLE)
 2024              		.loc 1 971 0
 2025 0010 7B78     		ldrb	r3, [r7, #1]	@ zero_extendqisi2
 2026 0012 002B     		cmp	r3, #0
 2027 0014 08D0     		beq	.L78
 972:/home/virusv/TDSAST_IOT/Libraries/src/stm32f10x_tim.c ****   {
 973:/home/virusv/TDSAST_IOT/Libraries/src/stm32f10x_tim.c ****     /* Enable the DMA sources */
 974:/home/virusv/TDSAST_IOT/Libraries/src/stm32f10x_tim.c ****     TIMx->DIER |= TIM_DMASource; 
 2028              		.loc 1 974 0
 2029 0016 7B68     		ldr	r3, [r7, #4]
 2030 0018 9B89     		ldrh	r3, [r3, #12]	@ movhi
 2031 001a 9AB2     		uxth	r2, r3
 2032 001c 7B88     		ldrh	r3, [r7, #2]	@ movhi
 2033 001e 1343     		orrs	r3, r3, r2
 2034 0020 9AB2     		uxth	r2, r3
 2035 0022 7B68     		ldr	r3, [r7, #4]
 2036 0024 9A81     		strh	r2, [r3, #12]	@ movhi
 2037 0026 09E0     		b	.L77
 2038              	.L78:
 975:/home/virusv/TDSAST_IOT/Libraries/src/stm32f10x_tim.c ****   }
 976:/home/virusv/TDSAST_IOT/Libraries/src/stm32f10x_tim.c ****   else
 977:/home/virusv/TDSAST_IOT/Libraries/src/stm32f10x_tim.c ****   {
 978:/home/virusv/TDSAST_IOT/Libraries/src/stm32f10x_tim.c ****     /* Disable the DMA sources */
 979:/home/virusv/TDSAST_IOT/Libraries/src/stm32f10x_tim.c ****     TIMx->DIER &= (uint16_t)~TIM_DMASource;
 2039              		.loc 1 979 0
 2040 0028 7B68     		ldr	r3, [r7, #4]
 2041 002a 9B89     		ldrh	r3, [r3, #12]	@ movhi
 2042 002c 9AB2     		uxth	r2, r3
 2043 002e 7B88     		ldrh	r3, [r7, #2]	@ movhi
 2044 0030 DB43     		mvns	r3, r3
 2045 0032 9BB2     		uxth	r3, r3
 2046 0034 1340     		ands	r3, r3, r2
 2047 0036 9AB2     		uxth	r2, r3
 2048 0038 7B68     		ldr	r3, [r7, #4]
 2049 003a 9A81     		strh	r2, [r3, #12]	@ movhi
 2050              	.L77:
 980:/home/virusv/TDSAST_IOT/Libraries/src/stm32f10x_tim.c ****   }
 981:/home/virusv/TDSAST_IOT/Libraries/src/stm32f10x_tim.c **** }
 2051              		.loc 1 981 0
 2052 003c 0C37     		adds	r7, r7, #12
 2053              		.cfi_def_cfa_offset 4
 2054 003e BD46     		mov	sp, r7
 2055              		.cfi_def_cfa_register 13
 2056              		@ sp needed
 2057 0040 5DF8047B 		ldr	r7, [sp], #4
 2058              		.cfi_restore 7
 2059              		.cfi_def_cfa_offset 0
 2060 0044 7047     		bx	lr
 2061              		.cfi_endproc
 2062              	.LFE47:
 2064 0046 00BF     		.section	.text.TIM_InternalClockConfig,"ax",%progbits
 2065              		.align	2
 2066              		.global	TIM_InternalClockConfig
 2067              		.thumb
 2068              		.thumb_func
 2070              	TIM_InternalClockConfig:
 2071              	.LFB48:
 982:/home/virusv/TDSAST_IOT/Libraries/src/stm32f10x_tim.c **** 
 983:/home/virusv/TDSAST_IOT/Libraries/src/stm32f10x_tim.c **** /**
 984:/home/virusv/TDSAST_IOT/Libraries/src/stm32f10x_tim.c ****   * @brief  Configures the TIMx internal Clock
 985:/home/virusv/TDSAST_IOT/Libraries/src/stm32f10x_tim.c ****   * @param  TIMx: where x can be  1, 2, 3, 4, 5, 8, 9, 12 or 15
 986:/home/virusv/TDSAST_IOT/Libraries/src/stm32f10x_tim.c ****   *         to select the TIM peripheral.
 987:/home/virusv/TDSAST_IOT/Libraries/src/stm32f10x_tim.c ****   * @retval None
 988:/home/virusv/TDSAST_IOT/Libraries/src/stm32f10x_tim.c ****   */
 989:/home/virusv/TDSAST_IOT/Libraries/src/stm32f10x_tim.c **** void TIM_InternalClockConfig(TIM_TypeDef* TIMx)
 990:/home/virusv/TDSAST_IOT/Libraries/src/stm32f10x_tim.c **** {
 2072              		.loc 1 990 0
 2073              		.cfi_startproc
 2074              		@ args = 0, pretend = 0, frame = 8
 2075              		@ frame_needed = 1, uses_anonymous_args = 0
 2076              		@ link register save eliminated.
 2077 0000 80B4     		push	{r7}
 2078              		.cfi_def_cfa_offset 4
 2079              		.cfi_offset 7, -4
 2080 0002 83B0     		sub	sp, sp, #12
 2081              		.cfi_def_cfa_offset 16
 2082 0004 00AF     		add	r7, sp, #0
 2083              		.cfi_def_cfa_register 7
 2084 0006 7860     		str	r0, [r7, #4]
 991:/home/virusv/TDSAST_IOT/Libraries/src/stm32f10x_tim.c ****   /* Check the parameters */
 992:/home/virusv/TDSAST_IOT/Libraries/src/stm32f10x_tim.c ****   assert_param(IS_TIM_LIST6_PERIPH(TIMx));
 993:/home/virusv/TDSAST_IOT/Libraries/src/stm32f10x_tim.c ****   /* Disable slave mode to clock the prescaler directly with the internal clock */
 994:/home/virusv/TDSAST_IOT/Libraries/src/stm32f10x_tim.c ****   TIMx->SMCR &=  (uint16_t)(~((uint16_t)TIM_SMCR_SMS));
 2085              		.loc 1 994 0
 2086 0008 7B68     		ldr	r3, [r7, #4]
 2087 000a 1B89     		ldrh	r3, [r3, #8]	@ movhi
 2088 000c 9BB2     		uxth	r3, r3
 2089 000e 23F00703 		bic	r3, r3, #7
 2090 0012 9AB2     		uxth	r2, r3
 2091 0014 7B68     		ldr	r3, [r7, #4]
 2092 0016 1A81     		strh	r2, [r3, #8]	@ movhi
 995:/home/virusv/TDSAST_IOT/Libraries/src/stm32f10x_tim.c **** }
 2093              		.loc 1 995 0
 2094 0018 0C37     		adds	r7, r7, #12
 2095              		.cfi_def_cfa_offset 4
 2096 001a BD46     		mov	sp, r7
 2097              		.cfi_def_cfa_register 13
 2098              		@ sp needed
 2099 001c 5DF8047B 		ldr	r7, [sp], #4
 2100              		.cfi_restore 7
 2101              		.cfi_def_cfa_offset 0
 2102 0020 7047     		bx	lr
 2103              		.cfi_endproc
 2104              	.LFE48:
 2106 0022 00BF     		.section	.text.TIM_ITRxExternalClockConfig,"ax",%progbits
 2107              		.align	2
 2108              		.global	TIM_ITRxExternalClockConfig
 2109              		.thumb
 2110              		.thumb_func
 2112              	TIM_ITRxExternalClockConfig:
 2113              	.LFB49:
 996:/home/virusv/TDSAST_IOT/Libraries/src/stm32f10x_tim.c **** 
 997:/home/virusv/TDSAST_IOT/Libraries/src/stm32f10x_tim.c **** /**
 998:/home/virusv/TDSAST_IOT/Libraries/src/stm32f10x_tim.c ****   * @brief  Configures the TIMx Internal Trigger as External Clock
 999:/home/virusv/TDSAST_IOT/Libraries/src/stm32f10x_tim.c ****   * @param  TIMx: where x can be  1, 2, 3, 4, 5, 9, 12 or 15 to select the TIM peripheral.
1000:/home/virusv/TDSAST_IOT/Libraries/src/stm32f10x_tim.c ****   * @param  TIM_ITRSource: Trigger source.
1001:/home/virusv/TDSAST_IOT/Libraries/src/stm32f10x_tim.c ****   *   This parameter can be one of the following values:
1002:/home/virusv/TDSAST_IOT/Libraries/src/stm32f10x_tim.c ****   * @param  TIM_TS_ITR0: Internal Trigger 0
1003:/home/virusv/TDSAST_IOT/Libraries/src/stm32f10x_tim.c ****   * @param  TIM_TS_ITR1: Internal Trigger 1
1004:/home/virusv/TDSAST_IOT/Libraries/src/stm32f10x_tim.c ****   * @param  TIM_TS_ITR2: Internal Trigger 2
1005:/home/virusv/TDSAST_IOT/Libraries/src/stm32f10x_tim.c ****   * @param  TIM_TS_ITR3: Internal Trigger 3
1006:/home/virusv/TDSAST_IOT/Libraries/src/stm32f10x_tim.c ****   * @retval None
1007:/home/virusv/TDSAST_IOT/Libraries/src/stm32f10x_tim.c ****   */
1008:/home/virusv/TDSAST_IOT/Libraries/src/stm32f10x_tim.c **** void TIM_ITRxExternalClockConfig(TIM_TypeDef* TIMx, uint16_t TIM_InputTriggerSource)
1009:/home/virusv/TDSAST_IOT/Libraries/src/stm32f10x_tim.c **** {
 2114              		.loc 1 1009 0
 2115              		.cfi_startproc
 2116              		@ args = 0, pretend = 0, frame = 8
 2117              		@ frame_needed = 1, uses_anonymous_args = 0
 2118 0000 80B5     		push	{r7, lr}
 2119              		.cfi_def_cfa_offset 8
 2120              		.cfi_offset 7, -8
 2121              		.cfi_offset 14, -4
 2122 0002 82B0     		sub	sp, sp, #8
 2123              		.cfi_def_cfa_offset 16
 2124 0004 00AF     		add	r7, sp, #0
 2125              		.cfi_def_cfa_register 7
 2126 0006 7860     		str	r0, [r7, #4]
 2127 0008 0B46     		mov	r3, r1
 2128 000a 7B80     		strh	r3, [r7, #2]	@ movhi
1010:/home/virusv/TDSAST_IOT/Libraries/src/stm32f10x_tim.c ****   /* Check the parameters */
1011:/home/virusv/TDSAST_IOT/Libraries/src/stm32f10x_tim.c ****   assert_param(IS_TIM_LIST6_PERIPH(TIMx));
1012:/home/virusv/TDSAST_IOT/Libraries/src/stm32f10x_tim.c ****   assert_param(IS_TIM_INTERNAL_TRIGGER_SELECTION(TIM_InputTriggerSource));
1013:/home/virusv/TDSAST_IOT/Libraries/src/stm32f10x_tim.c ****   /* Select the Internal Trigger */
1014:/home/virusv/TDSAST_IOT/Libraries/src/stm32f10x_tim.c ****   TIM_SelectInputTrigger(TIMx, TIM_InputTriggerSource);
 2129              		.loc 1 1014 0
 2130 000c 7B88     		ldrh	r3, [r7, #2]
 2131 000e 7868     		ldr	r0, [r7, #4]
 2132 0010 1946     		mov	r1, r3
 2133 0012 FFF7FEFF 		bl	TIM_SelectInputTrigger
1015:/home/virusv/TDSAST_IOT/Libraries/src/stm32f10x_tim.c ****   /* Select the External clock mode1 */
1016:/home/virusv/TDSAST_IOT/Libraries/src/stm32f10x_tim.c ****   TIMx->SMCR |= TIM_SlaveMode_External1;
 2134              		.loc 1 1016 0
 2135 0016 7B68     		ldr	r3, [r7, #4]
 2136 0018 1B89     		ldrh	r3, [r3, #8]	@ movhi
 2137 001a 9BB2     		uxth	r3, r3
 2138 001c 43F00703 		orr	r3, r3, #7
 2139 0020 9AB2     		uxth	r2, r3
 2140 0022 7B68     		ldr	r3, [r7, #4]
 2141 0024 1A81     		strh	r2, [r3, #8]	@ movhi
1017:/home/virusv/TDSAST_IOT/Libraries/src/stm32f10x_tim.c **** }
 2142              		.loc 1 1017 0
 2143 0026 0837     		adds	r7, r7, #8
 2144              		.cfi_def_cfa_offset 8
 2145 0028 BD46     		mov	sp, r7
 2146              		.cfi_def_cfa_register 13
 2147              		@ sp needed
 2148 002a 80BD     		pop	{r7, pc}
 2149              		.cfi_endproc
 2150              	.LFE49:
 2152              		.section	.text.TIM_TIxExternalClockConfig,"ax",%progbits
 2153              		.align	2
 2154              		.global	TIM_TIxExternalClockConfig
 2155              		.thumb
 2156              		.thumb_func
 2158              	TIM_TIxExternalClockConfig:
 2159              	.LFB50:
1018:/home/virusv/TDSAST_IOT/Libraries/src/stm32f10x_tim.c **** 
1019:/home/virusv/TDSAST_IOT/Libraries/src/stm32f10x_tim.c **** /**
1020:/home/virusv/TDSAST_IOT/Libraries/src/stm32f10x_tim.c ****   * @brief  Configures the TIMx Trigger as External Clock
1021:/home/virusv/TDSAST_IOT/Libraries/src/stm32f10x_tim.c ****   * @param  TIMx: where x can be  1, 2, 3, 4, 5, 9, 12 or 15 to select the TIM peripheral.
1022:/home/virusv/TDSAST_IOT/Libraries/src/stm32f10x_tim.c ****   * @param  TIM_TIxExternalCLKSource: Trigger source.
1023:/home/virusv/TDSAST_IOT/Libraries/src/stm32f10x_tim.c ****   *   This parameter can be one of the following values:
1024:/home/virusv/TDSAST_IOT/Libraries/src/stm32f10x_tim.c ****   *     @arg TIM_TIxExternalCLK1Source_TI1ED: TI1 Edge Detector
1025:/home/virusv/TDSAST_IOT/Libraries/src/stm32f10x_tim.c ****   *     @arg TIM_TIxExternalCLK1Source_TI1: Filtered Timer Input 1
1026:/home/virusv/TDSAST_IOT/Libraries/src/stm32f10x_tim.c ****   *     @arg TIM_TIxExternalCLK1Source_TI2: Filtered Timer Input 2
1027:/home/virusv/TDSAST_IOT/Libraries/src/stm32f10x_tim.c ****   * @param  TIM_ICPolarity: specifies the TIx Polarity.
1028:/home/virusv/TDSAST_IOT/Libraries/src/stm32f10x_tim.c ****   *   This parameter can be one of the following values:
1029:/home/virusv/TDSAST_IOT/Libraries/src/stm32f10x_tim.c ****   *     @arg TIM_ICPolarity_Rising
1030:/home/virusv/TDSAST_IOT/Libraries/src/stm32f10x_tim.c ****   *     @arg TIM_ICPolarity_Falling
1031:/home/virusv/TDSAST_IOT/Libraries/src/stm32f10x_tim.c ****   * @param  ICFilter : specifies the filter value.
1032:/home/virusv/TDSAST_IOT/Libraries/src/stm32f10x_tim.c ****   *   This parameter must be a value between 0x0 and 0xF.
1033:/home/virusv/TDSAST_IOT/Libraries/src/stm32f10x_tim.c ****   * @retval None
1034:/home/virusv/TDSAST_IOT/Libraries/src/stm32f10x_tim.c ****   */
1035:/home/virusv/TDSAST_IOT/Libraries/src/stm32f10x_tim.c **** void TIM_TIxExternalClockConfig(TIM_TypeDef* TIMx, uint16_t TIM_TIxExternalCLKSource,
1036:/home/virusv/TDSAST_IOT/Libraries/src/stm32f10x_tim.c ****                                 uint16_t TIM_ICPolarity, uint16_t ICFilter)
1037:/home/virusv/TDSAST_IOT/Libraries/src/stm32f10x_tim.c **** {
 2160              		.loc 1 1037 0
 2161              		.cfi_startproc
 2162              		@ args = 0, pretend = 0, frame = 16
 2163              		@ frame_needed = 1, uses_anonymous_args = 0
 2164 0000 80B5     		push	{r7, lr}
 2165              		.cfi_def_cfa_offset 8
 2166              		.cfi_offset 7, -8
 2167              		.cfi_offset 14, -4
 2168 0002 84B0     		sub	sp, sp, #16
 2169              		.cfi_def_cfa_offset 24
 2170 0004 00AF     		add	r7, sp, #0
 2171              		.cfi_def_cfa_register 7
 2172 0006 F860     		str	r0, [r7, #12]
 2173 0008 0846     		mov	r0, r1
 2174 000a 1146     		mov	r1, r2
 2175 000c 1A46     		mov	r2, r3
 2176 000e 0346     		mov	r3, r0	@ movhi
 2177 0010 7B81     		strh	r3, [r7, #10]	@ movhi
 2178 0012 0B46     		mov	r3, r1	@ movhi
 2179 0014 3B81     		strh	r3, [r7, #8]	@ movhi
 2180 0016 1346     		mov	r3, r2	@ movhi
 2181 0018 FB80     		strh	r3, [r7, #6]	@ movhi
1038:/home/virusv/TDSAST_IOT/Libraries/src/stm32f10x_tim.c ****   /* Check the parameters */
1039:/home/virusv/TDSAST_IOT/Libraries/src/stm32f10x_tim.c ****   assert_param(IS_TIM_LIST6_PERIPH(TIMx));
1040:/home/virusv/TDSAST_IOT/Libraries/src/stm32f10x_tim.c ****   assert_param(IS_TIM_TIXCLK_SOURCE(TIM_TIxExternalCLKSource));
1041:/home/virusv/TDSAST_IOT/Libraries/src/stm32f10x_tim.c ****   assert_param(IS_TIM_IC_POLARITY(TIM_ICPolarity));
1042:/home/virusv/TDSAST_IOT/Libraries/src/stm32f10x_tim.c ****   assert_param(IS_TIM_IC_FILTER(ICFilter));
1043:/home/virusv/TDSAST_IOT/Libraries/src/stm32f10x_tim.c ****   /* Configure the Timer Input Clock Source */
1044:/home/virusv/TDSAST_IOT/Libraries/src/stm32f10x_tim.c ****   if (TIM_TIxExternalCLKSource == TIM_TIxExternalCLK1Source_TI2)
 2182              		.loc 1 1044 0
 2183 001a 7B89     		ldrh	r3, [r7, #10]
 2184 001c 602B     		cmp	r3, #96
 2185 001e 07D1     		bne	.L83
1045:/home/virusv/TDSAST_IOT/Libraries/src/stm32f10x_tim.c ****   {
1046:/home/virusv/TDSAST_IOT/Libraries/src/stm32f10x_tim.c ****     TI2_Config(TIMx, TIM_ICPolarity, TIM_ICSelection_DirectTI, ICFilter);
 2186              		.loc 1 1046 0
 2187 0020 3A89     		ldrh	r2, [r7, #8]
 2188 0022 FB88     		ldrh	r3, [r7, #6]
 2189 0024 F868     		ldr	r0, [r7, #12]
 2190 0026 1146     		mov	r1, r2
 2191 0028 0122     		movs	r2, #1
 2192 002a FFF7FEFF 		bl	TI2_Config
 2193 002e 06E0     		b	.L84
 2194              	.L83:
1047:/home/virusv/TDSAST_IOT/Libraries/src/stm32f10x_tim.c ****   }
1048:/home/virusv/TDSAST_IOT/Libraries/src/stm32f10x_tim.c ****   else
1049:/home/virusv/TDSAST_IOT/Libraries/src/stm32f10x_tim.c ****   {
1050:/home/virusv/TDSAST_IOT/Libraries/src/stm32f10x_tim.c ****     TI1_Config(TIMx, TIM_ICPolarity, TIM_ICSelection_DirectTI, ICFilter);
 2195              		.loc 1 1050 0
 2196 0030 3A89     		ldrh	r2, [r7, #8]
 2197 0032 FB88     		ldrh	r3, [r7, #6]
 2198 0034 F868     		ldr	r0, [r7, #12]
 2199 0036 1146     		mov	r1, r2
 2200 0038 0122     		movs	r2, #1
 2201 003a FFF7FEFF 		bl	TI1_Config
 2202              	.L84:
1051:/home/virusv/TDSAST_IOT/Libraries/src/stm32f10x_tim.c ****   }
1052:/home/virusv/TDSAST_IOT/Libraries/src/stm32f10x_tim.c ****   /* Select the Trigger source */
1053:/home/virusv/TDSAST_IOT/Libraries/src/stm32f10x_tim.c ****   TIM_SelectInputTrigger(TIMx, TIM_TIxExternalCLKSource);
 2203              		.loc 1 1053 0
 2204 003e 7B89     		ldrh	r3, [r7, #10]
 2205 0040 F868     		ldr	r0, [r7, #12]
 2206 0042 1946     		mov	r1, r3
 2207 0044 FFF7FEFF 		bl	TIM_SelectInputTrigger
1054:/home/virusv/TDSAST_IOT/Libraries/src/stm32f10x_tim.c ****   /* Select the External clock mode1 */
1055:/home/virusv/TDSAST_IOT/Libraries/src/stm32f10x_tim.c ****   TIMx->SMCR |= TIM_SlaveMode_External1;
 2208              		.loc 1 1055 0
 2209 0048 FB68     		ldr	r3, [r7, #12]
 2210 004a 1B89     		ldrh	r3, [r3, #8]	@ movhi
 2211 004c 9BB2     		uxth	r3, r3
 2212 004e 43F00703 		orr	r3, r3, #7
 2213 0052 9AB2     		uxth	r2, r3
 2214 0054 FB68     		ldr	r3, [r7, #12]
 2215 0056 1A81     		strh	r2, [r3, #8]	@ movhi
1056:/home/virusv/TDSAST_IOT/Libraries/src/stm32f10x_tim.c **** }
 2216              		.loc 1 1056 0
 2217 0058 1037     		adds	r7, r7, #16
 2218              		.cfi_def_cfa_offset 8
 2219 005a BD46     		mov	sp, r7
 2220              		.cfi_def_cfa_register 13
 2221              		@ sp needed
 2222 005c 80BD     		pop	{r7, pc}
 2223              		.cfi_endproc
 2224              	.LFE50:
 2226 005e 00BF     		.section	.text.TIM_ETRClockMode1Config,"ax",%progbits
 2227              		.align	2
 2228              		.global	TIM_ETRClockMode1Config
 2229              		.thumb
 2230              		.thumb_func
 2232              	TIM_ETRClockMode1Config:
 2233              	.LFB51:
1057:/home/virusv/TDSAST_IOT/Libraries/src/stm32f10x_tim.c **** 
1058:/home/virusv/TDSAST_IOT/Libraries/src/stm32f10x_tim.c **** /**
1059:/home/virusv/TDSAST_IOT/Libraries/src/stm32f10x_tim.c ****   * @brief  Configures the External clock Mode1
1060:/home/virusv/TDSAST_IOT/Libraries/src/stm32f10x_tim.c ****   * @param  TIMx: where x can be  1, 2, 3, 4, 5 or 8 to select the TIM peripheral.
1061:/home/virusv/TDSAST_IOT/Libraries/src/stm32f10x_tim.c ****   * @param  TIM_ExtTRGPrescaler: The external Trigger Prescaler.
1062:/home/virusv/TDSAST_IOT/Libraries/src/stm32f10x_tim.c ****   *   This parameter can be one of the following values:
1063:/home/virusv/TDSAST_IOT/Libraries/src/stm32f10x_tim.c ****   *     @arg TIM_ExtTRGPSC_OFF: ETRP Prescaler OFF.
1064:/home/virusv/TDSAST_IOT/Libraries/src/stm32f10x_tim.c ****   *     @arg TIM_ExtTRGPSC_DIV2: ETRP frequency divided by 2.
1065:/home/virusv/TDSAST_IOT/Libraries/src/stm32f10x_tim.c ****   *     @arg TIM_ExtTRGPSC_DIV4: ETRP frequency divided by 4.
1066:/home/virusv/TDSAST_IOT/Libraries/src/stm32f10x_tim.c ****   *     @arg TIM_ExtTRGPSC_DIV8: ETRP frequency divided by 8.
1067:/home/virusv/TDSAST_IOT/Libraries/src/stm32f10x_tim.c ****   * @param  TIM_ExtTRGPolarity: The external Trigger Polarity.
1068:/home/virusv/TDSAST_IOT/Libraries/src/stm32f10x_tim.c ****   *   This parameter can be one of the following values:
1069:/home/virusv/TDSAST_IOT/Libraries/src/stm32f10x_tim.c ****   *     @arg TIM_ExtTRGPolarity_Inverted: active low or falling edge active.
1070:/home/virusv/TDSAST_IOT/Libraries/src/stm32f10x_tim.c ****   *     @arg TIM_ExtTRGPolarity_NonInverted: active high or rising edge active.
1071:/home/virusv/TDSAST_IOT/Libraries/src/stm32f10x_tim.c ****   * @param  ExtTRGFilter: External Trigger Filter.
1072:/home/virusv/TDSAST_IOT/Libraries/src/stm32f10x_tim.c ****   *   This parameter must be a value between 0x00 and 0x0F
1073:/home/virusv/TDSAST_IOT/Libraries/src/stm32f10x_tim.c ****   * @retval None
1074:/home/virusv/TDSAST_IOT/Libraries/src/stm32f10x_tim.c ****   */
1075:/home/virusv/TDSAST_IOT/Libraries/src/stm32f10x_tim.c **** void TIM_ETRClockMode1Config(TIM_TypeDef* TIMx, uint16_t TIM_ExtTRGPrescaler, uint16_t TIM_ExtTRGPo
1076:/home/virusv/TDSAST_IOT/Libraries/src/stm32f10x_tim.c ****                              uint16_t ExtTRGFilter)
1077:/home/virusv/TDSAST_IOT/Libraries/src/stm32f10x_tim.c **** {
 2234              		.loc 1 1077 0
 2235              		.cfi_startproc
 2236              		@ args = 0, pretend = 0, frame = 24
 2237              		@ frame_needed = 1, uses_anonymous_args = 0
 2238 0000 80B5     		push	{r7, lr}
 2239              		.cfi_def_cfa_offset 8
 2240              		.cfi_offset 7, -8
 2241              		.cfi_offset 14, -4
 2242 0002 86B0     		sub	sp, sp, #24
 2243              		.cfi_def_cfa_offset 32
 2244 0004 00AF     		add	r7, sp, #0
 2245              		.cfi_def_cfa_register 7
 2246 0006 F860     		str	r0, [r7, #12]
 2247 0008 0846     		mov	r0, r1
 2248 000a 1146     		mov	r1, r2
 2249 000c 1A46     		mov	r2, r3
 2250 000e 0346     		mov	r3, r0	@ movhi
 2251 0010 7B81     		strh	r3, [r7, #10]	@ movhi
 2252 0012 0B46     		mov	r3, r1	@ movhi
 2253 0014 3B81     		strh	r3, [r7, #8]	@ movhi
 2254 0016 1346     		mov	r3, r2	@ movhi
 2255 0018 FB80     		strh	r3, [r7, #6]	@ movhi
1078:/home/virusv/TDSAST_IOT/Libraries/src/stm32f10x_tim.c ****   uint16_t tmpsmcr = 0;
 2256              		.loc 1 1078 0
 2257 001a 0023     		movs	r3, #0
 2258 001c FB82     		strh	r3, [r7, #22]	@ movhi
1079:/home/virusv/TDSAST_IOT/Libraries/src/stm32f10x_tim.c ****   /* Check the parameters */
1080:/home/virusv/TDSAST_IOT/Libraries/src/stm32f10x_tim.c ****   assert_param(IS_TIM_LIST3_PERIPH(TIMx));
1081:/home/virusv/TDSAST_IOT/Libraries/src/stm32f10x_tim.c ****   assert_param(IS_TIM_EXT_PRESCALER(TIM_ExtTRGPrescaler));
1082:/home/virusv/TDSAST_IOT/Libraries/src/stm32f10x_tim.c ****   assert_param(IS_TIM_EXT_POLARITY(TIM_ExtTRGPolarity));
1083:/home/virusv/TDSAST_IOT/Libraries/src/stm32f10x_tim.c ****   assert_param(IS_TIM_EXT_FILTER(ExtTRGFilter));
1084:/home/virusv/TDSAST_IOT/Libraries/src/stm32f10x_tim.c ****   /* Configure the ETR Clock source */
1085:/home/virusv/TDSAST_IOT/Libraries/src/stm32f10x_tim.c ****   TIM_ETRConfig(TIMx, TIM_ExtTRGPrescaler, TIM_ExtTRGPolarity, ExtTRGFilter);
 2259              		.loc 1 1085 0
 2260 001e 7989     		ldrh	r1, [r7, #10]
 2261 0020 3A89     		ldrh	r2, [r7, #8]
 2262 0022 FB88     		ldrh	r3, [r7, #6]
 2263 0024 F868     		ldr	r0, [r7, #12]
 2264 0026 FFF7FEFF 		bl	TIM_ETRConfig
1086:/home/virusv/TDSAST_IOT/Libraries/src/stm32f10x_tim.c ****   
1087:/home/virusv/TDSAST_IOT/Libraries/src/stm32f10x_tim.c ****   /* Get the TIMx SMCR register value */
1088:/home/virusv/TDSAST_IOT/Libraries/src/stm32f10x_tim.c ****   tmpsmcr = TIMx->SMCR;
 2265              		.loc 1 1088 0
 2266 002a FB68     		ldr	r3, [r7, #12]
 2267 002c 1B89     		ldrh	r3, [r3, #8]	@ movhi
 2268 002e FB82     		strh	r3, [r7, #22]	@ movhi
1089:/home/virusv/TDSAST_IOT/Libraries/src/stm32f10x_tim.c ****   /* Reset the SMS Bits */
1090:/home/virusv/TDSAST_IOT/Libraries/src/stm32f10x_tim.c ****   tmpsmcr &= (uint16_t)(~((uint16_t)TIM_SMCR_SMS));
 2269              		.loc 1 1090 0
 2270 0030 FB8A     		ldrh	r3, [r7, #22]	@ movhi
 2271 0032 23F00703 		bic	r3, r3, #7
 2272 0036 FB82     		strh	r3, [r7, #22]	@ movhi
1091:/home/virusv/TDSAST_IOT/Libraries/src/stm32f10x_tim.c ****   /* Select the External clock mode1 */
1092:/home/virusv/TDSAST_IOT/Libraries/src/stm32f10x_tim.c ****   tmpsmcr |= TIM_SlaveMode_External1;
 2273              		.loc 1 1092 0
 2274 0038 FB8A     		ldrh	r3, [r7, #22]	@ movhi
 2275 003a 43F00703 		orr	r3, r3, #7
 2276 003e FB82     		strh	r3, [r7, #22]	@ movhi
1093:/home/virusv/TDSAST_IOT/Libraries/src/stm32f10x_tim.c ****   /* Select the Trigger selection : ETRF */
1094:/home/virusv/TDSAST_IOT/Libraries/src/stm32f10x_tim.c ****   tmpsmcr &= (uint16_t)(~((uint16_t)TIM_SMCR_TS));
 2277              		.loc 1 1094 0
 2278 0040 FB8A     		ldrh	r3, [r7, #22]	@ movhi
 2279 0042 23F07003 		bic	r3, r3, #112
 2280 0046 FB82     		strh	r3, [r7, #22]	@ movhi
1095:/home/virusv/TDSAST_IOT/Libraries/src/stm32f10x_tim.c ****   tmpsmcr |= TIM_TS_ETRF;
 2281              		.loc 1 1095 0
 2282 0048 FB8A     		ldrh	r3, [r7, #22]	@ movhi
 2283 004a 43F07003 		orr	r3, r3, #112
 2284 004e FB82     		strh	r3, [r7, #22]	@ movhi
1096:/home/virusv/TDSAST_IOT/Libraries/src/stm32f10x_tim.c ****   /* Write to TIMx SMCR */
1097:/home/virusv/TDSAST_IOT/Libraries/src/stm32f10x_tim.c ****   TIMx->SMCR = tmpsmcr;
 2285              		.loc 1 1097 0
 2286 0050 FB68     		ldr	r3, [r7, #12]
 2287 0052 FA8A     		ldrh	r2, [r7, #22]	@ movhi
 2288 0054 1A81     		strh	r2, [r3, #8]	@ movhi
1098:/home/virusv/TDSAST_IOT/Libraries/src/stm32f10x_tim.c **** }
 2289              		.loc 1 1098 0
 2290 0056 1837     		adds	r7, r7, #24
 2291              		.cfi_def_cfa_offset 8
 2292 0058 BD46     		mov	sp, r7
 2293              		.cfi_def_cfa_register 13
 2294              		@ sp needed
 2295 005a 80BD     		pop	{r7, pc}
 2296              		.cfi_endproc
 2297              	.LFE51:
 2299              		.section	.text.TIM_ETRClockMode2Config,"ax",%progbits
 2300              		.align	2
 2301              		.global	TIM_ETRClockMode2Config
 2302              		.thumb
 2303              		.thumb_func
 2305              	TIM_ETRClockMode2Config:
 2306              	.LFB52:
1099:/home/virusv/TDSAST_IOT/Libraries/src/stm32f10x_tim.c **** 
1100:/home/virusv/TDSAST_IOT/Libraries/src/stm32f10x_tim.c **** /**
1101:/home/virusv/TDSAST_IOT/Libraries/src/stm32f10x_tim.c ****   * @brief  Configures the External clock Mode2
1102:/home/virusv/TDSAST_IOT/Libraries/src/stm32f10x_tim.c ****   * @param  TIMx: where x can be  1, 2, 3, 4, 5 or 8 to select the TIM peripheral.
1103:/home/virusv/TDSAST_IOT/Libraries/src/stm32f10x_tim.c ****   * @param  TIM_ExtTRGPrescaler: The external Trigger Prescaler.
1104:/home/virusv/TDSAST_IOT/Libraries/src/stm32f10x_tim.c ****   *   This parameter can be one of the following values:
1105:/home/virusv/TDSAST_IOT/Libraries/src/stm32f10x_tim.c ****   *     @arg TIM_ExtTRGPSC_OFF: ETRP Prescaler OFF.
1106:/home/virusv/TDSAST_IOT/Libraries/src/stm32f10x_tim.c ****   *     @arg TIM_ExtTRGPSC_DIV2: ETRP frequency divided by 2.
1107:/home/virusv/TDSAST_IOT/Libraries/src/stm32f10x_tim.c ****   *     @arg TIM_ExtTRGPSC_DIV4: ETRP frequency divided by 4.
1108:/home/virusv/TDSAST_IOT/Libraries/src/stm32f10x_tim.c ****   *     @arg TIM_ExtTRGPSC_DIV8: ETRP frequency divided by 8.
1109:/home/virusv/TDSAST_IOT/Libraries/src/stm32f10x_tim.c ****   * @param  TIM_ExtTRGPolarity: The external Trigger Polarity.
1110:/home/virusv/TDSAST_IOT/Libraries/src/stm32f10x_tim.c ****   *   This parameter can be one of the following values:
1111:/home/virusv/TDSAST_IOT/Libraries/src/stm32f10x_tim.c ****   *     @arg TIM_ExtTRGPolarity_Inverted: active low or falling edge active.
1112:/home/virusv/TDSAST_IOT/Libraries/src/stm32f10x_tim.c ****   *     @arg TIM_ExtTRGPolarity_NonInverted: active high or rising edge active.
1113:/home/virusv/TDSAST_IOT/Libraries/src/stm32f10x_tim.c ****   * @param  ExtTRGFilter: External Trigger Filter.
1114:/home/virusv/TDSAST_IOT/Libraries/src/stm32f10x_tim.c ****   *   This parameter must be a value between 0x00 and 0x0F
1115:/home/virusv/TDSAST_IOT/Libraries/src/stm32f10x_tim.c ****   * @retval None
1116:/home/virusv/TDSAST_IOT/Libraries/src/stm32f10x_tim.c ****   */
1117:/home/virusv/TDSAST_IOT/Libraries/src/stm32f10x_tim.c **** void TIM_ETRClockMode2Config(TIM_TypeDef* TIMx, uint16_t TIM_ExtTRGPrescaler, 
1118:/home/virusv/TDSAST_IOT/Libraries/src/stm32f10x_tim.c ****                              uint16_t TIM_ExtTRGPolarity, uint16_t ExtTRGFilter)
1119:/home/virusv/TDSAST_IOT/Libraries/src/stm32f10x_tim.c **** {
 2307              		.loc 1 1119 0
 2308              		.cfi_startproc
 2309              		@ args = 0, pretend = 0, frame = 16
 2310              		@ frame_needed = 1, uses_anonymous_args = 0
 2311 0000 80B5     		push	{r7, lr}
 2312              		.cfi_def_cfa_offset 8
 2313              		.cfi_offset 7, -8
 2314              		.cfi_offset 14, -4
 2315 0002 84B0     		sub	sp, sp, #16
 2316              		.cfi_def_cfa_offset 24
 2317 0004 00AF     		add	r7, sp, #0
 2318              		.cfi_def_cfa_register 7
 2319 0006 F860     		str	r0, [r7, #12]
 2320 0008 0846     		mov	r0, r1
 2321 000a 1146     		mov	r1, r2
 2322 000c 1A46     		mov	r2, r3
 2323 000e 0346     		mov	r3, r0	@ movhi
 2324 0010 7B81     		strh	r3, [r7, #10]	@ movhi
 2325 0012 0B46     		mov	r3, r1	@ movhi
 2326 0014 3B81     		strh	r3, [r7, #8]	@ movhi
 2327 0016 1346     		mov	r3, r2	@ movhi
 2328 0018 FB80     		strh	r3, [r7, #6]	@ movhi
1120:/home/virusv/TDSAST_IOT/Libraries/src/stm32f10x_tim.c ****   /* Check the parameters */
1121:/home/virusv/TDSAST_IOT/Libraries/src/stm32f10x_tim.c ****   assert_param(IS_TIM_LIST3_PERIPH(TIMx));
1122:/home/virusv/TDSAST_IOT/Libraries/src/stm32f10x_tim.c ****   assert_param(IS_TIM_EXT_PRESCALER(TIM_ExtTRGPrescaler));
1123:/home/virusv/TDSAST_IOT/Libraries/src/stm32f10x_tim.c ****   assert_param(IS_TIM_EXT_POLARITY(TIM_ExtTRGPolarity));
1124:/home/virusv/TDSAST_IOT/Libraries/src/stm32f10x_tim.c ****   assert_param(IS_TIM_EXT_FILTER(ExtTRGFilter));
1125:/home/virusv/TDSAST_IOT/Libraries/src/stm32f10x_tim.c ****   /* Configure the ETR Clock source */
1126:/home/virusv/TDSAST_IOT/Libraries/src/stm32f10x_tim.c ****   TIM_ETRConfig(TIMx, TIM_ExtTRGPrescaler, TIM_ExtTRGPolarity, ExtTRGFilter);
 2329              		.loc 1 1126 0
 2330 001a 7989     		ldrh	r1, [r7, #10]
 2331 001c 3A89     		ldrh	r2, [r7, #8]
 2332 001e FB88     		ldrh	r3, [r7, #6]
 2333 0020 F868     		ldr	r0, [r7, #12]
 2334 0022 FFF7FEFF 		bl	TIM_ETRConfig
1127:/home/virusv/TDSAST_IOT/Libraries/src/stm32f10x_tim.c ****   /* Enable the External clock mode2 */
1128:/home/virusv/TDSAST_IOT/Libraries/src/stm32f10x_tim.c ****   TIMx->SMCR |= TIM_SMCR_ECE;
 2335              		.loc 1 1128 0
 2336 0026 FB68     		ldr	r3, [r7, #12]
 2337 0028 1B89     		ldrh	r3, [r3, #8]	@ movhi
 2338 002a 9BB2     		uxth	r3, r3
 2339 002c 43F48043 		orr	r3, r3, #16384
 2340 0030 9AB2     		uxth	r2, r3
 2341 0032 FB68     		ldr	r3, [r7, #12]
 2342 0034 1A81     		strh	r2, [r3, #8]	@ movhi
1129:/home/virusv/TDSAST_IOT/Libraries/src/stm32f10x_tim.c **** }
 2343              		.loc 1 1129 0
 2344 0036 1037     		adds	r7, r7, #16
 2345              		.cfi_def_cfa_offset 8
 2346 0038 BD46     		mov	sp, r7
 2347              		.cfi_def_cfa_register 13
 2348              		@ sp needed
 2349 003a 80BD     		pop	{r7, pc}
 2350              		.cfi_endproc
 2351              	.LFE52:
 2353              		.section	.text.TIM_ETRConfig,"ax",%progbits
 2354              		.align	2
 2355              		.global	TIM_ETRConfig
 2356              		.thumb
 2357              		.thumb_func
 2359              	TIM_ETRConfig:
 2360              	.LFB53:
1130:/home/virusv/TDSAST_IOT/Libraries/src/stm32f10x_tim.c **** 
1131:/home/virusv/TDSAST_IOT/Libraries/src/stm32f10x_tim.c **** /**
1132:/home/virusv/TDSAST_IOT/Libraries/src/stm32f10x_tim.c ****   * @brief  Configures the TIMx External Trigger (ETR).
1133:/home/virusv/TDSAST_IOT/Libraries/src/stm32f10x_tim.c ****   * @param  TIMx: where x can be  1, 2, 3, 4, 5 or 8 to select the TIM peripheral.
1134:/home/virusv/TDSAST_IOT/Libraries/src/stm32f10x_tim.c ****   * @param  TIM_ExtTRGPrescaler: The external Trigger Prescaler.
1135:/home/virusv/TDSAST_IOT/Libraries/src/stm32f10x_tim.c ****   *   This parameter can be one of the following values:
1136:/home/virusv/TDSAST_IOT/Libraries/src/stm32f10x_tim.c ****   *     @arg TIM_ExtTRGPSC_OFF: ETRP Prescaler OFF.
1137:/home/virusv/TDSAST_IOT/Libraries/src/stm32f10x_tim.c ****   *     @arg TIM_ExtTRGPSC_DIV2: ETRP frequency divided by 2.
1138:/home/virusv/TDSAST_IOT/Libraries/src/stm32f10x_tim.c ****   *     @arg TIM_ExtTRGPSC_DIV4: ETRP frequency divided by 4.
1139:/home/virusv/TDSAST_IOT/Libraries/src/stm32f10x_tim.c ****   *     @arg TIM_ExtTRGPSC_DIV8: ETRP frequency divided by 8.
1140:/home/virusv/TDSAST_IOT/Libraries/src/stm32f10x_tim.c ****   * @param  TIM_ExtTRGPolarity: The external Trigger Polarity.
1141:/home/virusv/TDSAST_IOT/Libraries/src/stm32f10x_tim.c ****   *   This parameter can be one of the following values:
1142:/home/virusv/TDSAST_IOT/Libraries/src/stm32f10x_tim.c ****   *     @arg TIM_ExtTRGPolarity_Inverted: active low or falling edge active.
1143:/home/virusv/TDSAST_IOT/Libraries/src/stm32f10x_tim.c ****   *     @arg TIM_ExtTRGPolarity_NonInverted: active high or rising edge active.
1144:/home/virusv/TDSAST_IOT/Libraries/src/stm32f10x_tim.c ****   * @param  ExtTRGFilter: External Trigger Filter.
1145:/home/virusv/TDSAST_IOT/Libraries/src/stm32f10x_tim.c ****   *   This parameter must be a value between 0x00 and 0x0F
1146:/home/virusv/TDSAST_IOT/Libraries/src/stm32f10x_tim.c ****   * @retval None
1147:/home/virusv/TDSAST_IOT/Libraries/src/stm32f10x_tim.c ****   */
1148:/home/virusv/TDSAST_IOT/Libraries/src/stm32f10x_tim.c **** void TIM_ETRConfig(TIM_TypeDef* TIMx, uint16_t TIM_ExtTRGPrescaler, uint16_t TIM_ExtTRGPolarity,
1149:/home/virusv/TDSAST_IOT/Libraries/src/stm32f10x_tim.c ****                    uint16_t ExtTRGFilter)
1150:/home/virusv/TDSAST_IOT/Libraries/src/stm32f10x_tim.c **** {
 2361              		.loc 1 1150 0
 2362              		.cfi_startproc
 2363              		@ args = 0, pretend = 0, frame = 24
 2364              		@ frame_needed = 1, uses_anonymous_args = 0
 2365              		@ link register save eliminated.
 2366 0000 80B4     		push	{r7}
 2367              		.cfi_def_cfa_offset 4
 2368              		.cfi_offset 7, -4
 2369 0002 87B0     		sub	sp, sp, #28
 2370              		.cfi_def_cfa_offset 32
 2371 0004 00AF     		add	r7, sp, #0
 2372              		.cfi_def_cfa_register 7
 2373 0006 F860     		str	r0, [r7, #12]
 2374 0008 0846     		mov	r0, r1
 2375 000a 1146     		mov	r1, r2
 2376 000c 1A46     		mov	r2, r3
 2377 000e 0346     		mov	r3, r0	@ movhi
 2378 0010 7B81     		strh	r3, [r7, #10]	@ movhi
 2379 0012 0B46     		mov	r3, r1	@ movhi
 2380 0014 3B81     		strh	r3, [r7, #8]	@ movhi
 2381 0016 1346     		mov	r3, r2	@ movhi
 2382 0018 FB80     		strh	r3, [r7, #6]	@ movhi
1151:/home/virusv/TDSAST_IOT/Libraries/src/stm32f10x_tim.c ****   uint16_t tmpsmcr = 0;
 2383              		.loc 1 1151 0
 2384 001a 0023     		movs	r3, #0
 2385 001c FB82     		strh	r3, [r7, #22]	@ movhi
1152:/home/virusv/TDSAST_IOT/Libraries/src/stm32f10x_tim.c ****   /* Check the parameters */
1153:/home/virusv/TDSAST_IOT/Libraries/src/stm32f10x_tim.c ****   assert_param(IS_TIM_LIST3_PERIPH(TIMx));
1154:/home/virusv/TDSAST_IOT/Libraries/src/stm32f10x_tim.c ****   assert_param(IS_TIM_EXT_PRESCALER(TIM_ExtTRGPrescaler));
1155:/home/virusv/TDSAST_IOT/Libraries/src/stm32f10x_tim.c ****   assert_param(IS_TIM_EXT_POLARITY(TIM_ExtTRGPolarity));
1156:/home/virusv/TDSAST_IOT/Libraries/src/stm32f10x_tim.c ****   assert_param(IS_TIM_EXT_FILTER(ExtTRGFilter));
1157:/home/virusv/TDSAST_IOT/Libraries/src/stm32f10x_tim.c ****   tmpsmcr = TIMx->SMCR;
 2386              		.loc 1 1157 0
 2387 001e FB68     		ldr	r3, [r7, #12]
 2388 0020 1B89     		ldrh	r3, [r3, #8]	@ movhi
 2389 0022 FB82     		strh	r3, [r7, #22]	@ movhi
1158:/home/virusv/TDSAST_IOT/Libraries/src/stm32f10x_tim.c ****   /* Reset the ETR Bits */
1159:/home/virusv/TDSAST_IOT/Libraries/src/stm32f10x_tim.c ****   tmpsmcr &= SMCR_ETR_Mask;
 2390              		.loc 1 1159 0
 2391 0024 FB8A     		ldrh	r3, [r7, #22]	@ movhi
 2392 0026 DBB2     		uxtb	r3, r3
 2393 0028 FB82     		strh	r3, [r7, #22]	@ movhi
1160:/home/virusv/TDSAST_IOT/Libraries/src/stm32f10x_tim.c ****   /* Set the Prescaler, the Filter value and the Polarity */
1161:/home/virusv/TDSAST_IOT/Libraries/src/stm32f10x_tim.c ****   tmpsmcr |= (uint16_t)(TIM_ExtTRGPrescaler | (uint16_t)(TIM_ExtTRGPolarity | (uint16_t)(ExtTRGFilt
 2394              		.loc 1 1161 0
 2395 002a FB88     		ldrh	r3, [r7, #6]	@ movhi
 2396 002c 1B02     		lsls	r3, r3, #8
 2397 002e 9AB2     		uxth	r2, r3
 2398 0030 3B89     		ldrh	r3, [r7, #8]	@ movhi
 2399 0032 1343     		orrs	r3, r3, r2
 2400 0034 9AB2     		uxth	r2, r3
 2401 0036 7B89     		ldrh	r3, [r7, #10]	@ movhi
 2402 0038 1343     		orrs	r3, r3, r2
 2403 003a 9AB2     		uxth	r2, r3
 2404 003c FB8A     		ldrh	r3, [r7, #22]	@ movhi
 2405 003e 1343     		orrs	r3, r3, r2
 2406 0040 FB82     		strh	r3, [r7, #22]	@ movhi
1162:/home/virusv/TDSAST_IOT/Libraries/src/stm32f10x_tim.c ****   /* Write to TIMx SMCR */
1163:/home/virusv/TDSAST_IOT/Libraries/src/stm32f10x_tim.c ****   TIMx->SMCR = tmpsmcr;
 2407              		.loc 1 1163 0
 2408 0042 FB68     		ldr	r3, [r7, #12]
 2409 0044 FA8A     		ldrh	r2, [r7, #22]	@ movhi
 2410 0046 1A81     		strh	r2, [r3, #8]	@ movhi
1164:/home/virusv/TDSAST_IOT/Libraries/src/stm32f10x_tim.c **** }
 2411              		.loc 1 1164 0
 2412 0048 1C37     		adds	r7, r7, #28
 2413              		.cfi_def_cfa_offset 4
 2414 004a BD46     		mov	sp, r7
 2415              		.cfi_def_cfa_register 13
 2416              		@ sp needed
 2417 004c 5DF8047B 		ldr	r7, [sp], #4
 2418              		.cfi_restore 7
 2419              		.cfi_def_cfa_offset 0
 2420 0050 7047     		bx	lr
 2421              		.cfi_endproc
 2422              	.LFE53:
 2424 0052 00BF     		.section	.text.TIM_PrescalerConfig,"ax",%progbits
 2425              		.align	2
 2426              		.global	TIM_PrescalerConfig
 2427              		.thumb
 2428              		.thumb_func
 2430              	TIM_PrescalerConfig:
 2431              	.LFB54:
1165:/home/virusv/TDSAST_IOT/Libraries/src/stm32f10x_tim.c **** 
1166:/home/virusv/TDSAST_IOT/Libraries/src/stm32f10x_tim.c **** /**
1167:/home/virusv/TDSAST_IOT/Libraries/src/stm32f10x_tim.c ****   * @brief  Configures the TIMx Prescaler.
1168:/home/virusv/TDSAST_IOT/Libraries/src/stm32f10x_tim.c ****   * @param  TIMx: where x can be 1 to 17 to select the TIM peripheral.
1169:/home/virusv/TDSAST_IOT/Libraries/src/stm32f10x_tim.c ****   * @param  Prescaler: specifies the Prescaler Register value
1170:/home/virusv/TDSAST_IOT/Libraries/src/stm32f10x_tim.c ****   * @param  TIM_PSCReloadMode: specifies the TIM Prescaler Reload mode
1171:/home/virusv/TDSAST_IOT/Libraries/src/stm32f10x_tim.c ****   *   This parameter can be one of the following values:
1172:/home/virusv/TDSAST_IOT/Libraries/src/stm32f10x_tim.c ****   *     @arg TIM_PSCReloadMode_Update: The Prescaler is loaded at the update event.
1173:/home/virusv/TDSAST_IOT/Libraries/src/stm32f10x_tim.c ****   *     @arg TIM_PSCReloadMode_Immediate: The Prescaler is loaded immediately.
1174:/home/virusv/TDSAST_IOT/Libraries/src/stm32f10x_tim.c ****   * @retval None
1175:/home/virusv/TDSAST_IOT/Libraries/src/stm32f10x_tim.c ****   */
1176:/home/virusv/TDSAST_IOT/Libraries/src/stm32f10x_tim.c **** void TIM_PrescalerConfig(TIM_TypeDef* TIMx, uint16_t Prescaler, uint16_t TIM_PSCReloadMode)
1177:/home/virusv/TDSAST_IOT/Libraries/src/stm32f10x_tim.c **** {
 2432              		.loc 1 1177 0
 2433              		.cfi_startproc
 2434              		@ args = 0, pretend = 0, frame = 8
 2435              		@ frame_needed = 1, uses_anonymous_args = 0
 2436              		@ link register save eliminated.
 2437 0000 80B4     		push	{r7}
 2438              		.cfi_def_cfa_offset 4
 2439              		.cfi_offset 7, -4
 2440 0002 83B0     		sub	sp, sp, #12
 2441              		.cfi_def_cfa_offset 16
 2442 0004 00AF     		add	r7, sp, #0
 2443              		.cfi_def_cfa_register 7
 2444 0006 7860     		str	r0, [r7, #4]
 2445 0008 0B46     		mov	r3, r1
 2446 000a 7B80     		strh	r3, [r7, #2]	@ movhi
 2447 000c 1346     		mov	r3, r2	@ movhi
 2448 000e 3B80     		strh	r3, [r7]	@ movhi
1178:/home/virusv/TDSAST_IOT/Libraries/src/stm32f10x_tim.c ****   /* Check the parameters */
1179:/home/virusv/TDSAST_IOT/Libraries/src/stm32f10x_tim.c ****   assert_param(IS_TIM_ALL_PERIPH(TIMx));
1180:/home/virusv/TDSAST_IOT/Libraries/src/stm32f10x_tim.c ****   assert_param(IS_TIM_PRESCALER_RELOAD(TIM_PSCReloadMode));
1181:/home/virusv/TDSAST_IOT/Libraries/src/stm32f10x_tim.c ****   /* Set the Prescaler value */
1182:/home/virusv/TDSAST_IOT/Libraries/src/stm32f10x_tim.c ****   TIMx->PSC = Prescaler;
 2449              		.loc 1 1182 0
 2450 0010 7B68     		ldr	r3, [r7, #4]
 2451 0012 7A88     		ldrh	r2, [r7, #2]	@ movhi
 2452 0014 1A85     		strh	r2, [r3, #40]	@ movhi
1183:/home/virusv/TDSAST_IOT/Libraries/src/stm32f10x_tim.c ****   /* Set or reset the UG Bit */
1184:/home/virusv/TDSAST_IOT/Libraries/src/stm32f10x_tim.c ****   TIMx->EGR = TIM_PSCReloadMode;
 2453              		.loc 1 1184 0
 2454 0016 7B68     		ldr	r3, [r7, #4]
 2455 0018 3A88     		ldrh	r2, [r7]	@ movhi
 2456 001a 9A82     		strh	r2, [r3, #20]	@ movhi
1185:/home/virusv/TDSAST_IOT/Libraries/src/stm32f10x_tim.c **** }
 2457              		.loc 1 1185 0
 2458 001c 0C37     		adds	r7, r7, #12
 2459              		.cfi_def_cfa_offset 4
 2460 001e BD46     		mov	sp, r7
 2461              		.cfi_def_cfa_register 13
 2462              		@ sp needed
 2463 0020 5DF8047B 		ldr	r7, [sp], #4
 2464              		.cfi_restore 7
 2465              		.cfi_def_cfa_offset 0
 2466 0024 7047     		bx	lr
 2467              		.cfi_endproc
 2468              	.LFE54:
 2470 0026 00BF     		.section	.text.TIM_CounterModeConfig,"ax",%progbits
 2471              		.align	2
 2472              		.global	TIM_CounterModeConfig
 2473              		.thumb
 2474              		.thumb_func
 2476              	TIM_CounterModeConfig:
 2477              	.LFB55:
1186:/home/virusv/TDSAST_IOT/Libraries/src/stm32f10x_tim.c **** 
1187:/home/virusv/TDSAST_IOT/Libraries/src/stm32f10x_tim.c **** /**
1188:/home/virusv/TDSAST_IOT/Libraries/src/stm32f10x_tim.c ****   * @brief  Specifies the TIMx Counter Mode to be used.
1189:/home/virusv/TDSAST_IOT/Libraries/src/stm32f10x_tim.c ****   * @param  TIMx: where x can be  1, 2, 3, 4, 5 or 8 to select the TIM peripheral.
1190:/home/virusv/TDSAST_IOT/Libraries/src/stm32f10x_tim.c ****   * @param  TIM_CounterMode: specifies the Counter Mode to be used
1191:/home/virusv/TDSAST_IOT/Libraries/src/stm32f10x_tim.c ****   *   This parameter can be one of the following values:
1192:/home/virusv/TDSAST_IOT/Libraries/src/stm32f10x_tim.c ****   *     @arg TIM_CounterMode_Up: TIM Up Counting Mode
1193:/home/virusv/TDSAST_IOT/Libraries/src/stm32f10x_tim.c ****   *     @arg TIM_CounterMode_Down: TIM Down Counting Mode
1194:/home/virusv/TDSAST_IOT/Libraries/src/stm32f10x_tim.c ****   *     @arg TIM_CounterMode_CenterAligned1: TIM Center Aligned Mode1
1195:/home/virusv/TDSAST_IOT/Libraries/src/stm32f10x_tim.c ****   *     @arg TIM_CounterMode_CenterAligned2: TIM Center Aligned Mode2
1196:/home/virusv/TDSAST_IOT/Libraries/src/stm32f10x_tim.c ****   *     @arg TIM_CounterMode_CenterAligned3: TIM Center Aligned Mode3
1197:/home/virusv/TDSAST_IOT/Libraries/src/stm32f10x_tim.c ****   * @retval None
1198:/home/virusv/TDSAST_IOT/Libraries/src/stm32f10x_tim.c ****   */
1199:/home/virusv/TDSAST_IOT/Libraries/src/stm32f10x_tim.c **** void TIM_CounterModeConfig(TIM_TypeDef* TIMx, uint16_t TIM_CounterMode)
1200:/home/virusv/TDSAST_IOT/Libraries/src/stm32f10x_tim.c **** {
 2478              		.loc 1 1200 0
 2479              		.cfi_startproc
 2480              		@ args = 0, pretend = 0, frame = 16
 2481              		@ frame_needed = 1, uses_anonymous_args = 0
 2482              		@ link register save eliminated.
 2483 0000 80B4     		push	{r7}
 2484              		.cfi_def_cfa_offset 4
 2485              		.cfi_offset 7, -4
 2486 0002 85B0     		sub	sp, sp, #20
 2487              		.cfi_def_cfa_offset 24
 2488 0004 00AF     		add	r7, sp, #0
 2489              		.cfi_def_cfa_register 7
 2490 0006 7860     		str	r0, [r7, #4]
 2491 0008 0B46     		mov	r3, r1
 2492 000a 7B80     		strh	r3, [r7, #2]	@ movhi
1201:/home/virusv/TDSAST_IOT/Libraries/src/stm32f10x_tim.c ****   uint16_t tmpcr1 = 0;
 2493              		.loc 1 1201 0
 2494 000c 0023     		movs	r3, #0
 2495 000e FB81     		strh	r3, [r7, #14]	@ movhi
1202:/home/virusv/TDSAST_IOT/Libraries/src/stm32f10x_tim.c ****   /* Check the parameters */
1203:/home/virusv/TDSAST_IOT/Libraries/src/stm32f10x_tim.c ****   assert_param(IS_TIM_LIST3_PERIPH(TIMx));
1204:/home/virusv/TDSAST_IOT/Libraries/src/stm32f10x_tim.c ****   assert_param(IS_TIM_COUNTER_MODE(TIM_CounterMode));
1205:/home/virusv/TDSAST_IOT/Libraries/src/stm32f10x_tim.c ****   tmpcr1 = TIMx->CR1;
 2496              		.loc 1 1205 0
 2497 0010 7B68     		ldr	r3, [r7, #4]
 2498 0012 1B88     		ldrh	r3, [r3]	@ movhi
 2499 0014 FB81     		strh	r3, [r7, #14]	@ movhi
1206:/home/virusv/TDSAST_IOT/Libraries/src/stm32f10x_tim.c ****   /* Reset the CMS and DIR Bits */
1207:/home/virusv/TDSAST_IOT/Libraries/src/stm32f10x_tim.c ****   tmpcr1 &= (uint16_t)(~((uint16_t)(TIM_CR1_DIR | TIM_CR1_CMS)));
 2500              		.loc 1 1207 0
 2501 0016 FB89     		ldrh	r3, [r7, #14]	@ movhi
 2502 0018 23F07003 		bic	r3, r3, #112
 2503 001c FB81     		strh	r3, [r7, #14]	@ movhi
1208:/home/virusv/TDSAST_IOT/Libraries/src/stm32f10x_tim.c ****   /* Set the Counter Mode */
1209:/home/virusv/TDSAST_IOT/Libraries/src/stm32f10x_tim.c ****   tmpcr1 |= TIM_CounterMode;
 2504              		.loc 1 1209 0
 2505 001e FA89     		ldrh	r2, [r7, #14]	@ movhi
 2506 0020 7B88     		ldrh	r3, [r7, #2]	@ movhi
 2507 0022 1343     		orrs	r3, r3, r2
 2508 0024 FB81     		strh	r3, [r7, #14]	@ movhi
1210:/home/virusv/TDSAST_IOT/Libraries/src/stm32f10x_tim.c ****   /* Write to TIMx CR1 register */
1211:/home/virusv/TDSAST_IOT/Libraries/src/stm32f10x_tim.c ****   TIMx->CR1 = tmpcr1;
 2509              		.loc 1 1211 0
 2510 0026 7B68     		ldr	r3, [r7, #4]
 2511 0028 FA89     		ldrh	r2, [r7, #14]	@ movhi
 2512 002a 1A80     		strh	r2, [r3]	@ movhi
1212:/home/virusv/TDSAST_IOT/Libraries/src/stm32f10x_tim.c **** }
 2513              		.loc 1 1212 0
 2514 002c 1437     		adds	r7, r7, #20
 2515              		.cfi_def_cfa_offset 4
 2516 002e BD46     		mov	sp, r7
 2517              		.cfi_def_cfa_register 13
 2518              		@ sp needed
 2519 0030 5DF8047B 		ldr	r7, [sp], #4
 2520              		.cfi_restore 7
 2521              		.cfi_def_cfa_offset 0
 2522 0034 7047     		bx	lr
 2523              		.cfi_endproc
 2524              	.LFE55:
 2526 0036 00BF     		.section	.text.TIM_SelectInputTrigger,"ax",%progbits
 2527              		.align	2
 2528              		.global	TIM_SelectInputTrigger
 2529              		.thumb
 2530              		.thumb_func
 2532              	TIM_SelectInputTrigger:
 2533              	.LFB56:
1213:/home/virusv/TDSAST_IOT/Libraries/src/stm32f10x_tim.c **** 
1214:/home/virusv/TDSAST_IOT/Libraries/src/stm32f10x_tim.c **** /**
1215:/home/virusv/TDSAST_IOT/Libraries/src/stm32f10x_tim.c ****   * @brief  Selects the Input Trigger source
1216:/home/virusv/TDSAST_IOT/Libraries/src/stm32f10x_tim.c ****   * @param  TIMx: where x can be  1, 2, 3, 4, 5, 8, 9, 12 or 15 to select the TIM peripheral.
1217:/home/virusv/TDSAST_IOT/Libraries/src/stm32f10x_tim.c ****   * @param  TIM_InputTriggerSource: The Input Trigger source.
1218:/home/virusv/TDSAST_IOT/Libraries/src/stm32f10x_tim.c ****   *   This parameter can be one of the following values:
1219:/home/virusv/TDSAST_IOT/Libraries/src/stm32f10x_tim.c ****   *     @arg TIM_TS_ITR0: Internal Trigger 0
1220:/home/virusv/TDSAST_IOT/Libraries/src/stm32f10x_tim.c ****   *     @arg TIM_TS_ITR1: Internal Trigger 1
1221:/home/virusv/TDSAST_IOT/Libraries/src/stm32f10x_tim.c ****   *     @arg TIM_TS_ITR2: Internal Trigger 2
1222:/home/virusv/TDSAST_IOT/Libraries/src/stm32f10x_tim.c ****   *     @arg TIM_TS_ITR3: Internal Trigger 3
1223:/home/virusv/TDSAST_IOT/Libraries/src/stm32f10x_tim.c ****   *     @arg TIM_TS_TI1F_ED: TI1 Edge Detector
1224:/home/virusv/TDSAST_IOT/Libraries/src/stm32f10x_tim.c ****   *     @arg TIM_TS_TI1FP1: Filtered Timer Input 1
1225:/home/virusv/TDSAST_IOT/Libraries/src/stm32f10x_tim.c ****   *     @arg TIM_TS_TI2FP2: Filtered Timer Input 2
1226:/home/virusv/TDSAST_IOT/Libraries/src/stm32f10x_tim.c ****   *     @arg TIM_TS_ETRF: External Trigger input
1227:/home/virusv/TDSAST_IOT/Libraries/src/stm32f10x_tim.c ****   * @retval None
1228:/home/virusv/TDSAST_IOT/Libraries/src/stm32f10x_tim.c ****   */
1229:/home/virusv/TDSAST_IOT/Libraries/src/stm32f10x_tim.c **** void TIM_SelectInputTrigger(TIM_TypeDef* TIMx, uint16_t TIM_InputTriggerSource)
1230:/home/virusv/TDSAST_IOT/Libraries/src/stm32f10x_tim.c **** {
 2534              		.loc 1 1230 0
 2535              		.cfi_startproc
 2536              		@ args = 0, pretend = 0, frame = 16
 2537              		@ frame_needed = 1, uses_anonymous_args = 0
 2538              		@ link register save eliminated.
 2539 0000 80B4     		push	{r7}
 2540              		.cfi_def_cfa_offset 4
 2541              		.cfi_offset 7, -4
 2542 0002 85B0     		sub	sp, sp, #20
 2543              		.cfi_def_cfa_offset 24
 2544 0004 00AF     		add	r7, sp, #0
 2545              		.cfi_def_cfa_register 7
 2546 0006 7860     		str	r0, [r7, #4]
 2547 0008 0B46     		mov	r3, r1
 2548 000a 7B80     		strh	r3, [r7, #2]	@ movhi
1231:/home/virusv/TDSAST_IOT/Libraries/src/stm32f10x_tim.c ****   uint16_t tmpsmcr = 0;
 2549              		.loc 1 1231 0
 2550 000c 0023     		movs	r3, #0
 2551 000e FB81     		strh	r3, [r7, #14]	@ movhi
1232:/home/virusv/TDSAST_IOT/Libraries/src/stm32f10x_tim.c ****   /* Check the parameters */
1233:/home/virusv/TDSAST_IOT/Libraries/src/stm32f10x_tim.c ****   assert_param(IS_TIM_LIST6_PERIPH(TIMx));
1234:/home/virusv/TDSAST_IOT/Libraries/src/stm32f10x_tim.c ****   assert_param(IS_TIM_TRIGGER_SELECTION(TIM_InputTriggerSource));
1235:/home/virusv/TDSAST_IOT/Libraries/src/stm32f10x_tim.c ****   /* Get the TIMx SMCR register value */
1236:/home/virusv/TDSAST_IOT/Libraries/src/stm32f10x_tim.c ****   tmpsmcr = TIMx->SMCR;
 2552              		.loc 1 1236 0
 2553 0010 7B68     		ldr	r3, [r7, #4]
 2554 0012 1B89     		ldrh	r3, [r3, #8]	@ movhi
 2555 0014 FB81     		strh	r3, [r7, #14]	@ movhi
1237:/home/virusv/TDSAST_IOT/Libraries/src/stm32f10x_tim.c ****   /* Reset the TS Bits */
1238:/home/virusv/TDSAST_IOT/Libraries/src/stm32f10x_tim.c ****   tmpsmcr &= (uint16_t)(~((uint16_t)TIM_SMCR_TS));
 2556              		.loc 1 1238 0
 2557 0016 FB89     		ldrh	r3, [r7, #14]	@ movhi
 2558 0018 23F07003 		bic	r3, r3, #112
 2559 001c FB81     		strh	r3, [r7, #14]	@ movhi
1239:/home/virusv/TDSAST_IOT/Libraries/src/stm32f10x_tim.c ****   /* Set the Input Trigger source */
1240:/home/virusv/TDSAST_IOT/Libraries/src/stm32f10x_tim.c ****   tmpsmcr |= TIM_InputTriggerSource;
 2560              		.loc 1 1240 0
 2561 001e FA89     		ldrh	r2, [r7, #14]	@ movhi
 2562 0020 7B88     		ldrh	r3, [r7, #2]	@ movhi
 2563 0022 1343     		orrs	r3, r3, r2
 2564 0024 FB81     		strh	r3, [r7, #14]	@ movhi
1241:/home/virusv/TDSAST_IOT/Libraries/src/stm32f10x_tim.c ****   /* Write to TIMx SMCR */
1242:/home/virusv/TDSAST_IOT/Libraries/src/stm32f10x_tim.c ****   TIMx->SMCR = tmpsmcr;
 2565              		.loc 1 1242 0
 2566 0026 7B68     		ldr	r3, [r7, #4]
 2567 0028 FA89     		ldrh	r2, [r7, #14]	@ movhi
 2568 002a 1A81     		strh	r2, [r3, #8]	@ movhi
1243:/home/virusv/TDSAST_IOT/Libraries/src/stm32f10x_tim.c **** }
 2569              		.loc 1 1243 0
 2570 002c 1437     		adds	r7, r7, #20
 2571              		.cfi_def_cfa_offset 4
 2572 002e BD46     		mov	sp, r7
 2573              		.cfi_def_cfa_register 13
 2574              		@ sp needed
 2575 0030 5DF8047B 		ldr	r7, [sp], #4
 2576              		.cfi_restore 7
 2577              		.cfi_def_cfa_offset 0
 2578 0034 7047     		bx	lr
 2579              		.cfi_endproc
 2580              	.LFE56:
 2582 0036 00BF     		.section	.text.TIM_EncoderInterfaceConfig,"ax",%progbits
 2583              		.align	2
 2584              		.global	TIM_EncoderInterfaceConfig
 2585              		.thumb
 2586              		.thumb_func
 2588              	TIM_EncoderInterfaceConfig:
 2589              	.LFB57:
1244:/home/virusv/TDSAST_IOT/Libraries/src/stm32f10x_tim.c **** 
1245:/home/virusv/TDSAST_IOT/Libraries/src/stm32f10x_tim.c **** /**
1246:/home/virusv/TDSAST_IOT/Libraries/src/stm32f10x_tim.c ****   * @brief  Configures the TIMx Encoder Interface.
1247:/home/virusv/TDSAST_IOT/Libraries/src/stm32f10x_tim.c ****   * @param  TIMx: where x can be  1, 2, 3, 4, 5 or 8 to select the TIM peripheral.
1248:/home/virusv/TDSAST_IOT/Libraries/src/stm32f10x_tim.c ****   * @param  TIM_EncoderMode: specifies the TIMx Encoder Mode.
1249:/home/virusv/TDSAST_IOT/Libraries/src/stm32f10x_tim.c ****   *   This parameter can be one of the following values:
1250:/home/virusv/TDSAST_IOT/Libraries/src/stm32f10x_tim.c ****   *     @arg TIM_EncoderMode_TI1: Counter counts on TI1FP1 edge depending on TI2FP2 level.
1251:/home/virusv/TDSAST_IOT/Libraries/src/stm32f10x_tim.c ****   *     @arg TIM_EncoderMode_TI2: Counter counts on TI2FP2 edge depending on TI1FP1 level.
1252:/home/virusv/TDSAST_IOT/Libraries/src/stm32f10x_tim.c ****   *     @arg TIM_EncoderMode_TI12: Counter counts on both TI1FP1 and TI2FP2 edges depending
1253:/home/virusv/TDSAST_IOT/Libraries/src/stm32f10x_tim.c ****   *                                on the level of the other input.
1254:/home/virusv/TDSAST_IOT/Libraries/src/stm32f10x_tim.c ****   * @param  TIM_IC1Polarity: specifies the IC1 Polarity
1255:/home/virusv/TDSAST_IOT/Libraries/src/stm32f10x_tim.c ****   *   This parameter can be one of the following values:
1256:/home/virusv/TDSAST_IOT/Libraries/src/stm32f10x_tim.c ****   *     @arg TIM_ICPolarity_Falling: IC Falling edge.
1257:/home/virusv/TDSAST_IOT/Libraries/src/stm32f10x_tim.c ****   *     @arg TIM_ICPolarity_Rising: IC Rising edge.
1258:/home/virusv/TDSAST_IOT/Libraries/src/stm32f10x_tim.c ****   * @param  TIM_IC2Polarity: specifies the IC2 Polarity
1259:/home/virusv/TDSAST_IOT/Libraries/src/stm32f10x_tim.c ****   *   This parameter can be one of the following values:
1260:/home/virusv/TDSAST_IOT/Libraries/src/stm32f10x_tim.c ****   *     @arg TIM_ICPolarity_Falling: IC Falling edge.
1261:/home/virusv/TDSAST_IOT/Libraries/src/stm32f10x_tim.c ****   *     @arg TIM_ICPolarity_Rising: IC Rising edge.
1262:/home/virusv/TDSAST_IOT/Libraries/src/stm32f10x_tim.c ****   * @retval None
1263:/home/virusv/TDSAST_IOT/Libraries/src/stm32f10x_tim.c ****   */
1264:/home/virusv/TDSAST_IOT/Libraries/src/stm32f10x_tim.c **** void TIM_EncoderInterfaceConfig(TIM_TypeDef* TIMx, uint16_t TIM_EncoderMode,
1265:/home/virusv/TDSAST_IOT/Libraries/src/stm32f10x_tim.c ****                                 uint16_t TIM_IC1Polarity, uint16_t TIM_IC2Polarity)
1266:/home/virusv/TDSAST_IOT/Libraries/src/stm32f10x_tim.c **** {
 2590              		.loc 1 1266 0
 2591              		.cfi_startproc
 2592              		@ args = 0, pretend = 0, frame = 24
 2593              		@ frame_needed = 1, uses_anonymous_args = 0
 2594              		@ link register save eliminated.
 2595 0000 80B4     		push	{r7}
 2596              		.cfi_def_cfa_offset 4
 2597              		.cfi_offset 7, -4
 2598 0002 87B0     		sub	sp, sp, #28
 2599              		.cfi_def_cfa_offset 32
 2600 0004 00AF     		add	r7, sp, #0
 2601              		.cfi_def_cfa_register 7
 2602 0006 F860     		str	r0, [r7, #12]
 2603 0008 0846     		mov	r0, r1
 2604 000a 1146     		mov	r1, r2
 2605 000c 1A46     		mov	r2, r3
 2606 000e 0346     		mov	r3, r0	@ movhi
 2607 0010 7B81     		strh	r3, [r7, #10]	@ movhi
 2608 0012 0B46     		mov	r3, r1	@ movhi
 2609 0014 3B81     		strh	r3, [r7, #8]	@ movhi
 2610 0016 1346     		mov	r3, r2	@ movhi
 2611 0018 FB80     		strh	r3, [r7, #6]	@ movhi
1267:/home/virusv/TDSAST_IOT/Libraries/src/stm32f10x_tim.c ****   uint16_t tmpsmcr = 0;
 2612              		.loc 1 1267 0
 2613 001a 0023     		movs	r3, #0
 2614 001c FB82     		strh	r3, [r7, #22]	@ movhi
1268:/home/virusv/TDSAST_IOT/Libraries/src/stm32f10x_tim.c ****   uint16_t tmpccmr1 = 0;
 2615              		.loc 1 1268 0
 2616 001e 0023     		movs	r3, #0
 2617 0020 BB82     		strh	r3, [r7, #20]	@ movhi
1269:/home/virusv/TDSAST_IOT/Libraries/src/stm32f10x_tim.c ****   uint16_t tmpccer = 0;
 2618              		.loc 1 1269 0
 2619 0022 0023     		movs	r3, #0
 2620 0024 7B82     		strh	r3, [r7, #18]	@ movhi
1270:/home/virusv/TDSAST_IOT/Libraries/src/stm32f10x_tim.c ****     
1271:/home/virusv/TDSAST_IOT/Libraries/src/stm32f10x_tim.c ****   /* Check the parameters */
1272:/home/virusv/TDSAST_IOT/Libraries/src/stm32f10x_tim.c ****   assert_param(IS_TIM_LIST5_PERIPH(TIMx));
1273:/home/virusv/TDSAST_IOT/Libraries/src/stm32f10x_tim.c ****   assert_param(IS_TIM_ENCODER_MODE(TIM_EncoderMode));
1274:/home/virusv/TDSAST_IOT/Libraries/src/stm32f10x_tim.c ****   assert_param(IS_TIM_IC_POLARITY(TIM_IC1Polarity));
1275:/home/virusv/TDSAST_IOT/Libraries/src/stm32f10x_tim.c ****   assert_param(IS_TIM_IC_POLARITY(TIM_IC2Polarity));
1276:/home/virusv/TDSAST_IOT/Libraries/src/stm32f10x_tim.c **** 
1277:/home/virusv/TDSAST_IOT/Libraries/src/stm32f10x_tim.c ****   /* Get the TIMx SMCR register value */
1278:/home/virusv/TDSAST_IOT/Libraries/src/stm32f10x_tim.c ****   tmpsmcr = TIMx->SMCR;
 2621              		.loc 1 1278 0
 2622 0026 FB68     		ldr	r3, [r7, #12]
 2623 0028 1B89     		ldrh	r3, [r3, #8]	@ movhi
 2624 002a FB82     		strh	r3, [r7, #22]	@ movhi
1279:/home/virusv/TDSAST_IOT/Libraries/src/stm32f10x_tim.c ****   
1280:/home/virusv/TDSAST_IOT/Libraries/src/stm32f10x_tim.c ****   /* Get the TIMx CCMR1 register value */
1281:/home/virusv/TDSAST_IOT/Libraries/src/stm32f10x_tim.c ****   tmpccmr1 = TIMx->CCMR1;
 2625              		.loc 1 1281 0
 2626 002c FB68     		ldr	r3, [r7, #12]
 2627 002e 1B8B     		ldrh	r3, [r3, #24]	@ movhi
 2628 0030 BB82     		strh	r3, [r7, #20]	@ movhi
1282:/home/virusv/TDSAST_IOT/Libraries/src/stm32f10x_tim.c ****   
1283:/home/virusv/TDSAST_IOT/Libraries/src/stm32f10x_tim.c ****   /* Get the TIMx CCER register value */
1284:/home/virusv/TDSAST_IOT/Libraries/src/stm32f10x_tim.c ****   tmpccer = TIMx->CCER;
 2629              		.loc 1 1284 0
 2630 0032 FB68     		ldr	r3, [r7, #12]
 2631 0034 1B8C     		ldrh	r3, [r3, #32]	@ movhi
 2632 0036 7B82     		strh	r3, [r7, #18]	@ movhi
1285:/home/virusv/TDSAST_IOT/Libraries/src/stm32f10x_tim.c ****   
1286:/home/virusv/TDSAST_IOT/Libraries/src/stm32f10x_tim.c ****   /* Set the encoder Mode */
1287:/home/virusv/TDSAST_IOT/Libraries/src/stm32f10x_tim.c ****   tmpsmcr &= (uint16_t)(~((uint16_t)TIM_SMCR_SMS));
 2633              		.loc 1 1287 0
 2634 0038 FB8A     		ldrh	r3, [r7, #22]	@ movhi
 2635 003a 23F00703 		bic	r3, r3, #7
 2636 003e FB82     		strh	r3, [r7, #22]	@ movhi
1288:/home/virusv/TDSAST_IOT/Libraries/src/stm32f10x_tim.c ****   tmpsmcr |= TIM_EncoderMode;
 2637              		.loc 1 1288 0
 2638 0040 FA8A     		ldrh	r2, [r7, #22]	@ movhi
 2639 0042 7B89     		ldrh	r3, [r7, #10]	@ movhi
 2640 0044 1343     		orrs	r3, r3, r2
 2641 0046 FB82     		strh	r3, [r7, #22]	@ movhi
1289:/home/virusv/TDSAST_IOT/Libraries/src/stm32f10x_tim.c ****   
1290:/home/virusv/TDSAST_IOT/Libraries/src/stm32f10x_tim.c ****   /* Select the Capture Compare 1 and the Capture Compare 2 as input */
1291:/home/virusv/TDSAST_IOT/Libraries/src/stm32f10x_tim.c ****   tmpccmr1 &= (uint16_t)(((uint16_t)~((uint16_t)TIM_CCMR1_CC1S)) & (uint16_t)(~((uint16_t)TIM_CCMR1
 2642              		.loc 1 1291 0
 2643 0048 BB8A     		ldrh	r3, [r7, #20]	@ movhi
 2644 004a 23F44073 		bic	r3, r3, #768
 2645 004e 23F00303 		bic	r3, r3, #3
 2646 0052 BB82     		strh	r3, [r7, #20]	@ movhi
1292:/home/virusv/TDSAST_IOT/Libraries/src/stm32f10x_tim.c ****   tmpccmr1 |= TIM_CCMR1_CC1S_0 | TIM_CCMR1_CC2S_0;
 2647              		.loc 1 1292 0
 2648 0054 BB8A     		ldrh	r3, [r7, #20]	@ movhi
 2649 0056 43F48073 		orr	r3, r3, #256
 2650 005a 43F00103 		orr	r3, r3, #1
 2651 005e BB82     		strh	r3, [r7, #20]	@ movhi
1293:/home/virusv/TDSAST_IOT/Libraries/src/stm32f10x_tim.c ****   
1294:/home/virusv/TDSAST_IOT/Libraries/src/stm32f10x_tim.c ****   /* Set the TI1 and the TI2 Polarities */
1295:/home/virusv/TDSAST_IOT/Libraries/src/stm32f10x_tim.c ****   tmpccer &= (uint16_t)(((uint16_t)~((uint16_t)TIM_CCER_CC1P)) & ((uint16_t)~((uint16_t)TIM_CCER_CC
 2652              		.loc 1 1295 0
 2653 0060 7B8A     		ldrh	r3, [r7, #18]	@ movhi
 2654 0062 23F02203 		bic	r3, r3, #34
 2655 0066 7B82     		strh	r3, [r7, #18]	@ movhi
1296:/home/virusv/TDSAST_IOT/Libraries/src/stm32f10x_tim.c ****   tmpccer |= (uint16_t)(TIM_IC1Polarity | (uint16_t)(TIM_IC2Polarity << (uint16_t)4));
 2656              		.loc 1 1296 0
 2657 0068 FB88     		ldrh	r3, [r7, #6]	@ movhi
 2658 006a 1B01     		lsls	r3, r3, #4
 2659 006c 9AB2     		uxth	r2, r3
 2660 006e 3B89     		ldrh	r3, [r7, #8]	@ movhi
 2661 0070 1343     		orrs	r3, r3, r2
 2662 0072 9AB2     		uxth	r2, r3
 2663 0074 7B8A     		ldrh	r3, [r7, #18]	@ movhi
 2664 0076 1343     		orrs	r3, r3, r2
 2665 0078 7B82     		strh	r3, [r7, #18]	@ movhi
1297:/home/virusv/TDSAST_IOT/Libraries/src/stm32f10x_tim.c ****   
1298:/home/virusv/TDSAST_IOT/Libraries/src/stm32f10x_tim.c ****   /* Write to TIMx SMCR */
1299:/home/virusv/TDSAST_IOT/Libraries/src/stm32f10x_tim.c ****   TIMx->SMCR = tmpsmcr;
 2666              		.loc 1 1299 0
 2667 007a FB68     		ldr	r3, [r7, #12]
 2668 007c FA8A     		ldrh	r2, [r7, #22]	@ movhi
 2669 007e 1A81     		strh	r2, [r3, #8]	@ movhi
1300:/home/virusv/TDSAST_IOT/Libraries/src/stm32f10x_tim.c ****   /* Write to TIMx CCMR1 */
1301:/home/virusv/TDSAST_IOT/Libraries/src/stm32f10x_tim.c ****   TIMx->CCMR1 = tmpccmr1;
 2670              		.loc 1 1301 0
 2671 0080 FB68     		ldr	r3, [r7, #12]
 2672 0082 BA8A     		ldrh	r2, [r7, #20]	@ movhi
 2673 0084 1A83     		strh	r2, [r3, #24]	@ movhi
1302:/home/virusv/TDSAST_IOT/Libraries/src/stm32f10x_tim.c ****   /* Write to TIMx CCER */
1303:/home/virusv/TDSAST_IOT/Libraries/src/stm32f10x_tim.c ****   TIMx->CCER = tmpccer;
 2674              		.loc 1 1303 0
 2675 0086 FB68     		ldr	r3, [r7, #12]
 2676 0088 7A8A     		ldrh	r2, [r7, #18]	@ movhi
 2677 008a 1A84     		strh	r2, [r3, #32]	@ movhi
1304:/home/virusv/TDSAST_IOT/Libraries/src/stm32f10x_tim.c **** }
 2678              		.loc 1 1304 0
 2679 008c 1C37     		adds	r7, r7, #28
 2680              		.cfi_def_cfa_offset 4
 2681 008e BD46     		mov	sp, r7
 2682              		.cfi_def_cfa_register 13
 2683              		@ sp needed
 2684 0090 5DF8047B 		ldr	r7, [sp], #4
 2685              		.cfi_restore 7
 2686              		.cfi_def_cfa_offset 0
 2687 0094 7047     		bx	lr
 2688              		.cfi_endproc
 2689              	.LFE57:
 2691 0096 00BF     		.section	.text.TIM_ForcedOC1Config,"ax",%progbits
 2692              		.align	2
 2693              		.global	TIM_ForcedOC1Config
 2694              		.thumb
 2695              		.thumb_func
 2697              	TIM_ForcedOC1Config:
 2698              	.LFB58:
1305:/home/virusv/TDSAST_IOT/Libraries/src/stm32f10x_tim.c **** 
1306:/home/virusv/TDSAST_IOT/Libraries/src/stm32f10x_tim.c **** /**
1307:/home/virusv/TDSAST_IOT/Libraries/src/stm32f10x_tim.c ****   * @brief  Forces the TIMx output 1 waveform to active or inactive level.
1308:/home/virusv/TDSAST_IOT/Libraries/src/stm32f10x_tim.c ****   * @param  TIMx: where x can be  1 to 17 except 6 and 7 to select the TIM peripheral.
1309:/home/virusv/TDSAST_IOT/Libraries/src/stm32f10x_tim.c ****   * @param  TIM_ForcedAction: specifies the forced Action to be set to the output waveform.
1310:/home/virusv/TDSAST_IOT/Libraries/src/stm32f10x_tim.c ****   *   This parameter can be one of the following values:
1311:/home/virusv/TDSAST_IOT/Libraries/src/stm32f10x_tim.c ****   *     @arg TIM_ForcedAction_Active: Force active level on OC1REF
1312:/home/virusv/TDSAST_IOT/Libraries/src/stm32f10x_tim.c ****   *     @arg TIM_ForcedAction_InActive: Force inactive level on OC1REF.
1313:/home/virusv/TDSAST_IOT/Libraries/src/stm32f10x_tim.c ****   * @retval None
1314:/home/virusv/TDSAST_IOT/Libraries/src/stm32f10x_tim.c ****   */
1315:/home/virusv/TDSAST_IOT/Libraries/src/stm32f10x_tim.c **** void TIM_ForcedOC1Config(TIM_TypeDef* TIMx, uint16_t TIM_ForcedAction)
1316:/home/virusv/TDSAST_IOT/Libraries/src/stm32f10x_tim.c **** {
 2699              		.loc 1 1316 0
 2700              		.cfi_startproc
 2701              		@ args = 0, pretend = 0, frame = 16
 2702              		@ frame_needed = 1, uses_anonymous_args = 0
 2703              		@ link register save eliminated.
 2704 0000 80B4     		push	{r7}
 2705              		.cfi_def_cfa_offset 4
 2706              		.cfi_offset 7, -4
 2707 0002 85B0     		sub	sp, sp, #20
 2708              		.cfi_def_cfa_offset 24
 2709 0004 00AF     		add	r7, sp, #0
 2710              		.cfi_def_cfa_register 7
 2711 0006 7860     		str	r0, [r7, #4]
 2712 0008 0B46     		mov	r3, r1
 2713 000a 7B80     		strh	r3, [r7, #2]	@ movhi
1317:/home/virusv/TDSAST_IOT/Libraries/src/stm32f10x_tim.c ****   uint16_t tmpccmr1 = 0;
 2714              		.loc 1 1317 0
 2715 000c 0023     		movs	r3, #0
 2716 000e FB81     		strh	r3, [r7, #14]	@ movhi
1318:/home/virusv/TDSAST_IOT/Libraries/src/stm32f10x_tim.c ****   /* Check the parameters */
1319:/home/virusv/TDSAST_IOT/Libraries/src/stm32f10x_tim.c ****   assert_param(IS_TIM_LIST8_PERIPH(TIMx));
1320:/home/virusv/TDSAST_IOT/Libraries/src/stm32f10x_tim.c ****   assert_param(IS_TIM_FORCED_ACTION(TIM_ForcedAction));
1321:/home/virusv/TDSAST_IOT/Libraries/src/stm32f10x_tim.c ****   tmpccmr1 = TIMx->CCMR1;
 2717              		.loc 1 1321 0
 2718 0010 7B68     		ldr	r3, [r7, #4]
 2719 0012 1B8B     		ldrh	r3, [r3, #24]	@ movhi
 2720 0014 FB81     		strh	r3, [r7, #14]	@ movhi
1322:/home/virusv/TDSAST_IOT/Libraries/src/stm32f10x_tim.c ****   /* Reset the OC1M Bits */
1323:/home/virusv/TDSAST_IOT/Libraries/src/stm32f10x_tim.c ****   tmpccmr1 &= (uint16_t)~((uint16_t)TIM_CCMR1_OC1M);
 2721              		.loc 1 1323 0
 2722 0016 FB89     		ldrh	r3, [r7, #14]	@ movhi
 2723 0018 23F07003 		bic	r3, r3, #112
 2724 001c FB81     		strh	r3, [r7, #14]	@ movhi
1324:/home/virusv/TDSAST_IOT/Libraries/src/stm32f10x_tim.c ****   /* Configure The Forced output Mode */
1325:/home/virusv/TDSAST_IOT/Libraries/src/stm32f10x_tim.c ****   tmpccmr1 |= TIM_ForcedAction;
 2725              		.loc 1 1325 0
 2726 001e FA89     		ldrh	r2, [r7, #14]	@ movhi
 2727 0020 7B88     		ldrh	r3, [r7, #2]	@ movhi
 2728 0022 1343     		orrs	r3, r3, r2
 2729 0024 FB81     		strh	r3, [r7, #14]	@ movhi
1326:/home/virusv/TDSAST_IOT/Libraries/src/stm32f10x_tim.c ****   /* Write to TIMx CCMR1 register */
1327:/home/virusv/TDSAST_IOT/Libraries/src/stm32f10x_tim.c ****   TIMx->CCMR1 = tmpccmr1;
 2730              		.loc 1 1327 0
 2731 0026 7B68     		ldr	r3, [r7, #4]
 2732 0028 FA89     		ldrh	r2, [r7, #14]	@ movhi
 2733 002a 1A83     		strh	r2, [r3, #24]	@ movhi
1328:/home/virusv/TDSAST_IOT/Libraries/src/stm32f10x_tim.c **** }
 2734              		.loc 1 1328 0
 2735 002c 1437     		adds	r7, r7, #20
 2736              		.cfi_def_cfa_offset 4
 2737 002e BD46     		mov	sp, r7
 2738              		.cfi_def_cfa_register 13
 2739              		@ sp needed
 2740 0030 5DF8047B 		ldr	r7, [sp], #4
 2741              		.cfi_restore 7
 2742              		.cfi_def_cfa_offset 0
 2743 0034 7047     		bx	lr
 2744              		.cfi_endproc
 2745              	.LFE58:
 2747 0036 00BF     		.section	.text.TIM_ForcedOC2Config,"ax",%progbits
 2748              		.align	2
 2749              		.global	TIM_ForcedOC2Config
 2750              		.thumb
 2751              		.thumb_func
 2753              	TIM_ForcedOC2Config:
 2754              	.LFB59:
1329:/home/virusv/TDSAST_IOT/Libraries/src/stm32f10x_tim.c **** 
1330:/home/virusv/TDSAST_IOT/Libraries/src/stm32f10x_tim.c **** /**
1331:/home/virusv/TDSAST_IOT/Libraries/src/stm32f10x_tim.c ****   * @brief  Forces the TIMx output 2 waveform to active or inactive level.
1332:/home/virusv/TDSAST_IOT/Libraries/src/stm32f10x_tim.c ****   * @param  TIMx: where x can be  1, 2, 3, 4, 5, 8, 9, 12 or 15 to select the TIM peripheral.
1333:/home/virusv/TDSAST_IOT/Libraries/src/stm32f10x_tim.c ****   * @param  TIM_ForcedAction: specifies the forced Action to be set to the output waveform.
1334:/home/virusv/TDSAST_IOT/Libraries/src/stm32f10x_tim.c ****   *   This parameter can be one of the following values:
1335:/home/virusv/TDSAST_IOT/Libraries/src/stm32f10x_tim.c ****   *     @arg TIM_ForcedAction_Active: Force active level on OC2REF
1336:/home/virusv/TDSAST_IOT/Libraries/src/stm32f10x_tim.c ****   *     @arg TIM_ForcedAction_InActive: Force inactive level on OC2REF.
1337:/home/virusv/TDSAST_IOT/Libraries/src/stm32f10x_tim.c ****   * @retval None
1338:/home/virusv/TDSAST_IOT/Libraries/src/stm32f10x_tim.c ****   */
1339:/home/virusv/TDSAST_IOT/Libraries/src/stm32f10x_tim.c **** void TIM_ForcedOC2Config(TIM_TypeDef* TIMx, uint16_t TIM_ForcedAction)
1340:/home/virusv/TDSAST_IOT/Libraries/src/stm32f10x_tim.c **** {
 2755              		.loc 1 1340 0
 2756              		.cfi_startproc
 2757              		@ args = 0, pretend = 0, frame = 16
 2758              		@ frame_needed = 1, uses_anonymous_args = 0
 2759              		@ link register save eliminated.
 2760 0000 80B4     		push	{r7}
 2761              		.cfi_def_cfa_offset 4
 2762              		.cfi_offset 7, -4
 2763 0002 85B0     		sub	sp, sp, #20
 2764              		.cfi_def_cfa_offset 24
 2765 0004 00AF     		add	r7, sp, #0
 2766              		.cfi_def_cfa_register 7
 2767 0006 7860     		str	r0, [r7, #4]
 2768 0008 0B46     		mov	r3, r1
 2769 000a 7B80     		strh	r3, [r7, #2]	@ movhi
1341:/home/virusv/TDSAST_IOT/Libraries/src/stm32f10x_tim.c ****   uint16_t tmpccmr1 = 0;
 2770              		.loc 1 1341 0
 2771 000c 0023     		movs	r3, #0
 2772 000e FB81     		strh	r3, [r7, #14]	@ movhi
1342:/home/virusv/TDSAST_IOT/Libraries/src/stm32f10x_tim.c ****   /* Check the parameters */
1343:/home/virusv/TDSAST_IOT/Libraries/src/stm32f10x_tim.c ****   assert_param(IS_TIM_LIST6_PERIPH(TIMx));
1344:/home/virusv/TDSAST_IOT/Libraries/src/stm32f10x_tim.c ****   assert_param(IS_TIM_FORCED_ACTION(TIM_ForcedAction));
1345:/home/virusv/TDSAST_IOT/Libraries/src/stm32f10x_tim.c ****   tmpccmr1 = TIMx->CCMR1;
 2773              		.loc 1 1345 0
 2774 0010 7B68     		ldr	r3, [r7, #4]
 2775 0012 1B8B     		ldrh	r3, [r3, #24]	@ movhi
 2776 0014 FB81     		strh	r3, [r7, #14]	@ movhi
1346:/home/virusv/TDSAST_IOT/Libraries/src/stm32f10x_tim.c ****   /* Reset the OC2M Bits */
1347:/home/virusv/TDSAST_IOT/Libraries/src/stm32f10x_tim.c ****   tmpccmr1 &= (uint16_t)~((uint16_t)TIM_CCMR1_OC2M);
 2777              		.loc 1 1347 0
 2778 0016 FB89     		ldrh	r3, [r7, #14]	@ movhi
 2779 0018 23F4E043 		bic	r3, r3, #28672
 2780 001c FB81     		strh	r3, [r7, #14]	@ movhi
1348:/home/virusv/TDSAST_IOT/Libraries/src/stm32f10x_tim.c ****   /* Configure The Forced output Mode */
1349:/home/virusv/TDSAST_IOT/Libraries/src/stm32f10x_tim.c ****   tmpccmr1 |= (uint16_t)(TIM_ForcedAction << 8);
 2781              		.loc 1 1349 0
 2782 001e 7B88     		ldrh	r3, [r7, #2]	@ movhi
 2783 0020 1B02     		lsls	r3, r3, #8
 2784 0022 9AB2     		uxth	r2, r3
 2785 0024 FB89     		ldrh	r3, [r7, #14]	@ movhi
 2786 0026 1343     		orrs	r3, r3, r2
 2787 0028 FB81     		strh	r3, [r7, #14]	@ movhi
1350:/home/virusv/TDSAST_IOT/Libraries/src/stm32f10x_tim.c ****   /* Write to TIMx CCMR1 register */
1351:/home/virusv/TDSAST_IOT/Libraries/src/stm32f10x_tim.c ****   TIMx->CCMR1 = tmpccmr1;
 2788              		.loc 1 1351 0
 2789 002a 7B68     		ldr	r3, [r7, #4]
 2790 002c FA89     		ldrh	r2, [r7, #14]	@ movhi
 2791 002e 1A83     		strh	r2, [r3, #24]	@ movhi
1352:/home/virusv/TDSAST_IOT/Libraries/src/stm32f10x_tim.c **** }
 2792              		.loc 1 1352 0
 2793 0030 1437     		adds	r7, r7, #20
 2794              		.cfi_def_cfa_offset 4
 2795 0032 BD46     		mov	sp, r7
 2796              		.cfi_def_cfa_register 13
 2797              		@ sp needed
 2798 0034 5DF8047B 		ldr	r7, [sp], #4
 2799              		.cfi_restore 7
 2800              		.cfi_def_cfa_offset 0
 2801 0038 7047     		bx	lr
 2802              		.cfi_endproc
 2803              	.LFE59:
 2805 003a 00BF     		.section	.text.TIM_ForcedOC3Config,"ax",%progbits
 2806              		.align	2
 2807              		.global	TIM_ForcedOC3Config
 2808              		.thumb
 2809              		.thumb_func
 2811              	TIM_ForcedOC3Config:
 2812              	.LFB60:
1353:/home/virusv/TDSAST_IOT/Libraries/src/stm32f10x_tim.c **** 
1354:/home/virusv/TDSAST_IOT/Libraries/src/stm32f10x_tim.c **** /**
1355:/home/virusv/TDSAST_IOT/Libraries/src/stm32f10x_tim.c ****   * @brief  Forces the TIMx output 3 waveform to active or inactive level.
1356:/home/virusv/TDSAST_IOT/Libraries/src/stm32f10x_tim.c ****   * @param  TIMx: where x can be  1, 2, 3, 4, 5 or 8 to select the TIM peripheral.
1357:/home/virusv/TDSAST_IOT/Libraries/src/stm32f10x_tim.c ****   * @param  TIM_ForcedAction: specifies the forced Action to be set to the output waveform.
1358:/home/virusv/TDSAST_IOT/Libraries/src/stm32f10x_tim.c ****   *   This parameter can be one of the following values:
1359:/home/virusv/TDSAST_IOT/Libraries/src/stm32f10x_tim.c ****   *     @arg TIM_ForcedAction_Active: Force active level on OC3REF
1360:/home/virusv/TDSAST_IOT/Libraries/src/stm32f10x_tim.c ****   *     @arg TIM_ForcedAction_InActive: Force inactive level on OC3REF.
1361:/home/virusv/TDSAST_IOT/Libraries/src/stm32f10x_tim.c ****   * @retval None
1362:/home/virusv/TDSAST_IOT/Libraries/src/stm32f10x_tim.c ****   */
1363:/home/virusv/TDSAST_IOT/Libraries/src/stm32f10x_tim.c **** void TIM_ForcedOC3Config(TIM_TypeDef* TIMx, uint16_t TIM_ForcedAction)
1364:/home/virusv/TDSAST_IOT/Libraries/src/stm32f10x_tim.c **** {
 2813              		.loc 1 1364 0
 2814              		.cfi_startproc
 2815              		@ args = 0, pretend = 0, frame = 16
 2816              		@ frame_needed = 1, uses_anonymous_args = 0
 2817              		@ link register save eliminated.
 2818 0000 80B4     		push	{r7}
 2819              		.cfi_def_cfa_offset 4
 2820              		.cfi_offset 7, -4
 2821 0002 85B0     		sub	sp, sp, #20
 2822              		.cfi_def_cfa_offset 24
 2823 0004 00AF     		add	r7, sp, #0
 2824              		.cfi_def_cfa_register 7
 2825 0006 7860     		str	r0, [r7, #4]
 2826 0008 0B46     		mov	r3, r1
 2827 000a 7B80     		strh	r3, [r7, #2]	@ movhi
1365:/home/virusv/TDSAST_IOT/Libraries/src/stm32f10x_tim.c ****   uint16_t tmpccmr2 = 0;
 2828              		.loc 1 1365 0
 2829 000c 0023     		movs	r3, #0
 2830 000e FB81     		strh	r3, [r7, #14]	@ movhi
1366:/home/virusv/TDSAST_IOT/Libraries/src/stm32f10x_tim.c ****   /* Check the parameters */
1367:/home/virusv/TDSAST_IOT/Libraries/src/stm32f10x_tim.c ****   assert_param(IS_TIM_LIST3_PERIPH(TIMx));
1368:/home/virusv/TDSAST_IOT/Libraries/src/stm32f10x_tim.c ****   assert_param(IS_TIM_FORCED_ACTION(TIM_ForcedAction));
1369:/home/virusv/TDSAST_IOT/Libraries/src/stm32f10x_tim.c ****   tmpccmr2 = TIMx->CCMR2;
 2831              		.loc 1 1369 0
 2832 0010 7B68     		ldr	r3, [r7, #4]
 2833 0012 9B8B     		ldrh	r3, [r3, #28]	@ movhi
 2834 0014 FB81     		strh	r3, [r7, #14]	@ movhi
1370:/home/virusv/TDSAST_IOT/Libraries/src/stm32f10x_tim.c ****   /* Reset the OC1M Bits */
1371:/home/virusv/TDSAST_IOT/Libraries/src/stm32f10x_tim.c ****   tmpccmr2 &= (uint16_t)~((uint16_t)TIM_CCMR2_OC3M);
 2835              		.loc 1 1371 0
 2836 0016 FB89     		ldrh	r3, [r7, #14]	@ movhi
 2837 0018 23F07003 		bic	r3, r3, #112
 2838 001c FB81     		strh	r3, [r7, #14]	@ movhi
1372:/home/virusv/TDSAST_IOT/Libraries/src/stm32f10x_tim.c ****   /* Configure The Forced output Mode */
1373:/home/virusv/TDSAST_IOT/Libraries/src/stm32f10x_tim.c ****   tmpccmr2 |= TIM_ForcedAction;
 2839              		.loc 1 1373 0
 2840 001e FA89     		ldrh	r2, [r7, #14]	@ movhi
 2841 0020 7B88     		ldrh	r3, [r7, #2]	@ movhi
 2842 0022 1343     		orrs	r3, r3, r2
 2843 0024 FB81     		strh	r3, [r7, #14]	@ movhi
1374:/home/virusv/TDSAST_IOT/Libraries/src/stm32f10x_tim.c ****   /* Write to TIMx CCMR2 register */
1375:/home/virusv/TDSAST_IOT/Libraries/src/stm32f10x_tim.c ****   TIMx->CCMR2 = tmpccmr2;
 2844              		.loc 1 1375 0
 2845 0026 7B68     		ldr	r3, [r7, #4]
 2846 0028 FA89     		ldrh	r2, [r7, #14]	@ movhi
 2847 002a 9A83     		strh	r2, [r3, #28]	@ movhi
1376:/home/virusv/TDSAST_IOT/Libraries/src/stm32f10x_tim.c **** }
 2848              		.loc 1 1376 0
 2849 002c 1437     		adds	r7, r7, #20
 2850              		.cfi_def_cfa_offset 4
 2851 002e BD46     		mov	sp, r7
 2852              		.cfi_def_cfa_register 13
 2853              		@ sp needed
 2854 0030 5DF8047B 		ldr	r7, [sp], #4
 2855              		.cfi_restore 7
 2856              		.cfi_def_cfa_offset 0
 2857 0034 7047     		bx	lr
 2858              		.cfi_endproc
 2859              	.LFE60:
 2861 0036 00BF     		.section	.text.TIM_ForcedOC4Config,"ax",%progbits
 2862              		.align	2
 2863              		.global	TIM_ForcedOC4Config
 2864              		.thumb
 2865              		.thumb_func
 2867              	TIM_ForcedOC4Config:
 2868              	.LFB61:
1377:/home/virusv/TDSAST_IOT/Libraries/src/stm32f10x_tim.c **** 
1378:/home/virusv/TDSAST_IOT/Libraries/src/stm32f10x_tim.c **** /**
1379:/home/virusv/TDSAST_IOT/Libraries/src/stm32f10x_tim.c ****   * @brief  Forces the TIMx output 4 waveform to active or inactive level.
1380:/home/virusv/TDSAST_IOT/Libraries/src/stm32f10x_tim.c ****   * @param  TIMx: where x can be  1, 2, 3, 4, 5 or 8 to select the TIM peripheral.
1381:/home/virusv/TDSAST_IOT/Libraries/src/stm32f10x_tim.c ****   * @param  TIM_ForcedAction: specifies the forced Action to be set to the output waveform.
1382:/home/virusv/TDSAST_IOT/Libraries/src/stm32f10x_tim.c ****   *   This parameter can be one of the following values:
1383:/home/virusv/TDSAST_IOT/Libraries/src/stm32f10x_tim.c ****   *     @arg TIM_ForcedAction_Active: Force active level on OC4REF
1384:/home/virusv/TDSAST_IOT/Libraries/src/stm32f10x_tim.c ****   *     @arg TIM_ForcedAction_InActive: Force inactive level on OC4REF.
1385:/home/virusv/TDSAST_IOT/Libraries/src/stm32f10x_tim.c ****   * @retval None
