   1              		.syntax unified
   2              		.cpu cortex-m3
   3              		.fpu softvfp
   4              		.eabi_attribute 20, 1
   5              		.eabi_attribute 21, 1
   6              		.eabi_attribute 23, 3
   7              		.eabi_attribute 24, 1
   8              		.eabi_attribute 25, 1
   9              		.eabi_attribute 26, 1
  10              		.eabi_attribute 30, 6
  11              		.eabi_attribute 34, 1
  12              		.eabi_attribute 18, 4
  13              		.thumb
  14              		.file	"stm32f10x_gpio.c"
  15              		.text
  16              	.Ltext0:
  17              		.cfi_sections	.debug_frame
  18              		.section	.text.GPIO_DeInit,"ax",%progbits
  19              		.align	2
  20              		.global	GPIO_DeInit
  21              		.thumb
  22              		.thumb_func
  24              	GPIO_DeInit:
  25              	.LFB29:
  26              		.file 1 "/home/virusv/TDSAST_IOT/Libraries/src/stm32f10x_gpio.c"
   1:/home/virusv/TDSAST_IOT/Libraries/src/stm32f10x_gpio.c **** /**
   2:/home/virusv/TDSAST_IOT/Libraries/src/stm32f10x_gpio.c ****   ******************************************************************************
   3:/home/virusv/TDSAST_IOT/Libraries/src/stm32f10x_gpio.c ****   * @file    stm32f10x_gpio.c
   4:/home/virusv/TDSAST_IOT/Libraries/src/stm32f10x_gpio.c ****   * @author  MCD Application Team
   5:/home/virusv/TDSAST_IOT/Libraries/src/stm32f10x_gpio.c ****   * @version V3.5.0
   6:/home/virusv/TDSAST_IOT/Libraries/src/stm32f10x_gpio.c ****   * @date    11-March-2011
   7:/home/virusv/TDSAST_IOT/Libraries/src/stm32f10x_gpio.c ****   * @brief   This file provides all the GPIO firmware functions.
   8:/home/virusv/TDSAST_IOT/Libraries/src/stm32f10x_gpio.c ****   ******************************************************************************
   9:/home/virusv/TDSAST_IOT/Libraries/src/stm32f10x_gpio.c ****   * @attention
  10:/home/virusv/TDSAST_IOT/Libraries/src/stm32f10x_gpio.c ****   *
  11:/home/virusv/TDSAST_IOT/Libraries/src/stm32f10x_gpio.c ****   * THE PRESENT FIRMWARE WHICH IS FOR GUIDANCE ONLY AIMS AT PROVIDING CUSTOMERS
  12:/home/virusv/TDSAST_IOT/Libraries/src/stm32f10x_gpio.c ****   * WITH CODING INFORMATION REGARDING THEIR PRODUCTS IN ORDER FOR THEM TO SAVE
  13:/home/virusv/TDSAST_IOT/Libraries/src/stm32f10x_gpio.c ****   * TIME. AS A RESULT, STMICROELECTRONICS SHALL NOT BE HELD LIABLE FOR ANY
  14:/home/virusv/TDSAST_IOT/Libraries/src/stm32f10x_gpio.c ****   * DIRECT, INDIRECT OR CONSEQUENTIAL DAMAGES WITH RESPECT TO ANY CLAIMS ARISING
  15:/home/virusv/TDSAST_IOT/Libraries/src/stm32f10x_gpio.c ****   * FROM THE CONTENT OF SUCH FIRMWARE AND/OR THE USE MADE BY CUSTOMERS OF THE
  16:/home/virusv/TDSAST_IOT/Libraries/src/stm32f10x_gpio.c ****   * CODING INFORMATION CONTAINED HEREIN IN CONNECTION WITH THEIR PRODUCTS.
  17:/home/virusv/TDSAST_IOT/Libraries/src/stm32f10x_gpio.c ****   *
  18:/home/virusv/TDSAST_IOT/Libraries/src/stm32f10x_gpio.c ****   * <h2><center>&copy; COPYRIGHT 2011 STMicroelectronics</center></h2>
  19:/home/virusv/TDSAST_IOT/Libraries/src/stm32f10x_gpio.c ****   ******************************************************************************
  20:/home/virusv/TDSAST_IOT/Libraries/src/stm32f10x_gpio.c ****   */
  21:/home/virusv/TDSAST_IOT/Libraries/src/stm32f10x_gpio.c **** 
  22:/home/virusv/TDSAST_IOT/Libraries/src/stm32f10x_gpio.c **** /* Includes ------------------------------------------------------------------*/
  23:/home/virusv/TDSAST_IOT/Libraries/src/stm32f10x_gpio.c **** #include "stm32f10x_gpio.h"
  24:/home/virusv/TDSAST_IOT/Libraries/src/stm32f10x_gpio.c **** #include "stm32f10x_rcc.h"
  25:/home/virusv/TDSAST_IOT/Libraries/src/stm32f10x_gpio.c **** 
  26:/home/virusv/TDSAST_IOT/Libraries/src/stm32f10x_gpio.c **** /** @addtogroup STM32F10x_StdPeriph_Driver
  27:/home/virusv/TDSAST_IOT/Libraries/src/stm32f10x_gpio.c ****   * @{
  28:/home/virusv/TDSAST_IOT/Libraries/src/stm32f10x_gpio.c ****   */
  29:/home/virusv/TDSAST_IOT/Libraries/src/stm32f10x_gpio.c **** 
  30:/home/virusv/TDSAST_IOT/Libraries/src/stm32f10x_gpio.c **** /** @defgroup GPIO 
  31:/home/virusv/TDSAST_IOT/Libraries/src/stm32f10x_gpio.c ****   * @brief GPIO driver modules
  32:/home/virusv/TDSAST_IOT/Libraries/src/stm32f10x_gpio.c ****   * @{
  33:/home/virusv/TDSAST_IOT/Libraries/src/stm32f10x_gpio.c ****   */ 
  34:/home/virusv/TDSAST_IOT/Libraries/src/stm32f10x_gpio.c **** 
  35:/home/virusv/TDSAST_IOT/Libraries/src/stm32f10x_gpio.c **** /** @defgroup GPIO_Private_TypesDefinitions
  36:/home/virusv/TDSAST_IOT/Libraries/src/stm32f10x_gpio.c ****   * @{
  37:/home/virusv/TDSAST_IOT/Libraries/src/stm32f10x_gpio.c ****   */
  38:/home/virusv/TDSAST_IOT/Libraries/src/stm32f10x_gpio.c **** 
  39:/home/virusv/TDSAST_IOT/Libraries/src/stm32f10x_gpio.c **** /**
  40:/home/virusv/TDSAST_IOT/Libraries/src/stm32f10x_gpio.c ****   * @}
  41:/home/virusv/TDSAST_IOT/Libraries/src/stm32f10x_gpio.c ****   */
  42:/home/virusv/TDSAST_IOT/Libraries/src/stm32f10x_gpio.c **** 
  43:/home/virusv/TDSAST_IOT/Libraries/src/stm32f10x_gpio.c **** /** @defgroup GPIO_Private_Defines
  44:/home/virusv/TDSAST_IOT/Libraries/src/stm32f10x_gpio.c ****   * @{
  45:/home/virusv/TDSAST_IOT/Libraries/src/stm32f10x_gpio.c ****   */
  46:/home/virusv/TDSAST_IOT/Libraries/src/stm32f10x_gpio.c **** 
  47:/home/virusv/TDSAST_IOT/Libraries/src/stm32f10x_gpio.c **** /* ------------ RCC registers bit address in the alias region ----------------*/
  48:/home/virusv/TDSAST_IOT/Libraries/src/stm32f10x_gpio.c **** #define AFIO_OFFSET                 (AFIO_BASE - PERIPH_BASE)
  49:/home/virusv/TDSAST_IOT/Libraries/src/stm32f10x_gpio.c **** 
  50:/home/virusv/TDSAST_IOT/Libraries/src/stm32f10x_gpio.c **** /* --- EVENTCR Register -----*/
  51:/home/virusv/TDSAST_IOT/Libraries/src/stm32f10x_gpio.c **** 
  52:/home/virusv/TDSAST_IOT/Libraries/src/stm32f10x_gpio.c **** /* Alias word address of EVOE bit */
  53:/home/virusv/TDSAST_IOT/Libraries/src/stm32f10x_gpio.c **** #define EVCR_OFFSET                 (AFIO_OFFSET + 0x00)
  54:/home/virusv/TDSAST_IOT/Libraries/src/stm32f10x_gpio.c **** #define EVOE_BitNumber              ((uint8_t)0x07)
  55:/home/virusv/TDSAST_IOT/Libraries/src/stm32f10x_gpio.c **** #define EVCR_EVOE_BB                (PERIPH_BB_BASE + (EVCR_OFFSET * 32) + (EVOE_BitNumber * 4))
  56:/home/virusv/TDSAST_IOT/Libraries/src/stm32f10x_gpio.c **** 
  57:/home/virusv/TDSAST_IOT/Libraries/src/stm32f10x_gpio.c **** 
  58:/home/virusv/TDSAST_IOT/Libraries/src/stm32f10x_gpio.c **** /* ---  MAPR Register ---*/ 
  59:/home/virusv/TDSAST_IOT/Libraries/src/stm32f10x_gpio.c **** /* Alias word address of MII_RMII_SEL bit */ 
  60:/home/virusv/TDSAST_IOT/Libraries/src/stm32f10x_gpio.c **** #define MAPR_OFFSET                 (AFIO_OFFSET + 0x04) 
  61:/home/virusv/TDSAST_IOT/Libraries/src/stm32f10x_gpio.c **** #define MII_RMII_SEL_BitNumber      ((u8)0x17) 
  62:/home/virusv/TDSAST_IOT/Libraries/src/stm32f10x_gpio.c **** #define MAPR_MII_RMII_SEL_BB        (PERIPH_BB_BASE + (MAPR_OFFSET * 32) + (MII_RMII_SEL_BitNumber 
  63:/home/virusv/TDSAST_IOT/Libraries/src/stm32f10x_gpio.c **** 
  64:/home/virusv/TDSAST_IOT/Libraries/src/stm32f10x_gpio.c **** 
  65:/home/virusv/TDSAST_IOT/Libraries/src/stm32f10x_gpio.c **** #define EVCR_PORTPINCONFIG_MASK     ((uint16_t)0xFF80)
  66:/home/virusv/TDSAST_IOT/Libraries/src/stm32f10x_gpio.c **** #define LSB_MASK                    ((uint16_t)0xFFFF)
  67:/home/virusv/TDSAST_IOT/Libraries/src/stm32f10x_gpio.c **** #define DBGAFR_POSITION_MASK        ((uint32_t)0x000F0000)
  68:/home/virusv/TDSAST_IOT/Libraries/src/stm32f10x_gpio.c **** #define DBGAFR_SWJCFG_MASK          ((uint32_t)0xF0FFFFFF)
  69:/home/virusv/TDSAST_IOT/Libraries/src/stm32f10x_gpio.c **** #define DBGAFR_LOCATION_MASK        ((uint32_t)0x00200000)
  70:/home/virusv/TDSAST_IOT/Libraries/src/stm32f10x_gpio.c **** #define DBGAFR_NUMBITS_MASK         ((uint32_t)0x00100000)
  71:/home/virusv/TDSAST_IOT/Libraries/src/stm32f10x_gpio.c **** /**
  72:/home/virusv/TDSAST_IOT/Libraries/src/stm32f10x_gpio.c ****   * @}
  73:/home/virusv/TDSAST_IOT/Libraries/src/stm32f10x_gpio.c ****   */
  74:/home/virusv/TDSAST_IOT/Libraries/src/stm32f10x_gpio.c **** 
  75:/home/virusv/TDSAST_IOT/Libraries/src/stm32f10x_gpio.c **** /** @defgroup GPIO_Private_Macros
  76:/home/virusv/TDSAST_IOT/Libraries/src/stm32f10x_gpio.c ****   * @{
  77:/home/virusv/TDSAST_IOT/Libraries/src/stm32f10x_gpio.c ****   */
  78:/home/virusv/TDSAST_IOT/Libraries/src/stm32f10x_gpio.c **** 
  79:/home/virusv/TDSAST_IOT/Libraries/src/stm32f10x_gpio.c **** /**
  80:/home/virusv/TDSAST_IOT/Libraries/src/stm32f10x_gpio.c ****   * @}
  81:/home/virusv/TDSAST_IOT/Libraries/src/stm32f10x_gpio.c ****   */
  82:/home/virusv/TDSAST_IOT/Libraries/src/stm32f10x_gpio.c **** 
  83:/home/virusv/TDSAST_IOT/Libraries/src/stm32f10x_gpio.c **** /** @defgroup GPIO_Private_Variables
  84:/home/virusv/TDSAST_IOT/Libraries/src/stm32f10x_gpio.c ****   * @{
  85:/home/virusv/TDSAST_IOT/Libraries/src/stm32f10x_gpio.c ****   */
  86:/home/virusv/TDSAST_IOT/Libraries/src/stm32f10x_gpio.c **** 
  87:/home/virusv/TDSAST_IOT/Libraries/src/stm32f10x_gpio.c **** /**
  88:/home/virusv/TDSAST_IOT/Libraries/src/stm32f10x_gpio.c ****   * @}
  89:/home/virusv/TDSAST_IOT/Libraries/src/stm32f10x_gpio.c ****   */
  90:/home/virusv/TDSAST_IOT/Libraries/src/stm32f10x_gpio.c **** 
  91:/home/virusv/TDSAST_IOT/Libraries/src/stm32f10x_gpio.c **** /** @defgroup GPIO_Private_FunctionPrototypes
  92:/home/virusv/TDSAST_IOT/Libraries/src/stm32f10x_gpio.c ****   * @{
  93:/home/virusv/TDSAST_IOT/Libraries/src/stm32f10x_gpio.c ****   */
  94:/home/virusv/TDSAST_IOT/Libraries/src/stm32f10x_gpio.c **** 
  95:/home/virusv/TDSAST_IOT/Libraries/src/stm32f10x_gpio.c **** /**
  96:/home/virusv/TDSAST_IOT/Libraries/src/stm32f10x_gpio.c ****   * @}
  97:/home/virusv/TDSAST_IOT/Libraries/src/stm32f10x_gpio.c ****   */
  98:/home/virusv/TDSAST_IOT/Libraries/src/stm32f10x_gpio.c **** 
  99:/home/virusv/TDSAST_IOT/Libraries/src/stm32f10x_gpio.c **** /** @defgroup GPIO_Private_Functions
 100:/home/virusv/TDSAST_IOT/Libraries/src/stm32f10x_gpio.c ****   * @{
 101:/home/virusv/TDSAST_IOT/Libraries/src/stm32f10x_gpio.c ****   */
 102:/home/virusv/TDSAST_IOT/Libraries/src/stm32f10x_gpio.c **** 
 103:/home/virusv/TDSAST_IOT/Libraries/src/stm32f10x_gpio.c **** /**
 104:/home/virusv/TDSAST_IOT/Libraries/src/stm32f10x_gpio.c ****   * @brief  Deinitializes the GPIOx peripheral registers to their default reset values.
 105:/home/virusv/TDSAST_IOT/Libraries/src/stm32f10x_gpio.c ****   * @param  GPIOx: where x can be (A..G) to select the GPIO peripheral.
 106:/home/virusv/TDSAST_IOT/Libraries/src/stm32f10x_gpio.c ****   * @retval None
 107:/home/virusv/TDSAST_IOT/Libraries/src/stm32f10x_gpio.c ****   */
 108:/home/virusv/TDSAST_IOT/Libraries/src/stm32f10x_gpio.c **** void GPIO_DeInit(GPIO_TypeDef* GPIOx)
 109:/home/virusv/TDSAST_IOT/Libraries/src/stm32f10x_gpio.c **** {
  27              		.loc 1 109 0
  28              		.cfi_startproc
  29              		@ args = 0, pretend = 0, frame = 8
  30              		@ frame_needed = 1, uses_anonymous_args = 0
  31 0000 80B5     		push	{r7, lr}
  32              		.cfi_def_cfa_offset 8
  33              		.cfi_offset 7, -8
  34              		.cfi_offset 14, -4
  35 0002 82B0     		sub	sp, sp, #8
  36              		.cfi_def_cfa_offset 16
  37 0004 00AF     		add	r7, sp, #0
  38              		.cfi_def_cfa_register 7
  39 0006 7860     		str	r0, [r7, #4]
 110:/home/virusv/TDSAST_IOT/Libraries/src/stm32f10x_gpio.c ****   /* Check the parameters */
 111:/home/virusv/TDSAST_IOT/Libraries/src/stm32f10x_gpio.c ****   assert_param(IS_GPIO_ALL_PERIPH(GPIOx));
 112:/home/virusv/TDSAST_IOT/Libraries/src/stm32f10x_gpio.c ****   
 113:/home/virusv/TDSAST_IOT/Libraries/src/stm32f10x_gpio.c ****   if (GPIOx == GPIOA)
  40              		.loc 1 113 0
  41 0008 7B68     		ldr	r3, [r7, #4]
  42 000a 2F4A     		ldr	r2, .L9
  43 000c 9342     		cmp	r3, r2
  44 000e 08D1     		bne	.L2
 114:/home/virusv/TDSAST_IOT/Libraries/src/stm32f10x_gpio.c ****   {
 115:/home/virusv/TDSAST_IOT/Libraries/src/stm32f10x_gpio.c ****     RCC_APB2PeriphResetCmd(RCC_APB2Periph_GPIOA, ENABLE);
  45              		.loc 1 115 0
  46 0010 0420     		movs	r0, #4
  47 0012 0121     		movs	r1, #1
  48 0014 FFF7FEFF 		bl	RCC_APB2PeriphResetCmd
 116:/home/virusv/TDSAST_IOT/Libraries/src/stm32f10x_gpio.c ****     RCC_APB2PeriphResetCmd(RCC_APB2Periph_GPIOA, DISABLE);
  49              		.loc 1 116 0
  50 0018 0420     		movs	r0, #4
  51 001a 0021     		movs	r1, #0
  52 001c FFF7FEFF 		bl	RCC_APB2PeriphResetCmd
  53 0020 4EE0     		b	.L1
  54              	.L2:
 117:/home/virusv/TDSAST_IOT/Libraries/src/stm32f10x_gpio.c ****   }
 118:/home/virusv/TDSAST_IOT/Libraries/src/stm32f10x_gpio.c ****   else if (GPIOx == GPIOB)
  55              		.loc 1 118 0
  56 0022 7B68     		ldr	r3, [r7, #4]
  57 0024 294A     		ldr	r2, .L9+4
  58 0026 9342     		cmp	r3, r2
  59 0028 08D1     		bne	.L4
 119:/home/virusv/TDSAST_IOT/Libraries/src/stm32f10x_gpio.c ****   {
 120:/home/virusv/TDSAST_IOT/Libraries/src/stm32f10x_gpio.c ****     RCC_APB2PeriphResetCmd(RCC_APB2Periph_GPIOB, ENABLE);
  60              		.loc 1 120 0
  61 002a 0820     		movs	r0, #8
  62 002c 0121     		movs	r1, #1
  63 002e FFF7FEFF 		bl	RCC_APB2PeriphResetCmd
 121:/home/virusv/TDSAST_IOT/Libraries/src/stm32f10x_gpio.c ****     RCC_APB2PeriphResetCmd(RCC_APB2Periph_GPIOB, DISABLE);
  64              		.loc 1 121 0
  65 0032 0820     		movs	r0, #8
  66 0034 0021     		movs	r1, #0
  67 0036 FFF7FEFF 		bl	RCC_APB2PeriphResetCmd
  68 003a 41E0     		b	.L1
  69              	.L4:
 122:/home/virusv/TDSAST_IOT/Libraries/src/stm32f10x_gpio.c ****   }
 123:/home/virusv/TDSAST_IOT/Libraries/src/stm32f10x_gpio.c ****   else if (GPIOx == GPIOC)
  70              		.loc 1 123 0
  71 003c 7B68     		ldr	r3, [r7, #4]
  72 003e 244A     		ldr	r2, .L9+8
  73 0040 9342     		cmp	r3, r2
  74 0042 08D1     		bne	.L5
 124:/home/virusv/TDSAST_IOT/Libraries/src/stm32f10x_gpio.c ****   {
 125:/home/virusv/TDSAST_IOT/Libraries/src/stm32f10x_gpio.c ****     RCC_APB2PeriphResetCmd(RCC_APB2Periph_GPIOC, ENABLE);
  75              		.loc 1 125 0
  76 0044 1020     		movs	r0, #16
  77 0046 0121     		movs	r1, #1
  78 0048 FFF7FEFF 		bl	RCC_APB2PeriphResetCmd
 126:/home/virusv/TDSAST_IOT/Libraries/src/stm32f10x_gpio.c ****     RCC_APB2PeriphResetCmd(RCC_APB2Periph_GPIOC, DISABLE);
  79              		.loc 1 126 0
  80 004c 1020     		movs	r0, #16
  81 004e 0021     		movs	r1, #0
  82 0050 FFF7FEFF 		bl	RCC_APB2PeriphResetCmd
  83 0054 34E0     		b	.L1
  84              	.L5:
 127:/home/virusv/TDSAST_IOT/Libraries/src/stm32f10x_gpio.c ****   }
 128:/home/virusv/TDSAST_IOT/Libraries/src/stm32f10x_gpio.c ****   else if (GPIOx == GPIOD)
  85              		.loc 1 128 0
  86 0056 7B68     		ldr	r3, [r7, #4]
  87 0058 1E4A     		ldr	r2, .L9+12
  88 005a 9342     		cmp	r3, r2
  89 005c 08D1     		bne	.L6
 129:/home/virusv/TDSAST_IOT/Libraries/src/stm32f10x_gpio.c ****   {
 130:/home/virusv/TDSAST_IOT/Libraries/src/stm32f10x_gpio.c ****     RCC_APB2PeriphResetCmd(RCC_APB2Periph_GPIOD, ENABLE);
  90              		.loc 1 130 0
  91 005e 2020     		movs	r0, #32
  92 0060 0121     		movs	r1, #1
  93 0062 FFF7FEFF 		bl	RCC_APB2PeriphResetCmd
 131:/home/virusv/TDSAST_IOT/Libraries/src/stm32f10x_gpio.c ****     RCC_APB2PeriphResetCmd(RCC_APB2Periph_GPIOD, DISABLE);
  94              		.loc 1 131 0
  95 0066 2020     		movs	r0, #32
  96 0068 0021     		movs	r1, #0
  97 006a FFF7FEFF 		bl	RCC_APB2PeriphResetCmd
  98 006e 27E0     		b	.L1
  99              	.L6:
 132:/home/virusv/TDSAST_IOT/Libraries/src/stm32f10x_gpio.c ****   }    
 133:/home/virusv/TDSAST_IOT/Libraries/src/stm32f10x_gpio.c ****   else if (GPIOx == GPIOE)
 100              		.loc 1 133 0
 101 0070 7B68     		ldr	r3, [r7, #4]
 102 0072 194A     		ldr	r2, .L9+16
 103 0074 9342     		cmp	r3, r2
 104 0076 08D1     		bne	.L7
 134:/home/virusv/TDSAST_IOT/Libraries/src/stm32f10x_gpio.c ****   {
 135:/home/virusv/TDSAST_IOT/Libraries/src/stm32f10x_gpio.c ****     RCC_APB2PeriphResetCmd(RCC_APB2Periph_GPIOE, ENABLE);
 105              		.loc 1 135 0
 106 0078 4020     		movs	r0, #64
 107 007a 0121     		movs	r1, #1
 108 007c FFF7FEFF 		bl	RCC_APB2PeriphResetCmd
 136:/home/virusv/TDSAST_IOT/Libraries/src/stm32f10x_gpio.c ****     RCC_APB2PeriphResetCmd(RCC_APB2Periph_GPIOE, DISABLE);
 109              		.loc 1 136 0
 110 0080 4020     		movs	r0, #64
 111 0082 0021     		movs	r1, #0
 112 0084 FFF7FEFF 		bl	RCC_APB2PeriphResetCmd
 113 0088 1AE0     		b	.L1
 114              	.L7:
 137:/home/virusv/TDSAST_IOT/Libraries/src/stm32f10x_gpio.c ****   } 
 138:/home/virusv/TDSAST_IOT/Libraries/src/stm32f10x_gpio.c ****   else if (GPIOx == GPIOF)
 115              		.loc 1 138 0
 116 008a 7B68     		ldr	r3, [r7, #4]
 117 008c 134A     		ldr	r2, .L9+20
 118 008e 9342     		cmp	r3, r2
 119 0090 08D1     		bne	.L8
 139:/home/virusv/TDSAST_IOT/Libraries/src/stm32f10x_gpio.c ****   {
 140:/home/virusv/TDSAST_IOT/Libraries/src/stm32f10x_gpio.c ****     RCC_APB2PeriphResetCmd(RCC_APB2Periph_GPIOF, ENABLE);
 120              		.loc 1 140 0
 121 0092 8020     		movs	r0, #128
 122 0094 0121     		movs	r1, #1
 123 0096 FFF7FEFF 		bl	RCC_APB2PeriphResetCmd
 141:/home/virusv/TDSAST_IOT/Libraries/src/stm32f10x_gpio.c ****     RCC_APB2PeriphResetCmd(RCC_APB2Periph_GPIOF, DISABLE);
 124              		.loc 1 141 0
 125 009a 8020     		movs	r0, #128
 126 009c 0021     		movs	r1, #0
 127 009e FFF7FEFF 		bl	RCC_APB2PeriphResetCmd
 128 00a2 0DE0     		b	.L1
 129              	.L8:
 142:/home/virusv/TDSAST_IOT/Libraries/src/stm32f10x_gpio.c ****   }
 143:/home/virusv/TDSAST_IOT/Libraries/src/stm32f10x_gpio.c ****   else
 144:/home/virusv/TDSAST_IOT/Libraries/src/stm32f10x_gpio.c ****   {
 145:/home/virusv/TDSAST_IOT/Libraries/src/stm32f10x_gpio.c ****     if (GPIOx == GPIOG)
 130              		.loc 1 145 0
 131 00a4 7B68     		ldr	r3, [r7, #4]
 132 00a6 0E4A     		ldr	r2, .L9+24
 133 00a8 9342     		cmp	r3, r2
 134 00aa 09D1     		bne	.L1
 146:/home/virusv/TDSAST_IOT/Libraries/src/stm32f10x_gpio.c ****     {
 147:/home/virusv/TDSAST_IOT/Libraries/src/stm32f10x_gpio.c ****       RCC_APB2PeriphResetCmd(RCC_APB2Periph_GPIOG, ENABLE);
 135              		.loc 1 147 0
 136 00ac 4FF48070 		mov	r0, #256
 137 00b0 0121     		movs	r1, #1
 138 00b2 FFF7FEFF 		bl	RCC_APB2PeriphResetCmd
 148:/home/virusv/TDSAST_IOT/Libraries/src/stm32f10x_gpio.c ****       RCC_APB2PeriphResetCmd(RCC_APB2Periph_GPIOG, DISABLE);
 139              		.loc 1 148 0
 140 00b6 4FF48070 		mov	r0, #256
 141 00ba 0021     		movs	r1, #0
 142 00bc FFF7FEFF 		bl	RCC_APB2PeriphResetCmd
 143              	.L1:
 149:/home/virusv/TDSAST_IOT/Libraries/src/stm32f10x_gpio.c ****     }
 150:/home/virusv/TDSAST_IOT/Libraries/src/stm32f10x_gpio.c ****   }
 151:/home/virusv/TDSAST_IOT/Libraries/src/stm32f10x_gpio.c **** }
 144              		.loc 1 151 0
 145 00c0 0837     		adds	r7, r7, #8
 146              		.cfi_def_cfa_offset 8
 147 00c2 BD46     		mov	sp, r7
 148              		.cfi_def_cfa_register 13
 149              		@ sp needed
 150 00c4 80BD     		pop	{r7, pc}
 151              	.L10:
 152 00c6 00BF     		.align	2
 153              	.L9:
 154 00c8 00080140 		.word	1073809408
 155 00cc 000C0140 		.word	1073810432
 156 00d0 00100140 		.word	1073811456
 157 00d4 00140140 		.word	1073812480
 158 00d8 00180140 		.word	1073813504
 159 00dc 001C0140 		.word	1073814528
 160 00e0 00200140 		.word	1073815552
 161              		.cfi_endproc
 162              	.LFE29:
 164              		.section	.text.GPIO_AFIODeInit,"ax",%progbits
 165              		.align	2
 166              		.global	GPIO_AFIODeInit
 167              		.thumb
 168              		.thumb_func
 170              	GPIO_AFIODeInit:
 171              	.LFB30:
 152:/home/virusv/TDSAST_IOT/Libraries/src/stm32f10x_gpio.c **** 
 153:/home/virusv/TDSAST_IOT/Libraries/src/stm32f10x_gpio.c **** /**
 154:/home/virusv/TDSAST_IOT/Libraries/src/stm32f10x_gpio.c ****   * @brief  Deinitializes the Alternate Functions (remap, event control
 155:/home/virusv/TDSAST_IOT/Libraries/src/stm32f10x_gpio.c ****   *   and EXTI configuration) registers to their default reset values.
 156:/home/virusv/TDSAST_IOT/Libraries/src/stm32f10x_gpio.c ****   * @param  None
 157:/home/virusv/TDSAST_IOT/Libraries/src/stm32f10x_gpio.c ****   * @retval None
 158:/home/virusv/TDSAST_IOT/Libraries/src/stm32f10x_gpio.c ****   */
 159:/home/virusv/TDSAST_IOT/Libraries/src/stm32f10x_gpio.c **** void GPIO_AFIODeInit(void)
 160:/home/virusv/TDSAST_IOT/Libraries/src/stm32f10x_gpio.c **** {
 172              		.loc 1 160 0
 173              		.cfi_startproc
 174              		@ args = 0, pretend = 0, frame = 0
 175              		@ frame_needed = 1, uses_anonymous_args = 0
 176 0000 80B5     		push	{r7, lr}
 177              		.cfi_def_cfa_offset 8
 178              		.cfi_offset 7, -8
 179              		.cfi_offset 14, -4
 180 0002 00AF     		add	r7, sp, #0
 181              		.cfi_def_cfa_register 7
 161:/home/virusv/TDSAST_IOT/Libraries/src/stm32f10x_gpio.c ****   RCC_APB2PeriphResetCmd(RCC_APB2Periph_AFIO, ENABLE);
 182              		.loc 1 161 0
 183 0004 0120     		movs	r0, #1
 184 0006 0121     		movs	r1, #1
 185 0008 FFF7FEFF 		bl	RCC_APB2PeriphResetCmd
 162:/home/virusv/TDSAST_IOT/Libraries/src/stm32f10x_gpio.c ****   RCC_APB2PeriphResetCmd(RCC_APB2Periph_AFIO, DISABLE);
 186              		.loc 1 162 0
 187 000c 0120     		movs	r0, #1
 188 000e 0021     		movs	r1, #0
 189 0010 FFF7FEFF 		bl	RCC_APB2PeriphResetCmd
 163:/home/virusv/TDSAST_IOT/Libraries/src/stm32f10x_gpio.c **** }
 190              		.loc 1 163 0
 191 0014 80BD     		pop	{r7, pc}
 192              		.cfi_endproc
 193              	.LFE30:
 195 0016 00BF     		.section	.text.GPIO_Init,"ax",%progbits
 196              		.align	2
 197              		.global	GPIO_Init
 198              		.thumb
 199              		.thumb_func
 201              	GPIO_Init:
 202              	.LFB31:
 164:/home/virusv/TDSAST_IOT/Libraries/src/stm32f10x_gpio.c **** 
 165:/home/virusv/TDSAST_IOT/Libraries/src/stm32f10x_gpio.c **** /**
 166:/home/virusv/TDSAST_IOT/Libraries/src/stm32f10x_gpio.c ****   * @brief  Initializes the GPIOx peripheral according to the specified
 167:/home/virusv/TDSAST_IOT/Libraries/src/stm32f10x_gpio.c ****   *         parameters in the GPIO_InitStruct.
 168:/home/virusv/TDSAST_IOT/Libraries/src/stm32f10x_gpio.c ****   * @param  GPIOx: where x can be (A..G) to select the GPIO peripheral.
 169:/home/virusv/TDSAST_IOT/Libraries/src/stm32f10x_gpio.c ****   * @param  GPIO_InitStruct: pointer to a GPIO_InitTypeDef structure that
 170:/home/virusv/TDSAST_IOT/Libraries/src/stm32f10x_gpio.c ****   *         contains the configuration information for the specified GPIO peripheral.
 171:/home/virusv/TDSAST_IOT/Libraries/src/stm32f10x_gpio.c ****   * @retval None
 172:/home/virusv/TDSAST_IOT/Libraries/src/stm32f10x_gpio.c ****   */
 173:/home/virusv/TDSAST_IOT/Libraries/src/stm32f10x_gpio.c **** void GPIO_Init(GPIO_TypeDef* GPIOx, GPIO_InitTypeDef* GPIO_InitStruct)
 174:/home/virusv/TDSAST_IOT/Libraries/src/stm32f10x_gpio.c **** {
 203              		.loc 1 174 0
 204              		.cfi_startproc
 205              		@ args = 0, pretend = 0, frame = 32
 206              		@ frame_needed = 1, uses_anonymous_args = 0
 207              		@ link register save eliminated.
 208 0000 80B4     		push	{r7}
 209              		.cfi_def_cfa_offset 4
 210              		.cfi_offset 7, -4
 211 0002 89B0     		sub	sp, sp, #36
 212              		.cfi_def_cfa_offset 40
 213 0004 00AF     		add	r7, sp, #0
 214              		.cfi_def_cfa_register 7
 215 0006 7860     		str	r0, [r7, #4]
 216 0008 3960     		str	r1, [r7]
 175:/home/virusv/TDSAST_IOT/Libraries/src/stm32f10x_gpio.c ****   uint32_t currentmode = 0x00, currentpin = 0x00, pinpos = 0x00, pos = 0x00;
 217              		.loc 1 175 0
 218 000a 0023     		movs	r3, #0
 219 000c FB61     		str	r3, [r7, #28]
 220 000e 0023     		movs	r3, #0
 221 0010 3B61     		str	r3, [r7, #16]
 222 0012 0023     		movs	r3, #0
 223 0014 BB61     		str	r3, [r7, #24]
 224 0016 0023     		movs	r3, #0
 225 0018 FB60     		str	r3, [r7, #12]
 176:/home/virusv/TDSAST_IOT/Libraries/src/stm32f10x_gpio.c ****   uint32_t tmpreg = 0x00, pinmask = 0x00;
 226              		.loc 1 176 0
 227 001a 0023     		movs	r3, #0
 228 001c 7B61     		str	r3, [r7, #20]
 229 001e 0023     		movs	r3, #0
 230 0020 BB60     		str	r3, [r7, #8]
 177:/home/virusv/TDSAST_IOT/Libraries/src/stm32f10x_gpio.c ****   /* Check the parameters */
 178:/home/virusv/TDSAST_IOT/Libraries/src/stm32f10x_gpio.c ****   assert_param(IS_GPIO_ALL_PERIPH(GPIOx));
 179:/home/virusv/TDSAST_IOT/Libraries/src/stm32f10x_gpio.c ****   assert_param(IS_GPIO_MODE(GPIO_InitStruct->GPIO_Mode));
 180:/home/virusv/TDSAST_IOT/Libraries/src/stm32f10x_gpio.c ****   assert_param(IS_GPIO_PIN(GPIO_InitStruct->GPIO_Pin));  
 181:/home/virusv/TDSAST_IOT/Libraries/src/stm32f10x_gpio.c ****   
 182:/home/virusv/TDSAST_IOT/Libraries/src/stm32f10x_gpio.c **** /*---------------------------- GPIO Mode Configuration -----------------------*/
 183:/home/virusv/TDSAST_IOT/Libraries/src/stm32f10x_gpio.c ****   currentmode = ((uint32_t)GPIO_InitStruct->GPIO_Mode) & ((uint32_t)0x0F);
 231              		.loc 1 183 0
 232 0022 3B68     		ldr	r3, [r7]
 233 0024 DB78     		ldrb	r3, [r3, #3]	@ zero_extendqisi2
 234 0026 03F00F03 		and	r3, r3, #15
 235 002a FB61     		str	r3, [r7, #28]
 184:/home/virusv/TDSAST_IOT/Libraries/src/stm32f10x_gpio.c ****   if ((((uint32_t)GPIO_InitStruct->GPIO_Mode) & ((uint32_t)0x10)) != 0x00)
 236              		.loc 1 184 0
 237 002c 3B68     		ldr	r3, [r7]
 238 002e DB78     		ldrb	r3, [r3, #3]	@ zero_extendqisi2
 239 0030 03F01003 		and	r3, r3, #16
 240 0034 002B     		cmp	r3, #0
 241 0036 05D0     		beq	.L13
 185:/home/virusv/TDSAST_IOT/Libraries/src/stm32f10x_gpio.c ****   { 
 186:/home/virusv/TDSAST_IOT/Libraries/src/stm32f10x_gpio.c ****     /* Check the parameters */
 187:/home/virusv/TDSAST_IOT/Libraries/src/stm32f10x_gpio.c ****     assert_param(IS_GPIO_SPEED(GPIO_InitStruct->GPIO_Speed));
 188:/home/virusv/TDSAST_IOT/Libraries/src/stm32f10x_gpio.c ****     /* Output mode */
 189:/home/virusv/TDSAST_IOT/Libraries/src/stm32f10x_gpio.c ****     currentmode |= (uint32_t)GPIO_InitStruct->GPIO_Speed;
 242              		.loc 1 189 0
 243 0038 3B68     		ldr	r3, [r7]
 244 003a 9B78     		ldrb	r3, [r3, #2]	@ zero_extendqisi2
 245 003c 1A46     		mov	r2, r3
 246 003e FB69     		ldr	r3, [r7, #28]
 247 0040 1343     		orrs	r3, r3, r2
 248 0042 FB61     		str	r3, [r7, #28]
 249              	.L13:
 190:/home/virusv/TDSAST_IOT/Libraries/src/stm32f10x_gpio.c ****   }
 191:/home/virusv/TDSAST_IOT/Libraries/src/stm32f10x_gpio.c **** /*---------------------------- GPIO CRL Configuration ------------------------*/
 192:/home/virusv/TDSAST_IOT/Libraries/src/stm32f10x_gpio.c ****   /* Configure the eight low port pins */
 193:/home/virusv/TDSAST_IOT/Libraries/src/stm32f10x_gpio.c ****   if (((uint32_t)GPIO_InitStruct->GPIO_Pin & ((uint32_t)0x00FF)) != 0x00)
 250              		.loc 1 193 0
 251 0044 3B68     		ldr	r3, [r7]
 252 0046 1B88     		ldrh	r3, [r3]
 253 0048 DBB2     		uxtb	r3, r3
 254 004a 002B     		cmp	r3, #0
 255 004c 44D0     		beq	.L14
 194:/home/virusv/TDSAST_IOT/Libraries/src/stm32f10x_gpio.c ****   {
 195:/home/virusv/TDSAST_IOT/Libraries/src/stm32f10x_gpio.c ****     tmpreg = GPIOx->CRL;
 256              		.loc 1 195 0
 257 004e 7B68     		ldr	r3, [r7, #4]
 258 0050 1B68     		ldr	r3, [r3]
 259 0052 7B61     		str	r3, [r7, #20]
 196:/home/virusv/TDSAST_IOT/Libraries/src/stm32f10x_gpio.c ****     for (pinpos = 0x00; pinpos < 0x08; pinpos++)
 260              		.loc 1 196 0
 261 0054 0023     		movs	r3, #0
 262 0056 BB61     		str	r3, [r7, #24]
 263 0058 38E0     		b	.L15
 264              	.L18:
 197:/home/virusv/TDSAST_IOT/Libraries/src/stm32f10x_gpio.c ****     {
 198:/home/virusv/TDSAST_IOT/Libraries/src/stm32f10x_gpio.c ****       pos = ((uint32_t)0x01) << pinpos;
 265              		.loc 1 198 0
 266 005a BB69     		ldr	r3, [r7, #24]
 267 005c 0122     		movs	r2, #1
 268 005e 02FA03F3 		lsl	r3, r2, r3
 269 0062 FB60     		str	r3, [r7, #12]
 199:/home/virusv/TDSAST_IOT/Libraries/src/stm32f10x_gpio.c ****       /* Get the port pins position */
 200:/home/virusv/TDSAST_IOT/Libraries/src/stm32f10x_gpio.c ****       currentpin = (GPIO_InitStruct->GPIO_Pin) & pos;
 270              		.loc 1 200 0
 271 0064 3B68     		ldr	r3, [r7]
 272 0066 1B88     		ldrh	r3, [r3]
 273 0068 1A46     		mov	r2, r3
 274 006a FB68     		ldr	r3, [r7, #12]
 275 006c 1340     		ands	r3, r3, r2
 276 006e 3B61     		str	r3, [r7, #16]
 201:/home/virusv/TDSAST_IOT/Libraries/src/stm32f10x_gpio.c ****       if (currentpin == pos)
 277              		.loc 1 201 0
 278 0070 3A69     		ldr	r2, [r7, #16]
 279 0072 FB68     		ldr	r3, [r7, #12]
 280 0074 9A42     		cmp	r2, r3
 281 0076 26D1     		bne	.L16
 202:/home/virusv/TDSAST_IOT/Libraries/src/stm32f10x_gpio.c ****       {
 203:/home/virusv/TDSAST_IOT/Libraries/src/stm32f10x_gpio.c ****         pos = pinpos << 2;
 282              		.loc 1 203 0
 283 0078 BB69     		ldr	r3, [r7, #24]
 284 007a 9B00     		lsls	r3, r3, #2
 285 007c FB60     		str	r3, [r7, #12]
 204:/home/virusv/TDSAST_IOT/Libraries/src/stm32f10x_gpio.c ****         /* Clear the corresponding low control register bits */
 205:/home/virusv/TDSAST_IOT/Libraries/src/stm32f10x_gpio.c ****         pinmask = ((uint32_t)0x0F) << pos;
 286              		.loc 1 205 0
 287 007e FB68     		ldr	r3, [r7, #12]
 288 0080 0F22     		movs	r2, #15
 289 0082 02FA03F3 		lsl	r3, r2, r3
 290 0086 BB60     		str	r3, [r7, #8]
 206:/home/virusv/TDSAST_IOT/Libraries/src/stm32f10x_gpio.c ****         tmpreg &= ~pinmask;
 291              		.loc 1 206 0
 292 0088 BB68     		ldr	r3, [r7, #8]
 293 008a DB43     		mvns	r3, r3
 294 008c 7A69     		ldr	r2, [r7, #20]
 295 008e 1340     		ands	r3, r3, r2
 296 0090 7B61     		str	r3, [r7, #20]
 207:/home/virusv/TDSAST_IOT/Libraries/src/stm32f10x_gpio.c ****         /* Write the mode configuration in the corresponding bits */
 208:/home/virusv/TDSAST_IOT/Libraries/src/stm32f10x_gpio.c ****         tmpreg |= (currentmode << pos);
 297              		.loc 1 208 0
 298 0092 FB68     		ldr	r3, [r7, #12]
 299 0094 FA69     		ldr	r2, [r7, #28]
 300 0096 02FA03F3 		lsl	r3, r2, r3
 301 009a 7A69     		ldr	r2, [r7, #20]
 302 009c 1343     		orrs	r3, r3, r2
 303 009e 7B61     		str	r3, [r7, #20]
 209:/home/virusv/TDSAST_IOT/Libraries/src/stm32f10x_gpio.c ****         /* Reset the corresponding ODR bit */
 210:/home/virusv/TDSAST_IOT/Libraries/src/stm32f10x_gpio.c ****         if (GPIO_InitStruct->GPIO_Mode == GPIO_Mode_IPD)
 304              		.loc 1 210 0
 305 00a0 3B68     		ldr	r3, [r7]
 306 00a2 DB78     		ldrb	r3, [r3, #3]	@ zero_extendqisi2
 307 00a4 282B     		cmp	r3, #40
 308 00a6 05D1     		bne	.L17
 211:/home/virusv/TDSAST_IOT/Libraries/src/stm32f10x_gpio.c ****         {
 212:/home/virusv/TDSAST_IOT/Libraries/src/stm32f10x_gpio.c ****           GPIOx->BRR = (((uint32_t)0x01) << pinpos);
 309              		.loc 1 212 0
 310 00a8 BB69     		ldr	r3, [r7, #24]
 311 00aa 0122     		movs	r2, #1
 312 00ac 9A40     		lsls	r2, r2, r3
 313 00ae 7B68     		ldr	r3, [r7, #4]
 314 00b0 5A61     		str	r2, [r3, #20]
 315 00b2 08E0     		b	.L16
 316              	.L17:
 213:/home/virusv/TDSAST_IOT/Libraries/src/stm32f10x_gpio.c ****         }
 214:/home/virusv/TDSAST_IOT/Libraries/src/stm32f10x_gpio.c ****         else
 215:/home/virusv/TDSAST_IOT/Libraries/src/stm32f10x_gpio.c ****         {
 216:/home/virusv/TDSAST_IOT/Libraries/src/stm32f10x_gpio.c ****           /* Set the corresponding ODR bit */
 217:/home/virusv/TDSAST_IOT/Libraries/src/stm32f10x_gpio.c ****           if (GPIO_InitStruct->GPIO_Mode == GPIO_Mode_IPU)
 317              		.loc 1 217 0
 318 00b4 3B68     		ldr	r3, [r7]
 319 00b6 DB78     		ldrb	r3, [r3, #3]	@ zero_extendqisi2
 320 00b8 482B     		cmp	r3, #72
 321 00ba 04D1     		bne	.L16
 218:/home/virusv/TDSAST_IOT/Libraries/src/stm32f10x_gpio.c ****           {
 219:/home/virusv/TDSAST_IOT/Libraries/src/stm32f10x_gpio.c ****             GPIOx->BSRR = (((uint32_t)0x01) << pinpos);
 322              		.loc 1 219 0
 323 00bc BB69     		ldr	r3, [r7, #24]
 324 00be 0122     		movs	r2, #1
 325 00c0 9A40     		lsls	r2, r2, r3
 326 00c2 7B68     		ldr	r3, [r7, #4]
 327 00c4 1A61     		str	r2, [r3, #16]
 328              	.L16:
 196:/home/virusv/TDSAST_IOT/Libraries/src/stm32f10x_gpio.c ****     {
 329              		.loc 1 196 0 discriminator 2
 330 00c6 BB69     		ldr	r3, [r7, #24]
 331 00c8 0133     		adds	r3, r3, #1
 332 00ca BB61     		str	r3, [r7, #24]
 333              	.L15:
 196:/home/virusv/TDSAST_IOT/Libraries/src/stm32f10x_gpio.c ****     {
 334              		.loc 1 196 0 is_stmt 0 discriminator 1
 335 00cc BB69     		ldr	r3, [r7, #24]
 336 00ce 072B     		cmp	r3, #7
 337 00d0 C3D9     		bls	.L18
 220:/home/virusv/TDSAST_IOT/Libraries/src/stm32f10x_gpio.c ****           }
 221:/home/virusv/TDSAST_IOT/Libraries/src/stm32f10x_gpio.c ****         }
 222:/home/virusv/TDSAST_IOT/Libraries/src/stm32f10x_gpio.c ****       }
 223:/home/virusv/TDSAST_IOT/Libraries/src/stm32f10x_gpio.c ****     }
 224:/home/virusv/TDSAST_IOT/Libraries/src/stm32f10x_gpio.c ****     GPIOx->CRL = tmpreg;
 338              		.loc 1 224 0 is_stmt 1
 339 00d2 7B68     		ldr	r3, [r7, #4]
 340 00d4 7A69     		ldr	r2, [r7, #20]
 341 00d6 1A60     		str	r2, [r3]
 342              	.L14:
 225:/home/virusv/TDSAST_IOT/Libraries/src/stm32f10x_gpio.c ****   }
 226:/home/virusv/TDSAST_IOT/Libraries/src/stm32f10x_gpio.c **** /*---------------------------- GPIO CRH Configuration ------------------------*/
 227:/home/virusv/TDSAST_IOT/Libraries/src/stm32f10x_gpio.c ****   /* Configure the eight high port pins */
 228:/home/virusv/TDSAST_IOT/Libraries/src/stm32f10x_gpio.c ****   if (GPIO_InitStruct->GPIO_Pin > 0x00FF)
 343              		.loc 1 228 0
 344 00d8 3B68     		ldr	r3, [r7]
 345 00da 1B88     		ldrh	r3, [r3]
 346 00dc FF2B     		cmp	r3, #255
 347 00de 4AD9     		bls	.L12
 229:/home/virusv/TDSAST_IOT/Libraries/src/stm32f10x_gpio.c ****   {
 230:/home/virusv/TDSAST_IOT/Libraries/src/stm32f10x_gpio.c ****     tmpreg = GPIOx->CRH;
 348              		.loc 1 230 0
 349 00e0 7B68     		ldr	r3, [r7, #4]
 350 00e2 5B68     		ldr	r3, [r3, #4]
 351 00e4 7B61     		str	r3, [r7, #20]
 231:/home/virusv/TDSAST_IOT/Libraries/src/stm32f10x_gpio.c ****     for (pinpos = 0x00; pinpos < 0x08; pinpos++)
 352              		.loc 1 231 0
 353 00e6 0023     		movs	r3, #0
 354 00e8 BB61     		str	r3, [r7, #24]
 355 00ea 3EE0     		b	.L20
 356              	.L23:
 232:/home/virusv/TDSAST_IOT/Libraries/src/stm32f10x_gpio.c ****     {
 233:/home/virusv/TDSAST_IOT/Libraries/src/stm32f10x_gpio.c ****       pos = (((uint32_t)0x01) << (pinpos + 0x08));
 357              		.loc 1 233 0
 358 00ec BB69     		ldr	r3, [r7, #24]
 359 00ee 0833     		adds	r3, r3, #8
 360 00f0 1A46     		mov	r2, r3
 361 00f2 0123     		movs	r3, #1
 362 00f4 9340     		lsls	r3, r3, r2
 363 00f6 FB60     		str	r3, [r7, #12]
 234:/home/virusv/TDSAST_IOT/Libraries/src/stm32f10x_gpio.c ****       /* Get the port pins position */
 235:/home/virusv/TDSAST_IOT/Libraries/src/stm32f10x_gpio.c ****       currentpin = ((GPIO_InitStruct->GPIO_Pin) & pos);
 364              		.loc 1 235 0
 365 00f8 3B68     		ldr	r3, [r7]
 366 00fa 1B88     		ldrh	r3, [r3]
 367 00fc 1A46     		mov	r2, r3
 368 00fe FB68     		ldr	r3, [r7, #12]
 369 0100 1340     		ands	r3, r3, r2
 370 0102 3B61     		str	r3, [r7, #16]
 236:/home/virusv/TDSAST_IOT/Libraries/src/stm32f10x_gpio.c ****       if (currentpin == pos)
 371              		.loc 1 236 0
 372 0104 3A69     		ldr	r2, [r7, #16]
 373 0106 FB68     		ldr	r3, [r7, #12]
 374 0108 9A42     		cmp	r2, r3
 375 010a 2BD1     		bne	.L21
 237:/home/virusv/TDSAST_IOT/Libraries/src/stm32f10x_gpio.c ****       {
 238:/home/virusv/TDSAST_IOT/Libraries/src/stm32f10x_gpio.c ****         pos = pinpos << 2;
 376              		.loc 1 238 0
 377 010c BB69     		ldr	r3, [r7, #24]
 378 010e 9B00     		lsls	r3, r3, #2
 379 0110 FB60     		str	r3, [r7, #12]
 239:/home/virusv/TDSAST_IOT/Libraries/src/stm32f10x_gpio.c ****         /* Clear the corresponding high control register bits */
 240:/home/virusv/TDSAST_IOT/Libraries/src/stm32f10x_gpio.c ****         pinmask = ((uint32_t)0x0F) << pos;
 380              		.loc 1 240 0
 381 0112 FB68     		ldr	r3, [r7, #12]
 382 0114 0F22     		movs	r2, #15
 383 0116 02FA03F3 		lsl	r3, r2, r3
 384 011a BB60     		str	r3, [r7, #8]
 241:/home/virusv/TDSAST_IOT/Libraries/src/stm32f10x_gpio.c ****         tmpreg &= ~pinmask;
 385              		.loc 1 241 0
 386 011c BB68     		ldr	r3, [r7, #8]
 387 011e DB43     		mvns	r3, r3
 388 0120 7A69     		ldr	r2, [r7, #20]
 389 0122 1340     		ands	r3, r3, r2
 390 0124 7B61     		str	r3, [r7, #20]
 242:/home/virusv/TDSAST_IOT/Libraries/src/stm32f10x_gpio.c ****         /* Write the mode configuration in the corresponding bits */
 243:/home/virusv/TDSAST_IOT/Libraries/src/stm32f10x_gpio.c ****         tmpreg |= (currentmode << pos);
 391              		.loc 1 243 0
 392 0126 FB68     		ldr	r3, [r7, #12]
 393 0128 FA69     		ldr	r2, [r7, #28]
 394 012a 02FA03F3 		lsl	r3, r2, r3
 395 012e 7A69     		ldr	r2, [r7, #20]
 396 0130 1343     		orrs	r3, r3, r2
 397 0132 7B61     		str	r3, [r7, #20]
 244:/home/virusv/TDSAST_IOT/Libraries/src/stm32f10x_gpio.c ****         /* Reset the corresponding ODR bit */
 245:/home/virusv/TDSAST_IOT/Libraries/src/stm32f10x_gpio.c ****         if (GPIO_InitStruct->GPIO_Mode == GPIO_Mode_IPD)
 398              		.loc 1 245 0
 399 0134 3B68     		ldr	r3, [r7]
 400 0136 DB78     		ldrb	r3, [r3, #3]	@ zero_extendqisi2
 401 0138 282B     		cmp	r3, #40
 402 013a 07D1     		bne	.L22
 246:/home/virusv/TDSAST_IOT/Libraries/src/stm32f10x_gpio.c ****         {
 247:/home/virusv/TDSAST_IOT/Libraries/src/stm32f10x_gpio.c ****           GPIOx->BRR = (((uint32_t)0x01) << (pinpos + 0x08));
 403              		.loc 1 247 0
 404 013c BB69     		ldr	r3, [r7, #24]
 405 013e 0833     		adds	r3, r3, #8
 406 0140 1A46     		mov	r2, r3
 407 0142 0123     		movs	r3, #1
 408 0144 03FA02F2 		lsl	r2, r3, r2
 409 0148 7B68     		ldr	r3, [r7, #4]
 410 014a 5A61     		str	r2, [r3, #20]
 411              	.L22:
 248:/home/virusv/TDSAST_IOT/Libraries/src/stm32f10x_gpio.c ****         }
 249:/home/virusv/TDSAST_IOT/Libraries/src/stm32f10x_gpio.c ****         /* Set the corresponding ODR bit */
 250:/home/virusv/TDSAST_IOT/Libraries/src/stm32f10x_gpio.c ****         if (GPIO_InitStruct->GPIO_Mode == GPIO_Mode_IPU)
 412              		.loc 1 250 0
 413 014c 3B68     		ldr	r3, [r7]
 414 014e DB78     		ldrb	r3, [r3, #3]	@ zero_extendqisi2
 415 0150 482B     		cmp	r3, #72
 416 0152 07D1     		bne	.L21
 251:/home/virusv/TDSAST_IOT/Libraries/src/stm32f10x_gpio.c ****         {
 252:/home/virusv/TDSAST_IOT/Libraries/src/stm32f10x_gpio.c ****           GPIOx->BSRR = (((uint32_t)0x01) << (pinpos + 0x08));
 417              		.loc 1 252 0
 418 0154 BB69     		ldr	r3, [r7, #24]
 419 0156 0833     		adds	r3, r3, #8
 420 0158 1A46     		mov	r2, r3
 421 015a 0123     		movs	r3, #1
 422 015c 03FA02F2 		lsl	r2, r3, r2
 423 0160 7B68     		ldr	r3, [r7, #4]
 424 0162 1A61     		str	r2, [r3, #16]
 425              	.L21:
 231:/home/virusv/TDSAST_IOT/Libraries/src/stm32f10x_gpio.c ****     {
 426              		.loc 1 231 0 discriminator 2
 427 0164 BB69     		ldr	r3, [r7, #24]
 428 0166 0133     		adds	r3, r3, #1
 429 0168 BB61     		str	r3, [r7, #24]
 430              	.L20:
 231:/home/virusv/TDSAST_IOT/Libraries/src/stm32f10x_gpio.c ****     {
 431              		.loc 1 231 0 is_stmt 0 discriminator 1
 432 016a BB69     		ldr	r3, [r7, #24]
 433 016c 072B     		cmp	r3, #7
 434 016e BDD9     		bls	.L23
 253:/home/virusv/TDSAST_IOT/Libraries/src/stm32f10x_gpio.c ****         }
 254:/home/virusv/TDSAST_IOT/Libraries/src/stm32f10x_gpio.c ****       }
 255:/home/virusv/TDSAST_IOT/Libraries/src/stm32f10x_gpio.c ****     }
 256:/home/virusv/TDSAST_IOT/Libraries/src/stm32f10x_gpio.c ****     GPIOx->CRH = tmpreg;
 435              		.loc 1 256 0 is_stmt 1
 436 0170 7B68     		ldr	r3, [r7, #4]
 437 0172 7A69     		ldr	r2, [r7, #20]
 438 0174 5A60     		str	r2, [r3, #4]
 439              	.L12:
 257:/home/virusv/TDSAST_IOT/Libraries/src/stm32f10x_gpio.c ****   }
 258:/home/virusv/TDSAST_IOT/Libraries/src/stm32f10x_gpio.c **** }
 440              		.loc 1 258 0
 441 0176 2437     		adds	r7, r7, #36
 442              		.cfi_def_cfa_offset 4
 443 0178 BD46     		mov	sp, r7
 444              		.cfi_def_cfa_register 13
 445              		@ sp needed
 446 017a 5DF8047B 		ldr	r7, [sp], #4
 447              		.cfi_restore 7
 448              		.cfi_def_cfa_offset 0
 449 017e 7047     		bx	lr
 450              		.cfi_endproc
 451              	.LFE31:
 453              		.section	.text.GPIO_StructInit,"ax",%progbits
 454              		.align	2
 455              		.global	GPIO_StructInit
 456              		.thumb
 457              		.thumb_func
 459              	GPIO_StructInit:
 460              	.LFB32:
 259:/home/virusv/TDSAST_IOT/Libraries/src/stm32f10x_gpio.c **** 
 260:/home/virusv/TDSAST_IOT/Libraries/src/stm32f10x_gpio.c **** /**
 261:/home/virusv/TDSAST_IOT/Libraries/src/stm32f10x_gpio.c ****   * @brief  Fills each GPIO_InitStruct member with its default value.
 262:/home/virusv/TDSAST_IOT/Libraries/src/stm32f10x_gpio.c ****   * @param  GPIO_InitStruct : pointer to a GPIO_InitTypeDef structure which will
 263:/home/virusv/TDSAST_IOT/Libraries/src/stm32f10x_gpio.c ****   *         be initialized.
 264:/home/virusv/TDSAST_IOT/Libraries/src/stm32f10x_gpio.c ****   * @retval None
 265:/home/virusv/TDSAST_IOT/Libraries/src/stm32f10x_gpio.c ****   */
 266:/home/virusv/TDSAST_IOT/Libraries/src/stm32f10x_gpio.c **** void GPIO_StructInit(GPIO_InitTypeDef* GPIO_InitStruct)
 267:/home/virusv/TDSAST_IOT/Libraries/src/stm32f10x_gpio.c **** {
 461              		.loc 1 267 0
 462              		.cfi_startproc
 463              		@ args = 0, pretend = 0, frame = 8
 464              		@ frame_needed = 1, uses_anonymous_args = 0
 465              		@ link register save eliminated.
 466 0000 80B4     		push	{r7}
 467              		.cfi_def_cfa_offset 4
 468              		.cfi_offset 7, -4
 469 0002 83B0     		sub	sp, sp, #12
 470              		.cfi_def_cfa_offset 16
 471 0004 00AF     		add	r7, sp, #0
 472              		.cfi_def_cfa_register 7
 473 0006 7860     		str	r0, [r7, #4]
 268:/home/virusv/TDSAST_IOT/Libraries/src/stm32f10x_gpio.c ****   /* Reset GPIO init structure parameters values */
 269:/home/virusv/TDSAST_IOT/Libraries/src/stm32f10x_gpio.c ****   GPIO_InitStruct->GPIO_Pin  = GPIO_Pin_All;
 474              		.loc 1 269 0
 475 0008 7B68     		ldr	r3, [r7, #4]
 476 000a 4FF6FF72 		movw	r2, #65535
 477 000e 1A80     		strh	r2, [r3]	@ movhi
 270:/home/virusv/TDSAST_IOT/Libraries/src/stm32f10x_gpio.c ****   GPIO_InitStruct->GPIO_Speed = GPIO_Speed_2MHz;
 478              		.loc 1 270 0
 479 0010 7B68     		ldr	r3, [r7, #4]
 480 0012 0222     		movs	r2, #2
 481 0014 9A70     		strb	r2, [r3, #2]
 271:/home/virusv/TDSAST_IOT/Libraries/src/stm32f10x_gpio.c ****   GPIO_InitStruct->GPIO_Mode = GPIO_Mode_IN_FLOATING;
 482              		.loc 1 271 0
 483 0016 7B68     		ldr	r3, [r7, #4]
 484 0018 0422     		movs	r2, #4
 485 001a DA70     		strb	r2, [r3, #3]
 272:/home/virusv/TDSAST_IOT/Libraries/src/stm32f10x_gpio.c **** }
 486              		.loc 1 272 0
 487 001c 0C37     		adds	r7, r7, #12
 488              		.cfi_def_cfa_offset 4
 489 001e BD46     		mov	sp, r7
 490              		.cfi_def_cfa_register 13
 491              		@ sp needed
 492 0020 5DF8047B 		ldr	r7, [sp], #4
 493              		.cfi_restore 7
 494              		.cfi_def_cfa_offset 0
 495 0024 7047     		bx	lr
 496              		.cfi_endproc
 497              	.LFE32:
 499 0026 00BF     		.section	.text.GPIO_ReadInputDataBit,"ax",%progbits
 500              		.align	2
 501              		.global	GPIO_ReadInputDataBit
 502              		.thumb
 503              		.thumb_func
 505              	GPIO_ReadInputDataBit:
 506              	.LFB33:
 273:/home/virusv/TDSAST_IOT/Libraries/src/stm32f10x_gpio.c **** 
 274:/home/virusv/TDSAST_IOT/Libraries/src/stm32f10x_gpio.c **** /**
 275:/home/virusv/TDSAST_IOT/Libraries/src/stm32f10x_gpio.c ****   * @brief  Reads the specified input port pin.
 276:/home/virusv/TDSAST_IOT/Libraries/src/stm32f10x_gpio.c ****   * @param  GPIOx: where x can be (A..G) to select the GPIO peripheral.
 277:/home/virusv/TDSAST_IOT/Libraries/src/stm32f10x_gpio.c ****   * @param  GPIO_Pin:  specifies the port bit to read.
 278:/home/virusv/TDSAST_IOT/Libraries/src/stm32f10x_gpio.c ****   *   This parameter can be GPIO_Pin_x where x can be (0..15).
 279:/home/virusv/TDSAST_IOT/Libraries/src/stm32f10x_gpio.c ****   * @retval The input port pin value.
 280:/home/virusv/TDSAST_IOT/Libraries/src/stm32f10x_gpio.c ****   */
 281:/home/virusv/TDSAST_IOT/Libraries/src/stm32f10x_gpio.c **** uint8_t GPIO_ReadInputDataBit(GPIO_TypeDef* GPIOx, uint16_t GPIO_Pin)
 282:/home/virusv/TDSAST_IOT/Libraries/src/stm32f10x_gpio.c **** {
 507              		.loc 1 282 0
 508              		.cfi_startproc
 509              		@ args = 0, pretend = 0, frame = 16
 510              		@ frame_needed = 1, uses_anonymous_args = 0
 511              		@ link register save eliminated.
 512 0000 80B4     		push	{r7}
 513              		.cfi_def_cfa_offset 4
 514              		.cfi_offset 7, -4
 515 0002 85B0     		sub	sp, sp, #20
 516              		.cfi_def_cfa_offset 24
 517 0004 00AF     		add	r7, sp, #0
 518              		.cfi_def_cfa_register 7
 519 0006 7860     		str	r0, [r7, #4]
 520 0008 0B46     		mov	r3, r1
 521 000a 7B80     		strh	r3, [r7, #2]	@ movhi
 283:/home/virusv/TDSAST_IOT/Libraries/src/stm32f10x_gpio.c ****   uint8_t bitstatus = 0x00;
 522              		.loc 1 283 0
 523 000c 0023     		movs	r3, #0
 524 000e FB73     		strb	r3, [r7, #15]
 284:/home/virusv/TDSAST_IOT/Libraries/src/stm32f10x_gpio.c ****   
 285:/home/virusv/TDSAST_IOT/Libraries/src/stm32f10x_gpio.c ****   /* Check the parameters */
 286:/home/virusv/TDSAST_IOT/Libraries/src/stm32f10x_gpio.c ****   assert_param(IS_GPIO_ALL_PERIPH(GPIOx));
 287:/home/virusv/TDSAST_IOT/Libraries/src/stm32f10x_gpio.c ****   assert_param(IS_GET_GPIO_PIN(GPIO_Pin)); 
 288:/home/virusv/TDSAST_IOT/Libraries/src/stm32f10x_gpio.c ****   
 289:/home/virusv/TDSAST_IOT/Libraries/src/stm32f10x_gpio.c ****   if ((GPIOx->IDR & GPIO_Pin) != (uint32_t)Bit_RESET)
 525              		.loc 1 289 0
 526 0010 7B68     		ldr	r3, [r7, #4]
 527 0012 9A68     		ldr	r2, [r3, #8]
 528 0014 7B88     		ldrh	r3, [r7, #2]
 529 0016 1340     		ands	r3, r3, r2
 530 0018 002B     		cmp	r3, #0
 531 001a 02D0     		beq	.L26
 290:/home/virusv/TDSAST_IOT/Libraries/src/stm32f10x_gpio.c ****   {
 291:/home/virusv/TDSAST_IOT/Libraries/src/stm32f10x_gpio.c ****     bitstatus = (uint8_t)Bit_SET;
 532              		.loc 1 291 0
 533 001c 0123     		movs	r3, #1
 534 001e FB73     		strb	r3, [r7, #15]
 535 0020 01E0     		b	.L27
 536              	.L26:
 292:/home/virusv/TDSAST_IOT/Libraries/src/stm32f10x_gpio.c ****   }
 293:/home/virusv/TDSAST_IOT/Libraries/src/stm32f10x_gpio.c ****   else
 294:/home/virusv/TDSAST_IOT/Libraries/src/stm32f10x_gpio.c ****   {
 295:/home/virusv/TDSAST_IOT/Libraries/src/stm32f10x_gpio.c ****     bitstatus = (uint8_t)Bit_RESET;
 537              		.loc 1 295 0
 538 0022 0023     		movs	r3, #0
 539 0024 FB73     		strb	r3, [r7, #15]
 540              	.L27:
 296:/home/virusv/TDSAST_IOT/Libraries/src/stm32f10x_gpio.c ****   }
 297:/home/virusv/TDSAST_IOT/Libraries/src/stm32f10x_gpio.c ****   return bitstatus;
 541              		.loc 1 297 0
 542 0026 FB7B     		ldrb	r3, [r7, #15]	@ zero_extendqisi2
 298:/home/virusv/TDSAST_IOT/Libraries/src/stm32f10x_gpio.c **** }
 543              		.loc 1 298 0
 544 0028 1846     		mov	r0, r3
 545 002a 1437     		adds	r7, r7, #20
 546              		.cfi_def_cfa_offset 4
 547 002c BD46     		mov	sp, r7
 548              		.cfi_def_cfa_register 13
 549              		@ sp needed
 550 002e 5DF8047B 		ldr	r7, [sp], #4
 551              		.cfi_restore 7
 552              		.cfi_def_cfa_offset 0
 553 0032 7047     		bx	lr
 554              		.cfi_endproc
 555              	.LFE33:
 557              		.section	.text.GPIO_ReadInputData,"ax",%progbits
 558              		.align	2
 559              		.global	GPIO_ReadInputData
 560              		.thumb
 561              		.thumb_func
 563              	GPIO_ReadInputData:
 564              	.LFB34:
 299:/home/virusv/TDSAST_IOT/Libraries/src/stm32f10x_gpio.c **** 
 300:/home/virusv/TDSAST_IOT/Libraries/src/stm32f10x_gpio.c **** /**
 301:/home/virusv/TDSAST_IOT/Libraries/src/stm32f10x_gpio.c ****   * @brief  Reads the specified GPIO input data port.
 302:/home/virusv/TDSAST_IOT/Libraries/src/stm32f10x_gpio.c ****   * @param  GPIOx: where x can be (A..G) to select the GPIO peripheral.
 303:/home/virusv/TDSAST_IOT/Libraries/src/stm32f10x_gpio.c ****   * @retval GPIO input data port value.
 304:/home/virusv/TDSAST_IOT/Libraries/src/stm32f10x_gpio.c ****   */
 305:/home/virusv/TDSAST_IOT/Libraries/src/stm32f10x_gpio.c **** uint16_t GPIO_ReadInputData(GPIO_TypeDef* GPIOx)
 306:/home/virusv/TDSAST_IOT/Libraries/src/stm32f10x_gpio.c **** {
 565              		.loc 1 306 0
 566              		.cfi_startproc
 567              		@ args = 0, pretend = 0, frame = 8
 568              		@ frame_needed = 1, uses_anonymous_args = 0
 569              		@ link register save eliminated.
 570 0000 80B4     		push	{r7}
 571              		.cfi_def_cfa_offset 4
 572              		.cfi_offset 7, -4
 573 0002 83B0     		sub	sp, sp, #12
 574              		.cfi_def_cfa_offset 16
 575 0004 00AF     		add	r7, sp, #0
 576              		.cfi_def_cfa_register 7
 577 0006 7860     		str	r0, [r7, #4]
 307:/home/virusv/TDSAST_IOT/Libraries/src/stm32f10x_gpio.c ****   /* Check the parameters */
 308:/home/virusv/TDSAST_IOT/Libraries/src/stm32f10x_gpio.c ****   assert_param(IS_GPIO_ALL_PERIPH(GPIOx));
 309:/home/virusv/TDSAST_IOT/Libraries/src/stm32f10x_gpio.c ****   
 310:/home/virusv/TDSAST_IOT/Libraries/src/stm32f10x_gpio.c ****   return ((uint16_t)GPIOx->IDR);
 578              		.loc 1 310 0
 579 0008 7B68     		ldr	r3, [r7, #4]
 580 000a 9B68     		ldr	r3, [r3, #8]
 581 000c 9BB2     		uxth	r3, r3
 311:/home/virusv/TDSAST_IOT/Libraries/src/stm32f10x_gpio.c **** }
 582              		.loc 1 311 0
 583 000e 1846     		mov	r0, r3
 584 0010 0C37     		adds	r7, r7, #12
 585              		.cfi_def_cfa_offset 4
 586 0012 BD46     		mov	sp, r7
 587              		.cfi_def_cfa_register 13
 588              		@ sp needed
 589 0014 5DF8047B 		ldr	r7, [sp], #4
 590              		.cfi_restore 7
 591              		.cfi_def_cfa_offset 0
 592 0018 7047     		bx	lr
 593              		.cfi_endproc
 594              	.LFE34:
 596 001a 00BF     		.section	.text.GPIO_ReadOutputDataBit,"ax",%progbits
 597              		.align	2
 598              		.global	GPIO_ReadOutputDataBit
 599              		.thumb
 600              		.thumb_func
 602              	GPIO_ReadOutputDataBit:
 603              	.LFB35:
 312:/home/virusv/TDSAST_IOT/Libraries/src/stm32f10x_gpio.c **** 
 313:/home/virusv/TDSAST_IOT/Libraries/src/stm32f10x_gpio.c **** /**
 314:/home/virusv/TDSAST_IOT/Libraries/src/stm32f10x_gpio.c ****   * @brief  Reads the specified output data port bit.
 315:/home/virusv/TDSAST_IOT/Libraries/src/stm32f10x_gpio.c ****   * @param  GPIOx: where x can be (A..G) to select the GPIO peripheral.
 316:/home/virusv/TDSAST_IOT/Libraries/src/stm32f10x_gpio.c ****   * @param  GPIO_Pin:  specifies the port bit to read.
 317:/home/virusv/TDSAST_IOT/Libraries/src/stm32f10x_gpio.c ****   *   This parameter can be GPIO_Pin_x where x can be (0..15).
 318:/home/virusv/TDSAST_IOT/Libraries/src/stm32f10x_gpio.c ****   * @retval The output port pin value.
 319:/home/virusv/TDSAST_IOT/Libraries/src/stm32f10x_gpio.c ****   */
 320:/home/virusv/TDSAST_IOT/Libraries/src/stm32f10x_gpio.c **** uint8_t GPIO_ReadOutputDataBit(GPIO_TypeDef* GPIOx, uint16_t GPIO_Pin)
 321:/home/virusv/TDSAST_IOT/Libraries/src/stm32f10x_gpio.c **** {
 604              		.loc 1 321 0
 605              		.cfi_startproc
 606              		@ args = 0, pretend = 0, frame = 16
 607              		@ frame_needed = 1, uses_anonymous_args = 0
 608              		@ link register save eliminated.
 609 0000 80B4     		push	{r7}
 610              		.cfi_def_cfa_offset 4
 611              		.cfi_offset 7, -4
 612 0002 85B0     		sub	sp, sp, #20
 613              		.cfi_def_cfa_offset 24
 614 0004 00AF     		add	r7, sp, #0
 615              		.cfi_def_cfa_register 7
 616 0006 7860     		str	r0, [r7, #4]
 617 0008 0B46     		mov	r3, r1
 618 000a 7B80     		strh	r3, [r7, #2]	@ movhi
 322:/home/virusv/TDSAST_IOT/Libraries/src/stm32f10x_gpio.c ****   uint8_t bitstatus = 0x00;
 619              		.loc 1 322 0
 620 000c 0023     		movs	r3, #0
 621 000e FB73     		strb	r3, [r7, #15]
 323:/home/virusv/TDSAST_IOT/Libraries/src/stm32f10x_gpio.c ****   /* Check the parameters */
 324:/home/virusv/TDSAST_IOT/Libraries/src/stm32f10x_gpio.c ****   assert_param(IS_GPIO_ALL_PERIPH(GPIOx));
 325:/home/virusv/TDSAST_IOT/Libraries/src/stm32f10x_gpio.c ****   assert_param(IS_GET_GPIO_PIN(GPIO_Pin)); 
 326:/home/virusv/TDSAST_IOT/Libraries/src/stm32f10x_gpio.c ****   
 327:/home/virusv/TDSAST_IOT/Libraries/src/stm32f10x_gpio.c ****   if ((GPIOx->ODR & GPIO_Pin) != (uint32_t)Bit_RESET)
 622              		.loc 1 327 0
 623 0010 7B68     		ldr	r3, [r7, #4]
 624 0012 DA68     		ldr	r2, [r3, #12]
 625 0014 7B88     		ldrh	r3, [r7, #2]
 626 0016 1340     		ands	r3, r3, r2
 627 0018 002B     		cmp	r3, #0
 628 001a 02D0     		beq	.L32
 328:/home/virusv/TDSAST_IOT/Libraries/src/stm32f10x_gpio.c ****   {
 329:/home/virusv/TDSAST_IOT/Libraries/src/stm32f10x_gpio.c ****     bitstatus = (uint8_t)Bit_SET;
 629              		.loc 1 329 0
 630 001c 0123     		movs	r3, #1
 631 001e FB73     		strb	r3, [r7, #15]
 632 0020 01E0     		b	.L33
 633              	.L32:
 330:/home/virusv/TDSAST_IOT/Libraries/src/stm32f10x_gpio.c ****   }
 331:/home/virusv/TDSAST_IOT/Libraries/src/stm32f10x_gpio.c ****   else
 332:/home/virusv/TDSAST_IOT/Libraries/src/stm32f10x_gpio.c ****   {
 333:/home/virusv/TDSAST_IOT/Libraries/src/stm32f10x_gpio.c ****     bitstatus = (uint8_t)Bit_RESET;
 634              		.loc 1 333 0
 635 0022 0023     		movs	r3, #0
 636 0024 FB73     		strb	r3, [r7, #15]
 637              	.L33:
 334:/home/virusv/TDSAST_IOT/Libraries/src/stm32f10x_gpio.c ****   }
 335:/home/virusv/TDSAST_IOT/Libraries/src/stm32f10x_gpio.c ****   return bitstatus;
 638              		.loc 1 335 0
 639 0026 FB7B     		ldrb	r3, [r7, #15]	@ zero_extendqisi2
 336:/home/virusv/TDSAST_IOT/Libraries/src/stm32f10x_gpio.c **** }
 640              		.loc 1 336 0
 641 0028 1846     		mov	r0, r3
 642 002a 1437     		adds	r7, r7, #20
 643              		.cfi_def_cfa_offset 4
 644 002c BD46     		mov	sp, r7
 645              		.cfi_def_cfa_register 13
 646              		@ sp needed
 647 002e 5DF8047B 		ldr	r7, [sp], #4
 648              		.cfi_restore 7
 649              		.cfi_def_cfa_offset 0
 650 0032 7047     		bx	lr
 651              		.cfi_endproc
 652              	.LFE35:
 654              		.section	.text.GPIO_ReadOutputData,"ax",%progbits
 655              		.align	2
 656              		.global	GPIO_ReadOutputData
 657              		.thumb
 658              		.thumb_func
 660              	GPIO_ReadOutputData:
 661              	.LFB36:
 337:/home/virusv/TDSAST_IOT/Libraries/src/stm32f10x_gpio.c **** 
 338:/home/virusv/TDSAST_IOT/Libraries/src/stm32f10x_gpio.c **** /**
 339:/home/virusv/TDSAST_IOT/Libraries/src/stm32f10x_gpio.c ****   * @brief  Reads the specified GPIO output data port.
 340:/home/virusv/TDSAST_IOT/Libraries/src/stm32f10x_gpio.c ****   * @param  GPIOx: where x can be (A..G) to select the GPIO peripheral.
 341:/home/virusv/TDSAST_IOT/Libraries/src/stm32f10x_gpio.c ****   * @retval GPIO output data port value.
 342:/home/virusv/TDSAST_IOT/Libraries/src/stm32f10x_gpio.c ****   */
 343:/home/virusv/TDSAST_IOT/Libraries/src/stm32f10x_gpio.c **** uint16_t GPIO_ReadOutputData(GPIO_TypeDef* GPIOx)
 344:/home/virusv/TDSAST_IOT/Libraries/src/stm32f10x_gpio.c **** {
 662              		.loc 1 344 0
 663              		.cfi_startproc
 664              		@ args = 0, pretend = 0, frame = 8
 665              		@ frame_needed = 1, uses_anonymous_args = 0
 666              		@ link register save eliminated.
 667 0000 80B4     		push	{r7}
 668              		.cfi_def_cfa_offset 4
 669              		.cfi_offset 7, -4
 670 0002 83B0     		sub	sp, sp, #12
 671              		.cfi_def_cfa_offset 16
 672 0004 00AF     		add	r7, sp, #0
 673              		.cfi_def_cfa_register 7
 674 0006 7860     		str	r0, [r7, #4]
 345:/home/virusv/TDSAST_IOT/Libraries/src/stm32f10x_gpio.c ****   /* Check the parameters */
 346:/home/virusv/TDSAST_IOT/Libraries/src/stm32f10x_gpio.c ****   assert_param(IS_GPIO_ALL_PERIPH(GPIOx));
 347:/home/virusv/TDSAST_IOT/Libraries/src/stm32f10x_gpio.c ****     
 348:/home/virusv/TDSAST_IOT/Libraries/src/stm32f10x_gpio.c ****   return ((uint16_t)GPIOx->ODR);
 675              		.loc 1 348 0
 676 0008 7B68     		ldr	r3, [r7, #4]
 677 000a DB68     		ldr	r3, [r3, #12]
 678 000c 9BB2     		uxth	r3, r3
 349:/home/virusv/TDSAST_IOT/Libraries/src/stm32f10x_gpio.c **** }
 679              		.loc 1 349 0
 680 000e 1846     		mov	r0, r3
 681 0010 0C37     		adds	r7, r7, #12
 682              		.cfi_def_cfa_offset 4
 683 0012 BD46     		mov	sp, r7
 684              		.cfi_def_cfa_register 13
 685              		@ sp needed
 686 0014 5DF8047B 		ldr	r7, [sp], #4
 687              		.cfi_restore 7
 688              		.cfi_def_cfa_offset 0
 689 0018 7047     		bx	lr
 690              		.cfi_endproc
 691              	.LFE36:
 693 001a 00BF     		.section	.text.GPIO_SetBits,"ax",%progbits
 694              		.align	2
 695              		.global	GPIO_SetBits
 696              		.thumb
 697              		.thumb_func
 699              	GPIO_SetBits:
 700              	.LFB37:
 350:/home/virusv/TDSAST_IOT/Libraries/src/stm32f10x_gpio.c **** 
 351:/home/virusv/TDSAST_IOT/Libraries/src/stm32f10x_gpio.c **** /**
 352:/home/virusv/TDSAST_IOT/Libraries/src/stm32f10x_gpio.c ****   * @brief  Sets the selected data port bits.
 353:/home/virusv/TDSAST_IOT/Libraries/src/stm32f10x_gpio.c ****   * @param  GPIOx: where x can be (A..G) to select the GPIO peripheral.
 354:/home/virusv/TDSAST_IOT/Libraries/src/stm32f10x_gpio.c ****   * @param  GPIO_Pin: specifies the port bits to be written.
 355:/home/virusv/TDSAST_IOT/Libraries/src/stm32f10x_gpio.c ****   *   This parameter can be any combination of GPIO_Pin_x where x can be (0..15).
 356:/home/virusv/TDSAST_IOT/Libraries/src/stm32f10x_gpio.c ****   * @retval None
 357:/home/virusv/TDSAST_IOT/Libraries/src/stm32f10x_gpio.c ****   */
 358:/home/virusv/TDSAST_IOT/Libraries/src/stm32f10x_gpio.c **** void GPIO_SetBits(GPIO_TypeDef* GPIOx, uint16_t GPIO_Pin)
 359:/home/virusv/TDSAST_IOT/Libraries/src/stm32f10x_gpio.c **** {
 701              		.loc 1 359 0
 702              		.cfi_startproc
 703              		@ args = 0, pretend = 0, frame = 8
 704              		@ frame_needed = 1, uses_anonymous_args = 0
 705              		@ link register save eliminated.
 706 0000 80B4     		push	{r7}
 707              		.cfi_def_cfa_offset 4
 708              		.cfi_offset 7, -4
 709 0002 83B0     		sub	sp, sp, #12
 710              		.cfi_def_cfa_offset 16
 711 0004 00AF     		add	r7, sp, #0
 712              		.cfi_def_cfa_register 7
 713 0006 7860     		str	r0, [r7, #4]
 714 0008 0B46     		mov	r3, r1
 715 000a 7B80     		strh	r3, [r7, #2]	@ movhi
 360:/home/virusv/TDSAST_IOT/Libraries/src/stm32f10x_gpio.c ****   /* Check the parameters */
 361:/home/virusv/TDSAST_IOT/Libraries/src/stm32f10x_gpio.c ****   assert_param(IS_GPIO_ALL_PERIPH(GPIOx));
 362:/home/virusv/TDSAST_IOT/Libraries/src/stm32f10x_gpio.c ****   assert_param(IS_GPIO_PIN(GPIO_Pin));
 363:/home/virusv/TDSAST_IOT/Libraries/src/stm32f10x_gpio.c ****   
 364:/home/virusv/TDSAST_IOT/Libraries/src/stm32f10x_gpio.c ****   GPIOx->BSRR = GPIO_Pin;
 716              		.loc 1 364 0
 717 000c 7A88     		ldrh	r2, [r7, #2]
 718 000e 7B68     		ldr	r3, [r7, #4]
 719 0010 1A61     		str	r2, [r3, #16]
 365:/home/virusv/TDSAST_IOT/Libraries/src/stm32f10x_gpio.c **** }
 720              		.loc 1 365 0
 721 0012 0C37     		adds	r7, r7, #12
 722              		.cfi_def_cfa_offset 4
 723 0014 BD46     		mov	sp, r7
 724              		.cfi_def_cfa_register 13
 725              		@ sp needed
 726 0016 5DF8047B 		ldr	r7, [sp], #4
 727              		.cfi_restore 7
 728              		.cfi_def_cfa_offset 0
 729 001a 7047     		bx	lr
 730              		.cfi_endproc
 731              	.LFE37:
 733              		.section	.text.GPIO_ResetBits,"ax",%progbits
 734              		.align	2
 735              		.global	GPIO_ResetBits
 736              		.thumb
 737              		.thumb_func
 739              	GPIO_ResetBits:
 740              	.LFB38:
 366:/home/virusv/TDSAST_IOT/Libraries/src/stm32f10x_gpio.c **** 
 367:/home/virusv/TDSAST_IOT/Libraries/src/stm32f10x_gpio.c **** /**
 368:/home/virusv/TDSAST_IOT/Libraries/src/stm32f10x_gpio.c ****   * @brief  Clears the selected data port bits.
 369:/home/virusv/TDSAST_IOT/Libraries/src/stm32f10x_gpio.c ****   * @param  GPIOx: where x can be (A..G) to select the GPIO peripheral.
 370:/home/virusv/TDSAST_IOT/Libraries/src/stm32f10x_gpio.c ****   * @param  GPIO_Pin: specifies the port bits to be written.
 371:/home/virusv/TDSAST_IOT/Libraries/src/stm32f10x_gpio.c ****   *   This parameter can be any combination of GPIO_Pin_x where x can be (0..15).
 372:/home/virusv/TDSAST_IOT/Libraries/src/stm32f10x_gpio.c ****   * @retval None
 373:/home/virusv/TDSAST_IOT/Libraries/src/stm32f10x_gpio.c ****   */
 374:/home/virusv/TDSAST_IOT/Libraries/src/stm32f10x_gpio.c **** void GPIO_ResetBits(GPIO_TypeDef* GPIOx, uint16_t GPIO_Pin)
 375:/home/virusv/TDSAST_IOT/Libraries/src/stm32f10x_gpio.c **** {
 741              		.loc 1 375 0
 742              		.cfi_startproc
 743              		@ args = 0, pretend = 0, frame = 8
 744              		@ frame_needed = 1, uses_anonymous_args = 0
 745              		@ link register save eliminated.
 746 0000 80B4     		push	{r7}
 747              		.cfi_def_cfa_offset 4
 748              		.cfi_offset 7, -4
 749 0002 83B0     		sub	sp, sp, #12
 750              		.cfi_def_cfa_offset 16
 751 0004 00AF     		add	r7, sp, #0
 752              		.cfi_def_cfa_register 7
 753 0006 7860     		str	r0, [r7, #4]
 754 0008 0B46     		mov	r3, r1
 755 000a 7B80     		strh	r3, [r7, #2]	@ movhi
 376:/home/virusv/TDSAST_IOT/Libraries/src/stm32f10x_gpio.c ****   /* Check the parameters */
 377:/home/virusv/TDSAST_IOT/Libraries/src/stm32f10x_gpio.c ****   assert_param(IS_GPIO_ALL_PERIPH(GPIOx));
 378:/home/virusv/TDSAST_IOT/Libraries/src/stm32f10x_gpio.c ****   assert_param(IS_GPIO_PIN(GPIO_Pin));
 379:/home/virusv/TDSAST_IOT/Libraries/src/stm32f10x_gpio.c ****   
 380:/home/virusv/TDSAST_IOT/Libraries/src/stm32f10x_gpio.c ****   GPIOx->BRR = GPIO_Pin;
 756              		.loc 1 380 0
 757 000c 7A88     		ldrh	r2, [r7, #2]
 758 000e 7B68     		ldr	r3, [r7, #4]
 759 0010 5A61     		str	r2, [r3, #20]
 381:/home/virusv/TDSAST_IOT/Libraries/src/stm32f10x_gpio.c **** }
 760              		.loc 1 381 0
 761 0012 0C37     		adds	r7, r7, #12
 762              		.cfi_def_cfa_offset 4
 763 0014 BD46     		mov	sp, r7
 764              		.cfi_def_cfa_register 13
 765              		@ sp needed
 766 0016 5DF8047B 		ldr	r7, [sp], #4
 767              		.cfi_restore 7
 768              		.cfi_def_cfa_offset 0
 769 001a 7047     		bx	lr
 770              		.cfi_endproc
 771              	.LFE38:
 773              		.section	.text.GPIO_WriteBit,"ax",%progbits
 774              		.align	2
 775              		.global	GPIO_WriteBit
 776              		.thumb
 777              		.thumb_func
 779              	GPIO_WriteBit:
 780              	.LFB39:
 382:/home/virusv/TDSAST_IOT/Libraries/src/stm32f10x_gpio.c **** 
 383:/home/virusv/TDSAST_IOT/Libraries/src/stm32f10x_gpio.c **** /**
 384:/home/virusv/TDSAST_IOT/Libraries/src/stm32f10x_gpio.c ****   * @brief  Sets or clears the selected data port bit.
 385:/home/virusv/TDSAST_IOT/Libraries/src/stm32f10x_gpio.c ****   * @param  GPIOx: where x can be (A..G) to select the GPIO peripheral.
 386:/home/virusv/TDSAST_IOT/Libraries/src/stm32f10x_gpio.c ****   * @param  GPIO_Pin: specifies the port bit to be written.
 387:/home/virusv/TDSAST_IOT/Libraries/src/stm32f10x_gpio.c ****   *   This parameter can be one of GPIO_Pin_x where x can be (0..15).
 388:/home/virusv/TDSAST_IOT/Libraries/src/stm32f10x_gpio.c ****   * @param  BitVal: specifies the value to be written to the selected bit.
 389:/home/virusv/TDSAST_IOT/Libraries/src/stm32f10x_gpio.c ****   *   This parameter can be one of the BitAction enum values:
 390:/home/virusv/TDSAST_IOT/Libraries/src/stm32f10x_gpio.c ****   *     @arg Bit_RESET: to clear the port pin
 391:/home/virusv/TDSAST_IOT/Libraries/src/stm32f10x_gpio.c ****   *     @arg Bit_SET: to set the port pin
 392:/home/virusv/TDSAST_IOT/Libraries/src/stm32f10x_gpio.c ****   * @retval None
 393:/home/virusv/TDSAST_IOT/Libraries/src/stm32f10x_gpio.c ****   */
 394:/home/virusv/TDSAST_IOT/Libraries/src/stm32f10x_gpio.c **** void GPIO_WriteBit(GPIO_TypeDef* GPIOx, uint16_t GPIO_Pin, BitAction BitVal)
 395:/home/virusv/TDSAST_IOT/Libraries/src/stm32f10x_gpio.c **** {
 781              		.loc 1 395 0
 782              		.cfi_startproc
 783              		@ args = 0, pretend = 0, frame = 8
 784              		@ frame_needed = 1, uses_anonymous_args = 0
 785              		@ link register save eliminated.
 786 0000 80B4     		push	{r7}
 787              		.cfi_def_cfa_offset 4
 788              		.cfi_offset 7, -4
 789 0002 83B0     		sub	sp, sp, #12
 790              		.cfi_def_cfa_offset 16
 791 0004 00AF     		add	r7, sp, #0
 792              		.cfi_def_cfa_register 7
 793 0006 7860     		str	r0, [r7, #4]
 794 0008 0B46     		mov	r3, r1
 795 000a 7B80     		strh	r3, [r7, #2]	@ movhi
 796 000c 1346     		mov	r3, r2
 797 000e 7B70     		strb	r3, [r7, #1]
 396:/home/virusv/TDSAST_IOT/Libraries/src/stm32f10x_gpio.c ****   /* Check the parameters */
 397:/home/virusv/TDSAST_IOT/Libraries/src/stm32f10x_gpio.c ****   assert_param(IS_GPIO_ALL_PERIPH(GPIOx));
 398:/home/virusv/TDSAST_IOT/Libraries/src/stm32f10x_gpio.c ****   assert_param(IS_GET_GPIO_PIN(GPIO_Pin));
 399:/home/virusv/TDSAST_IOT/Libraries/src/stm32f10x_gpio.c ****   assert_param(IS_GPIO_BIT_ACTION(BitVal)); 
 400:/home/virusv/TDSAST_IOT/Libraries/src/stm32f10x_gpio.c ****   
 401:/home/virusv/TDSAST_IOT/Libraries/src/stm32f10x_gpio.c ****   if (BitVal != Bit_RESET)
 798              		.loc 1 401 0
 799 0010 7B78     		ldrb	r3, [r7, #1]	@ zero_extendqisi2
 800 0012 002B     		cmp	r3, #0
 801 0014 03D0     		beq	.L40
 402:/home/virusv/TDSAST_IOT/Libraries/src/stm32f10x_gpio.c ****   {
 403:/home/virusv/TDSAST_IOT/Libraries/src/stm32f10x_gpio.c ****     GPIOx->BSRR = GPIO_Pin;
 802              		.loc 1 403 0
 803 0016 7A88     		ldrh	r2, [r7, #2]
 804 0018 7B68     		ldr	r3, [r7, #4]
 805 001a 1A61     		str	r2, [r3, #16]
 806 001c 02E0     		b	.L39
 807              	.L40:
 404:/home/virusv/TDSAST_IOT/Libraries/src/stm32f10x_gpio.c ****   }
 405:/home/virusv/TDSAST_IOT/Libraries/src/stm32f10x_gpio.c ****   else
 406:/home/virusv/TDSAST_IOT/Libraries/src/stm32f10x_gpio.c ****   {
 407:/home/virusv/TDSAST_IOT/Libraries/src/stm32f10x_gpio.c ****     GPIOx->BRR = GPIO_Pin;
 808              		.loc 1 407 0
 809 001e 7A88     		ldrh	r2, [r7, #2]
 810 0020 7B68     		ldr	r3, [r7, #4]
 811 0022 5A61     		str	r2, [r3, #20]
 812              	.L39:
 408:/home/virusv/TDSAST_IOT/Libraries/src/stm32f10x_gpio.c ****   }
 409:/home/virusv/TDSAST_IOT/Libraries/src/stm32f10x_gpio.c **** }
 813              		.loc 1 409 0
 814 0024 0C37     		adds	r7, r7, #12
 815              		.cfi_def_cfa_offset 4
 816 0026 BD46     		mov	sp, r7
 817              		.cfi_def_cfa_register 13
 818              		@ sp needed
 819 0028 5DF8047B 		ldr	r7, [sp], #4
 820              		.cfi_restore 7
 821              		.cfi_def_cfa_offset 0
 822 002c 7047     		bx	lr
 823              		.cfi_endproc
 824              	.LFE39:
 826 002e 00BF     		.section	.text.GPIO_Write,"ax",%progbits
 827              		.align	2
 828              		.global	GPIO_Write
 829              		.thumb
 830              		.thumb_func
 832              	GPIO_Write:
 833              	.LFB40:
 410:/home/virusv/TDSAST_IOT/Libraries/src/stm32f10x_gpio.c **** 
 411:/home/virusv/TDSAST_IOT/Libraries/src/stm32f10x_gpio.c **** /**
 412:/home/virusv/TDSAST_IOT/Libraries/src/stm32f10x_gpio.c ****   * @brief  Writes data to the specified GPIO data port.
 413:/home/virusv/TDSAST_IOT/Libraries/src/stm32f10x_gpio.c ****   * @param  GPIOx: where x can be (A..G) to select the GPIO peripheral.
 414:/home/virusv/TDSAST_IOT/Libraries/src/stm32f10x_gpio.c ****   * @param  PortVal: specifies the value to be written to the port output data register.
 415:/home/virusv/TDSAST_IOT/Libraries/src/stm32f10x_gpio.c ****   * @retval None
 416:/home/virusv/TDSAST_IOT/Libraries/src/stm32f10x_gpio.c ****   */
 417:/home/virusv/TDSAST_IOT/Libraries/src/stm32f10x_gpio.c **** void GPIO_Write(GPIO_TypeDef* GPIOx, uint16_t PortVal)
 418:/home/virusv/TDSAST_IOT/Libraries/src/stm32f10x_gpio.c **** {
 834              		.loc 1 418 0
 835              		.cfi_startproc
 836              		@ args = 0, pretend = 0, frame = 8
 837              		@ frame_needed = 1, uses_anonymous_args = 0
 838              		@ link register save eliminated.
 839 0000 80B4     		push	{r7}
 840              		.cfi_def_cfa_offset 4
 841              		.cfi_offset 7, -4
 842 0002 83B0     		sub	sp, sp, #12
 843              		.cfi_def_cfa_offset 16
 844 0004 00AF     		add	r7, sp, #0
 845              		.cfi_def_cfa_register 7
 846 0006 7860     		str	r0, [r7, #4]
 847 0008 0B46     		mov	r3, r1
 848 000a 7B80     		strh	r3, [r7, #2]	@ movhi
 419:/home/virusv/TDSAST_IOT/Libraries/src/stm32f10x_gpio.c ****   /* Check the parameters */
 420:/home/virusv/TDSAST_IOT/Libraries/src/stm32f10x_gpio.c ****   assert_param(IS_GPIO_ALL_PERIPH(GPIOx));
 421:/home/virusv/TDSAST_IOT/Libraries/src/stm32f10x_gpio.c ****   
 422:/home/virusv/TDSAST_IOT/Libraries/src/stm32f10x_gpio.c ****   GPIOx->ODR = PortVal;
 849              		.loc 1 422 0
 850 000c 7A88     		ldrh	r2, [r7, #2]
 851 000e 7B68     		ldr	r3, [r7, #4]
 852 0010 DA60     		str	r2, [r3, #12]
 423:/home/virusv/TDSAST_IOT/Libraries/src/stm32f10x_gpio.c **** }
 853              		.loc 1 423 0
 854 0012 0C37     		adds	r7, r7, #12
 855              		.cfi_def_cfa_offset 4
 856 0014 BD46     		mov	sp, r7
 857              		.cfi_def_cfa_register 13
 858              		@ sp needed
 859 0016 5DF8047B 		ldr	r7, [sp], #4
 860              		.cfi_restore 7
 861              		.cfi_def_cfa_offset 0
 862 001a 7047     		bx	lr
 863              		.cfi_endproc
 864              	.LFE40:
 866              		.section	.text.GPIO_PinLockConfig,"ax",%progbits
 867              		.align	2
 868              		.global	GPIO_PinLockConfig
 869              		.thumb
 870              		.thumb_func
 872              	GPIO_PinLockConfig:
 873              	.LFB41:
 424:/home/virusv/TDSAST_IOT/Libraries/src/stm32f10x_gpio.c **** 
 425:/home/virusv/TDSAST_IOT/Libraries/src/stm32f10x_gpio.c **** /**
 426:/home/virusv/TDSAST_IOT/Libraries/src/stm32f10x_gpio.c ****   * @brief  Locks GPIO Pins configuration registers.
 427:/home/virusv/TDSAST_IOT/Libraries/src/stm32f10x_gpio.c ****   * @param  GPIOx: where x can be (A..G) to select the GPIO peripheral.
 428:/home/virusv/TDSAST_IOT/Libraries/src/stm32f10x_gpio.c ****   * @param  GPIO_Pin: specifies the port bit to be written.
 429:/home/virusv/TDSAST_IOT/Libraries/src/stm32f10x_gpio.c ****   *   This parameter can be any combination of GPIO_Pin_x where x can be (0..15).
 430:/home/virusv/TDSAST_IOT/Libraries/src/stm32f10x_gpio.c ****   * @retval None
 431:/home/virusv/TDSAST_IOT/Libraries/src/stm32f10x_gpio.c ****   */
 432:/home/virusv/TDSAST_IOT/Libraries/src/stm32f10x_gpio.c **** void GPIO_PinLockConfig(GPIO_TypeDef* GPIOx, uint16_t GPIO_Pin)
 433:/home/virusv/TDSAST_IOT/Libraries/src/stm32f10x_gpio.c **** {
 874              		.loc 1 433 0
 875              		.cfi_startproc
 876              		@ args = 0, pretend = 0, frame = 16
 877              		@ frame_needed = 1, uses_anonymous_args = 0
 878              		@ link register save eliminated.
 879 0000 80B4     		push	{r7}
 880              		.cfi_def_cfa_offset 4
 881              		.cfi_offset 7, -4
 882 0002 85B0     		sub	sp, sp, #20
 883              		.cfi_def_cfa_offset 24
 884 0004 00AF     		add	r7, sp, #0
 885              		.cfi_def_cfa_register 7
 886 0006 7860     		str	r0, [r7, #4]
 887 0008 0B46     		mov	r3, r1
 888 000a 7B80     		strh	r3, [r7, #2]	@ movhi
 434:/home/virusv/TDSAST_IOT/Libraries/src/stm32f10x_gpio.c ****   uint32_t tmp = 0x00010000;
 889              		.loc 1 434 0
 890 000c 4FF48033 		mov	r3, #65536
 891 0010 FB60     		str	r3, [r7, #12]
 435:/home/virusv/TDSAST_IOT/Libraries/src/stm32f10x_gpio.c ****   
 436:/home/virusv/TDSAST_IOT/Libraries/src/stm32f10x_gpio.c ****   /* Check the parameters */
 437:/home/virusv/TDSAST_IOT/Libraries/src/stm32f10x_gpio.c ****   assert_param(IS_GPIO_ALL_PERIPH(GPIOx));
 438:/home/virusv/TDSAST_IOT/Libraries/src/stm32f10x_gpio.c ****   assert_param(IS_GPIO_PIN(GPIO_Pin));
 439:/home/virusv/TDSAST_IOT/Libraries/src/stm32f10x_gpio.c ****   
 440:/home/virusv/TDSAST_IOT/Libraries/src/stm32f10x_gpio.c ****   tmp |= GPIO_Pin;
 892              		.loc 1 440 0
 893 0012 7B88     		ldrh	r3, [r7, #2]
 894 0014 FA68     		ldr	r2, [r7, #12]
 895 0016 1343     		orrs	r3, r3, r2
 896 0018 FB60     		str	r3, [r7, #12]
 441:/home/virusv/TDSAST_IOT/Libraries/src/stm32f10x_gpio.c ****   /* Set LCKK bit */
 442:/home/virusv/TDSAST_IOT/Libraries/src/stm32f10x_gpio.c ****   GPIOx->LCKR = tmp;
 897              		.loc 1 442 0
 898 001a 7B68     		ldr	r3, [r7, #4]
 899 001c FA68     		ldr	r2, [r7, #12]
 900 001e 9A61     		str	r2, [r3, #24]
 443:/home/virusv/TDSAST_IOT/Libraries/src/stm32f10x_gpio.c ****   /* Reset LCKK bit */
 444:/home/virusv/TDSAST_IOT/Libraries/src/stm32f10x_gpio.c ****   GPIOx->LCKR =  GPIO_Pin;
 901              		.loc 1 444 0
 902 0020 7A88     		ldrh	r2, [r7, #2]
 903 0022 7B68     		ldr	r3, [r7, #4]
 904 0024 9A61     		str	r2, [r3, #24]
 445:/home/virusv/TDSAST_IOT/Libraries/src/stm32f10x_gpio.c ****   /* Set LCKK bit */
 446:/home/virusv/TDSAST_IOT/Libraries/src/stm32f10x_gpio.c ****   GPIOx->LCKR = tmp;
 905              		.loc 1 446 0
 906 0026 7B68     		ldr	r3, [r7, #4]
 907 0028 FA68     		ldr	r2, [r7, #12]
 908 002a 9A61     		str	r2, [r3, #24]
 447:/home/virusv/TDSAST_IOT/Libraries/src/stm32f10x_gpio.c ****   /* Read LCKK bit*/
 448:/home/virusv/TDSAST_IOT/Libraries/src/stm32f10x_gpio.c ****   tmp = GPIOx->LCKR;
 909              		.loc 1 448 0
 910 002c 7B68     		ldr	r3, [r7, #4]
 911 002e 9B69     		ldr	r3, [r3, #24]
 912 0030 FB60     		str	r3, [r7, #12]
 449:/home/virusv/TDSAST_IOT/Libraries/src/stm32f10x_gpio.c ****   /* Read LCKK bit*/
 450:/home/virusv/TDSAST_IOT/Libraries/src/stm32f10x_gpio.c ****   tmp = GPIOx->LCKR;
 913              		.loc 1 450 0
 914 0032 7B68     		ldr	r3, [r7, #4]
 915 0034 9B69     		ldr	r3, [r3, #24]
 916 0036 FB60     		str	r3, [r7, #12]
 451:/home/virusv/TDSAST_IOT/Libraries/src/stm32f10x_gpio.c **** }
 917              		.loc 1 451 0
 918 0038 1437     		adds	r7, r7, #20
 919              		.cfi_def_cfa_offset 4
 920 003a BD46     		mov	sp, r7
 921              		.cfi_def_cfa_register 13
 922              		@ sp needed
 923 003c 5DF8047B 		ldr	r7, [sp], #4
 924              		.cfi_restore 7
 925              		.cfi_def_cfa_offset 0
 926 0040 7047     		bx	lr
 927              		.cfi_endproc
 928              	.LFE41:
 930 0042 00BF     		.section	.text.GPIO_EventOutputConfig,"ax",%progbits
 931              		.align	2
 932              		.global	GPIO_EventOutputConfig
 933              		.thumb
 934              		.thumb_func
 936              	GPIO_EventOutputConfig:
 937              	.LFB42:
 452:/home/virusv/TDSAST_IOT/Libraries/src/stm32f10x_gpio.c **** 
 453:/home/virusv/TDSAST_IOT/Libraries/src/stm32f10x_gpio.c **** /**
 454:/home/virusv/TDSAST_IOT/Libraries/src/stm32f10x_gpio.c ****   * @brief  Selects the GPIO pin used as Event output.
 455:/home/virusv/TDSAST_IOT/Libraries/src/stm32f10x_gpio.c ****   * @param  GPIO_PortSource: selects the GPIO port to be used as source
 456:/home/virusv/TDSAST_IOT/Libraries/src/stm32f10x_gpio.c ****   *   for Event output.
 457:/home/virusv/TDSAST_IOT/Libraries/src/stm32f10x_gpio.c ****   *   This parameter can be GPIO_PortSourceGPIOx where x can be (A..E).
 458:/home/virusv/TDSAST_IOT/Libraries/src/stm32f10x_gpio.c ****   * @param  GPIO_PinSource: specifies the pin for the Event output.
 459:/home/virusv/TDSAST_IOT/Libraries/src/stm32f10x_gpio.c ****   *   This parameter can be GPIO_PinSourcex where x can be (0..15).
 460:/home/virusv/TDSAST_IOT/Libraries/src/stm32f10x_gpio.c ****   * @retval None
 461:/home/virusv/TDSAST_IOT/Libraries/src/stm32f10x_gpio.c ****   */
 462:/home/virusv/TDSAST_IOT/Libraries/src/stm32f10x_gpio.c **** void GPIO_EventOutputConfig(uint8_t GPIO_PortSource, uint8_t GPIO_PinSource)
 463:/home/virusv/TDSAST_IOT/Libraries/src/stm32f10x_gpio.c **** {
 938              		.loc 1 463 0
 939              		.cfi_startproc
 940              		@ args = 0, pretend = 0, frame = 16
 941              		@ frame_needed = 1, uses_anonymous_args = 0
 942              		@ link register save eliminated.
 943 0000 80B4     		push	{r7}
 944              		.cfi_def_cfa_offset 4
 945              		.cfi_offset 7, -4
 946 0002 85B0     		sub	sp, sp, #20
 947              		.cfi_def_cfa_offset 24
 948 0004 00AF     		add	r7, sp, #0
 949              		.cfi_def_cfa_register 7
 950 0006 0346     		mov	r3, r0
 951 0008 0A46     		mov	r2, r1
 952 000a FB71     		strb	r3, [r7, #7]
 953 000c 1346     		mov	r3, r2
 954 000e BB71     		strb	r3, [r7, #6]
 464:/home/virusv/TDSAST_IOT/Libraries/src/stm32f10x_gpio.c ****   uint32_t tmpreg = 0x00;
 955              		.loc 1 464 0
 956 0010 0023     		movs	r3, #0
 957 0012 FB60     		str	r3, [r7, #12]
 465:/home/virusv/TDSAST_IOT/Libraries/src/stm32f10x_gpio.c ****   /* Check the parameters */
 466:/home/virusv/TDSAST_IOT/Libraries/src/stm32f10x_gpio.c ****   assert_param(IS_GPIO_EVENTOUT_PORT_SOURCE(GPIO_PortSource));
 467:/home/virusv/TDSAST_IOT/Libraries/src/stm32f10x_gpio.c ****   assert_param(IS_GPIO_PIN_SOURCE(GPIO_PinSource));
 468:/home/virusv/TDSAST_IOT/Libraries/src/stm32f10x_gpio.c ****     
 469:/home/virusv/TDSAST_IOT/Libraries/src/stm32f10x_gpio.c ****   tmpreg = AFIO->EVCR;
 958              		.loc 1 469 0
 959 0014 0C4B     		ldr	r3, .L45
 960 0016 1B68     		ldr	r3, [r3]
 961 0018 FB60     		str	r3, [r7, #12]
 470:/home/virusv/TDSAST_IOT/Libraries/src/stm32f10x_gpio.c ****   /* Clear the PORT[6:4] and PIN[3:0] bits */
 471:/home/virusv/TDSAST_IOT/Libraries/src/stm32f10x_gpio.c ****   tmpreg &= EVCR_PORTPINCONFIG_MASK;
 962              		.loc 1 471 0
 963 001a FA68     		ldr	r2, [r7, #12]
 964 001c 4FF68073 		movw	r3, #65408
 965 0020 1340     		ands	r3, r3, r2
 966 0022 FB60     		str	r3, [r7, #12]
 472:/home/virusv/TDSAST_IOT/Libraries/src/stm32f10x_gpio.c ****   tmpreg |= (uint32_t)GPIO_PortSource << 0x04;
 967              		.loc 1 472 0
 968 0024 FB79     		ldrb	r3, [r7, #7]	@ zero_extendqisi2
 969 0026 1B01     		lsls	r3, r3, #4
 970 0028 FA68     		ldr	r2, [r7, #12]
 971 002a 1343     		orrs	r3, r3, r2
 972 002c FB60     		str	r3, [r7, #12]
 473:/home/virusv/TDSAST_IOT/Libraries/src/stm32f10x_gpio.c ****   tmpreg |= GPIO_PinSource;
 973              		.loc 1 473 0
 974 002e BB79     		ldrb	r3, [r7, #6]	@ zero_extendqisi2
 975 0030 FA68     		ldr	r2, [r7, #12]
 976 0032 1343     		orrs	r3, r3, r2
 977 0034 FB60     		str	r3, [r7, #12]
 474:/home/virusv/TDSAST_IOT/Libraries/src/stm32f10x_gpio.c ****   AFIO->EVCR = tmpreg;
 978              		.loc 1 474 0
 979 0036 044A     		ldr	r2, .L45
 980 0038 FB68     		ldr	r3, [r7, #12]
 981 003a 1360     		str	r3, [r2]
 475:/home/virusv/TDSAST_IOT/Libraries/src/stm32f10x_gpio.c **** }
 982              		.loc 1 475 0
 983 003c 1437     		adds	r7, r7, #20
 984              		.cfi_def_cfa_offset 4
 985 003e BD46     		mov	sp, r7
 986              		.cfi_def_cfa_register 13
 987              		@ sp needed
 988 0040 5DF8047B 		ldr	r7, [sp], #4
 989              		.cfi_restore 7
 990              		.cfi_def_cfa_offset 0
 991 0044 7047     		bx	lr
 992              	.L46:
 993 0046 00BF     		.align	2
 994              	.L45:
 995 0048 00000140 		.word	1073807360
 996              		.cfi_endproc
 997              	.LFE42:
 999              		.section	.text.GPIO_EventOutputCmd,"ax",%progbits
 1000              		.align	2
 1001              		.global	GPIO_EventOutputCmd
 1002              		.thumb
 1003              		.thumb_func
 1005              	GPIO_EventOutputCmd:
 1006              	.LFB43:
 476:/home/virusv/TDSAST_IOT/Libraries/src/stm32f10x_gpio.c **** 
 477:/home/virusv/TDSAST_IOT/Libraries/src/stm32f10x_gpio.c **** /**
 478:/home/virusv/TDSAST_IOT/Libraries/src/stm32f10x_gpio.c ****   * @brief  Enables or disables the Event Output.
 479:/home/virusv/TDSAST_IOT/Libraries/src/stm32f10x_gpio.c ****   * @param  NewState: new state of the Event output.
 480:/home/virusv/TDSAST_IOT/Libraries/src/stm32f10x_gpio.c ****   *   This parameter can be: ENABLE or DISABLE.
 481:/home/virusv/TDSAST_IOT/Libraries/src/stm32f10x_gpio.c ****   * @retval None
 482:/home/virusv/TDSAST_IOT/Libraries/src/stm32f10x_gpio.c ****   */
 483:/home/virusv/TDSAST_IOT/Libraries/src/stm32f10x_gpio.c **** void GPIO_EventOutputCmd(FunctionalState NewState)
 484:/home/virusv/TDSAST_IOT/Libraries/src/stm32f10x_gpio.c **** {
 1007              		.loc 1 484 0
 1008              		.cfi_startproc
 1009              		@ args = 0, pretend = 0, frame = 8
 1010              		@ frame_needed = 1, uses_anonymous_args = 0
 1011              		@ link register save eliminated.
 1012 0000 80B4     		push	{r7}
 1013              		.cfi_def_cfa_offset 4
 1014              		.cfi_offset 7, -4
 1015 0002 83B0     		sub	sp, sp, #12
 1016              		.cfi_def_cfa_offset 16
 1017 0004 00AF     		add	r7, sp, #0
 1018              		.cfi_def_cfa_register 7
 1019 0006 0346     		mov	r3, r0
 1020 0008 FB71     		strb	r3, [r7, #7]
 485:/home/virusv/TDSAST_IOT/Libraries/src/stm32f10x_gpio.c ****   /* Check the parameters */
 486:/home/virusv/TDSAST_IOT/Libraries/src/stm32f10x_gpio.c ****   assert_param(IS_FUNCTIONAL_STATE(NewState));
 487:/home/virusv/TDSAST_IOT/Libraries/src/stm32f10x_gpio.c ****   
 488:/home/virusv/TDSAST_IOT/Libraries/src/stm32f10x_gpio.c ****   *(__IO uint32_t *) EVCR_EVOE_BB = (uint32_t)NewState;
 1021              		.loc 1 488 0
 1022 000a 044A     		ldr	r2, .L48
 1023 000c FB79     		ldrb	r3, [r7, #7]	@ zero_extendqisi2
 1024 000e 1360     		str	r3, [r2]
 489:/home/virusv/TDSAST_IOT/Libraries/src/stm32f10x_gpio.c **** }
 1025              		.loc 1 489 0
 1026 0010 0C37     		adds	r7, r7, #12
 1027              		.cfi_def_cfa_offset 4
 1028 0012 BD46     		mov	sp, r7
 1029              		.cfi_def_cfa_register 13
 1030              		@ sp needed
 1031 0014 5DF8047B 		ldr	r7, [sp], #4
 1032              		.cfi_restore 7
 1033              		.cfi_def_cfa_offset 0
 1034 0018 7047     		bx	lr
 1035              	.L49:
 1036 001a 00BF     		.align	2
 1037              	.L48:
 1038 001c 1C002042 		.word	1109393436
 1039              		.cfi_endproc
 1040              	.LFE43:
 1042              		.section	.text.GPIO_PinRemapConfig,"ax",%progbits
 1043              		.align	2
 1044              		.global	GPIO_PinRemapConfig
 1045              		.thumb
 1046              		.thumb_func
 1048              	GPIO_PinRemapConfig:
 1049              	.LFB44:
 490:/home/virusv/TDSAST_IOT/Libraries/src/stm32f10x_gpio.c **** 
 491:/home/virusv/TDSAST_IOT/Libraries/src/stm32f10x_gpio.c **** /**
 492:/home/virusv/TDSAST_IOT/Libraries/src/stm32f10x_gpio.c ****   * @brief  Changes the mapping of the specified pin.
 493:/home/virusv/TDSAST_IOT/Libraries/src/stm32f10x_gpio.c ****   * @param  GPIO_Remap: selects the pin to remap.
 494:/home/virusv/TDSAST_IOT/Libraries/src/stm32f10x_gpio.c ****   *   This parameter can be one of the following values:
 495:/home/virusv/TDSAST_IOT/Libraries/src/stm32f10x_gpio.c ****   *     @arg GPIO_Remap_SPI1             : SPI1 Alternate Function mapping
 496:/home/virusv/TDSAST_IOT/Libraries/src/stm32f10x_gpio.c ****   *     @arg GPIO_Remap_I2C1             : I2C1 Alternate Function mapping
 497:/home/virusv/TDSAST_IOT/Libraries/src/stm32f10x_gpio.c ****   *     @arg GPIO_Remap_USART1           : USART1 Alternate Function mapping
 498:/home/virusv/TDSAST_IOT/Libraries/src/stm32f10x_gpio.c ****   *     @arg GPIO_Remap_USART2           : USART2 Alternate Function mapping
 499:/home/virusv/TDSAST_IOT/Libraries/src/stm32f10x_gpio.c ****   *     @arg GPIO_PartialRemap_USART3    : USART3 Partial Alternate Function mapping
 500:/home/virusv/TDSAST_IOT/Libraries/src/stm32f10x_gpio.c ****   *     @arg GPIO_FullRemap_USART3       : USART3 Full Alternate Function mapping
 501:/home/virusv/TDSAST_IOT/Libraries/src/stm32f10x_gpio.c ****   *     @arg GPIO_PartialRemap_TIM1      : TIM1 Partial Alternate Function mapping
 502:/home/virusv/TDSAST_IOT/Libraries/src/stm32f10x_gpio.c ****   *     @arg GPIO_FullRemap_TIM1         : TIM1 Full Alternate Function mapping
 503:/home/virusv/TDSAST_IOT/Libraries/src/stm32f10x_gpio.c ****   *     @arg GPIO_PartialRemap1_TIM2     : TIM2 Partial1 Alternate Function mapping
 504:/home/virusv/TDSAST_IOT/Libraries/src/stm32f10x_gpio.c ****   *     @arg GPIO_PartialRemap2_TIM2     : TIM2 Partial2 Alternate Function mapping
 505:/home/virusv/TDSAST_IOT/Libraries/src/stm32f10x_gpio.c ****   *     @arg GPIO_FullRemap_TIM2         : TIM2 Full Alternate Function mapping
 506:/home/virusv/TDSAST_IOT/Libraries/src/stm32f10x_gpio.c ****   *     @arg GPIO_PartialRemap_TIM3      : TIM3 Partial Alternate Function mapping
 507:/home/virusv/TDSAST_IOT/Libraries/src/stm32f10x_gpio.c ****   *     @arg GPIO_FullRemap_TIM3         : TIM3 Full Alternate Function mapping
 508:/home/virusv/TDSAST_IOT/Libraries/src/stm32f10x_gpio.c ****   *     @arg GPIO_Remap_TIM4             : TIM4 Alternate Function mapping
 509:/home/virusv/TDSAST_IOT/Libraries/src/stm32f10x_gpio.c ****   *     @arg GPIO_Remap1_CAN1            : CAN1 Alternate Function mapping
 510:/home/virusv/TDSAST_IOT/Libraries/src/stm32f10x_gpio.c ****   *     @arg GPIO_Remap2_CAN1            : CAN1 Alternate Function mapping
 511:/home/virusv/TDSAST_IOT/Libraries/src/stm32f10x_gpio.c ****   *     @arg GPIO_Remap_PD01             : PD01 Alternate Function mapping
 512:/home/virusv/TDSAST_IOT/Libraries/src/stm32f10x_gpio.c ****   *     @arg GPIO_Remap_TIM5CH4_LSI      : LSI connected to TIM5 Channel4 input capture for calibra
 513:/home/virusv/TDSAST_IOT/Libraries/src/stm32f10x_gpio.c ****   *     @arg GPIO_Remap_ADC1_ETRGINJ     : ADC1 External Trigger Injected Conversion remapping
 514:/home/virusv/TDSAST_IOT/Libraries/src/stm32f10x_gpio.c ****   *     @arg GPIO_Remap_ADC1_ETRGREG     : ADC1 External Trigger Regular Conversion remapping
 515:/home/virusv/TDSAST_IOT/Libraries/src/stm32f10x_gpio.c ****   *     @arg GPIO_Remap_ADC2_ETRGINJ     : ADC2 External Trigger Injected Conversion remapping
 516:/home/virusv/TDSAST_IOT/Libraries/src/stm32f10x_gpio.c ****   *     @arg GPIO_Remap_ADC2_ETRGREG     : ADC2 External Trigger Regular Conversion remapping
 517:/home/virusv/TDSAST_IOT/Libraries/src/stm32f10x_gpio.c ****   *     @arg GPIO_Remap_ETH              : Ethernet remapping (only for Connectivity line devices)
 518:/home/virusv/TDSAST_IOT/Libraries/src/stm32f10x_gpio.c ****   *     @arg GPIO_Remap_CAN2             : CAN2 remapping (only for Connectivity line devices)
 519:/home/virusv/TDSAST_IOT/Libraries/src/stm32f10x_gpio.c ****   *     @arg GPIO_Remap_SWJ_NoJTRST      : Full SWJ Enabled (JTAG-DP + SW-DP) but without JTRST
 520:/home/virusv/TDSAST_IOT/Libraries/src/stm32f10x_gpio.c ****   *     @arg GPIO_Remap_SWJ_JTAGDisable  : JTAG-DP Disabled and SW-DP Enabled
 521:/home/virusv/TDSAST_IOT/Libraries/src/stm32f10x_gpio.c ****   *     @arg GPIO_Remap_SWJ_Disable      : Full SWJ Disabled (JTAG-DP + SW-DP)
 522:/home/virusv/TDSAST_IOT/Libraries/src/stm32f10x_gpio.c ****   *     @arg GPIO_Remap_SPI3             : SPI3/I2S3 Alternate Function mapping (only for Connectiv
 523:/home/virusv/TDSAST_IOT/Libraries/src/stm32f10x_gpio.c ****   *                                        When the SPI3/I2S3 is remapped using this function, the 
 524:/home/virusv/TDSAST_IOT/Libraries/src/stm32f10x_gpio.c ****   *                                        to Full SWJ Enabled (JTAG-DP + SW-DP) but without JTRST.
 525:/home/virusv/TDSAST_IOT/Libraries/src/stm32f10x_gpio.c ****   *     @arg GPIO_Remap_TIM2ITR1_PTP_SOF : Ethernet PTP output or USB OTG SOF (Start of Frame) conn
 526:/home/virusv/TDSAST_IOT/Libraries/src/stm32f10x_gpio.c ****   *                                        to TIM2 Internal Trigger 1 for calibration (only for Con
 527:/home/virusv/TDSAST_IOT/Libraries/src/stm32f10x_gpio.c ****   *                                        If the GPIO_Remap_TIM2ITR1_PTP_SOF is enabled the TIM2 I
 528:/home/virusv/TDSAST_IOT/Libraries/src/stm32f10x_gpio.c ****   *                                        Ethernet PTP output. When Reset TIM2 ITR1 is connected t
 529:/home/virusv/TDSAST_IOT/Libraries/src/stm32f10x_gpio.c ****   *     @arg GPIO_Remap_PTP_PPS          : Ethernet MAC PPS_PTS output on PB05 (only for Connectivi
 530:/home/virusv/TDSAST_IOT/Libraries/src/stm32f10x_gpio.c ****   *     @arg GPIO_Remap_TIM15            : TIM15 Alternate Function mapping (only for Value line de
 531:/home/virusv/TDSAST_IOT/Libraries/src/stm32f10x_gpio.c ****   *     @arg GPIO_Remap_TIM16            : TIM16 Alternate Function mapping (only for Value line de
 532:/home/virusv/TDSAST_IOT/Libraries/src/stm32f10x_gpio.c ****   *     @arg GPIO_Remap_TIM17            : TIM17 Alternate Function mapping (only for Value line de
 533:/home/virusv/TDSAST_IOT/Libraries/src/stm32f10x_gpio.c ****   *     @arg GPIO_Remap_CEC              : CEC Alternate Function mapping (only for Value line devi
 534:/home/virusv/TDSAST_IOT/Libraries/src/stm32f10x_gpio.c ****   *     @arg GPIO_Remap_TIM1_DMA         : TIM1 DMA requests mapping (only for Value line devices)
 535:/home/virusv/TDSAST_IOT/Libraries/src/stm32f10x_gpio.c ****   *     @arg GPIO_Remap_TIM9             : TIM9 Alternate Function mapping (only for XL-density dev
 536:/home/virusv/TDSAST_IOT/Libraries/src/stm32f10x_gpio.c ****   *     @arg GPIO_Remap_TIM10            : TIM10 Alternate Function mapping (only for XL-density de
 537:/home/virusv/TDSAST_IOT/Libraries/src/stm32f10x_gpio.c ****   *     @arg GPIO_Remap_TIM11            : TIM11 Alternate Function mapping (only for XL-density de
 538:/home/virusv/TDSAST_IOT/Libraries/src/stm32f10x_gpio.c ****   *     @arg GPIO_Remap_TIM13            : TIM13 Alternate Function mapping (only for High density 
 539:/home/virusv/TDSAST_IOT/Libraries/src/stm32f10x_gpio.c ****   *     @arg GPIO_Remap_TIM14            : TIM14 Alternate Function mapping (only for High density 
 540:/home/virusv/TDSAST_IOT/Libraries/src/stm32f10x_gpio.c ****   *     @arg GPIO_Remap_FSMC_NADV        : FSMC_NADV Alternate Function mapping (only for High dens
 541:/home/virusv/TDSAST_IOT/Libraries/src/stm32f10x_gpio.c ****   *     @arg GPIO_Remap_TIM67_DAC_DMA    : TIM6/TIM7 and DAC DMA requests remapping (only for High 
 542:/home/virusv/TDSAST_IOT/Libraries/src/stm32f10x_gpio.c ****   *     @arg GPIO_Remap_TIM12            : TIM12 Alternate Function mapping (only for High density 
 543:/home/virusv/TDSAST_IOT/Libraries/src/stm32f10x_gpio.c ****   *     @arg GPIO_Remap_MISC             : Miscellaneous Remap (DMA2 Channel5 Position and DAC Trig
 544:/home/virusv/TDSAST_IOT/Libraries/src/stm32f10x_gpio.c ****   *                                        only for High density Value line devices)     
 545:/home/virusv/TDSAST_IOT/Libraries/src/stm32f10x_gpio.c ****   * @param  NewState: new state of the port pin remapping.
 546:/home/virusv/TDSAST_IOT/Libraries/src/stm32f10x_gpio.c ****   *   This parameter can be: ENABLE or DISABLE.
 547:/home/virusv/TDSAST_IOT/Libraries/src/stm32f10x_gpio.c ****   * @retval None
 548:/home/virusv/TDSAST_IOT/Libraries/src/stm32f10x_gpio.c ****   */
 549:/home/virusv/TDSAST_IOT/Libraries/src/stm32f10x_gpio.c **** void GPIO_PinRemapConfig(uint32_t GPIO_Remap, FunctionalState NewState)
 550:/home/virusv/TDSAST_IOT/Libraries/src/stm32f10x_gpio.c **** {
 1050              		.loc 1 550 0
 1051              		.cfi_startproc
 1052              		@ args = 0, pretend = 0, frame = 24
 1053              		@ frame_needed = 1, uses_anonymous_args = 0
 1054              		@ link register save eliminated.
 1055 0000 80B4     		push	{r7}
 1056              		.cfi_def_cfa_offset 4
 1057              		.cfi_offset 7, -4
 1058 0002 87B0     		sub	sp, sp, #28
 1059              		.cfi_def_cfa_offset 32
 1060 0004 00AF     		add	r7, sp, #0
 1061              		.cfi_def_cfa_register 7
 1062 0006 7860     		str	r0, [r7, #4]
 1063 0008 0B46     		mov	r3, r1
 1064 000a FB70     		strb	r3, [r7, #3]
 551:/home/virusv/TDSAST_IOT/Libraries/src/stm32f10x_gpio.c ****   uint32_t tmp = 0x00, tmp1 = 0x00, tmpreg = 0x00, tmpmask = 0x00;
 1065              		.loc 1 551 0
 1066 000c 0023     		movs	r3, #0
 1067 000e 3B61     		str	r3, [r7, #16]
 1068 0010 0023     		movs	r3, #0
 1069 0012 FB60     		str	r3, [r7, #12]
 1070 0014 0023     		movs	r3, #0
 1071 0016 7B61     		str	r3, [r7, #20]
 1072 0018 0023     		movs	r3, #0
 1073 001a BB60     		str	r3, [r7, #8]
 552:/home/virusv/TDSAST_IOT/Libraries/src/stm32f10x_gpio.c **** 
 553:/home/virusv/TDSAST_IOT/Libraries/src/stm32f10x_gpio.c ****   /* Check the parameters */
 554:/home/virusv/TDSAST_IOT/Libraries/src/stm32f10x_gpio.c ****   assert_param(IS_GPIO_REMAP(GPIO_Remap));
 555:/home/virusv/TDSAST_IOT/Libraries/src/stm32f10x_gpio.c ****   assert_param(IS_FUNCTIONAL_STATE(NewState));  
 556:/home/virusv/TDSAST_IOT/Libraries/src/stm32f10x_gpio.c ****   
 557:/home/virusv/TDSAST_IOT/Libraries/src/stm32f10x_gpio.c ****   if((GPIO_Remap & 0x80000000) == 0x80000000)
 1074              		.loc 1 557 0
 1075 001c 7B68     		ldr	r3, [r7, #4]
 1076 001e 002B     		cmp	r3, #0
 1077 0020 03DA     		bge	.L51
 558:/home/virusv/TDSAST_IOT/Libraries/src/stm32f10x_gpio.c ****   {
 559:/home/virusv/TDSAST_IOT/Libraries/src/stm32f10x_gpio.c ****     tmpreg = AFIO->MAPR2;
 1078              		.loc 1 559 0
 1079 0022 2E4B     		ldr	r3, .L59
 1080 0024 DB69     		ldr	r3, [r3, #28]
 1081 0026 7B61     		str	r3, [r7, #20]
 1082 0028 02E0     		b	.L52
 1083              	.L51:
 560:/home/virusv/TDSAST_IOT/Libraries/src/stm32f10x_gpio.c ****   }
 561:/home/virusv/TDSAST_IOT/Libraries/src/stm32f10x_gpio.c ****   else
 562:/home/virusv/TDSAST_IOT/Libraries/src/stm32f10x_gpio.c ****   {
 563:/home/virusv/TDSAST_IOT/Libraries/src/stm32f10x_gpio.c ****     tmpreg = AFIO->MAPR;
 1084              		.loc 1 563 0
 1085 002a 2C4B     		ldr	r3, .L59
 1086 002c 5B68     		ldr	r3, [r3, #4]
 1087 002e 7B61     		str	r3, [r7, #20]
 1088              	.L52:
 564:/home/virusv/TDSAST_IOT/Libraries/src/stm32f10x_gpio.c ****   }
 565:/home/virusv/TDSAST_IOT/Libraries/src/stm32f10x_gpio.c **** 
 566:/home/virusv/TDSAST_IOT/Libraries/src/stm32f10x_gpio.c ****   tmpmask = (GPIO_Remap & DBGAFR_POSITION_MASK) >> 0x10;
 1089              		.loc 1 566 0
 1090 0030 7B68     		ldr	r3, [r7, #4]
 1091 0032 03F47023 		and	r3, r3, #983040
 1092 0036 1B0C     		lsrs	r3, r3, #16
 1093 0038 BB60     		str	r3, [r7, #8]
 567:/home/virusv/TDSAST_IOT/Libraries/src/stm32f10x_gpio.c ****   tmp = GPIO_Remap & LSB_MASK;
 1094              		.loc 1 567 0
 1095 003a 7B68     		ldr	r3, [r7, #4]
 1096 003c 9BB2     		uxth	r3, r3
 1097 003e 3B61     		str	r3, [r7, #16]
 568:/home/virusv/TDSAST_IOT/Libraries/src/stm32f10x_gpio.c **** 
 569:/home/virusv/TDSAST_IOT/Libraries/src/stm32f10x_gpio.c ****   if ((GPIO_Remap & (DBGAFR_LOCATION_MASK | DBGAFR_NUMBITS_MASK)) == (DBGAFR_LOCATION_MASK | DBGAFR
 1098              		.loc 1 569 0
 1099 0040 7B68     		ldr	r3, [r7, #4]
 1100 0042 03F44013 		and	r3, r3, #3145728
 1101 0046 B3F5401F 		cmp	r3, #3145728
 1102 004a 0AD1     		bne	.L53
 570:/home/virusv/TDSAST_IOT/Libraries/src/stm32f10x_gpio.c ****   {
 571:/home/virusv/TDSAST_IOT/Libraries/src/stm32f10x_gpio.c ****     tmpreg &= DBGAFR_SWJCFG_MASK;
 1103              		.loc 1 571 0
 1104 004c 7B69     		ldr	r3, [r7, #20]
 1105 004e 23F07063 		bic	r3, r3, #251658240
 1106 0052 7B61     		str	r3, [r7, #20]
 572:/home/virusv/TDSAST_IOT/Libraries/src/stm32f10x_gpio.c ****     AFIO->MAPR &= DBGAFR_SWJCFG_MASK;
 1107              		.loc 1 572 0
 1108 0054 214A     		ldr	r2, .L59
 1109 0056 214B     		ldr	r3, .L59
 1110 0058 5B68     		ldr	r3, [r3, #4]
 1111 005a 23F07063 		bic	r3, r3, #251658240
 1112 005e 5360     		str	r3, [r2, #4]
 1113 0060 21E0     		b	.L54
 1114              	.L53:
 573:/home/virusv/TDSAST_IOT/Libraries/src/stm32f10x_gpio.c ****   }
 574:/home/virusv/TDSAST_IOT/Libraries/src/stm32f10x_gpio.c ****   else if ((GPIO_Remap & DBGAFR_NUMBITS_MASK) == DBGAFR_NUMBITS_MASK)
 1115              		.loc 1 574 0
 1116 0062 7B68     		ldr	r3, [r7, #4]
 1117 0064 03F48013 		and	r3, r3, #1048576
 1118 0068 002B     		cmp	r3, #0
 1119 006a 0ED0     		beq	.L55
 575:/home/virusv/TDSAST_IOT/Libraries/src/stm32f10x_gpio.c ****   {
 576:/home/virusv/TDSAST_IOT/Libraries/src/stm32f10x_gpio.c ****     tmp1 = ((uint32_t)0x03) << tmpmask;
 1120              		.loc 1 576 0
 1121 006c BB68     		ldr	r3, [r7, #8]
 1122 006e 0322     		movs	r2, #3
 1123 0070 02FA03F3 		lsl	r3, r2, r3
 1124 0074 FB60     		str	r3, [r7, #12]
 577:/home/virusv/TDSAST_IOT/Libraries/src/stm32f10x_gpio.c ****     tmpreg &= ~tmp1;
 1125              		.loc 1 577 0
 1126 0076 FB68     		ldr	r3, [r7, #12]
 1127 0078 DB43     		mvns	r3, r3
 1128 007a 7A69     		ldr	r2, [r7, #20]
 1129 007c 1340     		ands	r3, r3, r2
 1130 007e 7B61     		str	r3, [r7, #20]
 578:/home/virusv/TDSAST_IOT/Libraries/src/stm32f10x_gpio.c ****     tmpreg |= ~DBGAFR_SWJCFG_MASK;
 1131              		.loc 1 578 0
 1132 0080 7B69     		ldr	r3, [r7, #20]
 1133 0082 43F07063 		orr	r3, r3, #251658240
 1134 0086 7B61     		str	r3, [r7, #20]
 1135 0088 0DE0     		b	.L54
 1136              	.L55:
 579:/home/virusv/TDSAST_IOT/Libraries/src/stm32f10x_gpio.c ****   }
 580:/home/virusv/TDSAST_IOT/Libraries/src/stm32f10x_gpio.c ****   else
 581:/home/virusv/TDSAST_IOT/Libraries/src/stm32f10x_gpio.c ****   {
 582:/home/virusv/TDSAST_IOT/Libraries/src/stm32f10x_gpio.c ****     tmpreg &= ~(tmp << ((GPIO_Remap >> 0x15)*0x10));
 1137              		.loc 1 582 0
 1138 008a 7B68     		ldr	r3, [r7, #4]
 1139 008c 5B0D     		lsrs	r3, r3, #21
 1140 008e 1B01     		lsls	r3, r3, #4
 1141 0090 1A46     		mov	r2, r3
 1142 0092 3B69     		ldr	r3, [r7, #16]
 1143 0094 9340     		lsls	r3, r3, r2
 1144 0096 DB43     		mvns	r3, r3
 1145 0098 7A69     		ldr	r2, [r7, #20]
 1146 009a 1340     		ands	r3, r3, r2
 1147 009c 7B61     		str	r3, [r7, #20]
 583:/home/virusv/TDSAST_IOT/Libraries/src/stm32f10x_gpio.c ****     tmpreg |= ~DBGAFR_SWJCFG_MASK;
 1148              		.loc 1 583 0
 1149 009e 7B69     		ldr	r3, [r7, #20]
 1150 00a0 43F07063 		orr	r3, r3, #251658240
 1151 00a4 7B61     		str	r3, [r7, #20]
 1152              	.L54:
 584:/home/virusv/TDSAST_IOT/Libraries/src/stm32f10x_gpio.c ****   }
 585:/home/virusv/TDSAST_IOT/Libraries/src/stm32f10x_gpio.c **** 
 586:/home/virusv/TDSAST_IOT/Libraries/src/stm32f10x_gpio.c ****   if (NewState != DISABLE)
 1153              		.loc 1 586 0
 1154 00a6 FB78     		ldrb	r3, [r7, #3]	@ zero_extendqisi2
 1155 00a8 002B     		cmp	r3, #0
 1156 00aa 08D0     		beq	.L56
 587:/home/virusv/TDSAST_IOT/Libraries/src/stm32f10x_gpio.c ****   {
 588:/home/virusv/TDSAST_IOT/Libraries/src/stm32f10x_gpio.c ****     tmpreg |= (tmp << ((GPIO_Remap >> 0x15)*0x10));
 1157              		.loc 1 588 0
 1158 00ac 7B68     		ldr	r3, [r7, #4]
 1159 00ae 5B0D     		lsrs	r3, r3, #21
 1160 00b0 1B01     		lsls	r3, r3, #4
 1161 00b2 1A46     		mov	r2, r3
 1162 00b4 3B69     		ldr	r3, [r7, #16]
 1163 00b6 9340     		lsls	r3, r3, r2
 1164 00b8 7A69     		ldr	r2, [r7, #20]
 1165 00ba 1343     		orrs	r3, r3, r2
 1166 00bc 7B61     		str	r3, [r7, #20]
 1167              	.L56:
 589:/home/virusv/TDSAST_IOT/Libraries/src/stm32f10x_gpio.c ****   }
 590:/home/virusv/TDSAST_IOT/Libraries/src/stm32f10x_gpio.c **** 
 591:/home/virusv/TDSAST_IOT/Libraries/src/stm32f10x_gpio.c ****   if((GPIO_Remap & 0x80000000) == 0x80000000)
 1168              		.loc 1 591 0
 1169 00be 7B68     		ldr	r3, [r7, #4]
 1170 00c0 002B     		cmp	r3, #0
 1171 00c2 03DA     		bge	.L57
 592:/home/virusv/TDSAST_IOT/Libraries/src/stm32f10x_gpio.c ****   {
 593:/home/virusv/TDSAST_IOT/Libraries/src/stm32f10x_gpio.c ****     AFIO->MAPR2 = tmpreg;
 1172              		.loc 1 593 0
 1173 00c4 054A     		ldr	r2, .L59
 1174 00c6 7B69     		ldr	r3, [r7, #20]
 1175 00c8 D361     		str	r3, [r2, #28]
 1176 00ca 02E0     		b	.L50
 1177              	.L57:
 594:/home/virusv/TDSAST_IOT/Libraries/src/stm32f10x_gpio.c ****   }
 595:/home/virusv/TDSAST_IOT/Libraries/src/stm32f10x_gpio.c ****   else
 596:/home/virusv/TDSAST_IOT/Libraries/src/stm32f10x_gpio.c ****   {
 597:/home/virusv/TDSAST_IOT/Libraries/src/stm32f10x_gpio.c ****     AFIO->MAPR = tmpreg;
 1178              		.loc 1 597 0
 1179 00cc 034A     		ldr	r2, .L59
 1180 00ce 7B69     		ldr	r3, [r7, #20]
 1181 00d0 5360     		str	r3, [r2, #4]
 1182              	.L50:
 598:/home/virusv/TDSAST_IOT/Libraries/src/stm32f10x_gpio.c ****   }  
 599:/home/virusv/TDSAST_IOT/Libraries/src/stm32f10x_gpio.c **** }
 1183              		.loc 1 599 0
 1184 00d2 1C37     		adds	r7, r7, #28
 1185              		.cfi_def_cfa_offset 4
 1186 00d4 BD46     		mov	sp, r7
 1187              		.cfi_def_cfa_register 13
 1188              		@ sp needed
 1189 00d6 5DF8047B 		ldr	r7, [sp], #4
 1190              		.cfi_restore 7
 1191              		.cfi_def_cfa_offset 0
 1192 00da 7047     		bx	lr
 1193              	.L60:
 1194              		.align	2
 1195              	.L59:
 1196 00dc 00000140 		.word	1073807360
 1197              		.cfi_endproc
 1198              	.LFE44:
 1200              		.section	.text.GPIO_EXTILineConfig,"ax",%progbits
 1201              		.align	2
 1202              		.global	GPIO_EXTILineConfig
 1203              		.thumb
 1204              		.thumb_func
 1206              	GPIO_EXTILineConfig:
 1207              	.LFB45:
 600:/home/virusv/TDSAST_IOT/Libraries/src/stm32f10x_gpio.c **** 
 601:/home/virusv/TDSAST_IOT/Libraries/src/stm32f10x_gpio.c **** /**
 602:/home/virusv/TDSAST_IOT/Libraries/src/stm32f10x_gpio.c ****   * @brief  Selects the GPIO pin used as EXTI Line.
 603:/home/virusv/TDSAST_IOT/Libraries/src/stm32f10x_gpio.c ****   * @param  GPIO_PortSource: selects the GPIO port to be used as source for EXTI lines.
 604:/home/virusv/TDSAST_IOT/Libraries/src/stm32f10x_gpio.c ****   *   This parameter can be GPIO_PortSourceGPIOx where x can be (A..G).
 605:/home/virusv/TDSAST_IOT/Libraries/src/stm32f10x_gpio.c ****   * @param  GPIO_PinSource: specifies the EXTI line to be configured.
 606:/home/virusv/TDSAST_IOT/Libraries/src/stm32f10x_gpio.c ****   *   This parameter can be GPIO_PinSourcex where x can be (0..15).
 607:/home/virusv/TDSAST_IOT/Libraries/src/stm32f10x_gpio.c ****   * @retval None
 608:/home/virusv/TDSAST_IOT/Libraries/src/stm32f10x_gpio.c ****   */
 609:/home/virusv/TDSAST_IOT/Libraries/src/stm32f10x_gpio.c **** void GPIO_EXTILineConfig(uint8_t GPIO_PortSource, uint8_t GPIO_PinSource)
 610:/home/virusv/TDSAST_IOT/Libraries/src/stm32f10x_gpio.c **** {
 1208              		.loc 1 610 0
 1209              		.cfi_startproc
 1210              		@ args = 0, pretend = 0, frame = 16
 1211              		@ frame_needed = 1, uses_anonymous_args = 0
 1212              		@ link register save eliminated.
 1213 0000 90B4     		push	{r4, r7}
 1214              		.cfi_def_cfa_offset 8
 1215              		.cfi_offset 4, -8
 1216              		.cfi_offset 7, -4
 1217 0002 84B0     		sub	sp, sp, #16
 1218              		.cfi_def_cfa_offset 24
 1219 0004 00AF     		add	r7, sp, #0
 1220              		.cfi_def_cfa_register 7
 1221 0006 0346     		mov	r3, r0
 1222 0008 0A46     		mov	r2, r1
 1223 000a FB71     		strb	r3, [r7, #7]
 1224 000c 1346     		mov	r3, r2
 1225 000e BB71     		strb	r3, [r7, #6]
 611:/home/virusv/TDSAST_IOT/Libraries/src/stm32f10x_gpio.c ****   uint32_t tmp = 0x00;
 1226              		.loc 1 611 0
 1227 0010 0023     		movs	r3, #0
 1228 0012 FB60     		str	r3, [r7, #12]
 612:/home/virusv/TDSAST_IOT/Libraries/src/stm32f10x_gpio.c ****   /* Check the parameters */
 613:/home/virusv/TDSAST_IOT/Libraries/src/stm32f10x_gpio.c ****   assert_param(IS_GPIO_EXTI_PORT_SOURCE(GPIO_PortSource));
 614:/home/virusv/TDSAST_IOT/Libraries/src/stm32f10x_gpio.c ****   assert_param(IS_GPIO_PIN_SOURCE(GPIO_PinSource));
 615:/home/virusv/TDSAST_IOT/Libraries/src/stm32f10x_gpio.c ****   
 616:/home/virusv/TDSAST_IOT/Libraries/src/stm32f10x_gpio.c ****   tmp = ((uint32_t)0x0F) << (0x04 * (GPIO_PinSource & (uint8_t)0x03));
 1229              		.loc 1 616 0
 1230 0014 BB79     		ldrb	r3, [r7, #6]	@ zero_extendqisi2
 1231 0016 03F00303 		and	r3, r3, #3
 1232 001a 9B00     		lsls	r3, r3, #2
 1233 001c 0F22     		movs	r2, #15
 1234 001e 02FA03F3 		lsl	r3, r2, r3
 1235 0022 FB60     		str	r3, [r7, #12]
 617:/home/virusv/TDSAST_IOT/Libraries/src/stm32f10x_gpio.c ****   AFIO->EXTICR[GPIO_PinSource >> 0x02] &= ~tmp;
 1236              		.loc 1 617 0
 1237 0024 1649     		ldr	r1, .L62
 1238 0026 BB79     		ldrb	r3, [r7, #6]	@ zero_extendqisi2
 1239 0028 9B08     		lsrs	r3, r3, #2
 1240 002a DBB2     		uxtb	r3, r3
 1241 002c 1846     		mov	r0, r3
 1242 002e 144A     		ldr	r2, .L62
 1243 0030 BB79     		ldrb	r3, [r7, #6]	@ zero_extendqisi2
 1244 0032 9B08     		lsrs	r3, r3, #2
 1245 0034 DBB2     		uxtb	r3, r3
 1246 0036 0233     		adds	r3, r3, #2
 1247 0038 52F82320 		ldr	r2, [r2, r3, lsl #2]
 1248 003c FB68     		ldr	r3, [r7, #12]
 1249 003e DB43     		mvns	r3, r3
 1250 0040 1A40     		ands	r2, r2, r3
 1251 0042 831C     		adds	r3, r0, #2
 1252 0044 41F82320 		str	r2, [r1, r3, lsl #2]
 618:/home/virusv/TDSAST_IOT/Libraries/src/stm32f10x_gpio.c ****   AFIO->EXTICR[GPIO_PinSource >> 0x02] |= (((uint32_t)GPIO_PortSource) << (0x04 * (GPIO_PinSource &
 1253              		.loc 1 618 0
 1254 0048 0D48     		ldr	r0, .L62
 1255 004a BB79     		ldrb	r3, [r7, #6]	@ zero_extendqisi2
 1256 004c 9B08     		lsrs	r3, r3, #2
 1257 004e DBB2     		uxtb	r3, r3
 1258 0050 1C46     		mov	r4, r3
 1259 0052 0B4A     		ldr	r2, .L62
 1260 0054 BB79     		ldrb	r3, [r7, #6]	@ zero_extendqisi2
 1261 0056 9B08     		lsrs	r3, r3, #2
 1262 0058 DBB2     		uxtb	r3, r3
 1263 005a 0233     		adds	r3, r3, #2
 1264 005c 52F82320 		ldr	r2, [r2, r3, lsl #2]
 1265 0060 F979     		ldrb	r1, [r7, #7]	@ zero_extendqisi2
 1266 0062 BB79     		ldrb	r3, [r7, #6]	@ zero_extendqisi2
 1267 0064 03F00303 		and	r3, r3, #3
 1268 0068 9B00     		lsls	r3, r3, #2
 1269 006a 01FA03F3 		lsl	r3, r1, r3
 1270 006e 1A43     		orrs	r2, r2, r3
 1271 0070 A31C     		adds	r3, r4, #2
 1272 0072 40F82320 		str	r2, [r0, r3, lsl #2]
 619:/home/virusv/TDSAST_IOT/Libraries/src/stm32f10x_gpio.c **** }
 1273              		.loc 1 619 0
 1274 0076 1037     		adds	r7, r7, #16
 1275              		.cfi_def_cfa_offset 8
 1276 0078 BD46     		mov	sp, r7
 1277              		.cfi_def_cfa_register 13
 1278              		@ sp needed
 1279 007a 90BC     		pop	{r4, r7}
 1280              		.cfi_restore 7
 1281              		.cfi_restore 4
 1282              		.cfi_def_cfa_offset 0
 1283 007c 7047     		bx	lr
 1284              	.L63:
 1285 007e 00BF     		.align	2
 1286              	.L62:
 1287 0080 00000140 		.word	1073807360
 1288              		.cfi_endproc
 1289              	.LFE45:
 1291              		.section	.text.GPIO_ETH_MediaInterfaceConfig,"ax",%progbits
 1292              		.align	2
 1293              		.global	GPIO_ETH_MediaInterfaceConfig
 1294              		.thumb
 1295              		.thumb_func
 1297              	GPIO_ETH_MediaInterfaceConfig:
 1298              	.LFB46:
 620:/home/virusv/TDSAST_IOT/Libraries/src/stm32f10x_gpio.c **** 
 621:/home/virusv/TDSAST_IOT/Libraries/src/stm32f10x_gpio.c **** /**
 622:/home/virusv/TDSAST_IOT/Libraries/src/stm32f10x_gpio.c ****   * @brief  Selects the Ethernet media interface.
 623:/home/virusv/TDSAST_IOT/Libraries/src/stm32f10x_gpio.c ****   * @note   This function applies only to STM32 Connectivity line devices.  
 624:/home/virusv/TDSAST_IOT/Libraries/src/stm32f10x_gpio.c ****   * @param  GPIO_ETH_MediaInterface: specifies the Media Interface mode.
 625:/home/virusv/TDSAST_IOT/Libraries/src/stm32f10x_gpio.c ****   *   This parameter can be one of the following values:
 626:/home/virusv/TDSAST_IOT/Libraries/src/stm32f10x_gpio.c ****   *     @arg GPIO_ETH_MediaInterface_MII: MII mode
 627:/home/virusv/TDSAST_IOT/Libraries/src/stm32f10x_gpio.c ****   *     @arg GPIO_ETH_MediaInterface_RMII: RMII mode    
 628:/home/virusv/TDSAST_IOT/Libraries/src/stm32f10x_gpio.c ****   * @retval None
 629:/home/virusv/TDSAST_IOT/Libraries/src/stm32f10x_gpio.c ****   */
 630:/home/virusv/TDSAST_IOT/Libraries/src/stm32f10x_gpio.c **** void GPIO_ETH_MediaInterfaceConfig(uint32_t GPIO_ETH_MediaInterface) 
 631:/home/virusv/TDSAST_IOT/Libraries/src/stm32f10x_gpio.c **** { 
 1299              		.loc 1 631 0
 1300              		.cfi_startproc
 1301              		@ args = 0, pretend = 0, frame = 8
 1302              		@ frame_needed = 1, uses_anonymous_args = 0
 1303              		@ link register save eliminated.
 1304 0000 80B4     		push	{r7}
 1305              		.cfi_def_cfa_offset 4
 1306              		.cfi_offset 7, -4
 1307 0002 83B0     		sub	sp, sp, #12
 1308              		.cfi_def_cfa_offset 16
 1309 0004 00AF     		add	r7, sp, #0
 1310              		.cfi_def_cfa_register 7
 1311 0006 7860     		str	r0, [r7, #4]
 632:/home/virusv/TDSAST_IOT/Libraries/src/stm32f10x_gpio.c ****   assert_param(IS_GPIO_ETH_MEDIA_INTERFACE(GPIO_ETH_MediaInterface)); 
 633:/home/virusv/TDSAST_IOT/Libraries/src/stm32f10x_gpio.c **** 
 634:/home/virusv/TDSAST_IOT/Libraries/src/stm32f10x_gpio.c ****   /* Configure MII_RMII selection bit */ 
 635:/home/virusv/TDSAST_IOT/Libraries/src/stm32f10x_gpio.c ****   *(__IO uint32_t *) MAPR_MII_RMII_SEL_BB = GPIO_ETH_MediaInterface; 
 1312              		.loc 1 635 0
 1313 0008 034A     		ldr	r2, .L65
 1314 000a 7B68     		ldr	r3, [r7, #4]
 1315 000c 1360     		str	r3, [r2]
 636:/home/virusv/TDSAST_IOT/Libraries/src/stm32f10x_gpio.c **** }
 1316              		.loc 1 636 0
 1317 000e 0C37     		adds	r7, r7, #12
 1318              		.cfi_def_cfa_offset 4
 1319 0010 BD46     		mov	sp, r7
 1320              		.cfi_def_cfa_register 13
 1321              		@ sp needed
 1322 0012 5DF8047B 		ldr	r7, [sp], #4
 1323              		.cfi_restore 7
 1324              		.cfi_def_cfa_offset 0
 1325 0016 7047     		bx	lr
 1326              	.L66:
 1327              		.align	2
 1328              	.L65:
 1329 0018 DC002042 		.word	1109393628
 1330              		.cfi_endproc
 1331              	.LFE46:
 1333              		.text
 1334              	.Letext0:
 1335              		.file 2 "/usr/include/newlib/machine/_default_types.h"
 1336              		.file 3 "/usr/include/newlib/sys/_stdint.h"
 1337              		.file 4 "/home/virusv/TDSAST_IOT/CMSIS/CM3/DeviceSupport/ST/STM32F10x/stm32f10x.h"
 1338              		.file 5 "/home/virusv/TDSAST_IOT/Libraries/inc/stm32f10x_gpio.h"
 1339              		.file 6 "/home/virusv/TDSAST_IOT/CMSIS/CM3/CoreSupport/core_cm3.h"