   1              		.syntax unified
   2              		.cpu cortex-m3
   3              		.fpu softvfp
   4              		.eabi_attribute 20, 1
   5              		.eabi_attribute 21, 1
   6              		.eabi_attribute 23, 3
   7              		.eabi_attribute 24, 1
   8              		.eabi_attribute 25, 1
   9              		.eabi_attribute 26, 1
  10              		.eabi_attribute 30, 6
  11              		.eabi_attribute 34, 1
  12              		.eabi_attribute 18, 4
  13              		.thumb
  14              		.file	"stm32f10x_usart.c"
  15              		.text
  16              	.Ltext0:
  17              		.cfi_sections	.debug_frame
  18              		.section	.text.USART_DeInit,"ax",%progbits
  19              		.align	2
  20              		.global	USART_DeInit
  21              		.thumb
  22              		.thumb_func
  24              	USART_DeInit:
  25              	.LFB29:
  26              		.file 1 "/home/virusv/TDSAST_IOT/Libraries/src/stm32f10x_usart.c"
   1:/home/virusv/TDSAST_IOT/Libraries/src/stm32f10x_usart.c **** /**
   2:/home/virusv/TDSAST_IOT/Libraries/src/stm32f10x_usart.c ****   ******************************************************************************
   3:/home/virusv/TDSAST_IOT/Libraries/src/stm32f10x_usart.c ****   * @file    stm32f10x_usart.c
   4:/home/virusv/TDSAST_IOT/Libraries/src/stm32f10x_usart.c ****   * @author  MCD Application Team
   5:/home/virusv/TDSAST_IOT/Libraries/src/stm32f10x_usart.c ****   * @version V3.5.0
   6:/home/virusv/TDSAST_IOT/Libraries/src/stm32f10x_usart.c ****   * @date    11-March-2011
   7:/home/virusv/TDSAST_IOT/Libraries/src/stm32f10x_usart.c ****   * @brief   This file provides all the USART firmware functions.
   8:/home/virusv/TDSAST_IOT/Libraries/src/stm32f10x_usart.c ****   ******************************************************************************
   9:/home/virusv/TDSAST_IOT/Libraries/src/stm32f10x_usart.c ****   * @attention
  10:/home/virusv/TDSAST_IOT/Libraries/src/stm32f10x_usart.c ****   *
  11:/home/virusv/TDSAST_IOT/Libraries/src/stm32f10x_usart.c ****   * THE PRESENT FIRMWARE WHICH IS FOR GUIDANCE ONLY AIMS AT PROVIDING CUSTOMERS
  12:/home/virusv/TDSAST_IOT/Libraries/src/stm32f10x_usart.c ****   * WITH CODING INFORMATION REGARDING THEIR PRODUCTS IN ORDER FOR THEM TO SAVE
  13:/home/virusv/TDSAST_IOT/Libraries/src/stm32f10x_usart.c ****   * TIME. AS A RESULT, STMICROELECTRONICS SHALL NOT BE HELD LIABLE FOR ANY
  14:/home/virusv/TDSAST_IOT/Libraries/src/stm32f10x_usart.c ****   * DIRECT, INDIRECT OR CONSEQUENTIAL DAMAGES WITH RESPECT TO ANY CLAIMS ARISING
  15:/home/virusv/TDSAST_IOT/Libraries/src/stm32f10x_usart.c ****   * FROM THE CONTENT OF SUCH FIRMWARE AND/OR THE USE MADE BY CUSTOMERS OF THE
  16:/home/virusv/TDSAST_IOT/Libraries/src/stm32f10x_usart.c ****   * CODING INFORMATION CONTAINED HEREIN IN CONNECTION WITH THEIR PRODUCTS.
  17:/home/virusv/TDSAST_IOT/Libraries/src/stm32f10x_usart.c ****   *
  18:/home/virusv/TDSAST_IOT/Libraries/src/stm32f10x_usart.c ****   * <h2><center>&copy; COPYRIGHT 2011 STMicroelectronics</center></h2>
  19:/home/virusv/TDSAST_IOT/Libraries/src/stm32f10x_usart.c ****   ******************************************************************************
  20:/home/virusv/TDSAST_IOT/Libraries/src/stm32f10x_usart.c ****   */
  21:/home/virusv/TDSAST_IOT/Libraries/src/stm32f10x_usart.c **** 
  22:/home/virusv/TDSAST_IOT/Libraries/src/stm32f10x_usart.c **** /* Includes ------------------------------------------------------------------*/
  23:/home/virusv/TDSAST_IOT/Libraries/src/stm32f10x_usart.c **** #include "stm32f10x_usart.h"
  24:/home/virusv/TDSAST_IOT/Libraries/src/stm32f10x_usart.c **** #include "stm32f10x_rcc.h"
  25:/home/virusv/TDSAST_IOT/Libraries/src/stm32f10x_usart.c **** 
  26:/home/virusv/TDSAST_IOT/Libraries/src/stm32f10x_usart.c **** /** @addtogroup STM32F10x_StdPeriph_Driver
  27:/home/virusv/TDSAST_IOT/Libraries/src/stm32f10x_usart.c ****   * @{
  28:/home/virusv/TDSAST_IOT/Libraries/src/stm32f10x_usart.c ****   */
  29:/home/virusv/TDSAST_IOT/Libraries/src/stm32f10x_usart.c **** 
  30:/home/virusv/TDSAST_IOT/Libraries/src/stm32f10x_usart.c **** /** @defgroup USART 
  31:/home/virusv/TDSAST_IOT/Libraries/src/stm32f10x_usart.c ****   * @brief USART driver modules
  32:/home/virusv/TDSAST_IOT/Libraries/src/stm32f10x_usart.c ****   * @{
  33:/home/virusv/TDSAST_IOT/Libraries/src/stm32f10x_usart.c ****   */
  34:/home/virusv/TDSAST_IOT/Libraries/src/stm32f10x_usart.c **** 
  35:/home/virusv/TDSAST_IOT/Libraries/src/stm32f10x_usart.c **** /** @defgroup USART_Private_TypesDefinitions
  36:/home/virusv/TDSAST_IOT/Libraries/src/stm32f10x_usart.c ****   * @{
  37:/home/virusv/TDSAST_IOT/Libraries/src/stm32f10x_usart.c ****   */
  38:/home/virusv/TDSAST_IOT/Libraries/src/stm32f10x_usart.c **** 
  39:/home/virusv/TDSAST_IOT/Libraries/src/stm32f10x_usart.c **** /**
  40:/home/virusv/TDSAST_IOT/Libraries/src/stm32f10x_usart.c ****   * @}
  41:/home/virusv/TDSAST_IOT/Libraries/src/stm32f10x_usart.c ****   */
  42:/home/virusv/TDSAST_IOT/Libraries/src/stm32f10x_usart.c **** 
  43:/home/virusv/TDSAST_IOT/Libraries/src/stm32f10x_usart.c **** /** @defgroup USART_Private_Defines
  44:/home/virusv/TDSAST_IOT/Libraries/src/stm32f10x_usart.c ****   * @{
  45:/home/virusv/TDSAST_IOT/Libraries/src/stm32f10x_usart.c ****   */
  46:/home/virusv/TDSAST_IOT/Libraries/src/stm32f10x_usart.c **** 
  47:/home/virusv/TDSAST_IOT/Libraries/src/stm32f10x_usart.c **** #define CR1_UE_Set                ((uint16_t)0x2000)  /*!< USART Enable Mask */
  48:/home/virusv/TDSAST_IOT/Libraries/src/stm32f10x_usart.c **** #define CR1_UE_Reset              ((uint16_t)0xDFFF)  /*!< USART Disable Mask */
  49:/home/virusv/TDSAST_IOT/Libraries/src/stm32f10x_usart.c **** 
  50:/home/virusv/TDSAST_IOT/Libraries/src/stm32f10x_usart.c **** #define CR1_WAKE_Mask             ((uint16_t)0xF7FF)  /*!< USART WakeUp Method Mask */
  51:/home/virusv/TDSAST_IOT/Libraries/src/stm32f10x_usart.c **** 
  52:/home/virusv/TDSAST_IOT/Libraries/src/stm32f10x_usart.c **** #define CR1_RWU_Set               ((uint16_t)0x0002)  /*!< USART mute mode Enable Mask */
  53:/home/virusv/TDSAST_IOT/Libraries/src/stm32f10x_usart.c **** #define CR1_RWU_Reset             ((uint16_t)0xFFFD)  /*!< USART mute mode Enable Mask */
  54:/home/virusv/TDSAST_IOT/Libraries/src/stm32f10x_usart.c **** #define CR1_SBK_Set               ((uint16_t)0x0001)  /*!< USART Break Character send Mask */
  55:/home/virusv/TDSAST_IOT/Libraries/src/stm32f10x_usart.c **** #define CR1_CLEAR_Mask            ((uint16_t)0xE9F3)  /*!< USART CR1 Mask */
  56:/home/virusv/TDSAST_IOT/Libraries/src/stm32f10x_usart.c **** #define CR2_Address_Mask          ((uint16_t)0xFFF0)  /*!< USART address Mask */
  57:/home/virusv/TDSAST_IOT/Libraries/src/stm32f10x_usart.c **** 
  58:/home/virusv/TDSAST_IOT/Libraries/src/stm32f10x_usart.c **** #define CR2_LINEN_Set              ((uint16_t)0x4000)  /*!< USART LIN Enable Mask */
  59:/home/virusv/TDSAST_IOT/Libraries/src/stm32f10x_usart.c **** #define CR2_LINEN_Reset            ((uint16_t)0xBFFF)  /*!< USART LIN Disable Mask */
  60:/home/virusv/TDSAST_IOT/Libraries/src/stm32f10x_usart.c **** 
  61:/home/virusv/TDSAST_IOT/Libraries/src/stm32f10x_usart.c **** #define CR2_LBDL_Mask             ((uint16_t)0xFFDF)  /*!< USART LIN Break detection Mask */
  62:/home/virusv/TDSAST_IOT/Libraries/src/stm32f10x_usart.c **** #define CR2_STOP_CLEAR_Mask       ((uint16_t)0xCFFF)  /*!< USART CR2 STOP Bits Mask */
  63:/home/virusv/TDSAST_IOT/Libraries/src/stm32f10x_usart.c **** #define CR2_CLOCK_CLEAR_Mask      ((uint16_t)0xF0FF)  /*!< USART CR2 Clock Mask */
  64:/home/virusv/TDSAST_IOT/Libraries/src/stm32f10x_usart.c **** 
  65:/home/virusv/TDSAST_IOT/Libraries/src/stm32f10x_usart.c **** #define CR3_SCEN_Set              ((uint16_t)0x0020)  /*!< USART SC Enable Mask */
  66:/home/virusv/TDSAST_IOT/Libraries/src/stm32f10x_usart.c **** #define CR3_SCEN_Reset            ((uint16_t)0xFFDF)  /*!< USART SC Disable Mask */
  67:/home/virusv/TDSAST_IOT/Libraries/src/stm32f10x_usart.c **** 
  68:/home/virusv/TDSAST_IOT/Libraries/src/stm32f10x_usart.c **** #define CR3_NACK_Set              ((uint16_t)0x0010)  /*!< USART SC NACK Enable Mask */
  69:/home/virusv/TDSAST_IOT/Libraries/src/stm32f10x_usart.c **** #define CR3_NACK_Reset            ((uint16_t)0xFFEF)  /*!< USART SC NACK Disable Mask */
  70:/home/virusv/TDSAST_IOT/Libraries/src/stm32f10x_usart.c **** 
  71:/home/virusv/TDSAST_IOT/Libraries/src/stm32f10x_usart.c **** #define CR3_HDSEL_Set             ((uint16_t)0x0008)  /*!< USART Half-Duplex Enable Mask */
  72:/home/virusv/TDSAST_IOT/Libraries/src/stm32f10x_usart.c **** #define CR3_HDSEL_Reset           ((uint16_t)0xFFF7)  /*!< USART Half-Duplex Disable Mask */
  73:/home/virusv/TDSAST_IOT/Libraries/src/stm32f10x_usart.c **** 
  74:/home/virusv/TDSAST_IOT/Libraries/src/stm32f10x_usart.c **** #define CR3_IRLP_Mask             ((uint16_t)0xFFFB)  /*!< USART IrDA LowPower mode Mask */
  75:/home/virusv/TDSAST_IOT/Libraries/src/stm32f10x_usart.c **** #define CR3_CLEAR_Mask            ((uint16_t)0xFCFF)  /*!< USART CR3 Mask */
  76:/home/virusv/TDSAST_IOT/Libraries/src/stm32f10x_usart.c **** 
  77:/home/virusv/TDSAST_IOT/Libraries/src/stm32f10x_usart.c **** #define CR3_IREN_Set              ((uint16_t)0x0002)  /*!< USART IrDA Enable Mask */
  78:/home/virusv/TDSAST_IOT/Libraries/src/stm32f10x_usart.c **** #define CR3_IREN_Reset            ((uint16_t)0xFFFD)  /*!< USART IrDA Disable Mask */
  79:/home/virusv/TDSAST_IOT/Libraries/src/stm32f10x_usart.c **** #define GTPR_LSB_Mask             ((uint16_t)0x00FF)  /*!< Guard Time Register LSB Mask */
  80:/home/virusv/TDSAST_IOT/Libraries/src/stm32f10x_usart.c **** #define GTPR_MSB_Mask             ((uint16_t)0xFF00)  /*!< Guard Time Register MSB Mask */
  81:/home/virusv/TDSAST_IOT/Libraries/src/stm32f10x_usart.c **** #define IT_Mask                   ((uint16_t)0x001F)  /*!< USART Interrupt Mask */
  82:/home/virusv/TDSAST_IOT/Libraries/src/stm32f10x_usart.c **** 
  83:/home/virusv/TDSAST_IOT/Libraries/src/stm32f10x_usart.c **** /* USART OverSampling-8 Mask */
  84:/home/virusv/TDSAST_IOT/Libraries/src/stm32f10x_usart.c **** #define CR1_OVER8_Set             ((u16)0x8000)  /* USART OVER8 mode Enable Mask */
  85:/home/virusv/TDSAST_IOT/Libraries/src/stm32f10x_usart.c **** #define CR1_OVER8_Reset           ((u16)0x7FFF)  /* USART OVER8 mode Disable Mask */
  86:/home/virusv/TDSAST_IOT/Libraries/src/stm32f10x_usart.c **** 
  87:/home/virusv/TDSAST_IOT/Libraries/src/stm32f10x_usart.c **** /* USART One Bit Sampling Mask */
  88:/home/virusv/TDSAST_IOT/Libraries/src/stm32f10x_usart.c **** #define CR3_ONEBITE_Set           ((u16)0x0800)  /* USART ONEBITE mode Enable Mask */
  89:/home/virusv/TDSAST_IOT/Libraries/src/stm32f10x_usart.c **** #define CR3_ONEBITE_Reset         ((u16)0xF7FF)  /* USART ONEBITE mode Disable Mask */
  90:/home/virusv/TDSAST_IOT/Libraries/src/stm32f10x_usart.c **** 
  91:/home/virusv/TDSAST_IOT/Libraries/src/stm32f10x_usart.c **** /**
  92:/home/virusv/TDSAST_IOT/Libraries/src/stm32f10x_usart.c ****   * @}
  93:/home/virusv/TDSAST_IOT/Libraries/src/stm32f10x_usart.c ****   */
  94:/home/virusv/TDSAST_IOT/Libraries/src/stm32f10x_usart.c **** 
  95:/home/virusv/TDSAST_IOT/Libraries/src/stm32f10x_usart.c **** /** @defgroup USART_Private_Macros
  96:/home/virusv/TDSAST_IOT/Libraries/src/stm32f10x_usart.c ****   * @{
  97:/home/virusv/TDSAST_IOT/Libraries/src/stm32f10x_usart.c ****   */
  98:/home/virusv/TDSAST_IOT/Libraries/src/stm32f10x_usart.c **** 
  99:/home/virusv/TDSAST_IOT/Libraries/src/stm32f10x_usart.c **** /**
 100:/home/virusv/TDSAST_IOT/Libraries/src/stm32f10x_usart.c ****   * @}
 101:/home/virusv/TDSAST_IOT/Libraries/src/stm32f10x_usart.c ****   */
 102:/home/virusv/TDSAST_IOT/Libraries/src/stm32f10x_usart.c **** 
 103:/home/virusv/TDSAST_IOT/Libraries/src/stm32f10x_usart.c **** /** @defgroup USART_Private_Variables
 104:/home/virusv/TDSAST_IOT/Libraries/src/stm32f10x_usart.c ****   * @{
 105:/home/virusv/TDSAST_IOT/Libraries/src/stm32f10x_usart.c ****   */
 106:/home/virusv/TDSAST_IOT/Libraries/src/stm32f10x_usart.c **** 
 107:/home/virusv/TDSAST_IOT/Libraries/src/stm32f10x_usart.c **** /**
 108:/home/virusv/TDSAST_IOT/Libraries/src/stm32f10x_usart.c ****   * @}
 109:/home/virusv/TDSAST_IOT/Libraries/src/stm32f10x_usart.c ****   */
 110:/home/virusv/TDSAST_IOT/Libraries/src/stm32f10x_usart.c **** 
 111:/home/virusv/TDSAST_IOT/Libraries/src/stm32f10x_usart.c **** /** @defgroup USART_Private_FunctionPrototypes
 112:/home/virusv/TDSAST_IOT/Libraries/src/stm32f10x_usart.c ****   * @{
 113:/home/virusv/TDSAST_IOT/Libraries/src/stm32f10x_usart.c ****   */
 114:/home/virusv/TDSAST_IOT/Libraries/src/stm32f10x_usart.c **** 
 115:/home/virusv/TDSAST_IOT/Libraries/src/stm32f10x_usart.c **** /**
 116:/home/virusv/TDSAST_IOT/Libraries/src/stm32f10x_usart.c ****   * @}
 117:/home/virusv/TDSAST_IOT/Libraries/src/stm32f10x_usart.c ****   */
 118:/home/virusv/TDSAST_IOT/Libraries/src/stm32f10x_usart.c **** 
 119:/home/virusv/TDSAST_IOT/Libraries/src/stm32f10x_usart.c **** /** @defgroup USART_Private_Functions
 120:/home/virusv/TDSAST_IOT/Libraries/src/stm32f10x_usart.c ****   * @{
 121:/home/virusv/TDSAST_IOT/Libraries/src/stm32f10x_usart.c ****   */
 122:/home/virusv/TDSAST_IOT/Libraries/src/stm32f10x_usart.c **** 
 123:/home/virusv/TDSAST_IOT/Libraries/src/stm32f10x_usart.c **** /**
 124:/home/virusv/TDSAST_IOT/Libraries/src/stm32f10x_usart.c ****   * @brief  Deinitializes the USARTx peripheral registers to their default reset values.
 125:/home/virusv/TDSAST_IOT/Libraries/src/stm32f10x_usart.c ****   * @param  USARTx: Select the USART or the UART peripheral. 
 126:/home/virusv/TDSAST_IOT/Libraries/src/stm32f10x_usart.c ****   *   This parameter can be one of the following values: 
 127:/home/virusv/TDSAST_IOT/Libraries/src/stm32f10x_usart.c ****   *      USART1, USART2, USART3, UART4 or UART5.
 128:/home/virusv/TDSAST_IOT/Libraries/src/stm32f10x_usart.c ****   * @retval None
 129:/home/virusv/TDSAST_IOT/Libraries/src/stm32f10x_usart.c ****   */
 130:/home/virusv/TDSAST_IOT/Libraries/src/stm32f10x_usart.c **** void USART_DeInit(USART_TypeDef* USARTx)
 131:/home/virusv/TDSAST_IOT/Libraries/src/stm32f10x_usart.c **** {
  27              		.loc 1 131 0
  28              		.cfi_startproc
  29              		@ args = 0, pretend = 0, frame = 8
  30              		@ frame_needed = 1, uses_anonymous_args = 0
  31 0000 80B5     		push	{r7, lr}
  32              		.cfi_def_cfa_offset 8
  33              		.cfi_offset 7, -8
  34              		.cfi_offset 14, -4
  35 0002 82B0     		sub	sp, sp, #8
  36              		.cfi_def_cfa_offset 16
  37 0004 00AF     		add	r7, sp, #0
  38              		.cfi_def_cfa_register 7
  39 0006 7860     		str	r0, [r7, #4]
 132:/home/virusv/TDSAST_IOT/Libraries/src/stm32f10x_usart.c ****   /* Check the parameters */
 133:/home/virusv/TDSAST_IOT/Libraries/src/stm32f10x_usart.c ****   assert_param(IS_USART_ALL_PERIPH(USARTx));
 134:/home/virusv/TDSAST_IOT/Libraries/src/stm32f10x_usart.c **** 
 135:/home/virusv/TDSAST_IOT/Libraries/src/stm32f10x_usart.c ****   if (USARTx == USART1)
  40              		.loc 1 135 0
  41 0008 7B68     		ldr	r3, [r7, #4]
  42 000a 264A     		ldr	r2, .L7
  43 000c 9342     		cmp	r3, r2
  44 000e 0AD1     		bne	.L2
 136:/home/virusv/TDSAST_IOT/Libraries/src/stm32f10x_usart.c ****   {
 137:/home/virusv/TDSAST_IOT/Libraries/src/stm32f10x_usart.c ****     RCC_APB2PeriphResetCmd(RCC_APB2Periph_USART1, ENABLE);
  45              		.loc 1 137 0
  46 0010 4FF48040 		mov	r0, #16384
  47 0014 0121     		movs	r1, #1
  48 0016 FFF7FEFF 		bl	RCC_APB2PeriphResetCmd
 138:/home/virusv/TDSAST_IOT/Libraries/src/stm32f10x_usart.c ****     RCC_APB2PeriphResetCmd(RCC_APB2Periph_USART1, DISABLE);
  49              		.loc 1 138 0
  50 001a 4FF48040 		mov	r0, #16384
  51 001e 0021     		movs	r1, #0
  52 0020 FFF7FEFF 		bl	RCC_APB2PeriphResetCmd
  53 0024 3AE0     		b	.L1
  54              	.L2:
 139:/home/virusv/TDSAST_IOT/Libraries/src/stm32f10x_usart.c ****   }
 140:/home/virusv/TDSAST_IOT/Libraries/src/stm32f10x_usart.c ****   else if (USARTx == USART2)
  55              		.loc 1 140 0
  56 0026 7B68     		ldr	r3, [r7, #4]
  57 0028 1F4A     		ldr	r2, .L7+4
  58 002a 9342     		cmp	r3, r2
  59 002c 0AD1     		bne	.L4
 141:/home/virusv/TDSAST_IOT/Libraries/src/stm32f10x_usart.c ****   {
 142:/home/virusv/TDSAST_IOT/Libraries/src/stm32f10x_usart.c ****     RCC_APB1PeriphResetCmd(RCC_APB1Periph_USART2, ENABLE);
  60              		.loc 1 142 0
  61 002e 4FF40030 		mov	r0, #131072
  62 0032 0121     		movs	r1, #1
  63 0034 FFF7FEFF 		bl	RCC_APB1PeriphResetCmd
 143:/home/virusv/TDSAST_IOT/Libraries/src/stm32f10x_usart.c ****     RCC_APB1PeriphResetCmd(RCC_APB1Periph_USART2, DISABLE);
  64              		.loc 1 143 0
  65 0038 4FF40030 		mov	r0, #131072
  66 003c 0021     		movs	r1, #0
  67 003e FFF7FEFF 		bl	RCC_APB1PeriphResetCmd
  68 0042 2BE0     		b	.L1
  69              	.L4:
 144:/home/virusv/TDSAST_IOT/Libraries/src/stm32f10x_usart.c ****   }
 145:/home/virusv/TDSAST_IOT/Libraries/src/stm32f10x_usart.c ****   else if (USARTx == USART3)
  70              		.loc 1 145 0
  71 0044 7B68     		ldr	r3, [r7, #4]
  72 0046 194A     		ldr	r2, .L7+8
  73 0048 9342     		cmp	r3, r2
  74 004a 0AD1     		bne	.L5
 146:/home/virusv/TDSAST_IOT/Libraries/src/stm32f10x_usart.c ****   {
 147:/home/virusv/TDSAST_IOT/Libraries/src/stm32f10x_usart.c ****     RCC_APB1PeriphResetCmd(RCC_APB1Periph_USART3, ENABLE);
  75              		.loc 1 147 0
  76 004c 4FF48020 		mov	r0, #262144
  77 0050 0121     		movs	r1, #1
  78 0052 FFF7FEFF 		bl	RCC_APB1PeriphResetCmd
 148:/home/virusv/TDSAST_IOT/Libraries/src/stm32f10x_usart.c ****     RCC_APB1PeriphResetCmd(RCC_APB1Periph_USART3, DISABLE);
  79              		.loc 1 148 0
  80 0056 4FF48020 		mov	r0, #262144
  81 005a 0021     		movs	r1, #0
  82 005c FFF7FEFF 		bl	RCC_APB1PeriphResetCmd
  83 0060 1CE0     		b	.L1
  84              	.L5:
 149:/home/virusv/TDSAST_IOT/Libraries/src/stm32f10x_usart.c ****   }    
 150:/home/virusv/TDSAST_IOT/Libraries/src/stm32f10x_usart.c ****   else if (USARTx == UART4)
  85              		.loc 1 150 0
  86 0062 7B68     		ldr	r3, [r7, #4]
  87 0064 124A     		ldr	r2, .L7+12
  88 0066 9342     		cmp	r3, r2
  89 0068 0AD1     		bne	.L6
 151:/home/virusv/TDSAST_IOT/Libraries/src/stm32f10x_usart.c ****   {
 152:/home/virusv/TDSAST_IOT/Libraries/src/stm32f10x_usart.c ****     RCC_APB1PeriphResetCmd(RCC_APB1Periph_UART4, ENABLE);
  90              		.loc 1 152 0
  91 006a 4FF40020 		mov	r0, #524288
  92 006e 0121     		movs	r1, #1
  93 0070 FFF7FEFF 		bl	RCC_APB1PeriphResetCmd
 153:/home/virusv/TDSAST_IOT/Libraries/src/stm32f10x_usart.c ****     RCC_APB1PeriphResetCmd(RCC_APB1Periph_UART4, DISABLE);
  94              		.loc 1 153 0
  95 0074 4FF40020 		mov	r0, #524288
  96 0078 0021     		movs	r1, #0
  97 007a FFF7FEFF 		bl	RCC_APB1PeriphResetCmd
  98 007e 0DE0     		b	.L1
  99              	.L6:
 154:/home/virusv/TDSAST_IOT/Libraries/src/stm32f10x_usart.c ****   }    
 155:/home/virusv/TDSAST_IOT/Libraries/src/stm32f10x_usart.c ****   else
 156:/home/virusv/TDSAST_IOT/Libraries/src/stm32f10x_usart.c ****   {
 157:/home/virusv/TDSAST_IOT/Libraries/src/stm32f10x_usart.c ****     if (USARTx == UART5)
 100              		.loc 1 157 0
 101 0080 7B68     		ldr	r3, [r7, #4]
 102 0082 0C4A     		ldr	r2, .L7+16
 103 0084 9342     		cmp	r3, r2
 104 0086 09D1     		bne	.L1
 158:/home/virusv/TDSAST_IOT/Libraries/src/stm32f10x_usart.c ****     { 
 159:/home/virusv/TDSAST_IOT/Libraries/src/stm32f10x_usart.c ****       RCC_APB1PeriphResetCmd(RCC_APB1Periph_UART5, ENABLE);
 105              		.loc 1 159 0
 106 0088 4FF48010 		mov	r0, #1048576
 107 008c 0121     		movs	r1, #1
 108 008e FFF7FEFF 		bl	RCC_APB1PeriphResetCmd
 160:/home/virusv/TDSAST_IOT/Libraries/src/stm32f10x_usart.c ****       RCC_APB1PeriphResetCmd(RCC_APB1Periph_UART5, DISABLE);
 109              		.loc 1 160 0
 110 0092 4FF48010 		mov	r0, #1048576
 111 0096 0021     		movs	r1, #0
 112 0098 FFF7FEFF 		bl	RCC_APB1PeriphResetCmd
 113              	.L1:
 161:/home/virusv/TDSAST_IOT/Libraries/src/stm32f10x_usart.c ****     }
 162:/home/virusv/TDSAST_IOT/Libraries/src/stm32f10x_usart.c ****   }
 163:/home/virusv/TDSAST_IOT/Libraries/src/stm32f10x_usart.c **** }
 114              		.loc 1 163 0
 115 009c 0837     		adds	r7, r7, #8
 116              		.cfi_def_cfa_offset 8
 117 009e BD46     		mov	sp, r7
 118              		.cfi_def_cfa_register 13
 119              		@ sp needed
 120 00a0 80BD     		pop	{r7, pc}
 121              	.L8:
 122 00a2 00BF     		.align	2
 123              	.L7:
 124 00a4 00380140 		.word	1073821696
 125 00a8 00440040 		.word	1073759232
 126 00ac 00480040 		.word	1073760256
 127 00b0 004C0040 		.word	1073761280
 128 00b4 00500040 		.word	1073762304
 129              		.cfi_endproc
 130              	.LFE29:
 132              		.section	.text.USART_Init,"ax",%progbits
 133              		.align	2
 134              		.global	USART_Init
 135              		.thumb
 136              		.thumb_func
 138              	USART_Init:
 139              	.LFB30:
 164:/home/virusv/TDSAST_IOT/Libraries/src/stm32f10x_usart.c **** 
 165:/home/virusv/TDSAST_IOT/Libraries/src/stm32f10x_usart.c **** /**
 166:/home/virusv/TDSAST_IOT/Libraries/src/stm32f10x_usart.c ****   * @brief  Initializes the USARTx peripheral according to the specified
 167:/home/virusv/TDSAST_IOT/Libraries/src/stm32f10x_usart.c ****   *         parameters in the USART_InitStruct .
 168:/home/virusv/TDSAST_IOT/Libraries/src/stm32f10x_usart.c ****   * @param  USARTx: Select the USART or the UART peripheral. 
 169:/home/virusv/TDSAST_IOT/Libraries/src/stm32f10x_usart.c ****   *   This parameter can be one of the following values:
 170:/home/virusv/TDSAST_IOT/Libraries/src/stm32f10x_usart.c ****   *   USART1, USART2, USART3, UART4 or UART5.
 171:/home/virusv/TDSAST_IOT/Libraries/src/stm32f10x_usart.c ****   * @param  USART_InitStruct: pointer to a USART_InitTypeDef structure
 172:/home/virusv/TDSAST_IOT/Libraries/src/stm32f10x_usart.c ****   *         that contains the configuration information for the specified USART 
 173:/home/virusv/TDSAST_IOT/Libraries/src/stm32f10x_usart.c ****   *         peripheral.
 174:/home/virusv/TDSAST_IOT/Libraries/src/stm32f10x_usart.c ****   * @retval None
 175:/home/virusv/TDSAST_IOT/Libraries/src/stm32f10x_usart.c ****   */
 176:/home/virusv/TDSAST_IOT/Libraries/src/stm32f10x_usart.c **** void USART_Init(USART_TypeDef* USARTx, USART_InitTypeDef* USART_InitStruct)
 177:/home/virusv/TDSAST_IOT/Libraries/src/stm32f10x_usart.c **** {
 140              		.loc 1 177 0
 141              		.cfi_startproc
 142              		@ args = 0, pretend = 0, frame = 48
 143              		@ frame_needed = 1, uses_anonymous_args = 0
 144 0000 80B5     		push	{r7, lr}
 145              		.cfi_def_cfa_offset 8
 146              		.cfi_offset 7, -8
 147              		.cfi_offset 14, -4
 148 0002 8CB0     		sub	sp, sp, #48
 149              		.cfi_def_cfa_offset 56
 150 0004 00AF     		add	r7, sp, #0
 151              		.cfi_def_cfa_register 7
 152 0006 7860     		str	r0, [r7, #4]
 153 0008 3960     		str	r1, [r7]
 178:/home/virusv/TDSAST_IOT/Libraries/src/stm32f10x_usart.c ****   uint32_t tmpreg = 0x00, apbclock = 0x00;
 154              		.loc 1 178 0
 155 000a 0023     		movs	r3, #0
 156 000c FB62     		str	r3, [r7, #44]
 157 000e 0023     		movs	r3, #0
 158 0010 BB62     		str	r3, [r7, #40]
 179:/home/virusv/TDSAST_IOT/Libraries/src/stm32f10x_usart.c ****   uint32_t integerdivider = 0x00;
 159              		.loc 1 179 0
 160 0012 0023     		movs	r3, #0
 161 0014 7B62     		str	r3, [r7, #36]
 180:/home/virusv/TDSAST_IOT/Libraries/src/stm32f10x_usart.c ****   uint32_t fractionaldivider = 0x00;
 162              		.loc 1 180 0
 163 0016 0023     		movs	r3, #0
 164 0018 3B62     		str	r3, [r7, #32]
 181:/home/virusv/TDSAST_IOT/Libraries/src/stm32f10x_usart.c ****   uint32_t usartxbase = 0;
 165              		.loc 1 181 0
 166 001a 0023     		movs	r3, #0
 167 001c FB61     		str	r3, [r7, #28]
 182:/home/virusv/TDSAST_IOT/Libraries/src/stm32f10x_usart.c ****   RCC_ClocksTypeDef RCC_ClocksStatus;
 183:/home/virusv/TDSAST_IOT/Libraries/src/stm32f10x_usart.c ****   /* Check the parameters */
 184:/home/virusv/TDSAST_IOT/Libraries/src/stm32f10x_usart.c ****   assert_param(IS_USART_ALL_PERIPH(USARTx));
 185:/home/virusv/TDSAST_IOT/Libraries/src/stm32f10x_usart.c ****   assert_param(IS_USART_BAUDRATE(USART_InitStruct->USART_BaudRate));  
 186:/home/virusv/TDSAST_IOT/Libraries/src/stm32f10x_usart.c ****   assert_param(IS_USART_WORD_LENGTH(USART_InitStruct->USART_WordLength));
 187:/home/virusv/TDSAST_IOT/Libraries/src/stm32f10x_usart.c ****   assert_param(IS_USART_STOPBITS(USART_InitStruct->USART_StopBits));
 188:/home/virusv/TDSAST_IOT/Libraries/src/stm32f10x_usart.c ****   assert_param(IS_USART_PARITY(USART_InitStruct->USART_Parity));
 189:/home/virusv/TDSAST_IOT/Libraries/src/stm32f10x_usart.c ****   assert_param(IS_USART_MODE(USART_InitStruct->USART_Mode));
 190:/home/virusv/TDSAST_IOT/Libraries/src/stm32f10x_usart.c ****   assert_param(IS_USART_HARDWARE_FLOW_CONTROL(USART_InitStruct->USART_HardwareFlowControl));
 191:/home/virusv/TDSAST_IOT/Libraries/src/stm32f10x_usart.c ****   /* The hardware flow control is available only for USART1, USART2 and USART3 */
 192:/home/virusv/TDSAST_IOT/Libraries/src/stm32f10x_usart.c ****   if (USART_InitStruct->USART_HardwareFlowControl != USART_HardwareFlowControl_None)
 193:/home/virusv/TDSAST_IOT/Libraries/src/stm32f10x_usart.c ****   {
 194:/home/virusv/TDSAST_IOT/Libraries/src/stm32f10x_usart.c ****     assert_param(IS_USART_123_PERIPH(USARTx));
 195:/home/virusv/TDSAST_IOT/Libraries/src/stm32f10x_usart.c ****   }
 196:/home/virusv/TDSAST_IOT/Libraries/src/stm32f10x_usart.c **** 
 197:/home/virusv/TDSAST_IOT/Libraries/src/stm32f10x_usart.c ****   usartxbase = (uint32_t)USARTx;
 168              		.loc 1 197 0
 169 001e 7B68     		ldr	r3, [r7, #4]
 170 0020 FB61     		str	r3, [r7, #28]
 198:/home/virusv/TDSAST_IOT/Libraries/src/stm32f10x_usart.c **** 
 199:/home/virusv/TDSAST_IOT/Libraries/src/stm32f10x_usart.c **** /*---------------------------- USART CR2 Configuration -----------------------*/
 200:/home/virusv/TDSAST_IOT/Libraries/src/stm32f10x_usart.c ****   tmpreg = USARTx->CR2;
 171              		.loc 1 200 0
 172 0022 7B68     		ldr	r3, [r7, #4]
 173 0024 1B8A     		ldrh	r3, [r3, #16]	@ movhi
 174 0026 9BB2     		uxth	r3, r3
 175 0028 FB62     		str	r3, [r7, #44]
 201:/home/virusv/TDSAST_IOT/Libraries/src/stm32f10x_usart.c ****   /* Clear STOP[13:12] bits */
 202:/home/virusv/TDSAST_IOT/Libraries/src/stm32f10x_usart.c ****   tmpreg &= CR2_STOP_CLEAR_Mask;
 176              		.loc 1 202 0
 177 002a FA6A     		ldr	r2, [r7, #44]
 178 002c 4CF6FF73 		movw	r3, #53247
 179 0030 1340     		ands	r3, r3, r2
 180 0032 FB62     		str	r3, [r7, #44]
 203:/home/virusv/TDSAST_IOT/Libraries/src/stm32f10x_usart.c ****   /* Configure the USART Stop Bits, Clock, CPOL, CPHA and LastBit ------------*/
 204:/home/virusv/TDSAST_IOT/Libraries/src/stm32f10x_usart.c ****   /* Set STOP[13:12] bits according to USART_StopBits value */
 205:/home/virusv/TDSAST_IOT/Libraries/src/stm32f10x_usart.c ****   tmpreg |= (uint32_t)USART_InitStruct->USART_StopBits;
 181              		.loc 1 205 0
 182 0034 3B68     		ldr	r3, [r7]
 183 0036 DB88     		ldrh	r3, [r3, #6]
 184 0038 1A46     		mov	r2, r3
 185 003a FB6A     		ldr	r3, [r7, #44]
 186 003c 1343     		orrs	r3, r3, r2
 187 003e FB62     		str	r3, [r7, #44]
 206:/home/virusv/TDSAST_IOT/Libraries/src/stm32f10x_usart.c ****   
 207:/home/virusv/TDSAST_IOT/Libraries/src/stm32f10x_usart.c ****   /* Write to USART CR2 */
 208:/home/virusv/TDSAST_IOT/Libraries/src/stm32f10x_usart.c ****   USARTx->CR2 = (uint16_t)tmpreg;
 188              		.loc 1 208 0
 189 0040 FB6A     		ldr	r3, [r7, #44]
 190 0042 9AB2     		uxth	r2, r3
 191 0044 7B68     		ldr	r3, [r7, #4]
 192 0046 1A82     		strh	r2, [r3, #16]	@ movhi
 209:/home/virusv/TDSAST_IOT/Libraries/src/stm32f10x_usart.c **** 
 210:/home/virusv/TDSAST_IOT/Libraries/src/stm32f10x_usart.c **** /*---------------------------- USART CR1 Configuration -----------------------*/
 211:/home/virusv/TDSAST_IOT/Libraries/src/stm32f10x_usart.c ****   tmpreg = USARTx->CR1;
 193              		.loc 1 211 0
 194 0048 7B68     		ldr	r3, [r7, #4]
 195 004a 9B89     		ldrh	r3, [r3, #12]	@ movhi
 196 004c 9BB2     		uxth	r3, r3
 197 004e FB62     		str	r3, [r7, #44]
 212:/home/virusv/TDSAST_IOT/Libraries/src/stm32f10x_usart.c ****   /* Clear M, PCE, PS, TE and RE bits */
 213:/home/virusv/TDSAST_IOT/Libraries/src/stm32f10x_usart.c ****   tmpreg &= CR1_CLEAR_Mask;
 198              		.loc 1 213 0
 199 0050 FA6A     		ldr	r2, [r7, #44]
 200 0052 4EF6F313 		movw	r3, #59891
 201 0056 1340     		ands	r3, r3, r2
 202 0058 FB62     		str	r3, [r7, #44]
 214:/home/virusv/TDSAST_IOT/Libraries/src/stm32f10x_usart.c ****   /* Configure the USART Word Length, Parity and mode ----------------------- */
 215:/home/virusv/TDSAST_IOT/Libraries/src/stm32f10x_usart.c ****   /* Set the M bits according to USART_WordLength value */
 216:/home/virusv/TDSAST_IOT/Libraries/src/stm32f10x_usart.c ****   /* Set PCE and PS bits according to USART_Parity value */
 217:/home/virusv/TDSAST_IOT/Libraries/src/stm32f10x_usart.c ****   /* Set TE and RE bits according to USART_Mode value */
 218:/home/virusv/TDSAST_IOT/Libraries/src/stm32f10x_usart.c ****   tmpreg |= (uint32_t)USART_InitStruct->USART_WordLength | USART_InitStruct->USART_Parity |
 203              		.loc 1 218 0
 204 005a 3B68     		ldr	r3, [r7]
 205 005c 9A88     		ldrh	r2, [r3, #4]
 206 005e 3B68     		ldr	r3, [r7]
 207 0060 1B89     		ldrh	r3, [r3, #8]
 208 0062 1343     		orrs	r3, r3, r2
 209 0064 9AB2     		uxth	r2, r3
 219:/home/virusv/TDSAST_IOT/Libraries/src/stm32f10x_usart.c ****             USART_InitStruct->USART_Mode;
 210              		.loc 1 219 0
 211 0066 3B68     		ldr	r3, [r7]
 212 0068 5B89     		ldrh	r3, [r3, #10]
 218:/home/virusv/TDSAST_IOT/Libraries/src/stm32f10x_usart.c ****             USART_InitStruct->USART_Mode;
 213              		.loc 1 218 0
 214 006a 1343     		orrs	r3, r3, r2
 215 006c 9BB2     		uxth	r3, r3
 216 006e 1A46     		mov	r2, r3
 217 0070 FB6A     		ldr	r3, [r7, #44]
 218 0072 1343     		orrs	r3, r3, r2
 219 0074 FB62     		str	r3, [r7, #44]
 220:/home/virusv/TDSAST_IOT/Libraries/src/stm32f10x_usart.c ****   /* Write to USART CR1 */
 221:/home/virusv/TDSAST_IOT/Libraries/src/stm32f10x_usart.c ****   USARTx->CR1 = (uint16_t)tmpreg;
 220              		.loc 1 221 0
 221 0076 FB6A     		ldr	r3, [r7, #44]
 222 0078 9AB2     		uxth	r2, r3
 223 007a 7B68     		ldr	r3, [r7, #4]
 224 007c 9A81     		strh	r2, [r3, #12]	@ movhi
 222:/home/virusv/TDSAST_IOT/Libraries/src/stm32f10x_usart.c **** 
 223:/home/virusv/TDSAST_IOT/Libraries/src/stm32f10x_usart.c **** /*---------------------------- USART CR3 Configuration -----------------------*/  
 224:/home/virusv/TDSAST_IOT/Libraries/src/stm32f10x_usart.c ****   tmpreg = USARTx->CR3;
 225              		.loc 1 224 0
 226 007e 7B68     		ldr	r3, [r7, #4]
 227 0080 9B8A     		ldrh	r3, [r3, #20]	@ movhi
 228 0082 9BB2     		uxth	r3, r3
 229 0084 FB62     		str	r3, [r7, #44]
 225:/home/virusv/TDSAST_IOT/Libraries/src/stm32f10x_usart.c ****   /* Clear CTSE and RTSE bits */
 226:/home/virusv/TDSAST_IOT/Libraries/src/stm32f10x_usart.c ****   tmpreg &= CR3_CLEAR_Mask;
 230              		.loc 1 226 0
 231 0086 FA6A     		ldr	r2, [r7, #44]
 232 0088 4FF6FF43 		movw	r3, #64767
 233 008c 1340     		ands	r3, r3, r2
 234 008e FB62     		str	r3, [r7, #44]
 227:/home/virusv/TDSAST_IOT/Libraries/src/stm32f10x_usart.c ****   /* Configure the USART HFC -------------------------------------------------*/
 228:/home/virusv/TDSAST_IOT/Libraries/src/stm32f10x_usart.c ****   /* Set CTSE and RTSE bits according to USART_HardwareFlowControl value */
 229:/home/virusv/TDSAST_IOT/Libraries/src/stm32f10x_usart.c ****   tmpreg |= USART_InitStruct->USART_HardwareFlowControl;
 235              		.loc 1 229 0
 236 0090 3B68     		ldr	r3, [r7]
 237 0092 9B89     		ldrh	r3, [r3, #12]
 238 0094 1A46     		mov	r2, r3
 239 0096 FB6A     		ldr	r3, [r7, #44]
 240 0098 1343     		orrs	r3, r3, r2
 241 009a FB62     		str	r3, [r7, #44]
 230:/home/virusv/TDSAST_IOT/Libraries/src/stm32f10x_usart.c ****   /* Write to USART CR3 */
 231:/home/virusv/TDSAST_IOT/Libraries/src/stm32f10x_usart.c ****   USARTx->CR3 = (uint16_t)tmpreg;
 242              		.loc 1 231 0
 243 009c FB6A     		ldr	r3, [r7, #44]
 244 009e 9AB2     		uxth	r2, r3
 245 00a0 7B68     		ldr	r3, [r7, #4]
 246 00a2 9A82     		strh	r2, [r3, #20]	@ movhi
 232:/home/virusv/TDSAST_IOT/Libraries/src/stm32f10x_usart.c **** 
 233:/home/virusv/TDSAST_IOT/Libraries/src/stm32f10x_usart.c **** /*---------------------------- USART BRR Configuration -----------------------*/
 234:/home/virusv/TDSAST_IOT/Libraries/src/stm32f10x_usart.c ****   /* Configure the USART Baud Rate -------------------------------------------*/
 235:/home/virusv/TDSAST_IOT/Libraries/src/stm32f10x_usart.c ****   RCC_GetClocksFreq(&RCC_ClocksStatus);
 247              		.loc 1 235 0
 248 00a4 07F10803 		add	r3, r7, #8
 249 00a8 1846     		mov	r0, r3
 250 00aa FFF7FEFF 		bl	RCC_GetClocksFreq
 236:/home/virusv/TDSAST_IOT/Libraries/src/stm32f10x_usart.c ****   if (usartxbase == USART1_BASE)
 251              		.loc 1 236 0
 252 00ae FB69     		ldr	r3, [r7, #28]
 253 00b0 2E4A     		ldr	r2, .L16
 254 00b2 9342     		cmp	r3, r2
 255 00b4 02D1     		bne	.L10
 237:/home/virusv/TDSAST_IOT/Libraries/src/stm32f10x_usart.c ****   {
 238:/home/virusv/TDSAST_IOT/Libraries/src/stm32f10x_usart.c ****     apbclock = RCC_ClocksStatus.PCLK2_Frequency;
 256              		.loc 1 238 0
 257 00b6 7B69     		ldr	r3, [r7, #20]
 258 00b8 BB62     		str	r3, [r7, #40]
 259 00ba 01E0     		b	.L11
 260              	.L10:
 239:/home/virusv/TDSAST_IOT/Libraries/src/stm32f10x_usart.c ****   }
 240:/home/virusv/TDSAST_IOT/Libraries/src/stm32f10x_usart.c ****   else
 241:/home/virusv/TDSAST_IOT/Libraries/src/stm32f10x_usart.c ****   {
 242:/home/virusv/TDSAST_IOT/Libraries/src/stm32f10x_usart.c ****     apbclock = RCC_ClocksStatus.PCLK1_Frequency;
 261              		.loc 1 242 0
 262 00bc 3B69     		ldr	r3, [r7, #16]
 263 00be BB62     		str	r3, [r7, #40]
 264              	.L11:
 243:/home/virusv/TDSAST_IOT/Libraries/src/stm32f10x_usart.c ****   }
 244:/home/virusv/TDSAST_IOT/Libraries/src/stm32f10x_usart.c ****   
 245:/home/virusv/TDSAST_IOT/Libraries/src/stm32f10x_usart.c ****   /* Determine the integer part */
 246:/home/virusv/TDSAST_IOT/Libraries/src/stm32f10x_usart.c ****   if ((USARTx->CR1 & CR1_OVER8_Set) != 0)
 265              		.loc 1 246 0
 266 00c0 7B68     		ldr	r3, [r7, #4]
 267 00c2 9B89     		ldrh	r3, [r3, #12]	@ movhi
 268 00c4 9BB2     		uxth	r3, r3
 269 00c6 9BB2     		uxth	r3, r3
 270 00c8 1BB2     		sxth	r3, r3
 271 00ca 002B     		cmp	r3, #0
 272 00cc 0CDA     		bge	.L12
 247:/home/virusv/TDSAST_IOT/Libraries/src/stm32f10x_usart.c ****   {
 248:/home/virusv/TDSAST_IOT/Libraries/src/stm32f10x_usart.c ****     /* Integer part computing in case Oversampling mode is 8 Samples */
 249:/home/virusv/TDSAST_IOT/Libraries/src/stm32f10x_usart.c ****     integerdivider = ((25 * apbclock) / (2 * (USART_InitStruct->USART_BaudRate)));    
 273              		.loc 1 249 0
 274 00ce BA6A     		ldr	r2, [r7, #40]
 275 00d0 1346     		mov	r3, r2
 276 00d2 9B00     		lsls	r3, r3, #2
 277 00d4 1344     		add	r3, r3, r2
 278 00d6 9A00     		lsls	r2, r3, #2
 279 00d8 1A44     		add	r2, r2, r3
 280 00da 3B68     		ldr	r3, [r7]
 281 00dc 1B68     		ldr	r3, [r3]
 282 00de 5B00     		lsls	r3, r3, #1
 283 00e0 B2FBF3F3 		udiv	r3, r2, r3
 284 00e4 7B62     		str	r3, [r7, #36]
 285 00e6 0BE0     		b	.L13
 286              	.L12:
 250:/home/virusv/TDSAST_IOT/Libraries/src/stm32f10x_usart.c ****   }
 251:/home/virusv/TDSAST_IOT/Libraries/src/stm32f10x_usart.c ****   else /* if ((USARTx->CR1 & CR1_OVER8_Set) == 0) */
 252:/home/virusv/TDSAST_IOT/Libraries/src/stm32f10x_usart.c ****   {
 253:/home/virusv/TDSAST_IOT/Libraries/src/stm32f10x_usart.c ****     /* Integer part computing in case Oversampling mode is 16 Samples */
 254:/home/virusv/TDSAST_IOT/Libraries/src/stm32f10x_usart.c ****     integerdivider = ((25 * apbclock) / (4 * (USART_InitStruct->USART_BaudRate)));    
 287              		.loc 1 254 0
 288 00e8 BA6A     		ldr	r2, [r7, #40]
 289 00ea 1346     		mov	r3, r2
 290 00ec 9B00     		lsls	r3, r3, #2
 291 00ee 1344     		add	r3, r3, r2
 292 00f0 9A00     		lsls	r2, r3, #2
 293 00f2 1A44     		add	r2, r2, r3
 294 00f4 3B68     		ldr	r3, [r7]
 295 00f6 1B68     		ldr	r3, [r3]
 296 00f8 9B00     		lsls	r3, r3, #2
 297 00fa B2FBF3F3 		udiv	r3, r2, r3
 298 00fe 7B62     		str	r3, [r7, #36]
 299              	.L13:
 255:/home/virusv/TDSAST_IOT/Libraries/src/stm32f10x_usart.c ****   }
 256:/home/virusv/TDSAST_IOT/Libraries/src/stm32f10x_usart.c ****   tmpreg = (integerdivider / 100) << 4;
 300              		.loc 1 256 0
 301 0100 7B6A     		ldr	r3, [r7, #36]
 302 0102 1B4A     		ldr	r2, .L16+4
 303 0104 A2FB0323 		umull	r2, r3, r2, r3
 304 0108 5B09     		lsrs	r3, r3, #5
 305 010a 1B01     		lsls	r3, r3, #4
 306 010c FB62     		str	r3, [r7, #44]
 257:/home/virusv/TDSAST_IOT/Libraries/src/stm32f10x_usart.c **** 
 258:/home/virusv/TDSAST_IOT/Libraries/src/stm32f10x_usart.c ****   /* Determine the fractional part */
 259:/home/virusv/TDSAST_IOT/Libraries/src/stm32f10x_usart.c ****   fractionaldivider = integerdivider - (100 * (tmpreg >> 4));
 307              		.loc 1 259 0
 308 010e FB6A     		ldr	r3, [r7, #44]
 309 0110 1B09     		lsrs	r3, r3, #4
 310 0112 6422     		movs	r2, #100
 311 0114 02FB03F3 		mul	r3, r2, r3
 312 0118 7A6A     		ldr	r2, [r7, #36]
 313 011a D31A     		subs	r3, r2, r3
 314 011c 3B62     		str	r3, [r7, #32]
 260:/home/virusv/TDSAST_IOT/Libraries/src/stm32f10x_usart.c **** 
 261:/home/virusv/TDSAST_IOT/Libraries/src/stm32f10x_usart.c ****   /* Implement the fractional part in the register */
 262:/home/virusv/TDSAST_IOT/Libraries/src/stm32f10x_usart.c ****   if ((USARTx->CR1 & CR1_OVER8_Set) != 0)
 315              		.loc 1 262 0
 316 011e 7B68     		ldr	r3, [r7, #4]
 317 0120 9B89     		ldrh	r3, [r3, #12]	@ movhi
 318 0122 9BB2     		uxth	r3, r3
 319 0124 9BB2     		uxth	r3, r3
 320 0126 1BB2     		sxth	r3, r3
 321 0128 002B     		cmp	r3, #0
 322 012a 0CDA     		bge	.L14
 263:/home/virusv/TDSAST_IOT/Libraries/src/stm32f10x_usart.c ****   {
 264:/home/virusv/TDSAST_IOT/Libraries/src/stm32f10x_usart.c ****     tmpreg |= ((((fractionaldivider * 8) + 50) / 100)) & ((uint8_t)0x07);
 323              		.loc 1 264 0
 324 012c 3B6A     		ldr	r3, [r7, #32]
 325 012e DB00     		lsls	r3, r3, #3
 326 0130 3233     		adds	r3, r3, #50
 327 0132 0F4A     		ldr	r2, .L16+4
 328 0134 A2FB0323 		umull	r2, r3, r2, r3
 329 0138 5B09     		lsrs	r3, r3, #5
 330 013a 03F00703 		and	r3, r3, #7
 331 013e FA6A     		ldr	r2, [r7, #44]
 332 0140 1343     		orrs	r3, r3, r2
 333 0142 FB62     		str	r3, [r7, #44]
 334 0144 0BE0     		b	.L15
 335              	.L14:
 265:/home/virusv/TDSAST_IOT/Libraries/src/stm32f10x_usart.c ****   }
 266:/home/virusv/TDSAST_IOT/Libraries/src/stm32f10x_usart.c ****   else /* if ((USARTx->CR1 & CR1_OVER8_Set) == 0) */
 267:/home/virusv/TDSAST_IOT/Libraries/src/stm32f10x_usart.c ****   {
 268:/home/virusv/TDSAST_IOT/Libraries/src/stm32f10x_usart.c ****     tmpreg |= ((((fractionaldivider * 16) + 50) / 100)) & ((uint8_t)0x0F);
 336              		.loc 1 268 0
 337 0146 3B6A     		ldr	r3, [r7, #32]
 338 0148 1B01     		lsls	r3, r3, #4
 339 014a 3233     		adds	r3, r3, #50
 340 014c 084A     		ldr	r2, .L16+4
 341 014e A2FB0323 		umull	r2, r3, r2, r3
 342 0152 5B09     		lsrs	r3, r3, #5
 343 0154 03F00F03 		and	r3, r3, #15
 344 0158 FA6A     		ldr	r2, [r7, #44]
 345 015a 1343     		orrs	r3, r3, r2
 346 015c FB62     		str	r3, [r7, #44]
 347              	.L15:
 269:/home/virusv/TDSAST_IOT/Libraries/src/stm32f10x_usart.c ****   }
 270:/home/virusv/TDSAST_IOT/Libraries/src/stm32f10x_usart.c ****   
 271:/home/virusv/TDSAST_IOT/Libraries/src/stm32f10x_usart.c ****   /* Write to USART BRR */
 272:/home/virusv/TDSAST_IOT/Libraries/src/stm32f10x_usart.c ****   USARTx->BRR = (uint16_t)tmpreg;
 348              		.loc 1 272 0
 349 015e FB6A     		ldr	r3, [r7, #44]
 350 0160 9AB2     		uxth	r2, r3
 351 0162 7B68     		ldr	r3, [r7, #4]
 352 0164 1A81     		strh	r2, [r3, #8]	@ movhi
 273:/home/virusv/TDSAST_IOT/Libraries/src/stm32f10x_usart.c **** }
 353              		.loc 1 273 0
 354 0166 3037     		adds	r7, r7, #48
 355              		.cfi_def_cfa_offset 8
 356 0168 BD46     		mov	sp, r7
 357              		.cfi_def_cfa_register 13
 358              		@ sp needed
 359 016a 80BD     		pop	{r7, pc}
 360              	.L17:
 361              		.align	2
 362              	.L16:
 363 016c 00380140 		.word	1073821696
 364 0170 1F85EB51 		.word	1374389535
 365              		.cfi_endproc
 366              	.LFE30:
 368              		.section	.text.USART_StructInit,"ax",%progbits
 369              		.align	2
 370              		.global	USART_StructInit
 371              		.thumb
 372              		.thumb_func
 374              	USART_StructInit:
 375              	.LFB31:
 274:/home/virusv/TDSAST_IOT/Libraries/src/stm32f10x_usart.c **** 
 275:/home/virusv/TDSAST_IOT/Libraries/src/stm32f10x_usart.c **** /**
 276:/home/virusv/TDSAST_IOT/Libraries/src/stm32f10x_usart.c ****   * @brief  Fills each USART_InitStruct member with its default value.
 277:/home/virusv/TDSAST_IOT/Libraries/src/stm32f10x_usart.c ****   * @param  USART_InitStruct: pointer to a USART_InitTypeDef structure
 278:/home/virusv/TDSAST_IOT/Libraries/src/stm32f10x_usart.c ****   *         which will be initialized.
 279:/home/virusv/TDSAST_IOT/Libraries/src/stm32f10x_usart.c ****   * @retval None
 280:/home/virusv/TDSAST_IOT/Libraries/src/stm32f10x_usart.c ****   */
 281:/home/virusv/TDSAST_IOT/Libraries/src/stm32f10x_usart.c **** void USART_StructInit(USART_InitTypeDef* USART_InitStruct)
 282:/home/virusv/TDSAST_IOT/Libraries/src/stm32f10x_usart.c **** {
 376              		.loc 1 282 0
 377              		.cfi_startproc
 378              		@ args = 0, pretend = 0, frame = 8
 379              		@ frame_needed = 1, uses_anonymous_args = 0
 380              		@ link register save eliminated.
 381 0000 80B4     		push	{r7}
 382              		.cfi_def_cfa_offset 4
 383              		.cfi_offset 7, -4
 384 0002 83B0     		sub	sp, sp, #12
 385              		.cfi_def_cfa_offset 16
 386 0004 00AF     		add	r7, sp, #0
 387              		.cfi_def_cfa_register 7
 388 0006 7860     		str	r0, [r7, #4]
 283:/home/virusv/TDSAST_IOT/Libraries/src/stm32f10x_usart.c ****   /* USART_InitStruct members default value */
 284:/home/virusv/TDSAST_IOT/Libraries/src/stm32f10x_usart.c ****   USART_InitStruct->USART_BaudRate = 9600;
 389              		.loc 1 284 0
 390 0008 7B68     		ldr	r3, [r7, #4]
 391 000a 4FF41652 		mov	r2, #9600
 392 000e 1A60     		str	r2, [r3]
 285:/home/virusv/TDSAST_IOT/Libraries/src/stm32f10x_usart.c ****   USART_InitStruct->USART_WordLength = USART_WordLength_8b;
 393              		.loc 1 285 0
 394 0010 7B68     		ldr	r3, [r7, #4]
 395 0012 0022     		movs	r2, #0
 396 0014 9A80     		strh	r2, [r3, #4]	@ movhi
 286:/home/virusv/TDSAST_IOT/Libraries/src/stm32f10x_usart.c ****   USART_InitStruct->USART_StopBits = USART_StopBits_1;
 397              		.loc 1 286 0
 398 0016 7B68     		ldr	r3, [r7, #4]
 399 0018 0022     		movs	r2, #0
 400 001a DA80     		strh	r2, [r3, #6]	@ movhi
 287:/home/virusv/TDSAST_IOT/Libraries/src/stm32f10x_usart.c ****   USART_InitStruct->USART_Parity = USART_Parity_No ;
 401              		.loc 1 287 0
 402 001c 7B68     		ldr	r3, [r7, #4]
 403 001e 0022     		movs	r2, #0
 404 0020 1A81     		strh	r2, [r3, #8]	@ movhi
 288:/home/virusv/TDSAST_IOT/Libraries/src/stm32f10x_usart.c ****   USART_InitStruct->USART_Mode = USART_Mode_Rx | USART_Mode_Tx;
 405              		.loc 1 288 0
 406 0022 7B68     		ldr	r3, [r7, #4]
 407 0024 0C22     		movs	r2, #12
 408 0026 5A81     		strh	r2, [r3, #10]	@ movhi
 289:/home/virusv/TDSAST_IOT/Libraries/src/stm32f10x_usart.c ****   USART_InitStruct->USART_HardwareFlowControl = USART_HardwareFlowControl_None;  
 409              		.loc 1 289 0
 410 0028 7B68     		ldr	r3, [r7, #4]
 411 002a 0022     		movs	r2, #0
 412 002c 9A81     		strh	r2, [r3, #12]	@ movhi
 290:/home/virusv/TDSAST_IOT/Libraries/src/stm32f10x_usart.c **** }
 413              		.loc 1 290 0
 414 002e 0C37     		adds	r7, r7, #12
 415              		.cfi_def_cfa_offset 4
 416 0030 BD46     		mov	sp, r7
 417              		.cfi_def_cfa_register 13
 418              		@ sp needed
 419 0032 5DF8047B 		ldr	r7, [sp], #4
 420              		.cfi_restore 7
 421              		.cfi_def_cfa_offset 0
 422 0036 7047     		bx	lr
 423              		.cfi_endproc
 424              	.LFE31:
 426              		.section	.text.USART_ClockInit,"ax",%progbits
 427              		.align	2
 428              		.global	USART_ClockInit
 429              		.thumb
 430              		.thumb_func
 432              	USART_ClockInit:
 433              	.LFB32:
 291:/home/virusv/TDSAST_IOT/Libraries/src/stm32f10x_usart.c **** 
 292:/home/virusv/TDSAST_IOT/Libraries/src/stm32f10x_usart.c **** /**
 293:/home/virusv/TDSAST_IOT/Libraries/src/stm32f10x_usart.c ****   * @brief  Initializes the USARTx peripheral Clock according to the 
 294:/home/virusv/TDSAST_IOT/Libraries/src/stm32f10x_usart.c ****   *          specified parameters in the USART_ClockInitStruct .
 295:/home/virusv/TDSAST_IOT/Libraries/src/stm32f10x_usart.c ****   * @param  USARTx: where x can be 1, 2, 3 to select the USART peripheral.
 296:/home/virusv/TDSAST_IOT/Libraries/src/stm32f10x_usart.c ****   * @param  USART_ClockInitStruct: pointer to a USART_ClockInitTypeDef
 297:/home/virusv/TDSAST_IOT/Libraries/src/stm32f10x_usart.c ****   *         structure that contains the configuration information for the specified 
 298:/home/virusv/TDSAST_IOT/Libraries/src/stm32f10x_usart.c ****   *         USART peripheral.  
 299:/home/virusv/TDSAST_IOT/Libraries/src/stm32f10x_usart.c ****   * @note The Smart Card and Synchronous modes are not available for UART4 and UART5.
 300:/home/virusv/TDSAST_IOT/Libraries/src/stm32f10x_usart.c ****   * @retval None
 301:/home/virusv/TDSAST_IOT/Libraries/src/stm32f10x_usart.c ****   */
 302:/home/virusv/TDSAST_IOT/Libraries/src/stm32f10x_usart.c **** void USART_ClockInit(USART_TypeDef* USARTx, USART_ClockInitTypeDef* USART_ClockInitStruct)
 303:/home/virusv/TDSAST_IOT/Libraries/src/stm32f10x_usart.c **** {
 434              		.loc 1 303 0
 435              		.cfi_startproc
 436              		@ args = 0, pretend = 0, frame = 16
 437              		@ frame_needed = 1, uses_anonymous_args = 0
 438              		@ link register save eliminated.
 439 0000 80B4     		push	{r7}
 440              		.cfi_def_cfa_offset 4
 441              		.cfi_offset 7, -4
 442 0002 85B0     		sub	sp, sp, #20
 443              		.cfi_def_cfa_offset 24
 444 0004 00AF     		add	r7, sp, #0
 445              		.cfi_def_cfa_register 7
 446 0006 7860     		str	r0, [r7, #4]
 447 0008 3960     		str	r1, [r7]
 304:/home/virusv/TDSAST_IOT/Libraries/src/stm32f10x_usart.c ****   uint32_t tmpreg = 0x00;
 448              		.loc 1 304 0
 449 000a 0023     		movs	r3, #0
 450 000c FB60     		str	r3, [r7, #12]
 305:/home/virusv/TDSAST_IOT/Libraries/src/stm32f10x_usart.c ****   /* Check the parameters */
 306:/home/virusv/TDSAST_IOT/Libraries/src/stm32f10x_usart.c ****   assert_param(IS_USART_123_PERIPH(USARTx));
 307:/home/virusv/TDSAST_IOT/Libraries/src/stm32f10x_usart.c ****   assert_param(IS_USART_CLOCK(USART_ClockInitStruct->USART_Clock));
 308:/home/virusv/TDSAST_IOT/Libraries/src/stm32f10x_usart.c ****   assert_param(IS_USART_CPOL(USART_ClockInitStruct->USART_CPOL));
 309:/home/virusv/TDSAST_IOT/Libraries/src/stm32f10x_usart.c ****   assert_param(IS_USART_CPHA(USART_ClockInitStruct->USART_CPHA));
 310:/home/virusv/TDSAST_IOT/Libraries/src/stm32f10x_usart.c ****   assert_param(IS_USART_LASTBIT(USART_ClockInitStruct->USART_LastBit));
 311:/home/virusv/TDSAST_IOT/Libraries/src/stm32f10x_usart.c ****   
 312:/home/virusv/TDSAST_IOT/Libraries/src/stm32f10x_usart.c **** /*---------------------------- USART CR2 Configuration -----------------------*/
 313:/home/virusv/TDSAST_IOT/Libraries/src/stm32f10x_usart.c ****   tmpreg = USARTx->CR2;
 451              		.loc 1 313 0
 452 000e 7B68     		ldr	r3, [r7, #4]
 453 0010 1B8A     		ldrh	r3, [r3, #16]	@ movhi
 454 0012 9BB2     		uxth	r3, r3
 455 0014 FB60     		str	r3, [r7, #12]
 314:/home/virusv/TDSAST_IOT/Libraries/src/stm32f10x_usart.c ****   /* Clear CLKEN, CPOL, CPHA and LBCL bits */
 315:/home/virusv/TDSAST_IOT/Libraries/src/stm32f10x_usart.c ****   tmpreg &= CR2_CLOCK_CLEAR_Mask;
 456              		.loc 1 315 0
 457 0016 FA68     		ldr	r2, [r7, #12]
 458 0018 4FF2FF03 		movw	r3, #61695
 459 001c 1340     		ands	r3, r3, r2
 460 001e FB60     		str	r3, [r7, #12]
 316:/home/virusv/TDSAST_IOT/Libraries/src/stm32f10x_usart.c ****   /* Configure the USART Clock, CPOL, CPHA and LastBit ------------*/
 317:/home/virusv/TDSAST_IOT/Libraries/src/stm32f10x_usart.c ****   /* Set CLKEN bit according to USART_Clock value */
 318:/home/virusv/TDSAST_IOT/Libraries/src/stm32f10x_usart.c ****   /* Set CPOL bit according to USART_CPOL value */
 319:/home/virusv/TDSAST_IOT/Libraries/src/stm32f10x_usart.c ****   /* Set CPHA bit according to USART_CPHA value */
 320:/home/virusv/TDSAST_IOT/Libraries/src/stm32f10x_usart.c ****   /* Set LBCL bit according to USART_LastBit value */
 321:/home/virusv/TDSAST_IOT/Libraries/src/stm32f10x_usart.c ****   tmpreg |= (uint32_t)USART_ClockInitStruct->USART_Clock | USART_ClockInitStruct->USART_CPOL | 
 461              		.loc 1 321 0
 462 0020 3B68     		ldr	r3, [r7]
 463 0022 1A88     		ldrh	r2, [r3]
 464 0024 3B68     		ldr	r3, [r7]
 465 0026 5B88     		ldrh	r3, [r3, #2]
 322:/home/virusv/TDSAST_IOT/Libraries/src/stm32f10x_usart.c ****                  USART_ClockInitStruct->USART_CPHA | USART_ClockInitStruct->USART_LastBit;
 466              		.loc 1 322 0
 467 0028 1343     		orrs	r3, r3, r2
 468 002a 9AB2     		uxth	r2, r3
 469 002c 3B68     		ldr	r3, [r7]
 470 002e 9B88     		ldrh	r3, [r3, #4]
 471 0030 1343     		orrs	r3, r3, r2
 472 0032 9AB2     		uxth	r2, r3
 473 0034 3B68     		ldr	r3, [r7]
 474 0036 DB88     		ldrh	r3, [r3, #6]
 475 0038 1343     		orrs	r3, r3, r2
 476 003a 9BB2     		uxth	r3, r3
 477 003c 1A46     		mov	r2, r3
 321:/home/virusv/TDSAST_IOT/Libraries/src/stm32f10x_usart.c ****                  USART_ClockInitStruct->USART_CPHA | USART_ClockInitStruct->USART_LastBit;
 478              		.loc 1 321 0
 479 003e FB68     		ldr	r3, [r7, #12]
 480 0040 1343     		orrs	r3, r3, r2
 481 0042 FB60     		str	r3, [r7, #12]
 323:/home/virusv/TDSAST_IOT/Libraries/src/stm32f10x_usart.c ****   /* Write to USART CR2 */
 324:/home/virusv/TDSAST_IOT/Libraries/src/stm32f10x_usart.c ****   USARTx->CR2 = (uint16_t)tmpreg;
 482              		.loc 1 324 0
 483 0044 FB68     		ldr	r3, [r7, #12]
 484 0046 9AB2     		uxth	r2, r3
 485 0048 7B68     		ldr	r3, [r7, #4]
 486 004a 1A82     		strh	r2, [r3, #16]	@ movhi
 325:/home/virusv/TDSAST_IOT/Libraries/src/stm32f10x_usart.c **** }
 487              		.loc 1 325 0
 488 004c 1437     		adds	r7, r7, #20
 489              		.cfi_def_cfa_offset 4
 490 004e BD46     		mov	sp, r7
 491              		.cfi_def_cfa_register 13
 492              		@ sp needed
 493 0050 5DF8047B 		ldr	r7, [sp], #4
 494              		.cfi_restore 7
 495              		.cfi_def_cfa_offset 0
 496 0054 7047     		bx	lr
 497              		.cfi_endproc
 498              	.LFE32:
 500 0056 00BF     		.section	.text.USART_ClockStructInit,"ax",%progbits
 501              		.align	2
 502              		.global	USART_ClockStructInit
 503              		.thumb
 504              		.thumb_func
 506              	USART_ClockStructInit:
 507              	.LFB33:
 326:/home/virusv/TDSAST_IOT/Libraries/src/stm32f10x_usart.c **** 
 327:/home/virusv/TDSAST_IOT/Libraries/src/stm32f10x_usart.c **** /**
 328:/home/virusv/TDSAST_IOT/Libraries/src/stm32f10x_usart.c ****   * @brief  Fills each USART_ClockInitStruct member with its default value.
 329:/home/virusv/TDSAST_IOT/Libraries/src/stm32f10x_usart.c ****   * @param  USART_ClockInitStruct: pointer to a USART_ClockInitTypeDef
 330:/home/virusv/TDSAST_IOT/Libraries/src/stm32f10x_usart.c ****   *         structure which will be initialized.
 331:/home/virusv/TDSAST_IOT/Libraries/src/stm32f10x_usart.c ****   * @retval None
 332:/home/virusv/TDSAST_IOT/Libraries/src/stm32f10x_usart.c ****   */
 333:/home/virusv/TDSAST_IOT/Libraries/src/stm32f10x_usart.c **** void USART_ClockStructInit(USART_ClockInitTypeDef* USART_ClockInitStruct)
 334:/home/virusv/TDSAST_IOT/Libraries/src/stm32f10x_usart.c **** {
 508              		.loc 1 334 0
 509              		.cfi_startproc
 510              		@ args = 0, pretend = 0, frame = 8
 511              		@ frame_needed = 1, uses_anonymous_args = 0
 512              		@ link register save eliminated.
 513 0000 80B4     		push	{r7}
 514              		.cfi_def_cfa_offset 4
 515              		.cfi_offset 7, -4
 516 0002 83B0     		sub	sp, sp, #12
 517              		.cfi_def_cfa_offset 16
 518 0004 00AF     		add	r7, sp, #0
 519              		.cfi_def_cfa_register 7
 520 0006 7860     		str	r0, [r7, #4]
 335:/home/virusv/TDSAST_IOT/Libraries/src/stm32f10x_usart.c ****   /* USART_ClockInitStruct members default value */
 336:/home/virusv/TDSAST_IOT/Libraries/src/stm32f10x_usart.c ****   USART_ClockInitStruct->USART_Clock = USART_Clock_Disable;
 521              		.loc 1 336 0
 522 0008 7B68     		ldr	r3, [r7, #4]
 523 000a 0022     		movs	r2, #0
 524 000c 1A80     		strh	r2, [r3]	@ movhi
 337:/home/virusv/TDSAST_IOT/Libraries/src/stm32f10x_usart.c ****   USART_ClockInitStruct->USART_CPOL = USART_CPOL_Low;
 525              		.loc 1 337 0
 526 000e 7B68     		ldr	r3, [r7, #4]
 527 0010 0022     		movs	r2, #0
 528 0012 5A80     		strh	r2, [r3, #2]	@ movhi
 338:/home/virusv/TDSAST_IOT/Libraries/src/stm32f10x_usart.c ****   USART_ClockInitStruct->USART_CPHA = USART_CPHA_1Edge;
 529              		.loc 1 338 0
 530 0014 7B68     		ldr	r3, [r7, #4]
 531 0016 0022     		movs	r2, #0
 532 0018 9A80     		strh	r2, [r3, #4]	@ movhi
 339:/home/virusv/TDSAST_IOT/Libraries/src/stm32f10x_usart.c ****   USART_ClockInitStruct->USART_LastBit = USART_LastBit_Disable;
 533              		.loc 1 339 0
 534 001a 7B68     		ldr	r3, [r7, #4]
 535 001c 0022     		movs	r2, #0
 536 001e DA80     		strh	r2, [r3, #6]	@ movhi
 340:/home/virusv/TDSAST_IOT/Libraries/src/stm32f10x_usart.c **** }
 537              		.loc 1 340 0
 538 0020 0C37     		adds	r7, r7, #12
 539              		.cfi_def_cfa_offset 4
 540 0022 BD46     		mov	sp, r7
 541              		.cfi_def_cfa_register 13
 542              		@ sp needed
 543 0024 5DF8047B 		ldr	r7, [sp], #4
 544              		.cfi_restore 7
 545              		.cfi_def_cfa_offset 0
 546 0028 7047     		bx	lr
 547              		.cfi_endproc
 548              	.LFE33:
 550 002a 00BF     		.section	.text.USART_Cmd,"ax",%progbits
 551              		.align	2
 552              		.global	USART_Cmd
 553              		.thumb
 554              		.thumb_func
 556              	USART_Cmd:
 557              	.LFB34:
 341:/home/virusv/TDSAST_IOT/Libraries/src/stm32f10x_usart.c **** 
 342:/home/virusv/TDSAST_IOT/Libraries/src/stm32f10x_usart.c **** /**
 343:/home/virusv/TDSAST_IOT/Libraries/src/stm32f10x_usart.c ****   * @brief  Enables or disables the specified USART peripheral.
 344:/home/virusv/TDSAST_IOT/Libraries/src/stm32f10x_usart.c ****   * @param  USARTx: Select the USART or the UART peripheral. 
 345:/home/virusv/TDSAST_IOT/Libraries/src/stm32f10x_usart.c ****   *         This parameter can be one of the following values:
 346:/home/virusv/TDSAST_IOT/Libraries/src/stm32f10x_usart.c ****   *           USART1, USART2, USART3, UART4 or UART5.
 347:/home/virusv/TDSAST_IOT/Libraries/src/stm32f10x_usart.c ****   * @param  NewState: new state of the USARTx peripheral.
 348:/home/virusv/TDSAST_IOT/Libraries/src/stm32f10x_usart.c ****   *         This parameter can be: ENABLE or DISABLE.
 349:/home/virusv/TDSAST_IOT/Libraries/src/stm32f10x_usart.c ****   * @retval None
 350:/home/virusv/TDSAST_IOT/Libraries/src/stm32f10x_usart.c ****   */
 351:/home/virusv/TDSAST_IOT/Libraries/src/stm32f10x_usart.c **** void USART_Cmd(USART_TypeDef* USARTx, FunctionalState NewState)
 352:/home/virusv/TDSAST_IOT/Libraries/src/stm32f10x_usart.c **** {
 558              		.loc 1 352 0
 559              		.cfi_startproc
 560              		@ args = 0, pretend = 0, frame = 8
 561              		@ frame_needed = 1, uses_anonymous_args = 0
 562              		@ link register save eliminated.
 563 0000 80B4     		push	{r7}
 564              		.cfi_def_cfa_offset 4
 565              		.cfi_offset 7, -4
 566 0002 83B0     		sub	sp, sp, #12
 567              		.cfi_def_cfa_offset 16
 568 0004 00AF     		add	r7, sp, #0
 569              		.cfi_def_cfa_register 7
 570 0006 7860     		str	r0, [r7, #4]
 571 0008 0B46     		mov	r3, r1
 572 000a FB70     		strb	r3, [r7, #3]
 353:/home/virusv/TDSAST_IOT/Libraries/src/stm32f10x_usart.c ****   /* Check the parameters */
 354:/home/virusv/TDSAST_IOT/Libraries/src/stm32f10x_usart.c ****   assert_param(IS_USART_ALL_PERIPH(USARTx));
 355:/home/virusv/TDSAST_IOT/Libraries/src/stm32f10x_usart.c ****   assert_param(IS_FUNCTIONAL_STATE(NewState));
 356:/home/virusv/TDSAST_IOT/Libraries/src/stm32f10x_usart.c ****   
 357:/home/virusv/TDSAST_IOT/Libraries/src/stm32f10x_usart.c ****   if (NewState != DISABLE)
 573              		.loc 1 357 0
 574 000c FB78     		ldrb	r3, [r7, #3]	@ zero_extendqisi2
 575 000e 002B     		cmp	r3, #0
 576 0010 08D0     		beq	.L22
 358:/home/virusv/TDSAST_IOT/Libraries/src/stm32f10x_usart.c ****   {
 359:/home/virusv/TDSAST_IOT/Libraries/src/stm32f10x_usart.c ****     /* Enable the selected USART by setting the UE bit in the CR1 register */
 360:/home/virusv/TDSAST_IOT/Libraries/src/stm32f10x_usart.c ****     USARTx->CR1 |= CR1_UE_Set;
 577              		.loc 1 360 0
 578 0012 7B68     		ldr	r3, [r7, #4]
 579 0014 9B89     		ldrh	r3, [r3, #12]	@ movhi
 580 0016 9BB2     		uxth	r3, r3
 581 0018 43F40053 		orr	r3, r3, #8192
 582 001c 9AB2     		uxth	r2, r3
 583 001e 7B68     		ldr	r3, [r7, #4]
 584 0020 9A81     		strh	r2, [r3, #12]	@ movhi
 585 0022 07E0     		b	.L21
 586              	.L22:
 361:/home/virusv/TDSAST_IOT/Libraries/src/stm32f10x_usart.c ****   }
 362:/home/virusv/TDSAST_IOT/Libraries/src/stm32f10x_usart.c ****   else
 363:/home/virusv/TDSAST_IOT/Libraries/src/stm32f10x_usart.c ****   {
 364:/home/virusv/TDSAST_IOT/Libraries/src/stm32f10x_usart.c ****     /* Disable the selected USART by clearing the UE bit in the CR1 register */
 365:/home/virusv/TDSAST_IOT/Libraries/src/stm32f10x_usart.c ****     USARTx->CR1 &= CR1_UE_Reset;
 587              		.loc 1 365 0
 588 0024 7B68     		ldr	r3, [r7, #4]
 589 0026 9B89     		ldrh	r3, [r3, #12]	@ movhi
 590 0028 9BB2     		uxth	r3, r3
 591 002a 23F40053 		bic	r3, r3, #8192
 592 002e 9AB2     		uxth	r2, r3
 593 0030 7B68     		ldr	r3, [r7, #4]
 594 0032 9A81     		strh	r2, [r3, #12]	@ movhi
 595              	.L21:
 366:/home/virusv/TDSAST_IOT/Libraries/src/stm32f10x_usart.c ****   }
 367:/home/virusv/TDSAST_IOT/Libraries/src/stm32f10x_usart.c **** }
 596              		.loc 1 367 0
 597 0034 0C37     		adds	r7, r7, #12
 598              		.cfi_def_cfa_offset 4
 599 0036 BD46     		mov	sp, r7
 600              		.cfi_def_cfa_register 13
 601              		@ sp needed
 602 0038 5DF8047B 		ldr	r7, [sp], #4
 603              		.cfi_restore 7
 604              		.cfi_def_cfa_offset 0
 605 003c 7047     		bx	lr
 606              		.cfi_endproc
 607              	.LFE34:
 609 003e 00BF     		.section	.text.USART_ITConfig,"ax",%progbits
 610              		.align	2
 611              		.global	USART_ITConfig
 612              		.thumb
 613              		.thumb_func
 615              	USART_ITConfig:
 616              	.LFB35:
 368:/home/virusv/TDSAST_IOT/Libraries/src/stm32f10x_usart.c **** 
 369:/home/virusv/TDSAST_IOT/Libraries/src/stm32f10x_usart.c **** /**
 370:/home/virusv/TDSAST_IOT/Libraries/src/stm32f10x_usart.c ****   * @brief  Enables or disables the specified USART interrupts.
 371:/home/virusv/TDSAST_IOT/Libraries/src/stm32f10x_usart.c ****   * @param  USARTx: Select the USART or the UART peripheral. 
 372:/home/virusv/TDSAST_IOT/Libraries/src/stm32f10x_usart.c ****   *   This parameter can be one of the following values:
 373:/home/virusv/TDSAST_IOT/Libraries/src/stm32f10x_usart.c ****   *   USART1, USART2, USART3, UART4 or UART5.
 374:/home/virusv/TDSAST_IOT/Libraries/src/stm32f10x_usart.c ****   * @param  USART_IT: specifies the USART interrupt sources to be enabled or disabled.
 375:/home/virusv/TDSAST_IOT/Libraries/src/stm32f10x_usart.c ****   *   This parameter can be one of the following values:
 376:/home/virusv/TDSAST_IOT/Libraries/src/stm32f10x_usart.c ****   *     @arg USART_IT_CTS:  CTS change interrupt (not available for UART4 and UART5)
 377:/home/virusv/TDSAST_IOT/Libraries/src/stm32f10x_usart.c ****   *     @arg USART_IT_LBD:  LIN Break detection interrupt
 378:/home/virusv/TDSAST_IOT/Libraries/src/stm32f10x_usart.c ****   *     @arg USART_IT_TXE:  Transmit Data Register empty interrupt
 379:/home/virusv/TDSAST_IOT/Libraries/src/stm32f10x_usart.c ****   *     @arg USART_IT_TC:   Transmission complete interrupt
 380:/home/virusv/TDSAST_IOT/Libraries/src/stm32f10x_usart.c ****   *     @arg USART_IT_RXNE: Receive Data register not empty interrupt
 381:/home/virusv/TDSAST_IOT/Libraries/src/stm32f10x_usart.c ****   *     @arg USART_IT_IDLE: Idle line detection interrupt
 382:/home/virusv/TDSAST_IOT/Libraries/src/stm32f10x_usart.c ****   *     @arg USART_IT_PE:   Parity Error interrupt
 383:/home/virusv/TDSAST_IOT/Libraries/src/stm32f10x_usart.c ****   *     @arg USART_IT_ERR:  Error interrupt(Frame error, noise error, overrun error)
 384:/home/virusv/TDSAST_IOT/Libraries/src/stm32f10x_usart.c ****   * @param  NewState: new state of the specified USARTx interrupts.
 385:/home/virusv/TDSAST_IOT/Libraries/src/stm32f10x_usart.c ****   *   This parameter can be: ENABLE or DISABLE.
 386:/home/virusv/TDSAST_IOT/Libraries/src/stm32f10x_usart.c ****   * @retval None
 387:/home/virusv/TDSAST_IOT/Libraries/src/stm32f10x_usart.c ****   */
 388:/home/virusv/TDSAST_IOT/Libraries/src/stm32f10x_usart.c **** void USART_ITConfig(USART_TypeDef* USARTx, uint16_t USART_IT, FunctionalState NewState)
 389:/home/virusv/TDSAST_IOT/Libraries/src/stm32f10x_usart.c **** {
 617              		.loc 1 389 0
 618              		.cfi_startproc
 619              		@ args = 0, pretend = 0, frame = 24
 620              		@ frame_needed = 1, uses_anonymous_args = 0
 621              		@ link register save eliminated.
 622 0000 80B4     		push	{r7}
 623              		.cfi_def_cfa_offset 4
 624              		.cfi_offset 7, -4
 625 0002 87B0     		sub	sp, sp, #28
 626              		.cfi_def_cfa_offset 32
 627 0004 00AF     		add	r7, sp, #0
 628              		.cfi_def_cfa_register 7
 629 0006 7860     		str	r0, [r7, #4]
 630 0008 0B46     		mov	r3, r1
 631 000a 7B80     		strh	r3, [r7, #2]	@ movhi
 632 000c 1346     		mov	r3, r2
 633 000e 7B70     		strb	r3, [r7, #1]
 390:/home/virusv/TDSAST_IOT/Libraries/src/stm32f10x_usart.c ****   uint32_t usartreg = 0x00, itpos = 0x00, itmask = 0x00;
 634              		.loc 1 390 0
 635 0010 0023     		movs	r3, #0
 636 0012 3B61     		str	r3, [r7, #16]
 637 0014 0023     		movs	r3, #0
 638 0016 FB60     		str	r3, [r7, #12]
 639 0018 0023     		movs	r3, #0
 640 001a BB60     		str	r3, [r7, #8]
 391:/home/virusv/TDSAST_IOT/Libraries/src/stm32f10x_usart.c ****   uint32_t usartxbase = 0x00;
 641              		.loc 1 391 0
 642 001c 0023     		movs	r3, #0
 643 001e 7B61     		str	r3, [r7, #20]
 392:/home/virusv/TDSAST_IOT/Libraries/src/stm32f10x_usart.c ****   /* Check the parameters */
 393:/home/virusv/TDSAST_IOT/Libraries/src/stm32f10x_usart.c ****   assert_param(IS_USART_ALL_PERIPH(USARTx));
 394:/home/virusv/TDSAST_IOT/Libraries/src/stm32f10x_usart.c ****   assert_param(IS_USART_CONFIG_IT(USART_IT));
 395:/home/virusv/TDSAST_IOT/Libraries/src/stm32f10x_usart.c ****   assert_param(IS_FUNCTIONAL_STATE(NewState));
 396:/home/virusv/TDSAST_IOT/Libraries/src/stm32f10x_usart.c ****   /* The CTS interrupt is not available for UART4 and UART5 */
 397:/home/virusv/TDSAST_IOT/Libraries/src/stm32f10x_usart.c ****   if (USART_IT == USART_IT_CTS)
 398:/home/virusv/TDSAST_IOT/Libraries/src/stm32f10x_usart.c ****   {
 399:/home/virusv/TDSAST_IOT/Libraries/src/stm32f10x_usart.c ****     assert_param(IS_USART_123_PERIPH(USARTx));
 400:/home/virusv/TDSAST_IOT/Libraries/src/stm32f10x_usart.c ****   }   
 401:/home/virusv/TDSAST_IOT/Libraries/src/stm32f10x_usart.c ****   
 402:/home/virusv/TDSAST_IOT/Libraries/src/stm32f10x_usart.c ****   usartxbase = (uint32_t)USARTx;
 644              		.loc 1 402 0
 645 0020 7B68     		ldr	r3, [r7, #4]
 646 0022 7B61     		str	r3, [r7, #20]
 403:/home/virusv/TDSAST_IOT/Libraries/src/stm32f10x_usart.c **** 
 404:/home/virusv/TDSAST_IOT/Libraries/src/stm32f10x_usart.c ****   /* Get the USART register index */
 405:/home/virusv/TDSAST_IOT/Libraries/src/stm32f10x_usart.c ****   usartreg = (((uint8_t)USART_IT) >> 0x05);
 647              		.loc 1 405 0
 648 0024 7B88     		ldrh	r3, [r7, #2]	@ movhi
 649 0026 DBB2     		uxtb	r3, r3
 650 0028 5B09     		lsrs	r3, r3, #5
 651 002a DBB2     		uxtb	r3, r3
 652 002c 3B61     		str	r3, [r7, #16]
 406:/home/virusv/TDSAST_IOT/Libraries/src/stm32f10x_usart.c **** 
 407:/home/virusv/TDSAST_IOT/Libraries/src/stm32f10x_usart.c ****   /* Get the interrupt position */
 408:/home/virusv/TDSAST_IOT/Libraries/src/stm32f10x_usart.c ****   itpos = USART_IT & IT_Mask;
 653              		.loc 1 408 0
 654 002e 7B88     		ldrh	r3, [r7, #2]
 655 0030 03F01F03 		and	r3, r3, #31
 656 0034 FB60     		str	r3, [r7, #12]
 409:/home/virusv/TDSAST_IOT/Libraries/src/stm32f10x_usart.c ****   itmask = (((uint32_t)0x01) << itpos);
 657              		.loc 1 409 0
 658 0036 FB68     		ldr	r3, [r7, #12]
 659 0038 0122     		movs	r2, #1
 660 003a 02FA03F3 		lsl	r3, r2, r3
 661 003e BB60     		str	r3, [r7, #8]
 410:/home/virusv/TDSAST_IOT/Libraries/src/stm32f10x_usart.c ****     
 411:/home/virusv/TDSAST_IOT/Libraries/src/stm32f10x_usart.c ****   if (usartreg == 0x01) /* The IT is in CR1 register */
 662              		.loc 1 411 0
 663 0040 3B69     		ldr	r3, [r7, #16]
 664 0042 012B     		cmp	r3, #1
 665 0044 03D1     		bne	.L25
 412:/home/virusv/TDSAST_IOT/Libraries/src/stm32f10x_usart.c ****   {
 413:/home/virusv/TDSAST_IOT/Libraries/src/stm32f10x_usart.c ****     usartxbase += 0x0C;
 666              		.loc 1 413 0
 667 0046 7B69     		ldr	r3, [r7, #20]
 668 0048 0C33     		adds	r3, r3, #12
 669 004a 7B61     		str	r3, [r7, #20]
 670 004c 09E0     		b	.L26
 671              	.L25:
 414:/home/virusv/TDSAST_IOT/Libraries/src/stm32f10x_usart.c ****   }
 415:/home/virusv/TDSAST_IOT/Libraries/src/stm32f10x_usart.c ****   else if (usartreg == 0x02) /* The IT is in CR2 register */
 672              		.loc 1 415 0
 673 004e 3B69     		ldr	r3, [r7, #16]
 674 0050 022B     		cmp	r3, #2
 675 0052 03D1     		bne	.L27
 416:/home/virusv/TDSAST_IOT/Libraries/src/stm32f10x_usart.c ****   {
 417:/home/virusv/TDSAST_IOT/Libraries/src/stm32f10x_usart.c ****     usartxbase += 0x10;
 676              		.loc 1 417 0
 677 0054 7B69     		ldr	r3, [r7, #20]
 678 0056 1033     		adds	r3, r3, #16
 679 0058 7B61     		str	r3, [r7, #20]
 680 005a 02E0     		b	.L26
 681              	.L27:
 418:/home/virusv/TDSAST_IOT/Libraries/src/stm32f10x_usart.c ****   }
 419:/home/virusv/TDSAST_IOT/Libraries/src/stm32f10x_usart.c ****   else /* The IT is in CR3 register */
 420:/home/virusv/TDSAST_IOT/Libraries/src/stm32f10x_usart.c ****   {
 421:/home/virusv/TDSAST_IOT/Libraries/src/stm32f10x_usart.c ****     usartxbase += 0x14; 
 682              		.loc 1 421 0
 683 005c 7B69     		ldr	r3, [r7, #20]
 684 005e 1433     		adds	r3, r3, #20
 685 0060 7B61     		str	r3, [r7, #20]
 686              	.L26:
 422:/home/virusv/TDSAST_IOT/Libraries/src/stm32f10x_usart.c ****   }
 423:/home/virusv/TDSAST_IOT/Libraries/src/stm32f10x_usart.c ****   if (NewState != DISABLE)
 687              		.loc 1 423 0
 688 0062 7B78     		ldrb	r3, [r7, #1]	@ zero_extendqisi2
 689 0064 002B     		cmp	r3, #0
 690 0066 06D0     		beq	.L28
 424:/home/virusv/TDSAST_IOT/Libraries/src/stm32f10x_usart.c ****   {
 425:/home/virusv/TDSAST_IOT/Libraries/src/stm32f10x_usart.c ****     *(__IO uint32_t*)usartxbase |= itmask;
 691              		.loc 1 425 0
 692 0068 7B69     		ldr	r3, [r7, #20]
 693 006a 7A69     		ldr	r2, [r7, #20]
 694 006c 1168     		ldr	r1, [r2]
 695 006e BA68     		ldr	r2, [r7, #8]
 696 0070 0A43     		orrs	r2, r2, r1
 697 0072 1A60     		str	r2, [r3]
 698 0074 06E0     		b	.L24
 699              	.L28:
 426:/home/virusv/TDSAST_IOT/Libraries/src/stm32f10x_usart.c ****   }
 427:/home/virusv/TDSAST_IOT/Libraries/src/stm32f10x_usart.c ****   else
 428:/home/virusv/TDSAST_IOT/Libraries/src/stm32f10x_usart.c ****   {
 429:/home/virusv/TDSAST_IOT/Libraries/src/stm32f10x_usart.c ****     *(__IO uint32_t*)usartxbase &= ~itmask;
 700              		.loc 1 429 0
 701 0076 7B69     		ldr	r3, [r7, #20]
 702 0078 7A69     		ldr	r2, [r7, #20]
 703 007a 1168     		ldr	r1, [r2]
 704 007c BA68     		ldr	r2, [r7, #8]
 705 007e D243     		mvns	r2, r2
 706 0080 0A40     		ands	r2, r2, r1
 707 0082 1A60     		str	r2, [r3]
 708              	.L24:
 430:/home/virusv/TDSAST_IOT/Libraries/src/stm32f10x_usart.c ****   }
 431:/home/virusv/TDSAST_IOT/Libraries/src/stm32f10x_usart.c **** }
 709              		.loc 1 431 0
 710 0084 1C37     		adds	r7, r7, #28
 711              		.cfi_def_cfa_offset 4
 712 0086 BD46     		mov	sp, r7
 713              		.cfi_def_cfa_register 13
 714              		@ sp needed
 715 0088 5DF8047B 		ldr	r7, [sp], #4
 716              		.cfi_restore 7
 717              		.cfi_def_cfa_offset 0
 718 008c 7047     		bx	lr
 719              		.cfi_endproc
 720              	.LFE35:
 722 008e 00BF     		.section	.text.USART_DMACmd,"ax",%progbits
 723              		.align	2
 724              		.global	USART_DMACmd
 725              		.thumb
 726              		.thumb_func
 728              	USART_DMACmd:
 729              	.LFB36:
 432:/home/virusv/TDSAST_IOT/Libraries/src/stm32f10x_usart.c **** 
 433:/home/virusv/TDSAST_IOT/Libraries/src/stm32f10x_usart.c **** /**
 434:/home/virusv/TDSAST_IOT/Libraries/src/stm32f10x_usart.c ****   * @brief  Enables or disables the USARTs DMA interface.
 435:/home/virusv/TDSAST_IOT/Libraries/src/stm32f10x_usart.c ****   * @param  USARTx: Select the USART or the UART peripheral. 
 436:/home/virusv/TDSAST_IOT/Libraries/src/stm32f10x_usart.c ****   *   This parameter can be one of the following values:
 437:/home/virusv/TDSAST_IOT/Libraries/src/stm32f10x_usart.c ****   *   USART1, USART2, USART3, UART4 or UART5.
 438:/home/virusv/TDSAST_IOT/Libraries/src/stm32f10x_usart.c ****   * @param  USART_DMAReq: specifies the DMA request.
 439:/home/virusv/TDSAST_IOT/Libraries/src/stm32f10x_usart.c ****   *   This parameter can be any combination of the following values:
 440:/home/virusv/TDSAST_IOT/Libraries/src/stm32f10x_usart.c ****   *     @arg USART_DMAReq_Tx: USART DMA transmit request
 441:/home/virusv/TDSAST_IOT/Libraries/src/stm32f10x_usart.c ****   *     @arg USART_DMAReq_Rx: USART DMA receive request
 442:/home/virusv/TDSAST_IOT/Libraries/src/stm32f10x_usart.c ****   * @param  NewState: new state of the DMA Request sources.
 443:/home/virusv/TDSAST_IOT/Libraries/src/stm32f10x_usart.c ****   *   This parameter can be: ENABLE or DISABLE.
 444:/home/virusv/TDSAST_IOT/Libraries/src/stm32f10x_usart.c ****   * @note The DMA mode is not available for UART5 except in the STM32
 445:/home/virusv/TDSAST_IOT/Libraries/src/stm32f10x_usart.c ****   *       High density value line devices(STM32F10X_HD_VL).  
 446:/home/virusv/TDSAST_IOT/Libraries/src/stm32f10x_usart.c ****   * @retval None
 447:/home/virusv/TDSAST_IOT/Libraries/src/stm32f10x_usart.c ****   */
 448:/home/virusv/TDSAST_IOT/Libraries/src/stm32f10x_usart.c **** void USART_DMACmd(USART_TypeDef* USARTx, uint16_t USART_DMAReq, FunctionalState NewState)
 449:/home/virusv/TDSAST_IOT/Libraries/src/stm32f10x_usart.c **** {
 730              		.loc 1 449 0
 731              		.cfi_startproc
 732              		@ args = 0, pretend = 0, frame = 8
 733              		@ frame_needed = 1, uses_anonymous_args = 0
 734              		@ link register save eliminated.
 735 0000 80B4     		push	{r7}
 736              		.cfi_def_cfa_offset 4
 737              		.cfi_offset 7, -4
 738 0002 83B0     		sub	sp, sp, #12
 739              		.cfi_def_cfa_offset 16
 740 0004 00AF     		add	r7, sp, #0
 741              		.cfi_def_cfa_register 7
 742 0006 7860     		str	r0, [r7, #4]
 743 0008 0B46     		mov	r3, r1
 744 000a 7B80     		strh	r3, [r7, #2]	@ movhi
 745 000c 1346     		mov	r3, r2
 746 000e 7B70     		strb	r3, [r7, #1]
 450:/home/virusv/TDSAST_IOT/Libraries/src/stm32f10x_usart.c ****   /* Check the parameters */
 451:/home/virusv/TDSAST_IOT/Libraries/src/stm32f10x_usart.c ****   assert_param(IS_USART_ALL_PERIPH(USARTx));
 452:/home/virusv/TDSAST_IOT/Libraries/src/stm32f10x_usart.c ****   assert_param(IS_USART_DMAREQ(USART_DMAReq));  
 453:/home/virusv/TDSAST_IOT/Libraries/src/stm32f10x_usart.c ****   assert_param(IS_FUNCTIONAL_STATE(NewState)); 
 454:/home/virusv/TDSAST_IOT/Libraries/src/stm32f10x_usart.c ****   if (NewState != DISABLE)
 747              		.loc 1 454 0
 748 0010 7B78     		ldrb	r3, [r7, #1]	@ zero_extendqisi2
 749 0012 002B     		cmp	r3, #0
 750 0014 08D0     		beq	.L31
 455:/home/virusv/TDSAST_IOT/Libraries/src/stm32f10x_usart.c ****   {
 456:/home/virusv/TDSAST_IOT/Libraries/src/stm32f10x_usart.c ****     /* Enable the DMA transfer for selected requests by setting the DMAT and/or
 457:/home/virusv/TDSAST_IOT/Libraries/src/stm32f10x_usart.c ****        DMAR bits in the USART CR3 register */
 458:/home/virusv/TDSAST_IOT/Libraries/src/stm32f10x_usart.c ****     USARTx->CR3 |= USART_DMAReq;
 751              		.loc 1 458 0
 752 0016 7B68     		ldr	r3, [r7, #4]
 753 0018 9B8A     		ldrh	r3, [r3, #20]	@ movhi
 754 001a 9AB2     		uxth	r2, r3
 755 001c 7B88     		ldrh	r3, [r7, #2]	@ movhi
 756 001e 1343     		orrs	r3, r3, r2
 757 0020 9AB2     		uxth	r2, r3
 758 0022 7B68     		ldr	r3, [r7, #4]
 759 0024 9A82     		strh	r2, [r3, #20]	@ movhi
 760 0026 09E0     		b	.L30
 761              	.L31:
 459:/home/virusv/TDSAST_IOT/Libraries/src/stm32f10x_usart.c ****   }
 460:/home/virusv/TDSAST_IOT/Libraries/src/stm32f10x_usart.c ****   else
 461:/home/virusv/TDSAST_IOT/Libraries/src/stm32f10x_usart.c ****   {
 462:/home/virusv/TDSAST_IOT/Libraries/src/stm32f10x_usart.c ****     /* Disable the DMA transfer for selected requests by clearing the DMAT and/or
 463:/home/virusv/TDSAST_IOT/Libraries/src/stm32f10x_usart.c ****        DMAR bits in the USART CR3 register */
 464:/home/virusv/TDSAST_IOT/Libraries/src/stm32f10x_usart.c ****     USARTx->CR3 &= (uint16_t)~USART_DMAReq;
 762              		.loc 1 464 0
 763 0028 7B68     		ldr	r3, [r7, #4]
 764 002a 9B8A     		ldrh	r3, [r3, #20]	@ movhi
 765 002c 9AB2     		uxth	r2, r3
 766 002e 7B88     		ldrh	r3, [r7, #2]	@ movhi
 767 0030 DB43     		mvns	r3, r3
 768 0032 9BB2     		uxth	r3, r3
 769 0034 1340     		ands	r3, r3, r2
 770 0036 9AB2     		uxth	r2, r3
 771 0038 7B68     		ldr	r3, [r7, #4]
 772 003a 9A82     		strh	r2, [r3, #20]	@ movhi
 773              	.L30:
 465:/home/virusv/TDSAST_IOT/Libraries/src/stm32f10x_usart.c ****   }
 466:/home/virusv/TDSAST_IOT/Libraries/src/stm32f10x_usart.c **** }
 774              		.loc 1 466 0
 775 003c 0C37     		adds	r7, r7, #12
 776              		.cfi_def_cfa_offset 4
 777 003e BD46     		mov	sp, r7
 778              		.cfi_def_cfa_register 13
 779              		@ sp needed
 780 0040 5DF8047B 		ldr	r7, [sp], #4
 781              		.cfi_restore 7
 782              		.cfi_def_cfa_offset 0
 783 0044 7047     		bx	lr
 784              		.cfi_endproc
 785              	.LFE36:
 787 0046 00BF     		.section	.text.USART_SetAddress,"ax",%progbits
 788              		.align	2
 789              		.global	USART_SetAddress
 790              		.thumb
 791              		.thumb_func
 793              	USART_SetAddress:
 794              	.LFB37:
 467:/home/virusv/TDSAST_IOT/Libraries/src/stm32f10x_usart.c **** 
 468:/home/virusv/TDSAST_IOT/Libraries/src/stm32f10x_usart.c **** /**
 469:/home/virusv/TDSAST_IOT/Libraries/src/stm32f10x_usart.c ****   * @brief  Sets the address of the USART node.
 470:/home/virusv/TDSAST_IOT/Libraries/src/stm32f10x_usart.c ****   * @param  USARTx: Select the USART or the UART peripheral. 
 471:/home/virusv/TDSAST_IOT/Libraries/src/stm32f10x_usart.c ****   *   This parameter can be one of the following values:
 472:/home/virusv/TDSAST_IOT/Libraries/src/stm32f10x_usart.c ****   *   USART1, USART2, USART3, UART4 or UART5.
 473:/home/virusv/TDSAST_IOT/Libraries/src/stm32f10x_usart.c ****   * @param  USART_Address: Indicates the address of the USART node.
 474:/home/virusv/TDSAST_IOT/Libraries/src/stm32f10x_usart.c ****   * @retval None
 475:/home/virusv/TDSAST_IOT/Libraries/src/stm32f10x_usart.c ****   */
 476:/home/virusv/TDSAST_IOT/Libraries/src/stm32f10x_usart.c **** void USART_SetAddress(USART_TypeDef* USARTx, uint8_t USART_Address)
 477:/home/virusv/TDSAST_IOT/Libraries/src/stm32f10x_usart.c **** {
 795              		.loc 1 477 0
 796              		.cfi_startproc
 797              		@ args = 0, pretend = 0, frame = 8
 798              		@ frame_needed = 1, uses_anonymous_args = 0
 799              		@ link register save eliminated.
 800 0000 80B4     		push	{r7}
 801              		.cfi_def_cfa_offset 4
 802              		.cfi_offset 7, -4
 803 0002 83B0     		sub	sp, sp, #12
 804              		.cfi_def_cfa_offset 16
 805 0004 00AF     		add	r7, sp, #0
 806              		.cfi_def_cfa_register 7
 807 0006 7860     		str	r0, [r7, #4]
 808 0008 0B46     		mov	r3, r1
 809 000a FB70     		strb	r3, [r7, #3]
 478:/home/virusv/TDSAST_IOT/Libraries/src/stm32f10x_usart.c ****   /* Check the parameters */
 479:/home/virusv/TDSAST_IOT/Libraries/src/stm32f10x_usart.c ****   assert_param(IS_USART_ALL_PERIPH(USARTx));
 480:/home/virusv/TDSAST_IOT/Libraries/src/stm32f10x_usart.c ****   assert_param(IS_USART_ADDRESS(USART_Address)); 
 481:/home/virusv/TDSAST_IOT/Libraries/src/stm32f10x_usart.c ****     
 482:/home/virusv/TDSAST_IOT/Libraries/src/stm32f10x_usart.c ****   /* Clear the USART address */
 483:/home/virusv/TDSAST_IOT/Libraries/src/stm32f10x_usart.c ****   USARTx->CR2 &= CR2_Address_Mask;
 810              		.loc 1 483 0
 811 000c 7B68     		ldr	r3, [r7, #4]
 812 000e 1B8A     		ldrh	r3, [r3, #16]	@ movhi
 813 0010 9BB2     		uxth	r3, r3
 814 0012 23F00F03 		bic	r3, r3, #15
 815 0016 9AB2     		uxth	r2, r3
 816 0018 7B68     		ldr	r3, [r7, #4]
 817 001a 1A82     		strh	r2, [r3, #16]	@ movhi
 484:/home/virusv/TDSAST_IOT/Libraries/src/stm32f10x_usart.c ****   /* Set the USART address node */
 485:/home/virusv/TDSAST_IOT/Libraries/src/stm32f10x_usart.c ****   USARTx->CR2 |= USART_Address;
 818              		.loc 1 485 0
 819 001c 7B68     		ldr	r3, [r7, #4]
 820 001e 1B8A     		ldrh	r3, [r3, #16]	@ movhi
 821 0020 9AB2     		uxth	r2, r3
 822 0022 FB78     		ldrb	r3, [r7, #3]	@ zero_extendqisi2
 823 0024 9BB2     		uxth	r3, r3
 824 0026 1343     		orrs	r3, r3, r2
 825 0028 9AB2     		uxth	r2, r3
 826 002a 7B68     		ldr	r3, [r7, #4]
 827 002c 1A82     		strh	r2, [r3, #16]	@ movhi
 486:/home/virusv/TDSAST_IOT/Libraries/src/stm32f10x_usart.c **** }
 828              		.loc 1 486 0
 829 002e 0C37     		adds	r7, r7, #12
 830              		.cfi_def_cfa_offset 4
 831 0030 BD46     		mov	sp, r7
 832              		.cfi_def_cfa_register 13
 833              		@ sp needed
 834 0032 5DF8047B 		ldr	r7, [sp], #4
 835              		.cfi_restore 7
 836              		.cfi_def_cfa_offset 0
 837 0036 7047     		bx	lr
 838              		.cfi_endproc
 839              	.LFE37:
 841              		.section	.text.USART_WakeUpConfig,"ax",%progbits
 842              		.align	2
 843              		.global	USART_WakeUpConfig
 844              		.thumb
 845              		.thumb_func
 847              	USART_WakeUpConfig:
 848              	.LFB38:
 487:/home/virusv/TDSAST_IOT/Libraries/src/stm32f10x_usart.c **** 
 488:/home/virusv/TDSAST_IOT/Libraries/src/stm32f10x_usart.c **** /**
 489:/home/virusv/TDSAST_IOT/Libraries/src/stm32f10x_usart.c ****   * @brief  Selects the USART WakeUp method.
 490:/home/virusv/TDSAST_IOT/Libraries/src/stm32f10x_usart.c ****   * @param  USARTx: Select the USART or the UART peripheral. 
 491:/home/virusv/TDSAST_IOT/Libraries/src/stm32f10x_usart.c ****   *   This parameter can be one of the following values:
 492:/home/virusv/TDSAST_IOT/Libraries/src/stm32f10x_usart.c ****   *   USART1, USART2, USART3, UART4 or UART5.
 493:/home/virusv/TDSAST_IOT/Libraries/src/stm32f10x_usart.c ****   * @param  USART_WakeUp: specifies the USART wakeup method.
 494:/home/virusv/TDSAST_IOT/Libraries/src/stm32f10x_usart.c ****   *   This parameter can be one of the following values:
 495:/home/virusv/TDSAST_IOT/Libraries/src/stm32f10x_usart.c ****   *     @arg USART_WakeUp_IdleLine: WakeUp by an idle line detection
 496:/home/virusv/TDSAST_IOT/Libraries/src/stm32f10x_usart.c ****   *     @arg USART_WakeUp_AddressMark: WakeUp by an address mark
 497:/home/virusv/TDSAST_IOT/Libraries/src/stm32f10x_usart.c ****   * @retval None
 498:/home/virusv/TDSAST_IOT/Libraries/src/stm32f10x_usart.c ****   */
 499:/home/virusv/TDSAST_IOT/Libraries/src/stm32f10x_usart.c **** void USART_WakeUpConfig(USART_TypeDef* USARTx, uint16_t USART_WakeUp)
 500:/home/virusv/TDSAST_IOT/Libraries/src/stm32f10x_usart.c **** {
 849              		.loc 1 500 0
 850              		.cfi_startproc
 851              		@ args = 0, pretend = 0, frame = 8
 852              		@ frame_needed = 1, uses_anonymous_args = 0
 853              		@ link register save eliminated.
 854 0000 80B4     		push	{r7}
 855              		.cfi_def_cfa_offset 4
 856              		.cfi_offset 7, -4
 857 0002 83B0     		sub	sp, sp, #12
 858              		.cfi_def_cfa_offset 16
 859 0004 00AF     		add	r7, sp, #0
 860              		.cfi_def_cfa_register 7
 861 0006 7860     		str	r0, [r7, #4]
 862 0008 0B46     		mov	r3, r1
 863 000a 7B80     		strh	r3, [r7, #2]	@ movhi
 501:/home/virusv/TDSAST_IOT/Libraries/src/stm32f10x_usart.c ****   /* Check the parameters */
 502:/home/virusv/TDSAST_IOT/Libraries/src/stm32f10x_usart.c ****   assert_param(IS_USART_ALL_PERIPH(USARTx));
 503:/home/virusv/TDSAST_IOT/Libraries/src/stm32f10x_usart.c ****   assert_param(IS_USART_WAKEUP(USART_WakeUp));
 504:/home/virusv/TDSAST_IOT/Libraries/src/stm32f10x_usart.c ****   
 505:/home/virusv/TDSAST_IOT/Libraries/src/stm32f10x_usart.c ****   USARTx->CR1 &= CR1_WAKE_Mask;
 864              		.loc 1 505 0
 865 000c 7B68     		ldr	r3, [r7, #4]
 866 000e 9B89     		ldrh	r3, [r3, #12]	@ movhi
 867 0010 9BB2     		uxth	r3, r3
 868 0012 23F40063 		bic	r3, r3, #2048
 869 0016 9AB2     		uxth	r2, r3
 870 0018 7B68     		ldr	r3, [r7, #4]
 871 001a 9A81     		strh	r2, [r3, #12]	@ movhi
 506:/home/virusv/TDSAST_IOT/Libraries/src/stm32f10x_usart.c ****   USARTx->CR1 |= USART_WakeUp;
 872              		.loc 1 506 0
 873 001c 7B68     		ldr	r3, [r7, #4]
 874 001e 9B89     		ldrh	r3, [r3, #12]	@ movhi
 875 0020 9AB2     		uxth	r2, r3
 876 0022 7B88     		ldrh	r3, [r7, #2]	@ movhi
 877 0024 1343     		orrs	r3, r3, r2
 878 0026 9AB2     		uxth	r2, r3
 879 0028 7B68     		ldr	r3, [r7, #4]
 880 002a 9A81     		strh	r2, [r3, #12]	@ movhi
 507:/home/virusv/TDSAST_IOT/Libraries/src/stm32f10x_usart.c **** }
 881              		.loc 1 507 0
 882 002c 0C37     		adds	r7, r7, #12
 883              		.cfi_def_cfa_offset 4
 884 002e BD46     		mov	sp, r7
 885              		.cfi_def_cfa_register 13
 886              		@ sp needed
 887 0030 5DF8047B 		ldr	r7, [sp], #4
 888              		.cfi_restore 7
 889              		.cfi_def_cfa_offset 0
 890 0034 7047     		bx	lr
 891              		.cfi_endproc
 892              	.LFE38:
 894 0036 00BF     		.section	.text.USART_ReceiverWakeUpCmd,"ax",%progbits
 895              		.align	2
 896              		.global	USART_ReceiverWakeUpCmd
 897              		.thumb
 898              		.thumb_func
 900              	USART_ReceiverWakeUpCmd:
 901              	.LFB39:
 508:/home/virusv/TDSAST_IOT/Libraries/src/stm32f10x_usart.c **** 
 509:/home/virusv/TDSAST_IOT/Libraries/src/stm32f10x_usart.c **** /**
 510:/home/virusv/TDSAST_IOT/Libraries/src/stm32f10x_usart.c ****   * @brief  Determines if the USART is in mute mode or not.
 511:/home/virusv/TDSAST_IOT/Libraries/src/stm32f10x_usart.c ****   * @param  USARTx: Select the USART or the UART peripheral. 
 512:/home/virusv/TDSAST_IOT/Libraries/src/stm32f10x_usart.c ****   *   This parameter can be one of the following values:
 513:/home/virusv/TDSAST_IOT/Libraries/src/stm32f10x_usart.c ****   *   USART1, USART2, USART3, UART4 or UART5.
 514:/home/virusv/TDSAST_IOT/Libraries/src/stm32f10x_usart.c ****   * @param  NewState: new state of the USART mute mode.
 515:/home/virusv/TDSAST_IOT/Libraries/src/stm32f10x_usart.c ****   *   This parameter can be: ENABLE or DISABLE.
 516:/home/virusv/TDSAST_IOT/Libraries/src/stm32f10x_usart.c ****   * @retval None
 517:/home/virusv/TDSAST_IOT/Libraries/src/stm32f10x_usart.c ****   */
 518:/home/virusv/TDSAST_IOT/Libraries/src/stm32f10x_usart.c **** void USART_ReceiverWakeUpCmd(USART_TypeDef* USARTx, FunctionalState NewState)
 519:/home/virusv/TDSAST_IOT/Libraries/src/stm32f10x_usart.c **** {
 902              		.loc 1 519 0
 903              		.cfi_startproc
 904              		@ args = 0, pretend = 0, frame = 8
 905              		@ frame_needed = 1, uses_anonymous_args = 0
 906              		@ link register save eliminated.
 907 0000 80B4     		push	{r7}
 908              		.cfi_def_cfa_offset 4
 909              		.cfi_offset 7, -4
 910 0002 83B0     		sub	sp, sp, #12
 911              		.cfi_def_cfa_offset 16
 912 0004 00AF     		add	r7, sp, #0
 913              		.cfi_def_cfa_register 7
 914 0006 7860     		str	r0, [r7, #4]
 915 0008 0B46     		mov	r3, r1
 916 000a FB70     		strb	r3, [r7, #3]
 520:/home/virusv/TDSAST_IOT/Libraries/src/stm32f10x_usart.c ****   /* Check the parameters */
 521:/home/virusv/TDSAST_IOT/Libraries/src/stm32f10x_usart.c ****   assert_param(IS_USART_ALL_PERIPH(USARTx));
 522:/home/virusv/TDSAST_IOT/Libraries/src/stm32f10x_usart.c ****   assert_param(IS_FUNCTIONAL_STATE(NewState)); 
 523:/home/virusv/TDSAST_IOT/Libraries/src/stm32f10x_usart.c ****   
 524:/home/virusv/TDSAST_IOT/Libraries/src/stm32f10x_usart.c ****   if (NewState != DISABLE)
 917              		.loc 1 524 0
 918 000c FB78     		ldrb	r3, [r7, #3]	@ zero_extendqisi2
 919 000e 002B     		cmp	r3, #0
 920 0010 08D0     		beq	.L36
 525:/home/virusv/TDSAST_IOT/Libraries/src/stm32f10x_usart.c ****   {
 526:/home/virusv/TDSAST_IOT/Libraries/src/stm32f10x_usart.c ****     /* Enable the USART mute mode  by setting the RWU bit in the CR1 register */
 527:/home/virusv/TDSAST_IOT/Libraries/src/stm32f10x_usart.c ****     USARTx->CR1 |= CR1_RWU_Set;
 921              		.loc 1 527 0
 922 0012 7B68     		ldr	r3, [r7, #4]
 923 0014 9B89     		ldrh	r3, [r3, #12]	@ movhi
 924 0016 9BB2     		uxth	r3, r3
 925 0018 43F00203 		orr	r3, r3, #2
 926 001c 9AB2     		uxth	r2, r3
 927 001e 7B68     		ldr	r3, [r7, #4]
 928 0020 9A81     		strh	r2, [r3, #12]	@ movhi
 929 0022 07E0     		b	.L35
 930              	.L36:
 528:/home/virusv/TDSAST_IOT/Libraries/src/stm32f10x_usart.c ****   }
 529:/home/virusv/TDSAST_IOT/Libraries/src/stm32f10x_usart.c ****   else
 530:/home/virusv/TDSAST_IOT/Libraries/src/stm32f10x_usart.c ****   {
 531:/home/virusv/TDSAST_IOT/Libraries/src/stm32f10x_usart.c ****     /* Disable the USART mute mode by clearing the RWU bit in the CR1 register */
 532:/home/virusv/TDSAST_IOT/Libraries/src/stm32f10x_usart.c ****     USARTx->CR1 &= CR1_RWU_Reset;
 931              		.loc 1 532 0
 932 0024 7B68     		ldr	r3, [r7, #4]
 933 0026 9B89     		ldrh	r3, [r3, #12]	@ movhi
 934 0028 9BB2     		uxth	r3, r3
 935 002a 23F00203 		bic	r3, r3, #2
 936 002e 9AB2     		uxth	r2, r3
 937 0030 7B68     		ldr	r3, [r7, #4]
 938 0032 9A81     		strh	r2, [r3, #12]	@ movhi
 939              	.L35:
 533:/home/virusv/TDSAST_IOT/Libraries/src/stm32f10x_usart.c ****   }
 534:/home/virusv/TDSAST_IOT/Libraries/src/stm32f10x_usart.c **** }
 940              		.loc 1 534 0
 941 0034 0C37     		adds	r7, r7, #12
 942              		.cfi_def_cfa_offset 4
 943 0036 BD46     		mov	sp, r7
 944              		.cfi_def_cfa_register 13
 945              		@ sp needed
 946 0038 5DF8047B 		ldr	r7, [sp], #4
 947              		.cfi_restore 7
 948              		.cfi_def_cfa_offset 0
 949 003c 7047     		bx	lr
 950              		.cfi_endproc
 951              	.LFE39:
 953 003e 00BF     		.section	.text.USART_LINBreakDetectLengthConfig,"ax",%progbits
 954              		.align	2
 955              		.global	USART_LINBreakDetectLengthConfig
 956              		.thumb
 957              		.thumb_func
 959              	USART_LINBreakDetectLengthConfig:
 960              	.LFB40:
 535:/home/virusv/TDSAST_IOT/Libraries/src/stm32f10x_usart.c **** 
 536:/home/virusv/TDSAST_IOT/Libraries/src/stm32f10x_usart.c **** /**
 537:/home/virusv/TDSAST_IOT/Libraries/src/stm32f10x_usart.c ****   * @brief  Sets the USART LIN Break detection length.
 538:/home/virusv/TDSAST_IOT/Libraries/src/stm32f10x_usart.c ****   * @param  USARTx: Select the USART or the UART peripheral. 
 539:/home/virusv/TDSAST_IOT/Libraries/src/stm32f10x_usart.c ****   *   This parameter can be one of the following values:
 540:/home/virusv/TDSAST_IOT/Libraries/src/stm32f10x_usart.c ****   *   USART1, USART2, USART3, UART4 or UART5.
 541:/home/virusv/TDSAST_IOT/Libraries/src/stm32f10x_usart.c ****   * @param  USART_LINBreakDetectLength: specifies the LIN break detection length.
 542:/home/virusv/TDSAST_IOT/Libraries/src/stm32f10x_usart.c ****   *   This parameter can be one of the following values:
 543:/home/virusv/TDSAST_IOT/Libraries/src/stm32f10x_usart.c ****   *     @arg USART_LINBreakDetectLength_10b: 10-bit break detection
 544:/home/virusv/TDSAST_IOT/Libraries/src/stm32f10x_usart.c ****   *     @arg USART_LINBreakDetectLength_11b: 11-bit break detection
 545:/home/virusv/TDSAST_IOT/Libraries/src/stm32f10x_usart.c ****   * @retval None
 546:/home/virusv/TDSAST_IOT/Libraries/src/stm32f10x_usart.c ****   */
 547:/home/virusv/TDSAST_IOT/Libraries/src/stm32f10x_usart.c **** void USART_LINBreakDetectLengthConfig(USART_TypeDef* USARTx, uint16_t USART_LINBreakDetectLength)
 548:/home/virusv/TDSAST_IOT/Libraries/src/stm32f10x_usart.c **** {
 961              		.loc 1 548 0
 962              		.cfi_startproc
 963              		@ args = 0, pretend = 0, frame = 8
 964              		@ frame_needed = 1, uses_anonymous_args = 0
 965              		@ link register save eliminated.
 966 0000 80B4     		push	{r7}
 967              		.cfi_def_cfa_offset 4
 968              		.cfi_offset 7, -4
 969 0002 83B0     		sub	sp, sp, #12
 970              		.cfi_def_cfa_offset 16
 971 0004 00AF     		add	r7, sp, #0
 972              		.cfi_def_cfa_register 7
 973 0006 7860     		str	r0, [r7, #4]
 974 0008 0B46     		mov	r3, r1
 975 000a 7B80     		strh	r3, [r7, #2]	@ movhi
 549:/home/virusv/TDSAST_IOT/Libraries/src/stm32f10x_usart.c ****   /* Check the parameters */
 550:/home/virusv/TDSAST_IOT/Libraries/src/stm32f10x_usart.c ****   assert_param(IS_USART_ALL_PERIPH(USARTx));
 551:/home/virusv/TDSAST_IOT/Libraries/src/stm32f10x_usart.c ****   assert_param(IS_USART_LIN_BREAK_DETECT_LENGTH(USART_LINBreakDetectLength));
 552:/home/virusv/TDSAST_IOT/Libraries/src/stm32f10x_usart.c ****   
 553:/home/virusv/TDSAST_IOT/Libraries/src/stm32f10x_usart.c ****   USARTx->CR2 &= CR2_LBDL_Mask;
 976              		.loc 1 553 0
 977 000c 7B68     		ldr	r3, [r7, #4]
 978 000e 1B8A     		ldrh	r3, [r3, #16]	@ movhi
 979 0010 9BB2     		uxth	r3, r3
 980 0012 23F02003 		bic	r3, r3, #32
 981 0016 9AB2     		uxth	r2, r3
 982 0018 7B68     		ldr	r3, [r7, #4]
 983 001a 1A82     		strh	r2, [r3, #16]	@ movhi
 554:/home/virusv/TDSAST_IOT/Libraries/src/stm32f10x_usart.c ****   USARTx->CR2 |= USART_LINBreakDetectLength;  
 984              		.loc 1 554 0
 985 001c 7B68     		ldr	r3, [r7, #4]
 986 001e 1B8A     		ldrh	r3, [r3, #16]	@ movhi
 987 0020 9AB2     		uxth	r2, r3
 988 0022 7B88     		ldrh	r3, [r7, #2]	@ movhi
 989 0024 1343     		orrs	r3, r3, r2
 990 0026 9AB2     		uxth	r2, r3
 991 0028 7B68     		ldr	r3, [r7, #4]
 992 002a 1A82     		strh	r2, [r3, #16]	@ movhi
 555:/home/virusv/TDSAST_IOT/Libraries/src/stm32f10x_usart.c **** }
 993              		.loc 1 555 0
 994 002c 0C37     		adds	r7, r7, #12
 995              		.cfi_def_cfa_offset 4
 996 002e BD46     		mov	sp, r7
 997              		.cfi_def_cfa_register 13
 998              		@ sp needed
 999 0030 5DF8047B 		ldr	r7, [sp], #4
 1000              		.cfi_restore 7
 1001              		.cfi_def_cfa_offset 0
 1002 0034 7047     		bx	lr
 1003              		.cfi_endproc
 1004              	.LFE40:
 1006 0036 00BF     		.section	.text.USART_LINCmd,"ax",%progbits
 1007              		.align	2
 1008              		.global	USART_LINCmd
 1009              		.thumb
 1010              		.thumb_func
 1012              	USART_LINCmd:
 1013              	.LFB41:
 556:/home/virusv/TDSAST_IOT/Libraries/src/stm32f10x_usart.c **** 
 557:/home/virusv/TDSAST_IOT/Libraries/src/stm32f10x_usart.c **** /**
 558:/home/virusv/TDSAST_IOT/Libraries/src/stm32f10x_usart.c ****   * @brief  Enables or disables the USARTs LIN mode.
 559:/home/virusv/TDSAST_IOT/Libraries/src/stm32f10x_usart.c ****   * @param  USARTx: Select the USART or the UART peripheral. 
 560:/home/virusv/TDSAST_IOT/Libraries/src/stm32f10x_usart.c ****   *   This parameter can be one of the following values:
 561:/home/virusv/TDSAST_IOT/Libraries/src/stm32f10x_usart.c ****   *   USART1, USART2, USART3, UART4 or UART5.
 562:/home/virusv/TDSAST_IOT/Libraries/src/stm32f10x_usart.c ****   * @param  NewState: new state of the USART LIN mode.
 563:/home/virusv/TDSAST_IOT/Libraries/src/stm32f10x_usart.c ****   *   This parameter can be: ENABLE or DISABLE.
 564:/home/virusv/TDSAST_IOT/Libraries/src/stm32f10x_usart.c ****   * @retval None
 565:/home/virusv/TDSAST_IOT/Libraries/src/stm32f10x_usart.c ****   */
 566:/home/virusv/TDSAST_IOT/Libraries/src/stm32f10x_usart.c **** void USART_LINCmd(USART_TypeDef* USARTx, FunctionalState NewState)
 567:/home/virusv/TDSAST_IOT/Libraries/src/stm32f10x_usart.c **** {
 1014              		.loc 1 567 0
 1015              		.cfi_startproc
 1016              		@ args = 0, pretend = 0, frame = 8
 1017              		@ frame_needed = 1, uses_anonymous_args = 0
 1018              		@ link register save eliminated.
 1019 0000 80B4     		push	{r7}
 1020              		.cfi_def_cfa_offset 4
 1021              		.cfi_offset 7, -4
 1022 0002 83B0     		sub	sp, sp, #12
 1023              		.cfi_def_cfa_offset 16
 1024 0004 00AF     		add	r7, sp, #0
 1025              		.cfi_def_cfa_register 7
 1026 0006 7860     		str	r0, [r7, #4]
 1027 0008 0B46     		mov	r3, r1
 1028 000a FB70     		strb	r3, [r7, #3]
 568:/home/virusv/TDSAST_IOT/Libraries/src/stm32f10x_usart.c ****   /* Check the parameters */
 569:/home/virusv/TDSAST_IOT/Libraries/src/stm32f10x_usart.c ****   assert_param(IS_USART_ALL_PERIPH(USARTx));
 570:/home/virusv/TDSAST_IOT/Libraries/src/stm32f10x_usart.c ****   assert_param(IS_FUNCTIONAL_STATE(NewState));
 571:/home/virusv/TDSAST_IOT/Libraries/src/stm32f10x_usart.c ****   
 572:/home/virusv/TDSAST_IOT/Libraries/src/stm32f10x_usart.c ****   if (NewState != DISABLE)
 1029              		.loc 1 572 0
 1030 000c FB78     		ldrb	r3, [r7, #3]	@ zero_extendqisi2
 1031 000e 002B     		cmp	r3, #0
 1032 0010 08D0     		beq	.L40
 573:/home/virusv/TDSAST_IOT/Libraries/src/stm32f10x_usart.c ****   {
 574:/home/virusv/TDSAST_IOT/Libraries/src/stm32f10x_usart.c ****     /* Enable the LIN mode by setting the LINEN bit in the CR2 register */
 575:/home/virusv/TDSAST_IOT/Libraries/src/stm32f10x_usart.c ****     USARTx->CR2 |= CR2_LINEN_Set;
 1033              		.loc 1 575 0
 1034 0012 7B68     		ldr	r3, [r7, #4]
 1035 0014 1B8A     		ldrh	r3, [r3, #16]	@ movhi
 1036 0016 9BB2     		uxth	r3, r3
 1037 0018 43F48043 		orr	r3, r3, #16384
 1038 001c 9AB2     		uxth	r2, r3
 1039 001e 7B68     		ldr	r3, [r7, #4]
 1040 0020 1A82     		strh	r2, [r3, #16]	@ movhi
 1041 0022 07E0     		b	.L39
 1042              	.L40:
 576:/home/virusv/TDSAST_IOT/Libraries/src/stm32f10x_usart.c ****   }
 577:/home/virusv/TDSAST_IOT/Libraries/src/stm32f10x_usart.c ****   else
 578:/home/virusv/TDSAST_IOT/Libraries/src/stm32f10x_usart.c ****   {
 579:/home/virusv/TDSAST_IOT/Libraries/src/stm32f10x_usart.c ****     /* Disable the LIN mode by clearing the LINEN bit in the CR2 register */
 580:/home/virusv/TDSAST_IOT/Libraries/src/stm32f10x_usart.c ****     USARTx->CR2 &= CR2_LINEN_Reset;
 1043              		.loc 1 580 0
 1044 0024 7B68     		ldr	r3, [r7, #4]
 1045 0026 1B8A     		ldrh	r3, [r3, #16]	@ movhi
 1046 0028 9BB2     		uxth	r3, r3
 1047 002a 23F48043 		bic	r3, r3, #16384
 1048 002e 9AB2     		uxth	r2, r3
 1049 0030 7B68     		ldr	r3, [r7, #4]
 1050 0032 1A82     		strh	r2, [r3, #16]	@ movhi
 1051              	.L39:
 581:/home/virusv/TDSAST_IOT/Libraries/src/stm32f10x_usart.c ****   }
 582:/home/virusv/TDSAST_IOT/Libraries/src/stm32f10x_usart.c **** }
 1052              		.loc 1 582 0
 1053 0034 0C37     		adds	r7, r7, #12
 1054              		.cfi_def_cfa_offset 4
 1055 0036 BD46     		mov	sp, r7
 1056              		.cfi_def_cfa_register 13
 1057              		@ sp needed
 1058 0038 5DF8047B 		ldr	r7, [sp], #4
 1059              		.cfi_restore 7
 1060              		.cfi_def_cfa_offset 0
 1061 003c 7047     		bx	lr
 1062              		.cfi_endproc
 1063              	.LFE41:
 1065 003e 00BF     		.section	.text.USART_SendData,"ax",%progbits
 1066              		.align	2
 1067              		.global	USART_SendData
 1068              		.thumb
 1069              		.thumb_func
 1071              	USART_SendData:
 1072              	.LFB42:
 583:/home/virusv/TDSAST_IOT/Libraries/src/stm32f10x_usart.c **** 
 584:/home/virusv/TDSAST_IOT/Libraries/src/stm32f10x_usart.c **** /**
 585:/home/virusv/TDSAST_IOT/Libraries/src/stm32f10x_usart.c ****   * @brief  Transmits single data through the USARTx peripheral.
 586:/home/virusv/TDSAST_IOT/Libraries/src/stm32f10x_usart.c ****   * @param  USARTx: Select the USART or the UART peripheral. 
 587:/home/virusv/TDSAST_IOT/Libraries/src/stm32f10x_usart.c ****   *   This parameter can be one of the following values:
 588:/home/virusv/TDSAST_IOT/Libraries/src/stm32f10x_usart.c ****   *   USART1, USART2, USART3, UART4 or UART5.
 589:/home/virusv/TDSAST_IOT/Libraries/src/stm32f10x_usart.c ****   * @param  Data: the data to transmit.
 590:/home/virusv/TDSAST_IOT/Libraries/src/stm32f10x_usart.c ****   * @retval None
 591:/home/virusv/TDSAST_IOT/Libraries/src/stm32f10x_usart.c ****   */
 592:/home/virusv/TDSAST_IOT/Libraries/src/stm32f10x_usart.c **** void USART_SendData(USART_TypeDef* USARTx, uint16_t Data)
 593:/home/virusv/TDSAST_IOT/Libraries/src/stm32f10x_usart.c **** {
 1073              		.loc 1 593 0
 1074              		.cfi_startproc
 1075              		@ args = 0, pretend = 0, frame = 8
 1076              		@ frame_needed = 1, uses_anonymous_args = 0
 1077              		@ link register save eliminated.
 1078 0000 80B4     		push	{r7}
 1079              		.cfi_def_cfa_offset 4
 1080              		.cfi_offset 7, -4
 1081 0002 83B0     		sub	sp, sp, #12
 1082              		.cfi_def_cfa_offset 16
 1083 0004 00AF     		add	r7, sp, #0
 1084              		.cfi_def_cfa_register 7
 1085 0006 7860     		str	r0, [r7, #4]
 1086 0008 0B46     		mov	r3, r1
 1087 000a 7B80     		strh	r3, [r7, #2]	@ movhi
 594:/home/virusv/TDSAST_IOT/Libraries/src/stm32f10x_usart.c ****   /* Check the parameters */
 595:/home/virusv/TDSAST_IOT/Libraries/src/stm32f10x_usart.c ****   assert_param(IS_USART_ALL_PERIPH(USARTx));
 596:/home/virusv/TDSAST_IOT/Libraries/src/stm32f10x_usart.c ****   assert_param(IS_USART_DATA(Data)); 
 597:/home/virusv/TDSAST_IOT/Libraries/src/stm32f10x_usart.c ****     
 598:/home/virusv/TDSAST_IOT/Libraries/src/stm32f10x_usart.c ****   /* Transmit Data */
 599:/home/virusv/TDSAST_IOT/Libraries/src/stm32f10x_usart.c ****   USARTx->DR = (Data & (uint16_t)0x01FF);
 1088              		.loc 1 599 0
 1089 000c 7B88     		ldrh	r3, [r7, #2]	@ movhi
 1090 000e C3F30803 		ubfx	r3, r3, #0, #9
 1091 0012 9AB2     		uxth	r2, r3
 1092 0014 7B68     		ldr	r3, [r7, #4]
 1093 0016 9A80     		strh	r2, [r3, #4]	@ movhi
 600:/home/virusv/TDSAST_IOT/Libraries/src/stm32f10x_usart.c **** }
 1094              		.loc 1 600 0
 1095 0018 0C37     		adds	r7, r7, #12
 1096              		.cfi_def_cfa_offset 4
 1097 001a BD46     		mov	sp, r7
 1098              		.cfi_def_cfa_register 13
 1099              		@ sp needed
 1100 001c 5DF8047B 		ldr	r7, [sp], #4
 1101              		.cfi_restore 7
 1102              		.cfi_def_cfa_offset 0
 1103 0020 7047     		bx	lr
 1104              		.cfi_endproc
 1105              	.LFE42:
 1107 0022 00BF     		.section	.text.USART_ReceiveData,"ax",%progbits
 1108              		.align	2
 1109              		.global	USART_ReceiveData
 1110              		.thumb
 1111              		.thumb_func
 1113              	USART_ReceiveData:
 1114              	.LFB43:
 601:/home/virusv/TDSAST_IOT/Libraries/src/stm32f10x_usart.c **** 
 602:/home/virusv/TDSAST_IOT/Libraries/src/stm32f10x_usart.c **** /**
 603:/home/virusv/TDSAST_IOT/Libraries/src/stm32f10x_usart.c ****   * @brief  Returns the most recent received data by the USARTx peripheral.
 604:/home/virusv/TDSAST_IOT/Libraries/src/stm32f10x_usart.c ****   * @param  USARTx: Select the USART or the UART peripheral. 
 605:/home/virusv/TDSAST_IOT/Libraries/src/stm32f10x_usart.c ****   *   This parameter can be one of the following values:
 606:/home/virusv/TDSAST_IOT/Libraries/src/stm32f10x_usart.c ****   *   USART1, USART2, USART3, UART4 or UART5.
 607:/home/virusv/TDSAST_IOT/Libraries/src/stm32f10x_usart.c ****   * @retval The received data.
 608:/home/virusv/TDSAST_IOT/Libraries/src/stm32f10x_usart.c ****   */
 609:/home/virusv/TDSAST_IOT/Libraries/src/stm32f10x_usart.c **** uint16_t USART_ReceiveData(USART_TypeDef* USARTx)
 610:/home/virusv/TDSAST_IOT/Libraries/src/stm32f10x_usart.c **** {
 1115              		.loc 1 610 0
 1116              		.cfi_startproc
 1117              		@ args = 0, pretend = 0, frame = 8
 1118              		@ frame_needed = 1, uses_anonymous_args = 0
 1119              		@ link register save eliminated.
 1120 0000 80B4     		push	{r7}
 1121              		.cfi_def_cfa_offset 4
 1122              		.cfi_offset 7, -4
 1123 0002 83B0     		sub	sp, sp, #12
 1124              		.cfi_def_cfa_offset 16
 1125 0004 00AF     		add	r7, sp, #0
 1126              		.cfi_def_cfa_register 7
 1127 0006 7860     		str	r0, [r7, #4]
 611:/home/virusv/TDSAST_IOT/Libraries/src/stm32f10x_usart.c ****   /* Check the parameters */
 612:/home/virusv/TDSAST_IOT/Libraries/src/stm32f10x_usart.c ****   assert_param(IS_USART_ALL_PERIPH(USARTx));
 613:/home/virusv/TDSAST_IOT/Libraries/src/stm32f10x_usart.c ****   
 614:/home/virusv/TDSAST_IOT/Libraries/src/stm32f10x_usart.c ****   /* Receive Data */
 615:/home/virusv/TDSAST_IOT/Libraries/src/stm32f10x_usart.c ****   return (uint16_t)(USARTx->DR & (uint16_t)0x01FF);
 1128              		.loc 1 615 0
 1129 0008 7B68     		ldr	r3, [r7, #4]
 1130 000a 9B88     		ldrh	r3, [r3, #4]	@ movhi
 1131 000c 9BB2     		uxth	r3, r3
 1132 000e C3F30803 		ubfx	r3, r3, #0, #9
 1133 0012 9BB2     		uxth	r3, r3
 616:/home/virusv/TDSAST_IOT/Libraries/src/stm32f10x_usart.c **** }
 1134              		.loc 1 616 0
 1135 0014 1846     		mov	r0, r3
 1136 0016 0C37     		adds	r7, r7, #12
 1137              		.cfi_def_cfa_offset 4
 1138 0018 BD46     		mov	sp, r7
 1139              		.cfi_def_cfa_register 13
 1140              		@ sp needed
 1141 001a 5DF8047B 		ldr	r7, [sp], #4
 1142              		.cfi_restore 7
 1143              		.cfi_def_cfa_offset 0
 1144 001e 7047     		bx	lr
 1145              		.cfi_endproc
 1146              	.LFE43:
 1148              		.section	.text.USART_SendBreak,"ax",%progbits
 1149              		.align	2
 1150              		.global	USART_SendBreak
 1151              		.thumb
 1152              		.thumb_func
 1154              	USART_SendBreak:
 1155              	.LFB44:
 617:/home/virusv/TDSAST_IOT/Libraries/src/stm32f10x_usart.c **** 
 618:/home/virusv/TDSAST_IOT/Libraries/src/stm32f10x_usart.c **** /**
 619:/home/virusv/TDSAST_IOT/Libraries/src/stm32f10x_usart.c ****   * @brief  Transmits break characters.
 620:/home/virusv/TDSAST_IOT/Libraries/src/stm32f10x_usart.c ****   * @param  USARTx: Select the USART or the UART peripheral. 
 621:/home/virusv/TDSAST_IOT/Libraries/src/stm32f10x_usart.c ****   *   This parameter can be one of the following values:
 622:/home/virusv/TDSAST_IOT/Libraries/src/stm32f10x_usart.c ****   *   USART1, USART2, USART3, UART4 or UART5.
 623:/home/virusv/TDSAST_IOT/Libraries/src/stm32f10x_usart.c ****   * @retval None
 624:/home/virusv/TDSAST_IOT/Libraries/src/stm32f10x_usart.c ****   */
 625:/home/virusv/TDSAST_IOT/Libraries/src/stm32f10x_usart.c **** void USART_SendBreak(USART_TypeDef* USARTx)
 626:/home/virusv/TDSAST_IOT/Libraries/src/stm32f10x_usart.c **** {
 1156              		.loc 1 626 0
 1157              		.cfi_startproc
 1158              		@ args = 0, pretend = 0, frame = 8
 1159              		@ frame_needed = 1, uses_anonymous_args = 0
 1160              		@ link register save eliminated.
 1161 0000 80B4     		push	{r7}
 1162              		.cfi_def_cfa_offset 4
 1163              		.cfi_offset 7, -4
 1164 0002 83B0     		sub	sp, sp, #12
 1165              		.cfi_def_cfa_offset 16
 1166 0004 00AF     		add	r7, sp, #0
 1167              		.cfi_def_cfa_register 7
 1168 0006 7860     		str	r0, [r7, #4]
 627:/home/virusv/TDSAST_IOT/Libraries/src/stm32f10x_usart.c ****   /* Check the parameters */
 628:/home/virusv/TDSAST_IOT/Libraries/src/stm32f10x_usart.c ****   assert_param(IS_USART_ALL_PERIPH(USARTx));
 629:/home/virusv/TDSAST_IOT/Libraries/src/stm32f10x_usart.c ****   
 630:/home/virusv/TDSAST_IOT/Libraries/src/stm32f10x_usart.c ****   /* Send break characters */
 631:/home/virusv/TDSAST_IOT/Libraries/src/stm32f10x_usart.c ****   USARTx->CR1 |= CR1_SBK_Set;
 1169              		.loc 1 631 0
 1170 0008 7B68     		ldr	r3, [r7, #4]
 1171 000a 9B89     		ldrh	r3, [r3, #12]	@ movhi
 1172 000c 9BB2     		uxth	r3, r3
 1173 000e 43F00103 		orr	r3, r3, #1
 1174 0012 9AB2     		uxth	r2, r3
 1175 0014 7B68     		ldr	r3, [r7, #4]
 1176 0016 9A81     		strh	r2, [r3, #12]	@ movhi
 632:/home/virusv/TDSAST_IOT/Libraries/src/stm32f10x_usart.c **** }
 1177              		.loc 1 632 0
 1178 0018 0C37     		adds	r7, r7, #12
 1179              		.cfi_def_cfa_offset 4
 1180 001a BD46     		mov	sp, r7
 1181              		.cfi_def_cfa_register 13
 1182              		@ sp needed
 1183 001c 5DF8047B 		ldr	r7, [sp], #4
 1184              		.cfi_restore 7
 1185              		.cfi_def_cfa_offset 0
 1186 0020 7047     		bx	lr
 1187              		.cfi_endproc
 1188              	.LFE44:
 1190 0022 00BF     		.section	.text.USART_SetGuardTime,"ax",%progbits
 1191              		.align	2
 1192              		.global	USART_SetGuardTime
 1193              		.thumb
 1194              		.thumb_func
 1196              	USART_SetGuardTime:
 1197              	.LFB45:
 633:/home/virusv/TDSAST_IOT/Libraries/src/stm32f10x_usart.c **** 
 634:/home/virusv/TDSAST_IOT/Libraries/src/stm32f10x_usart.c **** /**
 635:/home/virusv/TDSAST_IOT/Libraries/src/stm32f10x_usart.c ****   * @brief  Sets the specified USART guard time.
 636:/home/virusv/TDSAST_IOT/Libraries/src/stm32f10x_usart.c ****   * @param  USARTx: where x can be 1, 2 or 3 to select the USART peripheral.
 637:/home/virusv/TDSAST_IOT/Libraries/src/stm32f10x_usart.c ****   * @param  USART_GuardTime: specifies the guard time.
 638:/home/virusv/TDSAST_IOT/Libraries/src/stm32f10x_usart.c ****   * @note The guard time bits are not available for UART4 and UART5.   
 639:/home/virusv/TDSAST_IOT/Libraries/src/stm32f10x_usart.c ****   * @retval None
 640:/home/virusv/TDSAST_IOT/Libraries/src/stm32f10x_usart.c ****   */
 641:/home/virusv/TDSAST_IOT/Libraries/src/stm32f10x_usart.c **** void USART_SetGuardTime(USART_TypeDef* USARTx, uint8_t USART_GuardTime)
 642:/home/virusv/TDSAST_IOT/Libraries/src/stm32f10x_usart.c **** {    
 1198              		.loc 1 642 0
 1199              		.cfi_startproc
 1200              		@ args = 0, pretend = 0, frame = 8
 1201              		@ frame_needed = 1, uses_anonymous_args = 0
 1202              		@ link register save eliminated.
 1203 0000 80B4     		push	{r7}
 1204              		.cfi_def_cfa_offset 4
 1205              		.cfi_offset 7, -4
 1206 0002 83B0     		sub	sp, sp, #12
 1207              		.cfi_def_cfa_offset 16
 1208 0004 00AF     		add	r7, sp, #0
 1209              		.cfi_def_cfa_register 7
 1210 0006 7860     		str	r0, [r7, #4]
 1211 0008 0B46     		mov	r3, r1
 1212 000a FB70     		strb	r3, [r7, #3]
 643:/home/virusv/TDSAST_IOT/Libraries/src/stm32f10x_usart.c ****   /* Check the parameters */
 644:/home/virusv/TDSAST_IOT/Libraries/src/stm32f10x_usart.c ****   assert_param(IS_USART_123_PERIPH(USARTx));
 645:/home/virusv/TDSAST_IOT/Libraries/src/stm32f10x_usart.c ****   
 646:/home/virusv/TDSAST_IOT/Libraries/src/stm32f10x_usart.c ****   /* Clear the USART Guard time */
 647:/home/virusv/TDSAST_IOT/Libraries/src/stm32f10x_usart.c ****   USARTx->GTPR &= GTPR_LSB_Mask;
 1213              		.loc 1 647 0
 1214 000c 7B68     		ldr	r3, [r7, #4]
 1215 000e 1B8B     		ldrh	r3, [r3, #24]	@ movhi
 1216 0010 9BB2     		uxth	r3, r3
 1217 0012 DBB2     		uxtb	r3, r3
 1218 0014 9AB2     		uxth	r2, r3
 1219 0016 7B68     		ldr	r3, [r7, #4]
 1220 0018 1A83     		strh	r2, [r3, #24]	@ movhi
 648:/home/virusv/TDSAST_IOT/Libraries/src/stm32f10x_usart.c ****   /* Set the USART guard time */
 649:/home/virusv/TDSAST_IOT/Libraries/src/stm32f10x_usart.c ****   USARTx->GTPR |= (uint16_t)((uint16_t)USART_GuardTime << 0x08);
 1221              		.loc 1 649 0
 1222 001a 7B68     		ldr	r3, [r7, #4]
 1223 001c 1B8B     		ldrh	r3, [r3, #24]	@ movhi
 1224 001e 9AB2     		uxth	r2, r3
 1225 0020 FB78     		ldrb	r3, [r7, #3]	@ zero_extendqisi2
 1226 0022 9BB2     		uxth	r3, r3
 1227 0024 1B02     		lsls	r3, r3, #8
 1228 0026 9BB2     		uxth	r3, r3
 1229 0028 1343     		orrs	r3, r3, r2
 1230 002a 9AB2     		uxth	r2, r3
 1231 002c 7B68     		ldr	r3, [r7, #4]
 1232 002e 1A83     		strh	r2, [r3, #24]	@ movhi
 650:/home/virusv/TDSAST_IOT/Libraries/src/stm32f10x_usart.c **** }
 1233              		.loc 1 650 0
 1234 0030 0C37     		adds	r7, r7, #12
 1235              		.cfi_def_cfa_offset 4
 1236 0032 BD46     		mov	sp, r7
 1237              		.cfi_def_cfa_register 13
 1238              		@ sp needed
 1239 0034 5DF8047B 		ldr	r7, [sp], #4
 1240              		.cfi_restore 7
 1241              		.cfi_def_cfa_offset 0
 1242 0038 7047     		bx	lr
 1243              		.cfi_endproc
 1244              	.LFE45:
 1246 003a 00BF     		.section	.text.USART_SetPrescaler,"ax",%progbits
 1247              		.align	2
 1248              		.global	USART_SetPrescaler
 1249              		.thumb
 1250              		.thumb_func
 1252              	USART_SetPrescaler:
 1253              	.LFB46:
 651:/home/virusv/TDSAST_IOT/Libraries/src/stm32f10x_usart.c **** 
 652:/home/virusv/TDSAST_IOT/Libraries/src/stm32f10x_usart.c **** /**
 653:/home/virusv/TDSAST_IOT/Libraries/src/stm32f10x_usart.c ****   * @brief  Sets the system clock prescaler.
 654:/home/virusv/TDSAST_IOT/Libraries/src/stm32f10x_usart.c ****   * @param  USARTx: Select the USART or the UART peripheral. 
 655:/home/virusv/TDSAST_IOT/Libraries/src/stm32f10x_usart.c ****   *   This parameter can be one of the following values:
 656:/home/virusv/TDSAST_IOT/Libraries/src/stm32f10x_usart.c ****   *   USART1, USART2, USART3, UART4 or UART5.
 657:/home/virusv/TDSAST_IOT/Libraries/src/stm32f10x_usart.c ****   * @param  USART_Prescaler: specifies the prescaler clock.  
 658:/home/virusv/TDSAST_IOT/Libraries/src/stm32f10x_usart.c ****   * @note   The function is used for IrDA mode with UART4 and UART5.
 659:/home/virusv/TDSAST_IOT/Libraries/src/stm32f10x_usart.c ****   * @retval None
 660:/home/virusv/TDSAST_IOT/Libraries/src/stm32f10x_usart.c ****   */
 661:/home/virusv/TDSAST_IOT/Libraries/src/stm32f10x_usart.c **** void USART_SetPrescaler(USART_TypeDef* USARTx, uint8_t USART_Prescaler)
 662:/home/virusv/TDSAST_IOT/Libraries/src/stm32f10x_usart.c **** { 
 1254              		.loc 1 662 0
 1255              		.cfi_startproc
 1256              		@ args = 0, pretend = 0, frame = 8
 1257              		@ frame_needed = 1, uses_anonymous_args = 0
 1258              		@ link register save eliminated.
 1259 0000 80B4     		push	{r7}
 1260              		.cfi_def_cfa_offset 4
 1261              		.cfi_offset 7, -4
 1262 0002 83B0     		sub	sp, sp, #12
 1263              		.cfi_def_cfa_offset 16
 1264 0004 00AF     		add	r7, sp, #0
 1265              		.cfi_def_cfa_register 7
 1266 0006 7860     		str	r0, [r7, #4]
 1267 0008 0B46     		mov	r3, r1
 1268 000a FB70     		strb	r3, [r7, #3]
 663:/home/virusv/TDSAST_IOT/Libraries/src/stm32f10x_usart.c ****   /* Check the parameters */
 664:/home/virusv/TDSAST_IOT/Libraries/src/stm32f10x_usart.c ****   assert_param(IS_USART_ALL_PERIPH(USARTx));
 665:/home/virusv/TDSAST_IOT/Libraries/src/stm32f10x_usart.c ****   
 666:/home/virusv/TDSAST_IOT/Libraries/src/stm32f10x_usart.c ****   /* Clear the USART prescaler */
 667:/home/virusv/TDSAST_IOT/Libraries/src/stm32f10x_usart.c ****   USARTx->GTPR &= GTPR_MSB_Mask;
 1269              		.loc 1 667 0
 1270 000c 7B68     		ldr	r3, [r7, #4]
 1271 000e 1B8B     		ldrh	r3, [r3, #24]	@ movhi
 1272 0010 9BB2     		uxth	r3, r3
 1273 0012 23F0FF03 		bic	r3, r3, #255
 1274 0016 9AB2     		uxth	r2, r3
 1275 0018 7B68     		ldr	r3, [r7, #4]
 1276 001a 1A83     		strh	r2, [r3, #24]	@ movhi
 668:/home/virusv/TDSAST_IOT/Libraries/src/stm32f10x_usart.c ****   /* Set the USART prescaler */
 669:/home/virusv/TDSAST_IOT/Libraries/src/stm32f10x_usart.c ****   USARTx->GTPR |= USART_Prescaler;
 1277              		.loc 1 669 0
 1278 001c 7B68     		ldr	r3, [r7, #4]
 1279 001e 1B8B     		ldrh	r3, [r3, #24]	@ movhi
 1280 0020 9AB2     		uxth	r2, r3
 1281 0022 FB78     		ldrb	r3, [r7, #3]	@ zero_extendqisi2
 1282 0024 9BB2     		uxth	r3, r3
 1283 0026 1343     		orrs	r3, r3, r2
 1284 0028 9AB2     		uxth	r2, r3
 1285 002a 7B68     		ldr	r3, [r7, #4]
 1286 002c 1A83     		strh	r2, [r3, #24]	@ movhi
 670:/home/virusv/TDSAST_IOT/Libraries/src/stm32f10x_usart.c **** }
 1287              		.loc 1 670 0
 1288 002e 0C37     		adds	r7, r7, #12
 1289              		.cfi_def_cfa_offset 4
 1290 0030 BD46     		mov	sp, r7
 1291              		.cfi_def_cfa_register 13
 1292              		@ sp needed
 1293 0032 5DF8047B 		ldr	r7, [sp], #4
 1294              		.cfi_restore 7
 1295              		.cfi_def_cfa_offset 0
 1296 0036 7047     		bx	lr
 1297              		.cfi_endproc
 1298              	.LFE46:
 1300              		.section	.text.USART_SmartCardCmd,"ax",%progbits
 1301              		.align	2
 1302              		.global	USART_SmartCardCmd
 1303              		.thumb
 1304              		.thumb_func
 1306              	USART_SmartCardCmd:
 1307              	.LFB47:
 671:/home/virusv/TDSAST_IOT/Libraries/src/stm32f10x_usart.c **** 
 672:/home/virusv/TDSAST_IOT/Libraries/src/stm32f10x_usart.c **** /**
 673:/home/virusv/TDSAST_IOT/Libraries/src/stm32f10x_usart.c ****   * @brief  Enables or disables the USARTs Smart Card mode.
 674:/home/virusv/TDSAST_IOT/Libraries/src/stm32f10x_usart.c ****   * @param  USARTx: where x can be 1, 2 or 3 to select the USART peripheral.
 675:/home/virusv/TDSAST_IOT/Libraries/src/stm32f10x_usart.c ****   * @param  NewState: new state of the Smart Card mode.
 676:/home/virusv/TDSAST_IOT/Libraries/src/stm32f10x_usart.c ****   *   This parameter can be: ENABLE or DISABLE.     
 677:/home/virusv/TDSAST_IOT/Libraries/src/stm32f10x_usart.c ****   * @note The Smart Card mode is not available for UART4 and UART5. 
 678:/home/virusv/TDSAST_IOT/Libraries/src/stm32f10x_usart.c ****   * @retval None
 679:/home/virusv/TDSAST_IOT/Libraries/src/stm32f10x_usart.c ****   */
 680:/home/virusv/TDSAST_IOT/Libraries/src/stm32f10x_usart.c **** void USART_SmartCardCmd(USART_TypeDef* USARTx, FunctionalState NewState)
 681:/home/virusv/TDSAST_IOT/Libraries/src/stm32f10x_usart.c **** {
 1308              		.loc 1 681 0
 1309              		.cfi_startproc
 1310              		@ args = 0, pretend = 0, frame = 8
 1311              		@ frame_needed = 1, uses_anonymous_args = 0
 1312              		@ link register save eliminated.
 1313 0000 80B4     		push	{r7}
 1314              		.cfi_def_cfa_offset 4
 1315              		.cfi_offset 7, -4
 1316 0002 83B0     		sub	sp, sp, #12
 1317              		.cfi_def_cfa_offset 16
 1318 0004 00AF     		add	r7, sp, #0
 1319              		.cfi_def_cfa_register 7
 1320 0006 7860     		str	r0, [r7, #4]
 1321 0008 0B46     		mov	r3, r1
 1322 000a FB70     		strb	r3, [r7, #3]
 682:/home/virusv/TDSAST_IOT/Libraries/src/stm32f10x_usart.c ****   /* Check the parameters */
 683:/home/virusv/TDSAST_IOT/Libraries/src/stm32f10x_usart.c ****   assert_param(IS_USART_123_PERIPH(USARTx));
 684:/home/virusv/TDSAST_IOT/Libraries/src/stm32f10x_usart.c ****   assert_param(IS_FUNCTIONAL_STATE(NewState));
 685:/home/virusv/TDSAST_IOT/Libraries/src/stm32f10x_usart.c ****   if (NewState != DISABLE)
 1323              		.loc 1 685 0
 1324 000c FB78     		ldrb	r3, [r7, #3]	@ zero_extendqisi2
 1325 000e 002B     		cmp	r3, #0
 1326 0010 08D0     		beq	.L49
 686:/home/virusv/TDSAST_IOT/Libraries/src/stm32f10x_usart.c ****   {
 687:/home/virusv/TDSAST_IOT/Libraries/src/stm32f10x_usart.c ****     /* Enable the SC mode by setting the SCEN bit in the CR3 register */
 688:/home/virusv/TDSAST_IOT/Libraries/src/stm32f10x_usart.c ****     USARTx->CR3 |= CR3_SCEN_Set;
 1327              		.loc 1 688 0
 1328 0012 7B68     		ldr	r3, [r7, #4]
 1329 0014 9B8A     		ldrh	r3, [r3, #20]	@ movhi
 1330 0016 9BB2     		uxth	r3, r3
 1331 0018 43F02003 		orr	r3, r3, #32
 1332 001c 9AB2     		uxth	r2, r3
 1333 001e 7B68     		ldr	r3, [r7, #4]
 1334 0020 9A82     		strh	r2, [r3, #20]	@ movhi
 1335 0022 07E0     		b	.L48
 1336              	.L49:
 689:/home/virusv/TDSAST_IOT/Libraries/src/stm32f10x_usart.c ****   }
 690:/home/virusv/TDSAST_IOT/Libraries/src/stm32f10x_usart.c ****   else
 691:/home/virusv/TDSAST_IOT/Libraries/src/stm32f10x_usart.c ****   {
 692:/home/virusv/TDSAST_IOT/Libraries/src/stm32f10x_usart.c ****     /* Disable the SC mode by clearing the SCEN bit in the CR3 register */
 693:/home/virusv/TDSAST_IOT/Libraries/src/stm32f10x_usart.c ****     USARTx->CR3 &= CR3_SCEN_Reset;
 1337              		.loc 1 693 0
 1338 0024 7B68     		ldr	r3, [r7, #4]
 1339 0026 9B8A     		ldrh	r3, [r3, #20]	@ movhi
 1340 0028 9BB2     		uxth	r3, r3
 1341 002a 23F02003 		bic	r3, r3, #32
 1342 002e 9AB2     		uxth	r2, r3
 1343 0030 7B68     		ldr	r3, [r7, #4]
 1344 0032 9A82     		strh	r2, [r3, #20]	@ movhi
 1345              	.L48:
 694:/home/virusv/TDSAST_IOT/Libraries/src/stm32f10x_usart.c ****   }
 695:/home/virusv/TDSAST_IOT/Libraries/src/stm32f10x_usart.c **** }
 1346              		.loc 1 695 0
 1347 0034 0C37     		adds	r7, r7, #12
 1348              		.cfi_def_cfa_offset 4
 1349 0036 BD46     		mov	sp, r7
 1350              		.cfi_def_cfa_register 13
 1351              		@ sp needed
 1352 0038 5DF8047B 		ldr	r7, [sp], #4
 1353              		.cfi_restore 7
 1354              		.cfi_def_cfa_offset 0
 1355 003c 7047     		bx	lr
 1356              		.cfi_endproc
 1357              	.LFE47:
 1359 003e 00BF     		.section	.text.USART_SmartCardNACKCmd,"ax",%progbits
 1360              		.align	2
 1361              		.global	USART_SmartCardNACKCmd
 1362              		.thumb
 1363              		.thumb_func
 1365              	USART_SmartCardNACKCmd:
 1366              	.LFB48:
 696:/home/virusv/TDSAST_IOT/Libraries/src/stm32f10x_usart.c **** 
 697:/home/virusv/TDSAST_IOT/Libraries/src/stm32f10x_usart.c **** /**
 698:/home/virusv/TDSAST_IOT/Libraries/src/stm32f10x_usart.c ****   * @brief  Enables or disables NACK transmission.
 699:/home/virusv/TDSAST_IOT/Libraries/src/stm32f10x_usart.c ****   * @param  USARTx: where x can be 1, 2 or 3 to select the USART peripheral. 
 700:/home/virusv/TDSAST_IOT/Libraries/src/stm32f10x_usart.c ****   * @param  NewState: new state of the NACK transmission.
 701:/home/virusv/TDSAST_IOT/Libraries/src/stm32f10x_usart.c ****   *   This parameter can be: ENABLE or DISABLE.  
 702:/home/virusv/TDSAST_IOT/Libraries/src/stm32f10x_usart.c ****   * @note The Smart Card mode is not available for UART4 and UART5.
 703:/home/virusv/TDSAST_IOT/Libraries/src/stm32f10x_usart.c ****   * @retval None
 704:/home/virusv/TDSAST_IOT/Libraries/src/stm32f10x_usart.c ****   */
 705:/home/virusv/TDSAST_IOT/Libraries/src/stm32f10x_usart.c **** void USART_SmartCardNACKCmd(USART_TypeDef* USARTx, FunctionalState NewState)
 706:/home/virusv/TDSAST_IOT/Libraries/src/stm32f10x_usart.c **** {
 1367              		.loc 1 706 0
 1368              		.cfi_startproc
 1369              		@ args = 0, pretend = 0, frame = 8
 1370              		@ frame_needed = 1, uses_anonymous_args = 0
 1371              		@ link register save eliminated.
 1372 0000 80B4     		push	{r7}
 1373              		.cfi_def_cfa_offset 4
 1374              		.cfi_offset 7, -4
 1375 0002 83B0     		sub	sp, sp, #12
 1376              		.cfi_def_cfa_offset 16
 1377 0004 00AF     		add	r7, sp, #0
 1378              		.cfi_def_cfa_register 7
 1379 0006 7860     		str	r0, [r7, #4]
 1380 0008 0B46     		mov	r3, r1
 1381 000a FB70     		strb	r3, [r7, #3]
 707:/home/virusv/TDSAST_IOT/Libraries/src/stm32f10x_usart.c ****   /* Check the parameters */
 708:/home/virusv/TDSAST_IOT/Libraries/src/stm32f10x_usart.c ****   assert_param(IS_USART_123_PERIPH(USARTx));  
 709:/home/virusv/TDSAST_IOT/Libraries/src/stm32f10x_usart.c ****   assert_param(IS_FUNCTIONAL_STATE(NewState));
 710:/home/virusv/TDSAST_IOT/Libraries/src/stm32f10x_usart.c ****   if (NewState != DISABLE)
 1382              		.loc 1 710 0
 1383 000c FB78     		ldrb	r3, [r7, #3]	@ zero_extendqisi2
 1384 000e 002B     		cmp	r3, #0
 1385 0010 08D0     		beq	.L52
 711:/home/virusv/TDSAST_IOT/Libraries/src/stm32f10x_usart.c ****   {
 712:/home/virusv/TDSAST_IOT/Libraries/src/stm32f10x_usart.c ****     /* Enable the NACK transmission by setting the NACK bit in the CR3 register */
 713:/home/virusv/TDSAST_IOT/Libraries/src/stm32f10x_usart.c ****     USARTx->CR3 |= CR3_NACK_Set;
 1386              		.loc 1 713 0
 1387 0012 7B68     		ldr	r3, [r7, #4]
 1388 0014 9B8A     		ldrh	r3, [r3, #20]	@ movhi
 1389 0016 9BB2     		uxth	r3, r3
 1390 0018 43F01003 		orr	r3, r3, #16
 1391 001c 9AB2     		uxth	r2, r3
 1392 001e 7B68     		ldr	r3, [r7, #4]
 1393 0020 9A82     		strh	r2, [r3, #20]	@ movhi
 1394 0022 07E0     		b	.L51
 1395              	.L52:
 714:/home/virusv/TDSAST_IOT/Libraries/src/stm32f10x_usart.c ****   }
 715:/home/virusv/TDSAST_IOT/Libraries/src/stm32f10x_usart.c ****   else
 716:/home/virusv/TDSAST_IOT/Libraries/src/stm32f10x_usart.c ****   {
 717:/home/virusv/TDSAST_IOT/Libraries/src/stm32f10x_usart.c ****     /* Disable the NACK transmission by clearing the NACK bit in the CR3 register */
 718:/home/virusv/TDSAST_IOT/Libraries/src/stm32f10x_usart.c ****     USARTx->CR3 &= CR3_NACK_Reset;
 1396              		.loc 1 718 0
 1397 0024 7B68     		ldr	r3, [r7, #4]
 1398 0026 9B8A     		ldrh	r3, [r3, #20]	@ movhi
 1399 0028 9BB2     		uxth	r3, r3
 1400 002a 23F01003 		bic	r3, r3, #16
 1401 002e 9AB2     		uxth	r2, r3
 1402 0030 7B68     		ldr	r3, [r7, #4]
 1403 0032 9A82     		strh	r2, [r3, #20]	@ movhi
 1404              	.L51:
 719:/home/virusv/TDSAST_IOT/Libraries/src/stm32f10x_usart.c ****   }
 720:/home/virusv/TDSAST_IOT/Libraries/src/stm32f10x_usart.c **** }
 1405              		.loc 1 720 0
 1406 0034 0C37     		adds	r7, r7, #12
 1407              		.cfi_def_cfa_offset 4
 1408 0036 BD46     		mov	sp, r7
 1409              		.cfi_def_cfa_register 13
 1410              		@ sp needed
 1411 0038 5DF8047B 		ldr	r7, [sp], #4
 1412              		.cfi_restore 7
 1413              		.cfi_def_cfa_offset 0
 1414 003c 7047     		bx	lr
 1415              		.cfi_endproc
 1416              	.LFE48:
 1418 003e 00BF     		.section	.text.USART_HalfDuplexCmd,"ax",%progbits
 1419              		.align	2
 1420              		.global	USART_HalfDuplexCmd
 1421              		.thumb
 1422              		.thumb_func
 1424              	USART_HalfDuplexCmd:
 1425              	.LFB49:
 721:/home/virusv/TDSAST_IOT/Libraries/src/stm32f10x_usart.c **** 
 722:/home/virusv/TDSAST_IOT/Libraries/src/stm32f10x_usart.c **** /**
 723:/home/virusv/TDSAST_IOT/Libraries/src/stm32f10x_usart.c ****   * @brief  Enables or disables the USARTs Half Duplex communication.
 724:/home/virusv/TDSAST_IOT/Libraries/src/stm32f10x_usart.c ****   * @param  USARTx: Select the USART or the UART peripheral. 
 725:/home/virusv/TDSAST_IOT/Libraries/src/stm32f10x_usart.c ****   *   This parameter can be one of the following values:
 726:/home/virusv/TDSAST_IOT/Libraries/src/stm32f10x_usart.c ****   *   USART1, USART2, USART3, UART4 or UART5.
 727:/home/virusv/TDSAST_IOT/Libraries/src/stm32f10x_usart.c ****   * @param  NewState: new state of the USART Communication.
 728:/home/virusv/TDSAST_IOT/Libraries/src/stm32f10x_usart.c ****   *   This parameter can be: ENABLE or DISABLE.
 729:/home/virusv/TDSAST_IOT/Libraries/src/stm32f10x_usart.c ****   * @retval None
 730:/home/virusv/TDSAST_IOT/Libraries/src/stm32f10x_usart.c ****   */
 731:/home/virusv/TDSAST_IOT/Libraries/src/stm32f10x_usart.c **** void USART_HalfDuplexCmd(USART_TypeDef* USARTx, FunctionalState NewState)
 732:/home/virusv/TDSAST_IOT/Libraries/src/stm32f10x_usart.c **** {
 1426              		.loc 1 732 0
 1427              		.cfi_startproc
 1428              		@ args = 0, pretend = 0, frame = 8
 1429              		@ frame_needed = 1, uses_anonymous_args = 0
 1430              		@ link register save eliminated.
 1431 0000 80B4     		push	{r7}
 1432              		.cfi_def_cfa_offset 4
 1433              		.cfi_offset 7, -4
 1434 0002 83B0     		sub	sp, sp, #12
 1435              		.cfi_def_cfa_offset 16
 1436 0004 00AF     		add	r7, sp, #0
 1437              		.cfi_def_cfa_register 7
 1438 0006 7860     		str	r0, [r7, #4]
 1439 0008 0B46     		mov	r3, r1
 1440 000a FB70     		strb	r3, [r7, #3]
 733:/home/virusv/TDSAST_IOT/Libraries/src/stm32f10x_usart.c ****   /* Check the parameters */
 734:/home/virusv/TDSAST_IOT/Libraries/src/stm32f10x_usart.c ****   assert_param(IS_USART_ALL_PERIPH(USARTx));
 735:/home/virusv/TDSAST_IOT/Libraries/src/stm32f10x_usart.c ****   assert_param(IS_FUNCTIONAL_STATE(NewState));
 736:/home/virusv/TDSAST_IOT/Libraries/src/stm32f10x_usart.c ****   
 737:/home/virusv/TDSAST_IOT/Libraries/src/stm32f10x_usart.c ****   if (NewState != DISABLE)
 1441              		.loc 1 737 0
 1442 000c FB78     		ldrb	r3, [r7, #3]	@ zero_extendqisi2
 1443 000e 002B     		cmp	r3, #0
 1444 0010 08D0     		beq	.L55
 738:/home/virusv/TDSAST_IOT/Libraries/src/stm32f10x_usart.c ****   {
 739:/home/virusv/TDSAST_IOT/Libraries/src/stm32f10x_usart.c ****     /* Enable the Half-Duplex mode by setting the HDSEL bit in the CR3 register */
 740:/home/virusv/TDSAST_IOT/Libraries/src/stm32f10x_usart.c ****     USARTx->CR3 |= CR3_HDSEL_Set;
 1445              		.loc 1 740 0
 1446 0012 7B68     		ldr	r3, [r7, #4]
 1447 0014 9B8A     		ldrh	r3, [r3, #20]	@ movhi
 1448 0016 9BB2     		uxth	r3, r3
 1449 0018 43F00803 		orr	r3, r3, #8
 1450 001c 9AB2     		uxth	r2, r3
 1451 001e 7B68     		ldr	r3, [r7, #4]
 1452 0020 9A82     		strh	r2, [r3, #20]	@ movhi
 1453 0022 07E0     		b	.L54
 1454              	.L55:
 741:/home/virusv/TDSAST_IOT/Libraries/src/stm32f10x_usart.c ****   }
 742:/home/virusv/TDSAST_IOT/Libraries/src/stm32f10x_usart.c ****   else
 743:/home/virusv/TDSAST_IOT/Libraries/src/stm32f10x_usart.c ****   {
 744:/home/virusv/TDSAST_IOT/Libraries/src/stm32f10x_usart.c ****     /* Disable the Half-Duplex mode by clearing the HDSEL bit in the CR3 register */
 745:/home/virusv/TDSAST_IOT/Libraries/src/stm32f10x_usart.c ****     USARTx->CR3 &= CR3_HDSEL_Reset;
 1455              		.loc 1 745 0
 1456 0024 7B68     		ldr	r3, [r7, #4]
 1457 0026 9B8A     		ldrh	r3, [r3, #20]	@ movhi
 1458 0028 9BB2     		uxth	r3, r3
 1459 002a 23F00803 		bic	r3, r3, #8
 1460 002e 9AB2     		uxth	r2, r3
 1461 0030 7B68     		ldr	r3, [r7, #4]
 1462 0032 9A82     		strh	r2, [r3, #20]	@ movhi
 1463              	.L54:
 746:/home/virusv/TDSAST_IOT/Libraries/src/stm32f10x_usart.c ****   }
 747:/home/virusv/TDSAST_IOT/Libraries/src/stm32f10x_usart.c **** }
 1464              		.loc 1 747 0
 1465 0034 0C37     		adds	r7, r7, #12
 1466              		.cfi_def_cfa_offset 4
 1467 0036 BD46     		mov	sp, r7
 1468              		.cfi_def_cfa_register 13
 1469              		@ sp needed
 1470 0038 5DF8047B 		ldr	r7, [sp], #4
 1471              		.cfi_restore 7
 1472              		.cfi_def_cfa_offset 0
 1473 003c 7047     		bx	lr
 1474              		.cfi_endproc
 1475              	.LFE49:
 1477 003e 00BF     		.section	.text.USART_OverSampling8Cmd,"ax",%progbits
 1478              		.align	2
 1479              		.global	USART_OverSampling8Cmd
 1480              		.thumb
 1481              		.thumb_func
 1483              	USART_OverSampling8Cmd:
 1484              	.LFB50:
 748:/home/virusv/TDSAST_IOT/Libraries/src/stm32f10x_usart.c **** 
 749:/home/virusv/TDSAST_IOT/Libraries/src/stm32f10x_usart.c **** 
 750:/home/virusv/TDSAST_IOT/Libraries/src/stm32f10x_usart.c **** /**
 751:/home/virusv/TDSAST_IOT/Libraries/src/stm32f10x_usart.c ****   * @brief  Enables or disables the USART's 8x oversampling mode.
 752:/home/virusv/TDSAST_IOT/Libraries/src/stm32f10x_usart.c ****   * @param  USARTx: Select the USART or the UART peripheral.
 753:/home/virusv/TDSAST_IOT/Libraries/src/stm32f10x_usart.c ****   *   This parameter can be one of the following values:
 754:/home/virusv/TDSAST_IOT/Libraries/src/stm32f10x_usart.c ****   *   USART1, USART2, USART3, UART4 or UART5.
 755:/home/virusv/TDSAST_IOT/Libraries/src/stm32f10x_usart.c ****   * @param  NewState: new state of the USART one bit sampling method.
 756:/home/virusv/TDSAST_IOT/Libraries/src/stm32f10x_usart.c ****   *   This parameter can be: ENABLE or DISABLE.
 757:/home/virusv/TDSAST_IOT/Libraries/src/stm32f10x_usart.c ****   * @note
 758:/home/virusv/TDSAST_IOT/Libraries/src/stm32f10x_usart.c ****   *     This function has to be called before calling USART_Init()
 759:/home/virusv/TDSAST_IOT/Libraries/src/stm32f10x_usart.c ****   *     function in order to have correct baudrate Divider value.   
 760:/home/virusv/TDSAST_IOT/Libraries/src/stm32f10x_usart.c ****   * @retval None
 761:/home/virusv/TDSAST_IOT/Libraries/src/stm32f10x_usart.c ****   */
 762:/home/virusv/TDSAST_IOT/Libraries/src/stm32f10x_usart.c **** void USART_OverSampling8Cmd(USART_TypeDef* USARTx, FunctionalState NewState)
 763:/home/virusv/TDSAST_IOT/Libraries/src/stm32f10x_usart.c **** {
 1485              		.loc 1 763 0
 1486              		.cfi_startproc
 1487              		@ args = 0, pretend = 0, frame = 8
 1488              		@ frame_needed = 1, uses_anonymous_args = 0
 1489              		@ link register save eliminated.
 1490 0000 80B4     		push	{r7}
 1491              		.cfi_def_cfa_offset 4
 1492              		.cfi_offset 7, -4
 1493 0002 83B0     		sub	sp, sp, #12
 1494              		.cfi_def_cfa_offset 16
 1495 0004 00AF     		add	r7, sp, #0
 1496              		.cfi_def_cfa_register 7
 1497 0006 7860     		str	r0, [r7, #4]
 1498 0008 0B46     		mov	r3, r1
 1499 000a FB70     		strb	r3, [r7, #3]
 764:/home/virusv/TDSAST_IOT/Libraries/src/stm32f10x_usart.c ****   /* Check the parameters */
 765:/home/virusv/TDSAST_IOT/Libraries/src/stm32f10x_usart.c ****   assert_param(IS_USART_ALL_PERIPH(USARTx));
 766:/home/virusv/TDSAST_IOT/Libraries/src/stm32f10x_usart.c ****   assert_param(IS_FUNCTIONAL_STATE(NewState));
 767:/home/virusv/TDSAST_IOT/Libraries/src/stm32f10x_usart.c ****   
 768:/home/virusv/TDSAST_IOT/Libraries/src/stm32f10x_usart.c ****   if (NewState != DISABLE)
 1500              		.loc 1 768 0
 1501 000c FB78     		ldrb	r3, [r7, #3]	@ zero_extendqisi2
 1502 000e 002B     		cmp	r3, #0
 1503 0010 0AD0     		beq	.L58
 769:/home/virusv/TDSAST_IOT/Libraries/src/stm32f10x_usart.c ****   {
 770:/home/virusv/TDSAST_IOT/Libraries/src/stm32f10x_usart.c ****     /* Enable the 8x Oversampling mode by setting the OVER8 bit in the CR1 register */
 771:/home/virusv/TDSAST_IOT/Libraries/src/stm32f10x_usart.c ****     USARTx->CR1 |= CR1_OVER8_Set;
 1504              		.loc 1 771 0
 1505 0012 7B68     		ldr	r3, [r7, #4]
 1506 0014 9B89     		ldrh	r3, [r3, #12]	@ movhi
 1507 0016 9BB2     		uxth	r3, r3
 1508 0018 6FEA4343 		mvn	r3, r3, lsl #17
 1509 001c 6FEA5343 		mvn	r3, r3, lsr #17
 1510 0020 9AB2     		uxth	r2, r3
 1511 0022 7B68     		ldr	r3, [r7, #4]
 1512 0024 9A81     		strh	r2, [r3, #12]	@ movhi
 1513 0026 07E0     		b	.L57
 1514              	.L58:
 772:/home/virusv/TDSAST_IOT/Libraries/src/stm32f10x_usart.c ****   }
 773:/home/virusv/TDSAST_IOT/Libraries/src/stm32f10x_usart.c ****   else
 774:/home/virusv/TDSAST_IOT/Libraries/src/stm32f10x_usart.c ****   {
 775:/home/virusv/TDSAST_IOT/Libraries/src/stm32f10x_usart.c ****     /* Disable the 8x Oversampling mode by clearing the OVER8 bit in the CR1 register */
 776:/home/virusv/TDSAST_IOT/Libraries/src/stm32f10x_usart.c ****     USARTx->CR1 &= CR1_OVER8_Reset;
 1515              		.loc 1 776 0
 1516 0028 7B68     		ldr	r3, [r7, #4]
 1517 002a 9B89     		ldrh	r3, [r3, #12]	@ movhi
 1518 002c 9BB2     		uxth	r3, r3
 1519 002e C3F30E03 		ubfx	r3, r3, #0, #15
 1520 0032 9AB2     		uxth	r2, r3
 1521 0034 7B68     		ldr	r3, [r7, #4]
 1522 0036 9A81     		strh	r2, [r3, #12]	@ movhi
 1523              	.L57:
 777:/home/virusv/TDSAST_IOT/Libraries/src/stm32f10x_usart.c ****   }
 778:/home/virusv/TDSAST_IOT/Libraries/src/stm32f10x_usart.c **** }
 1524              		.loc 1 778 0
 1525 0038 0C37     		adds	r7, r7, #12
 1526              		.cfi_def_cfa_offset 4
 1527 003a BD46     		mov	sp, r7
 1528              		.cfi_def_cfa_register 13
 1529              		@ sp needed
 1530 003c 5DF8047B 		ldr	r7, [sp], #4
 1531              		.cfi_restore 7
 1532              		.cfi_def_cfa_offset 0
 1533 0040 7047     		bx	lr
 1534              		.cfi_endproc
 1535              	.LFE50:
 1537 0042 00BF     		.section	.text.USART_OneBitMethodCmd,"ax",%progbits
 1538              		.align	2
 1539              		.global	USART_OneBitMethodCmd
 1540              		.thumb
 1541              		.thumb_func
 1543              	USART_OneBitMethodCmd:
 1544              	.LFB51:
 779:/home/virusv/TDSAST_IOT/Libraries/src/stm32f10x_usart.c **** 
 780:/home/virusv/TDSAST_IOT/Libraries/src/stm32f10x_usart.c **** /**
 781:/home/virusv/TDSAST_IOT/Libraries/src/stm32f10x_usart.c ****   * @brief  Enables or disables the USART's one bit sampling method.
 782:/home/virusv/TDSAST_IOT/Libraries/src/stm32f10x_usart.c ****   * @param  USARTx: Select the USART or the UART peripheral.
 783:/home/virusv/TDSAST_IOT/Libraries/src/stm32f10x_usart.c ****   *   This parameter can be one of the following values:
 784:/home/virusv/TDSAST_IOT/Libraries/src/stm32f10x_usart.c ****   *   USART1, USART2, USART3, UART4 or UART5.
 785:/home/virusv/TDSAST_IOT/Libraries/src/stm32f10x_usart.c ****   * @param  NewState: new state of the USART one bit sampling method.
 786:/home/virusv/TDSAST_IOT/Libraries/src/stm32f10x_usart.c ****   *   This parameter can be: ENABLE or DISABLE.
 787:/home/virusv/TDSAST_IOT/Libraries/src/stm32f10x_usart.c ****   * @retval None
 788:/home/virusv/TDSAST_IOT/Libraries/src/stm32f10x_usart.c ****   */
 789:/home/virusv/TDSAST_IOT/Libraries/src/stm32f10x_usart.c **** void USART_OneBitMethodCmd(USART_TypeDef* USARTx, FunctionalState NewState)
 790:/home/virusv/TDSAST_IOT/Libraries/src/stm32f10x_usart.c **** {
 1545              		.loc 1 790 0
 1546              		.cfi_startproc
 1547              		@ args = 0, pretend = 0, frame = 8
 1548              		@ frame_needed = 1, uses_anonymous_args = 0
 1549              		@ link register save eliminated.
 1550 0000 80B4     		push	{r7}
 1551              		.cfi_def_cfa_offset 4
 1552              		.cfi_offset 7, -4
 1553 0002 83B0     		sub	sp, sp, #12
 1554              		.cfi_def_cfa_offset 16
 1555 0004 00AF     		add	r7, sp, #0
 1556              		.cfi_def_cfa_register 7
 1557 0006 7860     		str	r0, [r7, #4]
 1558 0008 0B46     		mov	r3, r1
 1559 000a FB70     		strb	r3, [r7, #3]
 791:/home/virusv/TDSAST_IOT/Libraries/src/stm32f10x_usart.c ****   /* Check the parameters */
 792:/home/virusv/TDSAST_IOT/Libraries/src/stm32f10x_usart.c ****   assert_param(IS_USART_ALL_PERIPH(USARTx));
 793:/home/virusv/TDSAST_IOT/Libraries/src/stm32f10x_usart.c ****   assert_param(IS_FUNCTIONAL_STATE(NewState));
 794:/home/virusv/TDSAST_IOT/Libraries/src/stm32f10x_usart.c ****   
 795:/home/virusv/TDSAST_IOT/Libraries/src/stm32f10x_usart.c ****   if (NewState != DISABLE)
 1560              		.loc 1 795 0
 1561 000c FB78     		ldrb	r3, [r7, #3]	@ zero_extendqisi2
 1562 000e 002B     		cmp	r3, #0
 1563 0010 08D0     		beq	.L61
 796:/home/virusv/TDSAST_IOT/Libraries/src/stm32f10x_usart.c ****   {
 797:/home/virusv/TDSAST_IOT/Libraries/src/stm32f10x_usart.c ****     /* Enable the one bit method by setting the ONEBITE bit in the CR3 register */
 798:/home/virusv/TDSAST_IOT/Libraries/src/stm32f10x_usart.c ****     USARTx->CR3 |= CR3_ONEBITE_Set;
 1564              		.loc 1 798 0
 1565 0012 7B68     		ldr	r3, [r7, #4]
 1566 0014 9B8A     		ldrh	r3, [r3, #20]	@ movhi
 1567 0016 9BB2     		uxth	r3, r3
 1568 0018 43F40063 		orr	r3, r3, #2048
 1569 001c 9AB2     		uxth	r2, r3
 1570 001e 7B68     		ldr	r3, [r7, #4]
 1571 0020 9A82     		strh	r2, [r3, #20]	@ movhi
 1572 0022 07E0     		b	.L60
 1573              	.L61:
 799:/home/virusv/TDSAST_IOT/Libraries/src/stm32f10x_usart.c ****   }
 800:/home/virusv/TDSAST_IOT/Libraries/src/stm32f10x_usart.c ****   else
 801:/home/virusv/TDSAST_IOT/Libraries/src/stm32f10x_usart.c ****   {
 802:/home/virusv/TDSAST_IOT/Libraries/src/stm32f10x_usart.c ****     /* Disable tthe one bit method by clearing the ONEBITE bit in the CR3 register */
 803:/home/virusv/TDSAST_IOT/Libraries/src/stm32f10x_usart.c ****     USARTx->CR3 &= CR3_ONEBITE_Reset;
 1574              		.loc 1 803 0
 1575 0024 7B68     		ldr	r3, [r7, #4]
 1576 0026 9B8A     		ldrh	r3, [r3, #20]	@ movhi
 1577 0028 9BB2     		uxth	r3, r3
 1578 002a 23F40063 		bic	r3, r3, #2048
 1579 002e 9AB2     		uxth	r2, r3
 1580 0030 7B68     		ldr	r3, [r7, #4]
 1581 0032 9A82     		strh	r2, [r3, #20]	@ movhi
 1582              	.L60:
 804:/home/virusv/TDSAST_IOT/Libraries/src/stm32f10x_usart.c ****   }
 805:/home/virusv/TDSAST_IOT/Libraries/src/stm32f10x_usart.c **** }
 1583              		.loc 1 805 0
 1584 0034 0C37     		adds	r7, r7, #12
 1585              		.cfi_def_cfa_offset 4
 1586 0036 BD46     		mov	sp, r7
 1587              		.cfi_def_cfa_register 13
 1588              		@ sp needed
 1589 0038 5DF8047B 		ldr	r7, [sp], #4
 1590              		.cfi_restore 7
 1591              		.cfi_def_cfa_offset 0
 1592 003c 7047     		bx	lr
 1593              		.cfi_endproc
 1594              	.LFE51:
 1596 003e 00BF     		.section	.text.USART_IrDAConfig,"ax",%progbits
 1597              		.align	2
 1598              		.global	USART_IrDAConfig
 1599              		.thumb
 1600              		.thumb_func
 1602              	USART_IrDAConfig:
 1603              	.LFB52:
 806:/home/virusv/TDSAST_IOT/Libraries/src/stm32f10x_usart.c **** 
 807:/home/virusv/TDSAST_IOT/Libraries/src/stm32f10x_usart.c **** /**
 808:/home/virusv/TDSAST_IOT/Libraries/src/stm32f10x_usart.c ****   * @brief  Configures the USART's IrDA interface.
 809:/home/virusv/TDSAST_IOT/Libraries/src/stm32f10x_usart.c ****   * @param  USARTx: Select the USART or the UART peripheral. 
 810:/home/virusv/TDSAST_IOT/Libraries/src/stm32f10x_usart.c ****   *   This parameter can be one of the following values:
 811:/home/virusv/TDSAST_IOT/Libraries/src/stm32f10x_usart.c ****   *   USART1, USART2, USART3, UART4 or UART5.
 812:/home/virusv/TDSAST_IOT/Libraries/src/stm32f10x_usart.c ****   * @param  USART_IrDAMode: specifies the IrDA mode.
 813:/home/virusv/TDSAST_IOT/Libraries/src/stm32f10x_usart.c ****   *   This parameter can be one of the following values:
 814:/home/virusv/TDSAST_IOT/Libraries/src/stm32f10x_usart.c ****   *     @arg USART_IrDAMode_LowPower
 815:/home/virusv/TDSAST_IOT/Libraries/src/stm32f10x_usart.c ****   *     @arg USART_IrDAMode_Normal
 816:/home/virusv/TDSAST_IOT/Libraries/src/stm32f10x_usart.c ****   * @retval None
 817:/home/virusv/TDSAST_IOT/Libraries/src/stm32f10x_usart.c ****   */
 818:/home/virusv/TDSAST_IOT/Libraries/src/stm32f10x_usart.c **** void USART_IrDAConfig(USART_TypeDef* USARTx, uint16_t USART_IrDAMode)
 819:/home/virusv/TDSAST_IOT/Libraries/src/stm32f10x_usart.c **** {
 1604              		.loc 1 819 0
 1605              		.cfi_startproc
 1606              		@ args = 0, pretend = 0, frame = 8
 1607              		@ frame_needed = 1, uses_anonymous_args = 0
 1608              		@ link register save eliminated.
 1609 0000 80B4     		push	{r7}
 1610              		.cfi_def_cfa_offset 4
 1611              		.cfi_offset 7, -4
 1612 0002 83B0     		sub	sp, sp, #12
 1613              		.cfi_def_cfa_offset 16
 1614 0004 00AF     		add	r7, sp, #0
 1615              		.cfi_def_cfa_register 7
 1616 0006 7860     		str	r0, [r7, #4]
 1617 0008 0B46     		mov	r3, r1
 1618 000a 7B80     		strh	r3, [r7, #2]	@ movhi
 820:/home/virusv/TDSAST_IOT/Libraries/src/stm32f10x_usart.c ****   /* Check the parameters */
 821:/home/virusv/TDSAST_IOT/Libraries/src/stm32f10x_usart.c ****   assert_param(IS_USART_ALL_PERIPH(USARTx));
 822:/home/virusv/TDSAST_IOT/Libraries/src/stm32f10x_usart.c ****   assert_param(IS_USART_IRDA_MODE(USART_IrDAMode));
 823:/home/virusv/TDSAST_IOT/Libraries/src/stm32f10x_usart.c ****     
 824:/home/virusv/TDSAST_IOT/Libraries/src/stm32f10x_usart.c ****   USARTx->CR3 &= CR3_IRLP_Mask;
 1619              		.loc 1 824 0
 1620 000c 7B68     		ldr	r3, [r7, #4]
 1621 000e 9B8A     		ldrh	r3, [r3, #20]	@ movhi
 1622 0010 9BB2     		uxth	r3, r3
 1623 0012 23F00403 		bic	r3, r3, #4
 1624 0016 9AB2     		uxth	r2, r3
 1625 0018 7B68     		ldr	r3, [r7, #4]
 1626 001a 9A82     		strh	r2, [r3, #20]	@ movhi
 825:/home/virusv/TDSAST_IOT/Libraries/src/stm32f10x_usart.c ****   USARTx->CR3 |= USART_IrDAMode;
 1627              		.loc 1 825 0
 1628 001c 7B68     		ldr	r3, [r7, #4]
 1629 001e 9B8A     		ldrh	r3, [r3, #20]	@ movhi
 1630 0020 9AB2     		uxth	r2, r3
 1631 0022 7B88     		ldrh	r3, [r7, #2]	@ movhi
 1632 0024 1343     		orrs	r3, r3, r2
 1633 0026 9AB2     		uxth	r2, r3
 1634 0028 7B68     		ldr	r3, [r7, #4]
 1635 002a 9A82     		strh	r2, [r3, #20]	@ movhi
 826:/home/virusv/TDSAST_IOT/Libraries/src/stm32f10x_usart.c **** }
 1636              		.loc 1 826 0
 1637 002c 0C37     		adds	r7, r7, #12
 1638              		.cfi_def_cfa_offset 4
 1639 002e BD46     		mov	sp, r7
 1640              		.cfi_def_cfa_register 13
 1641              		@ sp needed
 1642 0030 5DF8047B 		ldr	r7, [sp], #4
 1643              		.cfi_restore 7
 1644              		.cfi_def_cfa_offset 0
 1645 0034 7047     		bx	lr
 1646              		.cfi_endproc
 1647              	.LFE52:
 1649 0036 00BF     		.section	.text.USART_IrDACmd,"ax",%progbits
 1650              		.align	2
 1651              		.global	USART_IrDACmd
 1652              		.thumb
 1653              		.thumb_func
 1655              	USART_IrDACmd:
 1656              	.LFB53:
 827:/home/virusv/TDSAST_IOT/Libraries/src/stm32f10x_usart.c **** 
 828:/home/virusv/TDSAST_IOT/Libraries/src/stm32f10x_usart.c **** /**
 829:/home/virusv/TDSAST_IOT/Libraries/src/stm32f10x_usart.c ****   * @brief  Enables or disables the USART's IrDA interface.
 830:/home/virusv/TDSAST_IOT/Libraries/src/stm32f10x_usart.c ****   * @param  USARTx: Select the USART or the UART peripheral. 
 831:/home/virusv/TDSAST_IOT/Libraries/src/stm32f10x_usart.c ****   *   This parameter can be one of the following values:
 832:/home/virusv/TDSAST_IOT/Libraries/src/stm32f10x_usart.c ****   *   USART1, USART2, USART3, UART4 or UART5.
 833:/home/virusv/TDSAST_IOT/Libraries/src/stm32f10x_usart.c ****   * @param  NewState: new state of the IrDA mode.
 834:/home/virusv/TDSAST_IOT/Libraries/src/stm32f10x_usart.c ****   *   This parameter can be: ENABLE or DISABLE.
 835:/home/virusv/TDSAST_IOT/Libraries/src/stm32f10x_usart.c ****   * @retval None
 836:/home/virusv/TDSAST_IOT/Libraries/src/stm32f10x_usart.c ****   */
 837:/home/virusv/TDSAST_IOT/Libraries/src/stm32f10x_usart.c **** void USART_IrDACmd(USART_TypeDef* USARTx, FunctionalState NewState)
 838:/home/virusv/TDSAST_IOT/Libraries/src/stm32f10x_usart.c **** {
 1657              		.loc 1 838 0
 1658              		.cfi_startproc
 1659              		@ args = 0, pretend = 0, frame = 8
 1660              		@ frame_needed = 1, uses_anonymous_args = 0
 1661              		@ link register save eliminated.
 1662 0000 80B4     		push	{r7}
 1663              		.cfi_def_cfa_offset 4
 1664              		.cfi_offset 7, -4
 1665 0002 83B0     		sub	sp, sp, #12
 1666              		.cfi_def_cfa_offset 16
 1667 0004 00AF     		add	r7, sp, #0
 1668              		.cfi_def_cfa_register 7
 1669 0006 7860     		str	r0, [r7, #4]
 1670 0008 0B46     		mov	r3, r1
 1671 000a FB70     		strb	r3, [r7, #3]
 839:/home/virusv/TDSAST_IOT/Libraries/src/stm32f10x_usart.c ****   /* Check the parameters */
 840:/home/virusv/TDSAST_IOT/Libraries/src/stm32f10x_usart.c ****   assert_param(IS_USART_ALL_PERIPH(USARTx));
 841:/home/virusv/TDSAST_IOT/Libraries/src/stm32f10x_usart.c ****   assert_param(IS_FUNCTIONAL_STATE(NewState));
 842:/home/virusv/TDSAST_IOT/Libraries/src/stm32f10x_usart.c ****     
 843:/home/virusv/TDSAST_IOT/Libraries/src/stm32f10x_usart.c ****   if (NewState != DISABLE)
 1672              		.loc 1 843 0
 1673 000c FB78     		ldrb	r3, [r7, #3]	@ zero_extendqisi2
 1674 000e 002B     		cmp	r3, #0
 1675 0010 08D0     		beq	.L65
 844:/home/virusv/TDSAST_IOT/Libraries/src/stm32f10x_usart.c ****   {
 845:/home/virusv/TDSAST_IOT/Libraries/src/stm32f10x_usart.c ****     /* Enable the IrDA mode by setting the IREN bit in the CR3 register */
 846:/home/virusv/TDSAST_IOT/Libraries/src/stm32f10x_usart.c ****     USARTx->CR3 |= CR3_IREN_Set;
 1676              		.loc 1 846 0
 1677 0012 7B68     		ldr	r3, [r7, #4]
 1678 0014 9B8A     		ldrh	r3, [r3, #20]	@ movhi
 1679 0016 9BB2     		uxth	r3, r3
 1680 0018 43F00203 		orr	r3, r3, #2
 1681 001c 9AB2     		uxth	r2, r3
 1682 001e 7B68     		ldr	r3, [r7, #4]
 1683 0020 9A82     		strh	r2, [r3, #20]	@ movhi
 1684 0022 07E0     		b	.L64
 1685              	.L65:
 847:/home/virusv/TDSAST_IOT/Libraries/src/stm32f10x_usart.c ****   }
 848:/home/virusv/TDSAST_IOT/Libraries/src/stm32f10x_usart.c ****   else
 849:/home/virusv/TDSAST_IOT/Libraries/src/stm32f10x_usart.c ****   {
 850:/home/virusv/TDSAST_IOT/Libraries/src/stm32f10x_usart.c ****     /* Disable the IrDA mode by clearing the IREN bit in the CR3 register */
 851:/home/virusv/TDSAST_IOT/Libraries/src/stm32f10x_usart.c ****     USARTx->CR3 &= CR3_IREN_Reset;
 1686              		.loc 1 851 0
 1687 0024 7B68     		ldr	r3, [r7, #4]
 1688 0026 9B8A     		ldrh	r3, [r3, #20]	@ movhi
 1689 0028 9BB2     		uxth	r3, r3
 1690 002a 23F00203 		bic	r3, r3, #2
 1691 002e 9AB2     		uxth	r2, r3
 1692 0030 7B68     		ldr	r3, [r7, #4]
 1693 0032 9A82     		strh	r2, [r3, #20]	@ movhi
 1694              	.L64:
 852:/home/virusv/TDSAST_IOT/Libraries/src/stm32f10x_usart.c ****   }
 853:/home/virusv/TDSAST_IOT/Libraries/src/stm32f10x_usart.c **** }
 1695              		.loc 1 853 0
 1696 0034 0C37     		adds	r7, r7, #12
 1697              		.cfi_def_cfa_offset 4
 1698 0036 BD46     		mov	sp, r7
 1699              		.cfi_def_cfa_register 13
 1700              		@ sp needed
 1701 0038 5DF8047B 		ldr	r7, [sp], #4
 1702              		.cfi_restore 7
 1703              		.cfi_def_cfa_offset 0
 1704 003c 7047     		bx	lr
 1705              		.cfi_endproc
 1706              	.LFE53:
 1708 003e 00BF     		.section	.text.USART_GetFlagStatus,"ax",%progbits
 1709              		.align	2
 1710              		.global	USART_GetFlagStatus
 1711              		.thumb
 1712              		.thumb_func
 1714              	USART_GetFlagStatus:
 1715              	.LFB54:
 854:/home/virusv/TDSAST_IOT/Libraries/src/stm32f10x_usart.c **** 
 855:/home/virusv/TDSAST_IOT/Libraries/src/stm32f10x_usart.c **** /**
 856:/home/virusv/TDSAST_IOT/Libraries/src/stm32f10x_usart.c ****   * @brief  Checks whether the specified USART flag is set or not.
 857:/home/virusv/TDSAST_IOT/Libraries/src/stm32f10x_usart.c ****   * @param  USARTx: Select the USART or the UART peripheral. 
 858:/home/virusv/TDSAST_IOT/Libraries/src/stm32f10x_usart.c ****   *   This parameter can be one of the following values:
 859:/home/virusv/TDSAST_IOT/Libraries/src/stm32f10x_usart.c ****   *   USART1, USART2, USART3, UART4 or UART5.
 860:/home/virusv/TDSAST_IOT/Libraries/src/stm32f10x_usart.c ****   * @param  USART_FLAG: specifies the flag to check.
 861:/home/virusv/TDSAST_IOT/Libraries/src/stm32f10x_usart.c ****   *   This parameter can be one of the following values:
 862:/home/virusv/TDSAST_IOT/Libraries/src/stm32f10x_usart.c ****   *     @arg USART_FLAG_CTS:  CTS Change flag (not available for UART4 and UART5)
 863:/home/virusv/TDSAST_IOT/Libraries/src/stm32f10x_usart.c ****   *     @arg USART_FLAG_LBD:  LIN Break detection flag
 864:/home/virusv/TDSAST_IOT/Libraries/src/stm32f10x_usart.c ****   *     @arg USART_FLAG_TXE:  Transmit data register empty flag
 865:/home/virusv/TDSAST_IOT/Libraries/src/stm32f10x_usart.c ****   *     @arg USART_FLAG_TC:   Transmission Complete flag
 866:/home/virusv/TDSAST_IOT/Libraries/src/stm32f10x_usart.c ****   *     @arg USART_FLAG_RXNE: Receive data register not empty flag
 867:/home/virusv/TDSAST_IOT/Libraries/src/stm32f10x_usart.c ****   *     @arg USART_FLAG_IDLE: Idle Line detection flag
 868:/home/virusv/TDSAST_IOT/Libraries/src/stm32f10x_usart.c ****   *     @arg USART_FLAG_ORE:  OverRun Error flag
 869:/home/virusv/TDSAST_IOT/Libraries/src/stm32f10x_usart.c ****   *     @arg USART_FLAG_NE:   Noise Error flag
 870:/home/virusv/TDSAST_IOT/Libraries/src/stm32f10x_usart.c ****   *     @arg USART_FLAG_FE:   Framing Error flag
 871:/home/virusv/TDSAST_IOT/Libraries/src/stm32f10x_usart.c ****   *     @arg USART_FLAG_PE:   Parity Error flag
 872:/home/virusv/TDSAST_IOT/Libraries/src/stm32f10x_usart.c ****   * @retval The new state of USART_FLAG (SET or RESET).
 873:/home/virusv/TDSAST_IOT/Libraries/src/stm32f10x_usart.c ****   */
 874:/home/virusv/TDSAST_IOT/Libraries/src/stm32f10x_usart.c **** FlagStatus USART_GetFlagStatus(USART_TypeDef* USARTx, uint16_t USART_FLAG)
 875:/home/virusv/TDSAST_IOT/Libraries/src/stm32f10x_usart.c **** {
 1716              		.loc 1 875 0
 1717              		.cfi_startproc
 1718              		@ args = 0, pretend = 0, frame = 16
 1719              		@ frame_needed = 1, uses_anonymous_args = 0
 1720              		@ link register save eliminated.
 1721 0000 80B4     		push	{r7}
 1722              		.cfi_def_cfa_offset 4
 1723              		.cfi_offset 7, -4
 1724 0002 85B0     		sub	sp, sp, #20
 1725              		.cfi_def_cfa_offset 24
 1726 0004 00AF     		add	r7, sp, #0
 1727              		.cfi_def_cfa_register 7
 1728 0006 7860     		str	r0, [r7, #4]
 1729 0008 0B46     		mov	r3, r1
 1730 000a 7B80     		strh	r3, [r7, #2]	@ movhi
 876:/home/virusv/TDSAST_IOT/Libraries/src/stm32f10x_usart.c ****   FlagStatus bitstatus = RESET;
 1731              		.loc 1 876 0
 1732 000c 0023     		movs	r3, #0
 1733 000e FB73     		strb	r3, [r7, #15]
 877:/home/virusv/TDSAST_IOT/Libraries/src/stm32f10x_usart.c ****   /* Check the parameters */
 878:/home/virusv/TDSAST_IOT/Libraries/src/stm32f10x_usart.c ****   assert_param(IS_USART_ALL_PERIPH(USARTx));
 879:/home/virusv/TDSAST_IOT/Libraries/src/stm32f10x_usart.c ****   assert_param(IS_USART_FLAG(USART_FLAG));
 880:/home/virusv/TDSAST_IOT/Libraries/src/stm32f10x_usart.c ****   /* The CTS flag is not available for UART4 and UART5 */
 881:/home/virusv/TDSAST_IOT/Libraries/src/stm32f10x_usart.c ****   if (USART_FLAG == USART_FLAG_CTS)
 882:/home/virusv/TDSAST_IOT/Libraries/src/stm32f10x_usart.c ****   {
 883:/home/virusv/TDSAST_IOT/Libraries/src/stm32f10x_usart.c ****     assert_param(IS_USART_123_PERIPH(USARTx));
 884:/home/virusv/TDSAST_IOT/Libraries/src/stm32f10x_usart.c ****   }  
 885:/home/virusv/TDSAST_IOT/Libraries/src/stm32f10x_usart.c ****   
 886:/home/virusv/TDSAST_IOT/Libraries/src/stm32f10x_usart.c ****   if ((USARTx->SR & USART_FLAG) != (uint16_t)RESET)
 1734              		.loc 1 886 0
 1735 0010 7B68     		ldr	r3, [r7, #4]
 1736 0012 1B88     		ldrh	r3, [r3]	@ movhi
 1737 0014 9AB2     		uxth	r2, r3
 1738 0016 7B88     		ldrh	r3, [r7, #2]	@ movhi
 1739 0018 1340     		ands	r3, r3, r2
 1740 001a 9BB2     		uxth	r3, r3
 1741 001c 002B     		cmp	r3, #0
 1742 001e 02D0     		beq	.L68
 887:/home/virusv/TDSAST_IOT/Libraries/src/stm32f10x_usart.c ****   {
 888:/home/virusv/TDSAST_IOT/Libraries/src/stm32f10x_usart.c ****     bitstatus = SET;
 1743              		.loc 1 888 0
 1744 0020 0123     		movs	r3, #1
 1745 0022 FB73     		strb	r3, [r7, #15]
 1746 0024 01E0     		b	.L69
 1747              	.L68:
 889:/home/virusv/TDSAST_IOT/Libraries/src/stm32f10x_usart.c ****   }
 890:/home/virusv/TDSAST_IOT/Libraries/src/stm32f10x_usart.c ****   else
 891:/home/virusv/TDSAST_IOT/Libraries/src/stm32f10x_usart.c ****   {
 892:/home/virusv/TDSAST_IOT/Libraries/src/stm32f10x_usart.c ****     bitstatus = RESET;
 1748              		.loc 1 892 0
 1749 0026 0023     		movs	r3, #0
 1750 0028 FB73     		strb	r3, [r7, #15]
 1751              	.L69:
 893:/home/virusv/TDSAST_IOT/Libraries/src/stm32f10x_usart.c ****   }
 894:/home/virusv/TDSAST_IOT/Libraries/src/stm32f10x_usart.c ****   return bitstatus;
 1752              		.loc 1 894 0
 1753 002a FB7B     		ldrb	r3, [r7, #15]	@ zero_extendqisi2
 895:/home/virusv/TDSAST_IOT/Libraries/src/stm32f10x_usart.c **** }
 1754              		.loc 1 895 0
 1755 002c 1846     		mov	r0, r3
 1756 002e 1437     		adds	r7, r7, #20
 1757              		.cfi_def_cfa_offset 4
 1758 0030 BD46     		mov	sp, r7
 1759              		.cfi_def_cfa_register 13
 1760              		@ sp needed
 1761 0032 5DF8047B 		ldr	r7, [sp], #4
 1762              		.cfi_restore 7
 1763              		.cfi_def_cfa_offset 0
 1764 0036 7047     		bx	lr
 1765              		.cfi_endproc
 1766              	.LFE54:
 1768              		.section	.text.USART_ClearFlag,"ax",%progbits
 1769              		.align	2
 1770              		.global	USART_ClearFlag
 1771              		.thumb
 1772              		.thumb_func
 1774              	USART_ClearFlag:
 1775              	.LFB55:
 896:/home/virusv/TDSAST_IOT/Libraries/src/stm32f10x_usart.c **** 
 897:/home/virusv/TDSAST_IOT/Libraries/src/stm32f10x_usart.c **** /**
 898:/home/virusv/TDSAST_IOT/Libraries/src/stm32f10x_usart.c ****   * @brief  Clears the USARTx's pending flags.
 899:/home/virusv/TDSAST_IOT/Libraries/src/stm32f10x_usart.c ****   * @param  USARTx: Select the USART or the UART peripheral. 
 900:/home/virusv/TDSAST_IOT/Libraries/src/stm32f10x_usart.c ****   *   This parameter can be one of the following values:
 901:/home/virusv/TDSAST_IOT/Libraries/src/stm32f10x_usart.c ****   *   USART1, USART2, USART3, UART4 or UART5.
 902:/home/virusv/TDSAST_IOT/Libraries/src/stm32f10x_usart.c ****   * @param  USART_FLAG: specifies the flag to clear.
 903:/home/virusv/TDSAST_IOT/Libraries/src/stm32f10x_usart.c ****   *   This parameter can be any combination of the following values:
 904:/home/virusv/TDSAST_IOT/Libraries/src/stm32f10x_usart.c ****   *     @arg USART_FLAG_CTS:  CTS Change flag (not available for UART4 and UART5).
 905:/home/virusv/TDSAST_IOT/Libraries/src/stm32f10x_usart.c ****   *     @arg USART_FLAG_LBD:  LIN Break detection flag.
 906:/home/virusv/TDSAST_IOT/Libraries/src/stm32f10x_usart.c ****   *     @arg USART_FLAG_TC:   Transmission Complete flag.
 907:/home/virusv/TDSAST_IOT/Libraries/src/stm32f10x_usart.c ****   *     @arg USART_FLAG_RXNE: Receive data register not empty flag.
 908:/home/virusv/TDSAST_IOT/Libraries/src/stm32f10x_usart.c ****   *   
 909:/home/virusv/TDSAST_IOT/Libraries/src/stm32f10x_usart.c ****   * @note
 910:/home/virusv/TDSAST_IOT/Libraries/src/stm32f10x_usart.c ****   *   - PE (Parity error), FE (Framing error), NE (Noise error), ORE (OverRun 
 911:/home/virusv/TDSAST_IOT/Libraries/src/stm32f10x_usart.c ****   *     error) and IDLE (Idle line detected) flags are cleared by software 
 912:/home/virusv/TDSAST_IOT/Libraries/src/stm32f10x_usart.c ****   *     sequence: a read operation to USART_SR register (USART_GetFlagStatus()) 
 913:/home/virusv/TDSAST_IOT/Libraries/src/stm32f10x_usart.c ****   *     followed by a read operation to USART_DR register (USART_ReceiveData()).
 914:/home/virusv/TDSAST_IOT/Libraries/src/stm32f10x_usart.c ****   *   - RXNE flag can be also cleared by a read to the USART_DR register 
 915:/home/virusv/TDSAST_IOT/Libraries/src/stm32f10x_usart.c ****   *     (USART_ReceiveData()).
 916:/home/virusv/TDSAST_IOT/Libraries/src/stm32f10x_usart.c ****   *   - TC flag can be also cleared by software sequence: a read operation to 
 917:/home/virusv/TDSAST_IOT/Libraries/src/stm32f10x_usart.c ****   *     USART_SR register (USART_GetFlagStatus()) followed by a write operation
 918:/home/virusv/TDSAST_IOT/Libraries/src/stm32f10x_usart.c ****   *     to USART_DR register (USART_SendData()).
 919:/home/virusv/TDSAST_IOT/Libraries/src/stm32f10x_usart.c ****   *   - TXE flag is cleared only by a write to the USART_DR register 
 920:/home/virusv/TDSAST_IOT/Libraries/src/stm32f10x_usart.c ****   *     (USART_SendData()).
 921:/home/virusv/TDSAST_IOT/Libraries/src/stm32f10x_usart.c ****   * @retval None
 922:/home/virusv/TDSAST_IOT/Libraries/src/stm32f10x_usart.c ****   */
 923:/home/virusv/TDSAST_IOT/Libraries/src/stm32f10x_usart.c **** void USART_ClearFlag(USART_TypeDef* USARTx, uint16_t USART_FLAG)
 924:/home/virusv/TDSAST_IOT/Libraries/src/stm32f10x_usart.c **** {
 1776              		.loc 1 924 0
 1777              		.cfi_startproc
 1778              		@ args = 0, pretend = 0, frame = 8
 1779              		@ frame_needed = 1, uses_anonymous_args = 0
 1780              		@ link register save eliminated.
 1781 0000 80B4     		push	{r7}
 1782              		.cfi_def_cfa_offset 4
 1783              		.cfi_offset 7, -4
 1784 0002 83B0     		sub	sp, sp, #12
 1785              		.cfi_def_cfa_offset 16
 1786 0004 00AF     		add	r7, sp, #0
 1787              		.cfi_def_cfa_register 7
 1788 0006 7860     		str	r0, [r7, #4]
 1789 0008 0B46     		mov	r3, r1
 1790 000a 7B80     		strh	r3, [r7, #2]	@ movhi
 925:/home/virusv/TDSAST_IOT/Libraries/src/stm32f10x_usart.c ****   /* Check the parameters */
 926:/home/virusv/TDSAST_IOT/Libraries/src/stm32f10x_usart.c ****   assert_param(IS_USART_ALL_PERIPH(USARTx));
 927:/home/virusv/TDSAST_IOT/Libraries/src/stm32f10x_usart.c ****   assert_param(IS_USART_CLEAR_FLAG(USART_FLAG));
 928:/home/virusv/TDSAST_IOT/Libraries/src/stm32f10x_usart.c ****   /* The CTS flag is not available for UART4 and UART5 */
 929:/home/virusv/TDSAST_IOT/Libraries/src/stm32f10x_usart.c ****   if ((USART_FLAG & USART_FLAG_CTS) == USART_FLAG_CTS)
 930:/home/virusv/TDSAST_IOT/Libraries/src/stm32f10x_usart.c ****   {
 931:/home/virusv/TDSAST_IOT/Libraries/src/stm32f10x_usart.c ****     assert_param(IS_USART_123_PERIPH(USARTx));
 932:/home/virusv/TDSAST_IOT/Libraries/src/stm32f10x_usart.c ****   } 
 933:/home/virusv/TDSAST_IOT/Libraries/src/stm32f10x_usart.c ****    
 934:/home/virusv/TDSAST_IOT/Libraries/src/stm32f10x_usart.c ****   USARTx->SR = (uint16_t)~USART_FLAG;
 1791              		.loc 1 934 0
 1792 000c 7B88     		ldrh	r3, [r7, #2]	@ movhi
 1793 000e DB43     		mvns	r3, r3
 1794 0010 9AB2     		uxth	r2, r3
 1795 0012 7B68     		ldr	r3, [r7, #4]
 1796 0014 1A80     		strh	r2, [r3]	@ movhi
 935:/home/virusv/TDSAST_IOT/Libraries/src/stm32f10x_usart.c **** }
 1797              		.loc 1 935 0
 1798 0016 0C37     		adds	r7, r7, #12
 1799              		.cfi_def_cfa_offset 4
 1800 0018 BD46     		mov	sp, r7
 1801              		.cfi_def_cfa_register 13
 1802              		@ sp needed
 1803 001a 5DF8047B 		ldr	r7, [sp], #4
 1804              		.cfi_restore 7
 1805              		.cfi_def_cfa_offset 0
 1806 001e 7047     		bx	lr
 1807              		.cfi_endproc
 1808              	.LFE55:
 1810              		.section	.text.USART_GetITStatus,"ax",%progbits
 1811              		.align	2
 1812              		.global	USART_GetITStatus
 1813              		.thumb
 1814              		.thumb_func
 1816              	USART_GetITStatus:
 1817              	.LFB56:
 936:/home/virusv/TDSAST_IOT/Libraries/src/stm32f10x_usart.c **** 
 937:/home/virusv/TDSAST_IOT/Libraries/src/stm32f10x_usart.c **** /**
 938:/home/virusv/TDSAST_IOT/Libraries/src/stm32f10x_usart.c ****   * @brief  Checks whether the specified USART interrupt has occurred or not.
 939:/home/virusv/TDSAST_IOT/Libraries/src/stm32f10x_usart.c ****   * @param  USARTx: Select the USART or the UART peripheral. 
 940:/home/virusv/TDSAST_IOT/Libraries/src/stm32f10x_usart.c ****   *   This parameter can be one of the following values:
 941:/home/virusv/TDSAST_IOT/Libraries/src/stm32f10x_usart.c ****   *   USART1, USART2, USART3, UART4 or UART5.
 942:/home/virusv/TDSAST_IOT/Libraries/src/stm32f10x_usart.c ****   * @param  USART_IT: specifies the USART interrupt source to check.
 943:/home/virusv/TDSAST_IOT/Libraries/src/stm32f10x_usart.c ****   *   This parameter can be one of the following values:
 944:/home/virusv/TDSAST_IOT/Libraries/src/stm32f10x_usart.c ****   *     @arg USART_IT_CTS:  CTS change interrupt (not available for UART4 and UART5)
 945:/home/virusv/TDSAST_IOT/Libraries/src/stm32f10x_usart.c ****   *     @arg USART_IT_LBD:  LIN Break detection interrupt
 946:/home/virusv/TDSAST_IOT/Libraries/src/stm32f10x_usart.c ****   *     @arg USART_IT_TXE:  Tansmit Data Register empty interrupt
 947:/home/virusv/TDSAST_IOT/Libraries/src/stm32f10x_usart.c ****   *     @arg USART_IT_TC:   Transmission complete interrupt
 948:/home/virusv/TDSAST_IOT/Libraries/src/stm32f10x_usart.c ****   *     @arg USART_IT_RXNE: Receive Data register not empty interrupt
 949:/home/virusv/TDSAST_IOT/Libraries/src/stm32f10x_usart.c ****   *     @arg USART_IT_IDLE: Idle line detection interrupt
 950:/home/virusv/TDSAST_IOT/Libraries/src/stm32f10x_usart.c ****   *     @arg USART_IT_ORE:  OverRun Error interrupt
 951:/home/virusv/TDSAST_IOT/Libraries/src/stm32f10x_usart.c ****   *     @arg USART_IT_NE:   Noise Error interrupt
 952:/home/virusv/TDSAST_IOT/Libraries/src/stm32f10x_usart.c ****   *     @arg USART_IT_FE:   Framing Error interrupt
 953:/home/virusv/TDSAST_IOT/Libraries/src/stm32f10x_usart.c ****   *     @arg USART_IT_PE:   Parity Error interrupt
 954:/home/virusv/TDSAST_IOT/Libraries/src/stm32f10x_usart.c ****   * @retval The new state of USART_IT (SET or RESET).
 955:/home/virusv/TDSAST_IOT/Libraries/src/stm32f10x_usart.c ****   */
 956:/home/virusv/TDSAST_IOT/Libraries/src/stm32f10x_usart.c **** ITStatus USART_GetITStatus(USART_TypeDef* USARTx, uint16_t USART_IT)
 957:/home/virusv/TDSAST_IOT/Libraries/src/stm32f10x_usart.c **** {
 1818              		.loc 1 957 0
 1819              		.cfi_startproc
 1820              		@ args = 0, pretend = 0, frame = 24
 1821              		@ frame_needed = 1, uses_anonymous_args = 0
 1822              		@ link register save eliminated.
 1823 0000 80B4     		push	{r7}
 1824              		.cfi_def_cfa_offset 4
 1825              		.cfi_offset 7, -4
 1826 0002 87B0     		sub	sp, sp, #28
 1827              		.cfi_def_cfa_offset 32
 1828 0004 00AF     		add	r7, sp, #0
 1829              		.cfi_def_cfa_register 7
 1830 0006 7860     		str	r0, [r7, #4]
 1831 0008 0B46     		mov	r3, r1
 1832 000a 7B80     		strh	r3, [r7, #2]	@ movhi
 958:/home/virusv/TDSAST_IOT/Libraries/src/stm32f10x_usart.c ****   uint32_t bitpos = 0x00, itmask = 0x00, usartreg = 0x00;
 1833              		.loc 1 958 0
 1834 000c 0023     		movs	r3, #0
 1835 000e FB60     		str	r3, [r7, #12]
 1836 0010 0023     		movs	r3, #0
 1837 0012 7B61     		str	r3, [r7, #20]
 1838 0014 0023     		movs	r3, #0
 1839 0016 BB60     		str	r3, [r7, #8]
 959:/home/virusv/TDSAST_IOT/Libraries/src/stm32f10x_usart.c ****   ITStatus bitstatus = RESET;
 1840              		.loc 1 959 0
 1841 0018 0023     		movs	r3, #0
 1842 001a FB74     		strb	r3, [r7, #19]
 960:/home/virusv/TDSAST_IOT/Libraries/src/stm32f10x_usart.c ****   /* Check the parameters */
 961:/home/virusv/TDSAST_IOT/Libraries/src/stm32f10x_usart.c ****   assert_param(IS_USART_ALL_PERIPH(USARTx));
 962:/home/virusv/TDSAST_IOT/Libraries/src/stm32f10x_usart.c ****   assert_param(IS_USART_GET_IT(USART_IT));
 963:/home/virusv/TDSAST_IOT/Libraries/src/stm32f10x_usart.c ****   /* The CTS interrupt is not available for UART4 and UART5 */ 
 964:/home/virusv/TDSAST_IOT/Libraries/src/stm32f10x_usart.c ****   if (USART_IT == USART_IT_CTS)
 965:/home/virusv/TDSAST_IOT/Libraries/src/stm32f10x_usart.c ****   {
 966:/home/virusv/TDSAST_IOT/Libraries/src/stm32f10x_usart.c ****     assert_param(IS_USART_123_PERIPH(USARTx));
 967:/home/virusv/TDSAST_IOT/Libraries/src/stm32f10x_usart.c ****   }   
 968:/home/virusv/TDSAST_IOT/Libraries/src/stm32f10x_usart.c ****   
 969:/home/virusv/TDSAST_IOT/Libraries/src/stm32f10x_usart.c ****   /* Get the USART register index */
 970:/home/virusv/TDSAST_IOT/Libraries/src/stm32f10x_usart.c ****   usartreg = (((uint8_t)USART_IT) >> 0x05);
 1843              		.loc 1 970 0
 1844 001c 7B88     		ldrh	r3, [r7, #2]	@ movhi
 1845 001e DBB2     		uxtb	r3, r3
 1846 0020 5B09     		lsrs	r3, r3, #5
 1847 0022 DBB2     		uxtb	r3, r3
 1848 0024 BB60     		str	r3, [r7, #8]
 971:/home/virusv/TDSAST_IOT/Libraries/src/stm32f10x_usart.c ****   /* Get the interrupt position */
 972:/home/virusv/TDSAST_IOT/Libraries/src/stm32f10x_usart.c ****   itmask = USART_IT & IT_Mask;
 1849              		.loc 1 972 0
 1850 0026 7B88     		ldrh	r3, [r7, #2]
 1851 0028 03F01F03 		and	r3, r3, #31
 1852 002c 7B61     		str	r3, [r7, #20]
 973:/home/virusv/TDSAST_IOT/Libraries/src/stm32f10x_usart.c ****   itmask = (uint32_t)0x01 << itmask;
 1853              		.loc 1 973 0
 1854 002e 7B69     		ldr	r3, [r7, #20]
 1855 0030 0122     		movs	r2, #1
 1856 0032 02FA03F3 		lsl	r3, r2, r3
 1857 0036 7B61     		str	r3, [r7, #20]
 974:/home/virusv/TDSAST_IOT/Libraries/src/stm32f10x_usart.c ****   
 975:/home/virusv/TDSAST_IOT/Libraries/src/stm32f10x_usart.c ****   if (usartreg == 0x01) /* The IT  is in CR1 register */
 1858              		.loc 1 975 0
 1859 0038 BB68     		ldr	r3, [r7, #8]
 1860 003a 012B     		cmp	r3, #1
 1861 003c 07D1     		bne	.L73
 976:/home/virusv/TDSAST_IOT/Libraries/src/stm32f10x_usart.c ****   {
 977:/home/virusv/TDSAST_IOT/Libraries/src/stm32f10x_usart.c ****     itmask &= USARTx->CR1;
 1862              		.loc 1 977 0
 1863 003e 7B68     		ldr	r3, [r7, #4]
 1864 0040 9B89     		ldrh	r3, [r3, #12]	@ movhi
 1865 0042 9BB2     		uxth	r3, r3
 1866 0044 1A46     		mov	r2, r3
 1867 0046 7B69     		ldr	r3, [r7, #20]
 1868 0048 1340     		ands	r3, r3, r2
 1869 004a 7B61     		str	r3, [r7, #20]
 1870 004c 11E0     		b	.L74
 1871              	.L73:
 978:/home/virusv/TDSAST_IOT/Libraries/src/stm32f10x_usart.c ****   }
 979:/home/virusv/TDSAST_IOT/Libraries/src/stm32f10x_usart.c ****   else if (usartreg == 0x02) /* The IT  is in CR2 register */
 1872              		.loc 1 979 0
 1873 004e BB68     		ldr	r3, [r7, #8]
 1874 0050 022B     		cmp	r3, #2
 1875 0052 07D1     		bne	.L75
 980:/home/virusv/TDSAST_IOT/Libraries/src/stm32f10x_usart.c ****   {
 981:/home/virusv/TDSAST_IOT/Libraries/src/stm32f10x_usart.c ****     itmask &= USARTx->CR2;
 1876              		.loc 1 981 0
 1877 0054 7B68     		ldr	r3, [r7, #4]
 1878 0056 1B8A     		ldrh	r3, [r3, #16]	@ movhi
 1879 0058 9BB2     		uxth	r3, r3
 1880 005a 1A46     		mov	r2, r3
 1881 005c 7B69     		ldr	r3, [r7, #20]
 1882 005e 1340     		ands	r3, r3, r2
 1883 0060 7B61     		str	r3, [r7, #20]
 1884 0062 06E0     		b	.L74
 1885              	.L75:
 982:/home/virusv/TDSAST_IOT/Libraries/src/stm32f10x_usart.c ****   }
 983:/home/virusv/TDSAST_IOT/Libraries/src/stm32f10x_usart.c ****   else /* The IT  is in CR3 register */
 984:/home/virusv/TDSAST_IOT/Libraries/src/stm32f10x_usart.c ****   {
 985:/home/virusv/TDSAST_IOT/Libraries/src/stm32f10x_usart.c ****     itmask &= USARTx->CR3;
 1886              		.loc 1 985 0
 1887 0064 7B68     		ldr	r3, [r7, #4]
 1888 0066 9B8A     		ldrh	r3, [r3, #20]	@ movhi
 1889 0068 9BB2     		uxth	r3, r3
 1890 006a 1A46     		mov	r2, r3
 1891 006c 7B69     		ldr	r3, [r7, #20]
 1892 006e 1340     		ands	r3, r3, r2
 1893 0070 7B61     		str	r3, [r7, #20]
 1894              	.L74:
 986:/home/virusv/TDSAST_IOT/Libraries/src/stm32f10x_usart.c ****   }
 987:/home/virusv/TDSAST_IOT/Libraries/src/stm32f10x_usart.c ****   
 988:/home/virusv/TDSAST_IOT/Libraries/src/stm32f10x_usart.c ****   bitpos = USART_IT >> 0x08;
 1895              		.loc 1 988 0
 1896 0072 7B88     		ldrh	r3, [r7, #2]
 1897 0074 1B0A     		lsrs	r3, r3, #8
 1898 0076 9BB2     		uxth	r3, r3
 1899 0078 FB60     		str	r3, [r7, #12]
 989:/home/virusv/TDSAST_IOT/Libraries/src/stm32f10x_usart.c ****   bitpos = (uint32_t)0x01 << bitpos;
 1900              		.loc 1 989 0
 1901 007a FB68     		ldr	r3, [r7, #12]
 1902 007c 0122     		movs	r2, #1
 1903 007e 02FA03F3 		lsl	r3, r2, r3
 1904 0082 FB60     		str	r3, [r7, #12]
 990:/home/virusv/TDSAST_IOT/Libraries/src/stm32f10x_usart.c ****   bitpos &= USARTx->SR;
 1905              		.loc 1 990 0
 1906 0084 7B68     		ldr	r3, [r7, #4]
 1907 0086 1B88     		ldrh	r3, [r3]	@ movhi
 1908 0088 9BB2     		uxth	r3, r3
 1909 008a 1A46     		mov	r2, r3
 1910 008c FB68     		ldr	r3, [r7, #12]
 1911 008e 1340     		ands	r3, r3, r2
 1912 0090 FB60     		str	r3, [r7, #12]
 991:/home/virusv/TDSAST_IOT/Libraries/src/stm32f10x_usart.c ****   if ((itmask != (uint16_t)RESET)&&(bitpos != (uint16_t)RESET))
 1913              		.loc 1 991 0
 1914 0092 7B69     		ldr	r3, [r7, #20]
 1915 0094 002B     		cmp	r3, #0
 1916 0096 05D0     		beq	.L76
 1917              		.loc 1 991 0 is_stmt 0 discriminator 1
 1918 0098 FB68     		ldr	r3, [r7, #12]
 1919 009a 002B     		cmp	r3, #0
 1920 009c 02D0     		beq	.L76
 992:/home/virusv/TDSAST_IOT/Libraries/src/stm32f10x_usart.c ****   {
 993:/home/virusv/TDSAST_IOT/Libraries/src/stm32f10x_usart.c ****     bitstatus = SET;
 1921              		.loc 1 993 0 is_stmt 1
 1922 009e 0123     		movs	r3, #1
 1923 00a0 FB74     		strb	r3, [r7, #19]
 1924 00a2 01E0     		b	.L77
 1925              	.L76:
 994:/home/virusv/TDSAST_IOT/Libraries/src/stm32f10x_usart.c ****   }
 995:/home/virusv/TDSAST_IOT/Libraries/src/stm32f10x_usart.c ****   else
 996:/home/virusv/TDSAST_IOT/Libraries/src/stm32f10x_usart.c ****   {
 997:/home/virusv/TDSAST_IOT/Libraries/src/stm32f10x_usart.c ****     bitstatus = RESET;
 1926              		.loc 1 997 0
 1927 00a4 0023     		movs	r3, #0
 1928 00a6 FB74     		strb	r3, [r7, #19]
 1929              	.L77:
 998:/home/virusv/TDSAST_IOT/Libraries/src/stm32f10x_usart.c ****   }
 999:/home/virusv/TDSAST_IOT/Libraries/src/stm32f10x_usart.c ****   
1000:/home/virusv/TDSAST_IOT/Libraries/src/stm32f10x_usart.c ****   return bitstatus;  
 1930              		.loc 1 1000 0
 1931 00a8 FB7C     		ldrb	r3, [r7, #19]	@ zero_extendqisi2
1001:/home/virusv/TDSAST_IOT/Libraries/src/stm32f10x_usart.c **** }
 1932              		.loc 1 1001 0
 1933 00aa 1846     		mov	r0, r3
 1934 00ac 1C37     		adds	r7, r7, #28
 1935              		.cfi_def_cfa_offset 4
 1936 00ae BD46     		mov	sp, r7
 1937              		.cfi_def_cfa_register 13
 1938              		@ sp needed
 1939 00b0 5DF8047B 		ldr	r7, [sp], #4
 1940              		.cfi_restore 7
 1941              		.cfi_def_cfa_offset 0
 1942 00b4 7047     		bx	lr
 1943              		.cfi_endproc
 1944              	.LFE56:
 1946 00b6 00BF     		.section	.text.USART_ClearITPendingBit,"ax",%progbits
 1947              		.align	2
 1948              		.global	USART_ClearITPendingBit
 1949              		.thumb
 1950              		.thumb_func
 1952              	USART_ClearITPendingBit:
 1953              	.LFB57:
1002:/home/virusv/TDSAST_IOT/Libraries/src/stm32f10x_usart.c **** 
1003:/home/virusv/TDSAST_IOT/Libraries/src/stm32f10x_usart.c **** /**
1004:/home/virusv/TDSAST_IOT/Libraries/src/stm32f10x_usart.c ****   * @brief  Clears the USARTx's interrupt pending bits.
1005:/home/virusv/TDSAST_IOT/Libraries/src/stm32f10x_usart.c ****   * @param  USARTx: Select the USART or the UART peripheral. 
1006:/home/virusv/TDSAST_IOT/Libraries/src/stm32f10x_usart.c ****   *   This parameter can be one of the following values:
1007:/home/virusv/TDSAST_IOT/Libraries/src/stm32f10x_usart.c ****   *   USART1, USART2, USART3, UART4 or UART5.
1008:/home/virusv/TDSAST_IOT/Libraries/src/stm32f10x_usart.c ****   * @param  USART_IT: specifies the interrupt pending bit to clear.
1009:/home/virusv/TDSAST_IOT/Libraries/src/stm32f10x_usart.c ****   *   This parameter can be one of the following values:
1010:/home/virusv/TDSAST_IOT/Libraries/src/stm32f10x_usart.c ****   *     @arg USART_IT_CTS:  CTS change interrupt (not available for UART4 and UART5)
1011:/home/virusv/TDSAST_IOT/Libraries/src/stm32f10x_usart.c ****   *     @arg USART_IT_LBD:  LIN Break detection interrupt
1012:/home/virusv/TDSAST_IOT/Libraries/src/stm32f10x_usart.c ****   *     @arg USART_IT_TC:   Transmission complete interrupt. 
1013:/home/virusv/TDSAST_IOT/Libraries/src/stm32f10x_usart.c ****   *     @arg USART_IT_RXNE: Receive Data register not empty interrupt.
1014:/home/virusv/TDSAST_IOT/Libraries/src/stm32f10x_usart.c ****   *   
1015:/home/virusv/TDSAST_IOT/Libraries/src/stm32f10x_usart.c ****   * @note
1016:/home/virusv/TDSAST_IOT/Libraries/src/stm32f10x_usart.c ****   *   - PE (Parity error), FE (Framing error), NE (Noise error), ORE (OverRun 
1017:/home/virusv/TDSAST_IOT/Libraries/src/stm32f10x_usart.c ****   *     error) and IDLE (Idle line detected) pending bits are cleared by 
1018:/home/virusv/TDSAST_IOT/Libraries/src/stm32f10x_usart.c ****   *     software sequence: a read operation to USART_SR register 
1019:/home/virusv/TDSAST_IOT/Libraries/src/stm32f10x_usart.c ****   *     (USART_GetITStatus()) followed by a read operation to USART_DR register 
1020:/home/virusv/TDSAST_IOT/Libraries/src/stm32f10x_usart.c ****   *     (USART_ReceiveData()).
1021:/home/virusv/TDSAST_IOT/Libraries/src/stm32f10x_usart.c ****   *   - RXNE pending bit can be also cleared by a read to the USART_DR register 
1022:/home/virusv/TDSAST_IOT/Libraries/src/stm32f10x_usart.c ****   *     (USART_ReceiveData()).
1023:/home/virusv/TDSAST_IOT/Libraries/src/stm32f10x_usart.c ****   *   - TC pending bit can be also cleared by software sequence: a read 
1024:/home/virusv/TDSAST_IOT/Libraries/src/stm32f10x_usart.c ****   *     operation to USART_SR register (USART_GetITStatus()) followed by a write 
1025:/home/virusv/TDSAST_IOT/Libraries/src/stm32f10x_usart.c ****   *     operation to USART_DR register (USART_SendData()).
1026:/home/virusv/TDSAST_IOT/Libraries/src/stm32f10x_usart.c ****   *   - TXE pending bit is cleared only by a write to the USART_DR register 
1027:/home/virusv/TDSAST_IOT/Libraries/src/stm32f10x_usart.c ****   *     (USART_SendData()).
1028:/home/virusv/TDSAST_IOT/Libraries/src/stm32f10x_usart.c ****   * @retval None
1029:/home/virusv/TDSAST_IOT/Libraries/src/stm32f10x_usart.c ****   */
1030:/home/virusv/TDSAST_IOT/Libraries/src/stm32f10x_usart.c **** void USART_ClearITPendingBit(USART_TypeDef* USARTx, uint16_t USART_IT)
1031:/home/virusv/TDSAST_IOT/Libraries/src/stm32f10x_usart.c **** {
 1954              		.loc 1 1031 0
 1955              		.cfi_startproc
 1956              		@ args = 0, pretend = 0, frame = 16
 1957              		@ frame_needed = 1, uses_anonymous_args = 0
 1958              		@ link register save eliminated.
 1959 0000 80B4     		push	{r7}
 1960              		.cfi_def_cfa_offset 4
 1961              		.cfi_offset 7, -4
 1962 0002 85B0     		sub	sp, sp, #20
 1963              		.cfi_def_cfa_offset 24
 1964 0004 00AF     		add	r7, sp, #0
 1965              		.cfi_def_cfa_register 7
 1966 0006 7860     		str	r0, [r7, #4]
 1967 0008 0B46     		mov	r3, r1
 1968 000a 7B80     		strh	r3, [r7, #2]	@ movhi
1032:/home/virusv/TDSAST_IOT/Libraries/src/stm32f10x_usart.c ****   uint16_t bitpos = 0x00, itmask = 0x00;
 1969              		.loc 1 1032 0
 1970 000c 0023     		movs	r3, #0
 1971 000e FB81     		strh	r3, [r7, #14]	@ movhi
 1972 0010 0023     		movs	r3, #0
 1973 0012 BB81     		strh	r3, [r7, #12]	@ movhi
1033:/home/virusv/TDSAST_IOT/Libraries/src/stm32f10x_usart.c ****   /* Check the parameters */
1034:/home/virusv/TDSAST_IOT/Libraries/src/stm32f10x_usart.c ****   assert_param(IS_USART_ALL_PERIPH(USARTx));
1035:/home/virusv/TDSAST_IOT/Libraries/src/stm32f10x_usart.c ****   assert_param(IS_USART_CLEAR_IT(USART_IT));
1036:/home/virusv/TDSAST_IOT/Libraries/src/stm32f10x_usart.c ****   /* The CTS interrupt is not available for UART4 and UART5 */
1037:/home/virusv/TDSAST_IOT/Libraries/src/stm32f10x_usart.c ****   if (USART_IT == USART_IT_CTS)
1038:/home/virusv/TDSAST_IOT/Libraries/src/stm32f10x_usart.c ****   {
1039:/home/virusv/TDSAST_IOT/Libraries/src/stm32f10x_usart.c ****     assert_param(IS_USART_123_PERIPH(USARTx));
1040:/home/virusv/TDSAST_IOT/Libraries/src/stm32f10x_usart.c ****   }   
1041:/home/virusv/TDSAST_IOT/Libraries/src/stm32f10x_usart.c ****   
1042:/home/virusv/TDSAST_IOT/Libraries/src/stm32f10x_usart.c ****   bitpos = USART_IT >> 0x08;
 1974              		.loc 1 1042 0
 1975 0014 7B88     		ldrh	r3, [r7, #2]
 1976 0016 1B0A     		lsrs	r3, r3, #8
 1977 0018 FB81     		strh	r3, [r7, #14]	@ movhi
1043:/home/virusv/TDSAST_IOT/Libraries/src/stm32f10x_usart.c ****   itmask = ((uint16_t)0x01 << (uint16_t)bitpos);
 1978              		.loc 1 1043 0
 1979 001a FB89     		ldrh	r3, [r7, #14]
 1980 001c 0122     		movs	r2, #1
 1981 001e 02FA03F3 		lsl	r3, r2, r3
 1982 0022 BB81     		strh	r3, [r7, #12]	@ movhi
1044:/home/virusv/TDSAST_IOT/Libraries/src/stm32f10x_usart.c ****   USARTx->SR = (uint16_t)~itmask;
 1983              		.loc 1 1044 0
 1984 0024 BB89     		ldrh	r3, [r7, #12]	@ movhi
 1985 0026 DB43     		mvns	r3, r3
 1986 0028 9AB2     		uxth	r2, r3
 1987 002a 7B68     		ldr	r3, [r7, #4]
 1988 002c 1A80     		strh	r2, [r3]	@ movhi
1045:/home/virusv/TDSAST_IOT/Libraries/src/stm32f10x_usart.c **** }
 1989              		.loc 1 1045 0
 1990 002e 1437     		adds	r7, r7, #20
 1991              		.cfi_def_cfa_offset 4
 1992 0030 BD46     		mov	sp, r7
 1993              		.cfi_def_cfa_register 13
 1994              		@ sp needed
 1995 0032 5DF8047B 		ldr	r7, [sp], #4
 1996              		.cfi_restore 7
 1997              		.cfi_def_cfa_offset 0
 1998 0036 7047     		bx	lr
 1999              		.cfi_endproc
 2000              	.LFE57:
 2002              		.text
 2003              	.Letext0:
 2004              		.file 2 "/usr/include/newlib/machine/_default_types.h"
 2005              		.file 3 "/usr/include/newlib/sys/_stdint.h"
 2006              		.file 4 "/home/virusv/TDSAST_IOT/CMSIS/CM3/DeviceSupport/ST/STM32F10x/stm32f10x.h"
 2007              		.file 5 "/home/virusv/TDSAST_IOT/Libraries/inc/stm32f10x_rcc.h"
 2008              		.file 6 "/home/virusv/TDSAST_IOT/Libraries/inc/stm32f10x_usart.h"
 2009              		.file 7 "/home/virusv/TDSAST_IOT/CMSIS/CM3/CoreSupport/core_cm3.h"