   1              		.syntax unified
   2              		.cpu cortex-m3
   3              		.fpu softvfp
   4              		.eabi_attribute 20, 1
   5              		.eabi_attribute 21, 1
   6              		.eabi_attribute 23, 3
   7              		.eabi_attribute 24, 1
   8              		.eabi_attribute 25, 1
   9              		.eabi_attribute 26, 1
  10              		.eabi_attribute 30, 6
  11              		.eabi_attribute 34, 1
  12              		.eabi_attribute 18, 4
  13              		.thumb
  14              		.file	"stm32f10x_can.c"
  15              		.text
  16              	.Ltext0:
  17              		.cfi_sections	.debug_frame
  18              		.section	.text.CAN_DeInit,"ax",%progbits
  19              		.align	2
  20              		.global	CAN_DeInit
  21              		.thumb
  22              		.thumb_func
  24              	CAN_DeInit:
  25              	.LFB29:
  26              		.file 1 "/home/virusv/usart/Libraries/src/stm32f10x_can.c"
   1:/home/virusv/usart/Libraries/src/stm32f10x_can.c **** /**
   2:/home/virusv/usart/Libraries/src/stm32f10x_can.c ****   ******************************************************************************
   3:/home/virusv/usart/Libraries/src/stm32f10x_can.c ****   * @file    stm32f10x_can.c
   4:/home/virusv/usart/Libraries/src/stm32f10x_can.c ****   * @author  MCD Application Team
   5:/home/virusv/usart/Libraries/src/stm32f10x_can.c ****   * @version V3.5.0
   6:/home/virusv/usart/Libraries/src/stm32f10x_can.c ****   * @date    11-March-2011
   7:/home/virusv/usart/Libraries/src/stm32f10x_can.c ****   * @brief   This file provides all the CAN firmware functions.
   8:/home/virusv/usart/Libraries/src/stm32f10x_can.c ****   ******************************************************************************
   9:/home/virusv/usart/Libraries/src/stm32f10x_can.c ****   * @attention
  10:/home/virusv/usart/Libraries/src/stm32f10x_can.c ****   *
  11:/home/virusv/usart/Libraries/src/stm32f10x_can.c ****   * THE PRESENT FIRMWARE WHICH IS FOR GUIDANCE ONLY AIMS AT PROVIDING CUSTOMERS
  12:/home/virusv/usart/Libraries/src/stm32f10x_can.c ****   * WITH CODING INFORMATION REGARDING THEIR PRODUCTS IN ORDER FOR THEM TO SAVE
  13:/home/virusv/usart/Libraries/src/stm32f10x_can.c ****   * TIME. AS A RESULT, STMICROELECTRONICS SHALL NOT BE HELD LIABLE FOR ANY
  14:/home/virusv/usart/Libraries/src/stm32f10x_can.c ****   * DIRECT, INDIRECT OR CONSEQUENTIAL DAMAGES WITH RESPECT TO ANY CLAIMS ARISING
  15:/home/virusv/usart/Libraries/src/stm32f10x_can.c ****   * FROM THE CONTENT OF SUCH FIRMWARE AND/OR THE USE MADE BY CUSTOMERS OF THE
  16:/home/virusv/usart/Libraries/src/stm32f10x_can.c ****   * CODING INFORMATION CONTAINED HEREIN IN CONNECTION WITH THEIR PRODUCTS.
  17:/home/virusv/usart/Libraries/src/stm32f10x_can.c ****   *
  18:/home/virusv/usart/Libraries/src/stm32f10x_can.c ****   * <h2><center>&copy; COPYRIGHT 2011 STMicroelectronics</center></h2>
  19:/home/virusv/usart/Libraries/src/stm32f10x_can.c ****   ******************************************************************************
  20:/home/virusv/usart/Libraries/src/stm32f10x_can.c ****   */
  21:/home/virusv/usart/Libraries/src/stm32f10x_can.c **** 
  22:/home/virusv/usart/Libraries/src/stm32f10x_can.c **** /* Includes ------------------------------------------------------------------*/
  23:/home/virusv/usart/Libraries/src/stm32f10x_can.c **** #include "stm32f10x_can.h"
  24:/home/virusv/usart/Libraries/src/stm32f10x_can.c **** #include "stm32f10x_rcc.h"
  25:/home/virusv/usart/Libraries/src/stm32f10x_can.c **** 
  26:/home/virusv/usart/Libraries/src/stm32f10x_can.c **** /** @addtogroup STM32F10x_StdPeriph_Driver
  27:/home/virusv/usart/Libraries/src/stm32f10x_can.c ****   * @{
  28:/home/virusv/usart/Libraries/src/stm32f10x_can.c ****   */
  29:/home/virusv/usart/Libraries/src/stm32f10x_can.c **** 
  30:/home/virusv/usart/Libraries/src/stm32f10x_can.c **** /** @defgroup CAN 
  31:/home/virusv/usart/Libraries/src/stm32f10x_can.c ****   * @brief CAN driver modules
  32:/home/virusv/usart/Libraries/src/stm32f10x_can.c ****   * @{
  33:/home/virusv/usart/Libraries/src/stm32f10x_can.c ****   */ 
  34:/home/virusv/usart/Libraries/src/stm32f10x_can.c **** 
  35:/home/virusv/usart/Libraries/src/stm32f10x_can.c **** /** @defgroup CAN_Private_TypesDefinitions
  36:/home/virusv/usart/Libraries/src/stm32f10x_can.c ****   * @{
  37:/home/virusv/usart/Libraries/src/stm32f10x_can.c ****   */
  38:/home/virusv/usart/Libraries/src/stm32f10x_can.c **** 
  39:/home/virusv/usart/Libraries/src/stm32f10x_can.c **** /**
  40:/home/virusv/usart/Libraries/src/stm32f10x_can.c ****   * @}
  41:/home/virusv/usart/Libraries/src/stm32f10x_can.c ****   */
  42:/home/virusv/usart/Libraries/src/stm32f10x_can.c **** 
  43:/home/virusv/usart/Libraries/src/stm32f10x_can.c **** /** @defgroup CAN_Private_Defines
  44:/home/virusv/usart/Libraries/src/stm32f10x_can.c ****   * @{
  45:/home/virusv/usart/Libraries/src/stm32f10x_can.c ****   */
  46:/home/virusv/usart/Libraries/src/stm32f10x_can.c **** 
  47:/home/virusv/usart/Libraries/src/stm32f10x_can.c **** /* CAN Master Control Register bits */
  48:/home/virusv/usart/Libraries/src/stm32f10x_can.c **** 
  49:/home/virusv/usart/Libraries/src/stm32f10x_can.c **** #define MCR_DBF      ((uint32_t)0x00010000) /* software master reset */
  50:/home/virusv/usart/Libraries/src/stm32f10x_can.c **** 
  51:/home/virusv/usart/Libraries/src/stm32f10x_can.c **** /* CAN Mailbox Transmit Request */
  52:/home/virusv/usart/Libraries/src/stm32f10x_can.c **** #define TMIDxR_TXRQ  ((uint32_t)0x00000001) /* Transmit mailbox request */
  53:/home/virusv/usart/Libraries/src/stm32f10x_can.c **** 
  54:/home/virusv/usart/Libraries/src/stm32f10x_can.c **** /* CAN Filter Master Register bits */
  55:/home/virusv/usart/Libraries/src/stm32f10x_can.c **** #define FMR_FINIT    ((uint32_t)0x00000001) /* Filter init mode */
  56:/home/virusv/usart/Libraries/src/stm32f10x_can.c **** 
  57:/home/virusv/usart/Libraries/src/stm32f10x_can.c **** /* Time out for INAK bit */
  58:/home/virusv/usart/Libraries/src/stm32f10x_can.c **** #define INAK_TIMEOUT        ((uint32_t)0x0000FFFF)
  59:/home/virusv/usart/Libraries/src/stm32f10x_can.c **** /* Time out for SLAK bit */
  60:/home/virusv/usart/Libraries/src/stm32f10x_can.c **** #define SLAK_TIMEOUT        ((uint32_t)0x0000FFFF)
  61:/home/virusv/usart/Libraries/src/stm32f10x_can.c **** 
  62:/home/virusv/usart/Libraries/src/stm32f10x_can.c **** 
  63:/home/virusv/usart/Libraries/src/stm32f10x_can.c **** 
  64:/home/virusv/usart/Libraries/src/stm32f10x_can.c **** /* Flags in TSR register */
  65:/home/virusv/usart/Libraries/src/stm32f10x_can.c **** #define CAN_FLAGS_TSR              ((uint32_t)0x08000000) 
  66:/home/virusv/usart/Libraries/src/stm32f10x_can.c **** /* Flags in RF1R register */
  67:/home/virusv/usart/Libraries/src/stm32f10x_can.c **** #define CAN_FLAGS_RF1R             ((uint32_t)0x04000000) 
  68:/home/virusv/usart/Libraries/src/stm32f10x_can.c **** /* Flags in RF0R register */
  69:/home/virusv/usart/Libraries/src/stm32f10x_can.c **** #define CAN_FLAGS_RF0R             ((uint32_t)0x02000000) 
  70:/home/virusv/usart/Libraries/src/stm32f10x_can.c **** /* Flags in MSR register */
  71:/home/virusv/usart/Libraries/src/stm32f10x_can.c **** #define CAN_FLAGS_MSR              ((uint32_t)0x01000000) 
  72:/home/virusv/usart/Libraries/src/stm32f10x_can.c **** /* Flags in ESR register */
  73:/home/virusv/usart/Libraries/src/stm32f10x_can.c **** #define CAN_FLAGS_ESR              ((uint32_t)0x00F00000) 
  74:/home/virusv/usart/Libraries/src/stm32f10x_can.c **** 
  75:/home/virusv/usart/Libraries/src/stm32f10x_can.c **** /* Mailboxes definition */
  76:/home/virusv/usart/Libraries/src/stm32f10x_can.c **** #define CAN_TXMAILBOX_0                   ((uint8_t)0x00)
  77:/home/virusv/usart/Libraries/src/stm32f10x_can.c **** #define CAN_TXMAILBOX_1                   ((uint8_t)0x01)
  78:/home/virusv/usart/Libraries/src/stm32f10x_can.c **** #define CAN_TXMAILBOX_2                   ((uint8_t)0x02) 
  79:/home/virusv/usart/Libraries/src/stm32f10x_can.c **** 
  80:/home/virusv/usart/Libraries/src/stm32f10x_can.c **** 
  81:/home/virusv/usart/Libraries/src/stm32f10x_can.c **** 
  82:/home/virusv/usart/Libraries/src/stm32f10x_can.c **** #define CAN_MODE_MASK              ((uint32_t) 0x00000003)
  83:/home/virusv/usart/Libraries/src/stm32f10x_can.c **** /**
  84:/home/virusv/usart/Libraries/src/stm32f10x_can.c ****   * @}
  85:/home/virusv/usart/Libraries/src/stm32f10x_can.c ****   */
  86:/home/virusv/usart/Libraries/src/stm32f10x_can.c **** 
  87:/home/virusv/usart/Libraries/src/stm32f10x_can.c **** /** @defgroup CAN_Private_Macros
  88:/home/virusv/usart/Libraries/src/stm32f10x_can.c ****   * @{
  89:/home/virusv/usart/Libraries/src/stm32f10x_can.c ****   */
  90:/home/virusv/usart/Libraries/src/stm32f10x_can.c **** 
  91:/home/virusv/usart/Libraries/src/stm32f10x_can.c **** /**
  92:/home/virusv/usart/Libraries/src/stm32f10x_can.c ****   * @}
  93:/home/virusv/usart/Libraries/src/stm32f10x_can.c ****   */
  94:/home/virusv/usart/Libraries/src/stm32f10x_can.c **** 
  95:/home/virusv/usart/Libraries/src/stm32f10x_can.c **** /** @defgroup CAN_Private_Variables
  96:/home/virusv/usart/Libraries/src/stm32f10x_can.c ****   * @{
  97:/home/virusv/usart/Libraries/src/stm32f10x_can.c ****   */
  98:/home/virusv/usart/Libraries/src/stm32f10x_can.c **** 
  99:/home/virusv/usart/Libraries/src/stm32f10x_can.c **** /**
 100:/home/virusv/usart/Libraries/src/stm32f10x_can.c ****   * @}
 101:/home/virusv/usart/Libraries/src/stm32f10x_can.c ****   */
 102:/home/virusv/usart/Libraries/src/stm32f10x_can.c **** 
 103:/home/virusv/usart/Libraries/src/stm32f10x_can.c **** /** @defgroup CAN_Private_FunctionPrototypes
 104:/home/virusv/usart/Libraries/src/stm32f10x_can.c ****   * @{
 105:/home/virusv/usart/Libraries/src/stm32f10x_can.c ****   */
 106:/home/virusv/usart/Libraries/src/stm32f10x_can.c **** 
 107:/home/virusv/usart/Libraries/src/stm32f10x_can.c **** static ITStatus CheckITStatus(uint32_t CAN_Reg, uint32_t It_Bit);
 108:/home/virusv/usart/Libraries/src/stm32f10x_can.c **** 
 109:/home/virusv/usart/Libraries/src/stm32f10x_can.c **** /**
 110:/home/virusv/usart/Libraries/src/stm32f10x_can.c ****   * @}
 111:/home/virusv/usart/Libraries/src/stm32f10x_can.c ****   */
 112:/home/virusv/usart/Libraries/src/stm32f10x_can.c **** 
 113:/home/virusv/usart/Libraries/src/stm32f10x_can.c **** /** @defgroup CAN_Private_Functions
 114:/home/virusv/usart/Libraries/src/stm32f10x_can.c ****   * @{
 115:/home/virusv/usart/Libraries/src/stm32f10x_can.c ****   */
 116:/home/virusv/usart/Libraries/src/stm32f10x_can.c **** 
 117:/home/virusv/usart/Libraries/src/stm32f10x_can.c **** /**
 118:/home/virusv/usart/Libraries/src/stm32f10x_can.c ****   * @brief  Deinitializes the CAN peripheral registers to their default reset values.
 119:/home/virusv/usart/Libraries/src/stm32f10x_can.c ****   * @param  CANx: where x can be 1 or 2 to select the CAN peripheral.
 120:/home/virusv/usart/Libraries/src/stm32f10x_can.c ****   * @retval None.
 121:/home/virusv/usart/Libraries/src/stm32f10x_can.c ****   */
 122:/home/virusv/usart/Libraries/src/stm32f10x_can.c **** void CAN_DeInit(CAN_TypeDef* CANx)
 123:/home/virusv/usart/Libraries/src/stm32f10x_can.c **** {
  27              		.loc 1 123 0
  28              		.cfi_startproc
  29              		@ args = 0, pretend = 0, frame = 8
  30              		@ frame_needed = 1, uses_anonymous_args = 0
  31 0000 80B5     		push	{r7, lr}
  32              		.cfi_def_cfa_offset 8
  33              		.cfi_offset 7, -8
  34              		.cfi_offset 14, -4
  35 0002 82B0     		sub	sp, sp, #8
  36              		.cfi_def_cfa_offset 16
  37 0004 00AF     		add	r7, sp, #0
  38              		.cfi_def_cfa_register 7
  39 0006 7860     		str	r0, [r7, #4]
 124:/home/virusv/usart/Libraries/src/stm32f10x_can.c ****   /* Check the parameters */
 125:/home/virusv/usart/Libraries/src/stm32f10x_can.c ****   assert_param(IS_CAN_ALL_PERIPH(CANx));
 126:/home/virusv/usart/Libraries/src/stm32f10x_can.c ****  
 127:/home/virusv/usart/Libraries/src/stm32f10x_can.c ****   if (CANx == CAN1)
  40              		.loc 1 127 0
  41 0008 7B68     		ldr	r3, [r7, #4]
  42 000a 0D4A     		ldr	r2, .L4
  43 000c 9342     		cmp	r3, r2
  44 000e 0AD1     		bne	.L2
 128:/home/virusv/usart/Libraries/src/stm32f10x_can.c ****   {
 129:/home/virusv/usart/Libraries/src/stm32f10x_can.c ****     /* Enable CAN1 reset state */
 130:/home/virusv/usart/Libraries/src/stm32f10x_can.c ****     RCC_APB1PeriphResetCmd(RCC_APB1Periph_CAN1, ENABLE);
  45              		.loc 1 130 0
  46 0010 4FF00070 		mov	r0, #33554432
  47 0014 0121     		movs	r1, #1
  48 0016 FFF7FEFF 		bl	RCC_APB1PeriphResetCmd
 131:/home/virusv/usart/Libraries/src/stm32f10x_can.c ****     /* Release CAN1 from reset state */
 132:/home/virusv/usart/Libraries/src/stm32f10x_can.c ****     RCC_APB1PeriphResetCmd(RCC_APB1Periph_CAN1, DISABLE);
  49              		.loc 1 132 0
  50 001a 4FF00070 		mov	r0, #33554432
  51 001e 0021     		movs	r1, #0
  52 0020 FFF7FEFF 		bl	RCC_APB1PeriphResetCmd
  53 0024 09E0     		b	.L1
  54              	.L2:
 133:/home/virusv/usart/Libraries/src/stm32f10x_can.c ****   }
 134:/home/virusv/usart/Libraries/src/stm32f10x_can.c ****   else
 135:/home/virusv/usart/Libraries/src/stm32f10x_can.c ****   {  
 136:/home/virusv/usart/Libraries/src/stm32f10x_can.c ****     /* Enable CAN2 reset state */
 137:/home/virusv/usart/Libraries/src/stm32f10x_can.c ****     RCC_APB1PeriphResetCmd(RCC_APB1Periph_CAN2, ENABLE);
  55              		.loc 1 137 0
  56 0026 4FF08060 		mov	r0, #67108864
  57 002a 0121     		movs	r1, #1
  58 002c FFF7FEFF 		bl	RCC_APB1PeriphResetCmd
 138:/home/virusv/usart/Libraries/src/stm32f10x_can.c ****     /* Release CAN2 from reset state */
 139:/home/virusv/usart/Libraries/src/stm32f10x_can.c ****     RCC_APB1PeriphResetCmd(RCC_APB1Periph_CAN2, DISABLE);
  59              		.loc 1 139 0
  60 0030 4FF08060 		mov	r0, #67108864
  61 0034 0021     		movs	r1, #0
  62 0036 FFF7FEFF 		bl	RCC_APB1PeriphResetCmd
  63              	.L1:
 140:/home/virusv/usart/Libraries/src/stm32f10x_can.c ****   }
 141:/home/virusv/usart/Libraries/src/stm32f10x_can.c **** }
  64              		.loc 1 141 0
  65 003a 0837     		adds	r7, r7, #8
  66              		.cfi_def_cfa_offset 8
  67 003c BD46     		mov	sp, r7
  68              		.cfi_def_cfa_register 13
  69              		@ sp needed
  70 003e 80BD     		pop	{r7, pc}
  71              	.L5:
  72              		.align	2
  73              	.L4:
  74 0040 00640040 		.word	1073767424
  75              		.cfi_endproc
  76              	.LFE29:
  78              		.section	.text.CAN_Init,"ax",%progbits
  79              		.align	2
  80              		.global	CAN_Init
  81              		.thumb
  82              		.thumb_func
  84              	CAN_Init:
  85              	.LFB30:
 142:/home/virusv/usart/Libraries/src/stm32f10x_can.c **** 
 143:/home/virusv/usart/Libraries/src/stm32f10x_can.c **** /**
 144:/home/virusv/usart/Libraries/src/stm32f10x_can.c ****   * @brief  Initializes the CAN peripheral according to the specified
 145:/home/virusv/usart/Libraries/src/stm32f10x_can.c ****   *         parameters in the CAN_InitStruct.
 146:/home/virusv/usart/Libraries/src/stm32f10x_can.c ****   * @param  CANx:           where x can be 1 or 2 to to select the CAN 
 147:/home/virusv/usart/Libraries/src/stm32f10x_can.c ****   *                         peripheral.
 148:/home/virusv/usart/Libraries/src/stm32f10x_can.c ****   * @param  CAN_InitStruct: pointer to a CAN_InitTypeDef structure that
 149:/home/virusv/usart/Libraries/src/stm32f10x_can.c ****   *                         contains the configuration information for the 
 150:/home/virusv/usart/Libraries/src/stm32f10x_can.c ****   *                         CAN peripheral.
 151:/home/virusv/usart/Libraries/src/stm32f10x_can.c ****   * @retval Constant indicates initialization succeed which will be 
 152:/home/virusv/usart/Libraries/src/stm32f10x_can.c ****   *         CAN_InitStatus_Failed or CAN_InitStatus_Success.
 153:/home/virusv/usart/Libraries/src/stm32f10x_can.c ****   */
 154:/home/virusv/usart/Libraries/src/stm32f10x_can.c **** uint8_t CAN_Init(CAN_TypeDef* CANx, CAN_InitTypeDef* CAN_InitStruct)
 155:/home/virusv/usart/Libraries/src/stm32f10x_can.c **** {
  86              		.loc 1 155 0
  87              		.cfi_startproc
  88              		@ args = 0, pretend = 0, frame = 16
  89              		@ frame_needed = 1, uses_anonymous_args = 0
  90              		@ link register save eliminated.
  91 0000 80B4     		push	{r7}
  92              		.cfi_def_cfa_offset 4
  93              		.cfi_offset 7, -4
  94 0002 85B0     		sub	sp, sp, #20
  95              		.cfi_def_cfa_offset 24
  96 0004 00AF     		add	r7, sp, #0
  97              		.cfi_def_cfa_register 7
  98 0006 7860     		str	r0, [r7, #4]
  99 0008 3960     		str	r1, [r7]
 156:/home/virusv/usart/Libraries/src/stm32f10x_can.c ****   uint8_t InitStatus = CAN_InitStatus_Failed;
 100              		.loc 1 156 0
 101 000a 0023     		movs	r3, #0
 102 000c FB73     		strb	r3, [r7, #15]
 157:/home/virusv/usart/Libraries/src/stm32f10x_can.c ****   uint32_t wait_ack = 0x00000000;
 103              		.loc 1 157 0
 104 000e 0023     		movs	r3, #0
 105 0010 BB60     		str	r3, [r7, #8]
 158:/home/virusv/usart/Libraries/src/stm32f10x_can.c ****   /* Check the parameters */
 159:/home/virusv/usart/Libraries/src/stm32f10x_can.c ****   assert_param(IS_CAN_ALL_PERIPH(CANx));
 160:/home/virusv/usart/Libraries/src/stm32f10x_can.c ****   assert_param(IS_FUNCTIONAL_STATE(CAN_InitStruct->CAN_TTCM));
 161:/home/virusv/usart/Libraries/src/stm32f10x_can.c ****   assert_param(IS_FUNCTIONAL_STATE(CAN_InitStruct->CAN_ABOM));
 162:/home/virusv/usart/Libraries/src/stm32f10x_can.c ****   assert_param(IS_FUNCTIONAL_STATE(CAN_InitStruct->CAN_AWUM));
 163:/home/virusv/usart/Libraries/src/stm32f10x_can.c ****   assert_param(IS_FUNCTIONAL_STATE(CAN_InitStruct->CAN_NART));
 164:/home/virusv/usart/Libraries/src/stm32f10x_can.c ****   assert_param(IS_FUNCTIONAL_STATE(CAN_InitStruct->CAN_RFLM));
 165:/home/virusv/usart/Libraries/src/stm32f10x_can.c ****   assert_param(IS_FUNCTIONAL_STATE(CAN_InitStruct->CAN_TXFP));
 166:/home/virusv/usart/Libraries/src/stm32f10x_can.c ****   assert_param(IS_CAN_MODE(CAN_InitStruct->CAN_Mode));
 167:/home/virusv/usart/Libraries/src/stm32f10x_can.c ****   assert_param(IS_CAN_SJW(CAN_InitStruct->CAN_SJW));
 168:/home/virusv/usart/Libraries/src/stm32f10x_can.c ****   assert_param(IS_CAN_BS1(CAN_InitStruct->CAN_BS1));
 169:/home/virusv/usart/Libraries/src/stm32f10x_can.c ****   assert_param(IS_CAN_BS2(CAN_InitStruct->CAN_BS2));
 170:/home/virusv/usart/Libraries/src/stm32f10x_can.c ****   assert_param(IS_CAN_PRESCALER(CAN_InitStruct->CAN_Prescaler));
 171:/home/virusv/usart/Libraries/src/stm32f10x_can.c **** 
 172:/home/virusv/usart/Libraries/src/stm32f10x_can.c ****   /* Exit from sleep mode */
 173:/home/virusv/usart/Libraries/src/stm32f10x_can.c ****   CANx->MCR &= (~(uint32_t)CAN_MCR_SLEEP);
 106              		.loc 1 173 0
 107 0012 7B68     		ldr	r3, [r7, #4]
 108 0014 1B68     		ldr	r3, [r3]
 109 0016 23F00202 		bic	r2, r3, #2
 110 001a 7B68     		ldr	r3, [r7, #4]
 111 001c 1A60     		str	r2, [r3]
 174:/home/virusv/usart/Libraries/src/stm32f10x_can.c **** 
 175:/home/virusv/usart/Libraries/src/stm32f10x_can.c ****   /* Request initialisation */
 176:/home/virusv/usart/Libraries/src/stm32f10x_can.c ****   CANx->MCR |= CAN_MCR_INRQ ;
 112              		.loc 1 176 0
 113 001e 7B68     		ldr	r3, [r7, #4]
 114 0020 1B68     		ldr	r3, [r3]
 115 0022 43F00102 		orr	r2, r3, #1
 116 0026 7B68     		ldr	r3, [r7, #4]
 117 0028 1A60     		str	r2, [r3]
 177:/home/virusv/usart/Libraries/src/stm32f10x_can.c **** 
 178:/home/virusv/usart/Libraries/src/stm32f10x_can.c ****   /* Wait the acknowledge */
 179:/home/virusv/usart/Libraries/src/stm32f10x_can.c ****   while (((CANx->MSR & CAN_MSR_INAK) != CAN_MSR_INAK) && (wait_ack != INAK_TIMEOUT))
 118              		.loc 1 179 0
 119 002a 02E0     		b	.L7
 120              	.L9:
 180:/home/virusv/usart/Libraries/src/stm32f10x_can.c ****   {
 181:/home/virusv/usart/Libraries/src/stm32f10x_can.c ****     wait_ack++;
 121              		.loc 1 181 0
 122 002c BB68     		ldr	r3, [r7, #8]
 123 002e 0133     		adds	r3, r3, #1
 124 0030 BB60     		str	r3, [r7, #8]
 125              	.L7:
 179:/home/virusv/usart/Libraries/src/stm32f10x_can.c ****   {
 126              		.loc 1 179 0
 127 0032 7B68     		ldr	r3, [r7, #4]
 128 0034 5B68     		ldr	r3, [r3, #4]
 129 0036 03F00103 		and	r3, r3, #1
 130 003a 002B     		cmp	r3, #0
 131 003c 04D1     		bne	.L8
 179:/home/virusv/usart/Libraries/src/stm32f10x_can.c ****   {
 132              		.loc 1 179 0 is_stmt 0 discriminator 1
 133 003e BB68     		ldr	r3, [r7, #8]
 134 0040 4FF6FF72 		movw	r2, #65535
 135 0044 9342     		cmp	r3, r2
 136 0046 F1D1     		bne	.L9
 137              	.L8:
 182:/home/virusv/usart/Libraries/src/stm32f10x_can.c ****   }
 183:/home/virusv/usart/Libraries/src/stm32f10x_can.c **** 
 184:/home/virusv/usart/Libraries/src/stm32f10x_can.c ****   /* Check acknowledge */
 185:/home/virusv/usart/Libraries/src/stm32f10x_can.c ****   if ((CANx->MSR & CAN_MSR_INAK) != CAN_MSR_INAK)
 138              		.loc 1 185 0 is_stmt 1
 139 0048 7B68     		ldr	r3, [r7, #4]
 140 004a 5B68     		ldr	r3, [r3, #4]
 141 004c 03F00103 		and	r3, r3, #1
 142 0050 002B     		cmp	r3, #0
 143 0052 02D1     		bne	.L10
 186:/home/virusv/usart/Libraries/src/stm32f10x_can.c ****   {
 187:/home/virusv/usart/Libraries/src/stm32f10x_can.c ****     InitStatus = CAN_InitStatus_Failed;
 144              		.loc 1 187 0
 145 0054 0023     		movs	r3, #0
 146 0056 FB73     		strb	r3, [r7, #15]
 147 0058 9CE0     		b	.L11
 148              	.L10:
 188:/home/virusv/usart/Libraries/src/stm32f10x_can.c ****   }
 189:/home/virusv/usart/Libraries/src/stm32f10x_can.c ****   else 
 190:/home/virusv/usart/Libraries/src/stm32f10x_can.c ****   {
 191:/home/virusv/usart/Libraries/src/stm32f10x_can.c ****     /* Set the time triggered communication mode */
 192:/home/virusv/usart/Libraries/src/stm32f10x_can.c ****     if (CAN_InitStruct->CAN_TTCM == ENABLE)
 149              		.loc 1 192 0
 150 005a 3B68     		ldr	r3, [r7]
 151 005c 9B79     		ldrb	r3, [r3, #6]	@ zero_extendqisi2
 152 005e 012B     		cmp	r3, #1
 153 0060 06D1     		bne	.L12
 193:/home/virusv/usart/Libraries/src/stm32f10x_can.c ****     {
 194:/home/virusv/usart/Libraries/src/stm32f10x_can.c ****       CANx->MCR |= CAN_MCR_TTCM;
 154              		.loc 1 194 0
 155 0062 7B68     		ldr	r3, [r7, #4]
 156 0064 1B68     		ldr	r3, [r3]
 157 0066 43F08002 		orr	r2, r3, #128
 158 006a 7B68     		ldr	r3, [r7, #4]
 159 006c 1A60     		str	r2, [r3]
 160 006e 05E0     		b	.L13
 161              	.L12:
 195:/home/virusv/usart/Libraries/src/stm32f10x_can.c ****     }
 196:/home/virusv/usart/Libraries/src/stm32f10x_can.c ****     else
 197:/home/virusv/usart/Libraries/src/stm32f10x_can.c ****     {
 198:/home/virusv/usart/Libraries/src/stm32f10x_can.c ****       CANx->MCR &= ~(uint32_t)CAN_MCR_TTCM;
 162              		.loc 1 198 0
 163 0070 7B68     		ldr	r3, [r7, #4]
 164 0072 1B68     		ldr	r3, [r3]
 165 0074 23F08002 		bic	r2, r3, #128
 166 0078 7B68     		ldr	r3, [r7, #4]
 167 007a 1A60     		str	r2, [r3]
 168              	.L13:
 199:/home/virusv/usart/Libraries/src/stm32f10x_can.c ****     }
 200:/home/virusv/usart/Libraries/src/stm32f10x_can.c **** 
 201:/home/virusv/usart/Libraries/src/stm32f10x_can.c ****     /* Set the automatic bus-off management */
 202:/home/virusv/usart/Libraries/src/stm32f10x_can.c ****     if (CAN_InitStruct->CAN_ABOM == ENABLE)
 169              		.loc 1 202 0
 170 007c 3B68     		ldr	r3, [r7]
 171 007e DB79     		ldrb	r3, [r3, #7]	@ zero_extendqisi2
 172 0080 012B     		cmp	r3, #1
 173 0082 06D1     		bne	.L14
 203:/home/virusv/usart/Libraries/src/stm32f10x_can.c ****     {
 204:/home/virusv/usart/Libraries/src/stm32f10x_can.c ****       CANx->MCR |= CAN_MCR_ABOM;
 174              		.loc 1 204 0
 175 0084 7B68     		ldr	r3, [r7, #4]
 176 0086 1B68     		ldr	r3, [r3]
 177 0088 43F04002 		orr	r2, r3, #64
 178 008c 7B68     		ldr	r3, [r7, #4]
 179 008e 1A60     		str	r2, [r3]
 180 0090 05E0     		b	.L15
 181              	.L14:
 205:/home/virusv/usart/Libraries/src/stm32f10x_can.c ****     }
 206:/home/virusv/usart/Libraries/src/stm32f10x_can.c ****     else
 207:/home/virusv/usart/Libraries/src/stm32f10x_can.c ****     {
 208:/home/virusv/usart/Libraries/src/stm32f10x_can.c ****       CANx->MCR &= ~(uint32_t)CAN_MCR_ABOM;
 182              		.loc 1 208 0
 183 0092 7B68     		ldr	r3, [r7, #4]
 184 0094 1B68     		ldr	r3, [r3]
 185 0096 23F04002 		bic	r2, r3, #64
 186 009a 7B68     		ldr	r3, [r7, #4]
 187 009c 1A60     		str	r2, [r3]
 188              	.L15:
 209:/home/virusv/usart/Libraries/src/stm32f10x_can.c ****     }
 210:/home/virusv/usart/Libraries/src/stm32f10x_can.c **** 
 211:/home/virusv/usart/Libraries/src/stm32f10x_can.c ****     /* Set the automatic wake-up mode */
 212:/home/virusv/usart/Libraries/src/stm32f10x_can.c ****     if (CAN_InitStruct->CAN_AWUM == ENABLE)
 189              		.loc 1 212 0
 190 009e 3B68     		ldr	r3, [r7]
 191 00a0 1B7A     		ldrb	r3, [r3, #8]	@ zero_extendqisi2
 192 00a2 012B     		cmp	r3, #1
 193 00a4 06D1     		bne	.L16
 213:/home/virusv/usart/Libraries/src/stm32f10x_can.c ****     {
 214:/home/virusv/usart/Libraries/src/stm32f10x_can.c ****       CANx->MCR |= CAN_MCR_AWUM;
 194              		.loc 1 214 0
 195 00a6 7B68     		ldr	r3, [r7, #4]
 196 00a8 1B68     		ldr	r3, [r3]
 197 00aa 43F02002 		orr	r2, r3, #32
 198 00ae 7B68     		ldr	r3, [r7, #4]
 199 00b0 1A60     		str	r2, [r3]
 200 00b2 05E0     		b	.L17
 201              	.L16:
 215:/home/virusv/usart/Libraries/src/stm32f10x_can.c ****     }
 216:/home/virusv/usart/Libraries/src/stm32f10x_can.c ****     else
 217:/home/virusv/usart/Libraries/src/stm32f10x_can.c ****     {
 218:/home/virusv/usart/Libraries/src/stm32f10x_can.c ****       CANx->MCR &= ~(uint32_t)CAN_MCR_AWUM;
 202              		.loc 1 218 0
 203 00b4 7B68     		ldr	r3, [r7, #4]
 204 00b6 1B68     		ldr	r3, [r3]
 205 00b8 23F02002 		bic	r2, r3, #32
 206 00bc 7B68     		ldr	r3, [r7, #4]
 207 00be 1A60     		str	r2, [r3]
 208              	.L17:
 219:/home/virusv/usart/Libraries/src/stm32f10x_can.c ****     }
 220:/home/virusv/usart/Libraries/src/stm32f10x_can.c **** 
 221:/home/virusv/usart/Libraries/src/stm32f10x_can.c ****     /* Set the no automatic retransmission */
 222:/home/virusv/usart/Libraries/src/stm32f10x_can.c ****     if (CAN_InitStruct->CAN_NART == ENABLE)
 209              		.loc 1 222 0
 210 00c0 3B68     		ldr	r3, [r7]
 211 00c2 5B7A     		ldrb	r3, [r3, #9]	@ zero_extendqisi2
 212 00c4 012B     		cmp	r3, #1
 213 00c6 06D1     		bne	.L18
 223:/home/virusv/usart/Libraries/src/stm32f10x_can.c ****     {
 224:/home/virusv/usart/Libraries/src/stm32f10x_can.c ****       CANx->MCR |= CAN_MCR_NART;
 214              		.loc 1 224 0
 215 00c8 7B68     		ldr	r3, [r7, #4]
 216 00ca 1B68     		ldr	r3, [r3]
 217 00cc 43F01002 		orr	r2, r3, #16
 218 00d0 7B68     		ldr	r3, [r7, #4]
 219 00d2 1A60     		str	r2, [r3]
 220 00d4 05E0     		b	.L19
 221              	.L18:
 225:/home/virusv/usart/Libraries/src/stm32f10x_can.c ****     }
 226:/home/virusv/usart/Libraries/src/stm32f10x_can.c ****     else
 227:/home/virusv/usart/Libraries/src/stm32f10x_can.c ****     {
 228:/home/virusv/usart/Libraries/src/stm32f10x_can.c ****       CANx->MCR &= ~(uint32_t)CAN_MCR_NART;
 222              		.loc 1 228 0
 223 00d6 7B68     		ldr	r3, [r7, #4]
 224 00d8 1B68     		ldr	r3, [r3]
 225 00da 23F01002 		bic	r2, r3, #16
 226 00de 7B68     		ldr	r3, [r7, #4]
 227 00e0 1A60     		str	r2, [r3]
 228              	.L19:
 229:/home/virusv/usart/Libraries/src/stm32f10x_can.c ****     }
 230:/home/virusv/usart/Libraries/src/stm32f10x_can.c **** 
 231:/home/virusv/usart/Libraries/src/stm32f10x_can.c ****     /* Set the receive FIFO locked mode */
 232:/home/virusv/usart/Libraries/src/stm32f10x_can.c ****     if (CAN_InitStruct->CAN_RFLM == ENABLE)
 229              		.loc 1 232 0
 230 00e2 3B68     		ldr	r3, [r7]
 231 00e4 9B7A     		ldrb	r3, [r3, #10]	@ zero_extendqisi2
 232 00e6 012B     		cmp	r3, #1
 233 00e8 06D1     		bne	.L20
 233:/home/virusv/usart/Libraries/src/stm32f10x_can.c ****     {
 234:/home/virusv/usart/Libraries/src/stm32f10x_can.c ****       CANx->MCR |= CAN_MCR_RFLM;
 234              		.loc 1 234 0
 235 00ea 7B68     		ldr	r3, [r7, #4]
 236 00ec 1B68     		ldr	r3, [r3]
 237 00ee 43F00802 		orr	r2, r3, #8
 238 00f2 7B68     		ldr	r3, [r7, #4]
 239 00f4 1A60     		str	r2, [r3]
 240 00f6 05E0     		b	.L21
 241              	.L20:
 235:/home/virusv/usart/Libraries/src/stm32f10x_can.c ****     }
 236:/home/virusv/usart/Libraries/src/stm32f10x_can.c ****     else
 237:/home/virusv/usart/Libraries/src/stm32f10x_can.c ****     {
 238:/home/virusv/usart/Libraries/src/stm32f10x_can.c ****       CANx->MCR &= ~(uint32_t)CAN_MCR_RFLM;
 242              		.loc 1 238 0
 243 00f8 7B68     		ldr	r3, [r7, #4]
 244 00fa 1B68     		ldr	r3, [r3]
 245 00fc 23F00802 		bic	r2, r3, #8
 246 0100 7B68     		ldr	r3, [r7, #4]
 247 0102 1A60     		str	r2, [r3]
 248              	.L21:
 239:/home/virusv/usart/Libraries/src/stm32f10x_can.c ****     }
 240:/home/virusv/usart/Libraries/src/stm32f10x_can.c **** 
 241:/home/virusv/usart/Libraries/src/stm32f10x_can.c ****     /* Set the transmit FIFO priority */
 242:/home/virusv/usart/Libraries/src/stm32f10x_can.c ****     if (CAN_InitStruct->CAN_TXFP == ENABLE)
 249              		.loc 1 242 0
 250 0104 3B68     		ldr	r3, [r7]
 251 0106 DB7A     		ldrb	r3, [r3, #11]	@ zero_extendqisi2
 252 0108 012B     		cmp	r3, #1
 253 010a 06D1     		bne	.L22
 243:/home/virusv/usart/Libraries/src/stm32f10x_can.c ****     {
 244:/home/virusv/usart/Libraries/src/stm32f10x_can.c ****       CANx->MCR |= CAN_MCR_TXFP;
 254              		.loc 1 244 0
 255 010c 7B68     		ldr	r3, [r7, #4]
 256 010e 1B68     		ldr	r3, [r3]
 257 0110 43F00402 		orr	r2, r3, #4
 258 0114 7B68     		ldr	r3, [r7, #4]
 259 0116 1A60     		str	r2, [r3]
 260 0118 05E0     		b	.L23
 261              	.L22:
 245:/home/virusv/usart/Libraries/src/stm32f10x_can.c ****     }
 246:/home/virusv/usart/Libraries/src/stm32f10x_can.c ****     else
 247:/home/virusv/usart/Libraries/src/stm32f10x_can.c ****     {
 248:/home/virusv/usart/Libraries/src/stm32f10x_can.c ****       CANx->MCR &= ~(uint32_t)CAN_MCR_TXFP;
 262              		.loc 1 248 0
 263 011a 7B68     		ldr	r3, [r7, #4]
 264 011c 1B68     		ldr	r3, [r3]
 265 011e 23F00402 		bic	r2, r3, #4
 266 0122 7B68     		ldr	r3, [r7, #4]
 267 0124 1A60     		str	r2, [r3]
 268              	.L23:
 249:/home/virusv/usart/Libraries/src/stm32f10x_can.c ****     }
 250:/home/virusv/usart/Libraries/src/stm32f10x_can.c **** 
 251:/home/virusv/usart/Libraries/src/stm32f10x_can.c ****     /* Set the bit timing register */
 252:/home/virusv/usart/Libraries/src/stm32f10x_can.c ****     CANx->BTR = (uint32_t)((uint32_t)CAN_InitStruct->CAN_Mode << 30) | \
 269              		.loc 1 252 0
 270 0126 3B68     		ldr	r3, [r7]
 271 0128 9B78     		ldrb	r3, [r3, #2]	@ zero_extendqisi2
 272 012a 9A07     		lsls	r2, r3, #30
 253:/home/virusv/usart/Libraries/src/stm32f10x_can.c ****                 ((uint32_t)CAN_InitStruct->CAN_SJW << 24) | \
 273              		.loc 1 253 0
 274 012c 3B68     		ldr	r3, [r7]
 275 012e DB78     		ldrb	r3, [r3, #3]	@ zero_extendqisi2
 276 0130 1B06     		lsls	r3, r3, #24
 252:/home/virusv/usart/Libraries/src/stm32f10x_can.c ****                 ((uint32_t)CAN_InitStruct->CAN_SJW << 24) | \
 277              		.loc 1 252 0
 278 0132 1A43     		orrs	r2, r2, r3
 254:/home/virusv/usart/Libraries/src/stm32f10x_can.c ****                 ((uint32_t)CAN_InitStruct->CAN_BS1 << 16) | \
 279              		.loc 1 254 0
 280 0134 3B68     		ldr	r3, [r7]
 281 0136 1B79     		ldrb	r3, [r3, #4]	@ zero_extendqisi2
 282 0138 1B04     		lsls	r3, r3, #16
 253:/home/virusv/usart/Libraries/src/stm32f10x_can.c ****                 ((uint32_t)CAN_InitStruct->CAN_SJW << 24) | \
 283              		.loc 1 253 0
 284 013a 1A43     		orrs	r2, r2, r3
 255:/home/virusv/usart/Libraries/src/stm32f10x_can.c ****                 ((uint32_t)CAN_InitStruct->CAN_BS2 << 20) | \
 285              		.loc 1 255 0
 286 013c 3B68     		ldr	r3, [r7]
 287 013e 5B79     		ldrb	r3, [r3, #5]	@ zero_extendqisi2
 288 0140 1B05     		lsls	r3, r3, #20
 254:/home/virusv/usart/Libraries/src/stm32f10x_can.c ****                 ((uint32_t)CAN_InitStruct->CAN_BS1 << 16) | \
 289              		.loc 1 254 0
 290 0142 1A43     		orrs	r2, r2, r3
 256:/home/virusv/usart/Libraries/src/stm32f10x_can.c ****                ((uint32_t)CAN_InitStruct->CAN_Prescaler - 1);
 291              		.loc 1 256 0
 292 0144 3B68     		ldr	r3, [r7]
 293 0146 1B88     		ldrh	r3, [r3]
 294 0148 013B     		subs	r3, r3, #1
 255:/home/virusv/usart/Libraries/src/stm32f10x_can.c ****                 ((uint32_t)CAN_InitStruct->CAN_BS2 << 20) | \
 295              		.loc 1 255 0
 296 014a 1A43     		orrs	r2, r2, r3
 252:/home/virusv/usart/Libraries/src/stm32f10x_can.c ****                 ((uint32_t)CAN_InitStruct->CAN_SJW << 24) | \
 297              		.loc 1 252 0
 298 014c 7B68     		ldr	r3, [r7, #4]
 299 014e DA61     		str	r2, [r3, #28]
 257:/home/virusv/usart/Libraries/src/stm32f10x_can.c **** 
 258:/home/virusv/usart/Libraries/src/stm32f10x_can.c ****     /* Request leave initialisation */
 259:/home/virusv/usart/Libraries/src/stm32f10x_can.c ****     CANx->MCR &= ~(uint32_t)CAN_MCR_INRQ;
 300              		.loc 1 259 0
 301 0150 7B68     		ldr	r3, [r7, #4]
 302 0152 1B68     		ldr	r3, [r3]
 303 0154 23F00102 		bic	r2, r3, #1
 304 0158 7B68     		ldr	r3, [r7, #4]
 305 015a 1A60     		str	r2, [r3]
 260:/home/virusv/usart/Libraries/src/stm32f10x_can.c **** 
 261:/home/virusv/usart/Libraries/src/stm32f10x_can.c ****    /* Wait the acknowledge */
 262:/home/virusv/usart/Libraries/src/stm32f10x_can.c ****    wait_ack = 0;
 306              		.loc 1 262 0
 307 015c 0023     		movs	r3, #0
 308 015e BB60     		str	r3, [r7, #8]
 263:/home/virusv/usart/Libraries/src/stm32f10x_can.c **** 
 264:/home/virusv/usart/Libraries/src/stm32f10x_can.c ****    while (((CANx->MSR & CAN_MSR_INAK) == CAN_MSR_INAK) && (wait_ack != INAK_TIMEOUT))
 309              		.loc 1 264 0
 310 0160 02E0     		b	.L24
 311              	.L26:
 265:/home/virusv/usart/Libraries/src/stm32f10x_can.c ****    {
 266:/home/virusv/usart/Libraries/src/stm32f10x_can.c ****      wait_ack++;
 312              		.loc 1 266 0
 313 0162 BB68     		ldr	r3, [r7, #8]
 314 0164 0133     		adds	r3, r3, #1
 315 0166 BB60     		str	r3, [r7, #8]
 316              	.L24:
 264:/home/virusv/usart/Libraries/src/stm32f10x_can.c ****    {
 317              		.loc 1 264 0
 318 0168 7B68     		ldr	r3, [r7, #4]
 319 016a 5B68     		ldr	r3, [r3, #4]
 320 016c 03F00103 		and	r3, r3, #1
 321 0170 002B     		cmp	r3, #0
 322 0172 04D0     		beq	.L25
 264:/home/virusv/usart/Libraries/src/stm32f10x_can.c ****    {
 323              		.loc 1 264 0 is_stmt 0 discriminator 1
 324 0174 BB68     		ldr	r3, [r7, #8]
 325 0176 4FF6FF72 		movw	r2, #65535
 326 017a 9342     		cmp	r3, r2
 327 017c F1D1     		bne	.L26
 328              	.L25:
 267:/home/virusv/usart/Libraries/src/stm32f10x_can.c ****    }
 268:/home/virusv/usart/Libraries/src/stm32f10x_can.c **** 
 269:/home/virusv/usart/Libraries/src/stm32f10x_can.c ****     /* ...and check acknowledged */
 270:/home/virusv/usart/Libraries/src/stm32f10x_can.c ****     if ((CANx->MSR & CAN_MSR_INAK) == CAN_MSR_INAK)
 329              		.loc 1 270 0 is_stmt 1
 330 017e 7B68     		ldr	r3, [r7, #4]
 331 0180 5B68     		ldr	r3, [r3, #4]
 332 0182 03F00103 		and	r3, r3, #1
 333 0186 002B     		cmp	r3, #0
 334 0188 02D0     		beq	.L27
 271:/home/virusv/usart/Libraries/src/stm32f10x_can.c ****     {
 272:/home/virusv/usart/Libraries/src/stm32f10x_can.c ****       InitStatus = CAN_InitStatus_Failed;
 335              		.loc 1 272 0
 336 018a 0023     		movs	r3, #0
 337 018c FB73     		strb	r3, [r7, #15]
 338 018e 01E0     		b	.L11
 339              	.L27:
 273:/home/virusv/usart/Libraries/src/stm32f10x_can.c ****     }
 274:/home/virusv/usart/Libraries/src/stm32f10x_can.c ****     else
 275:/home/virusv/usart/Libraries/src/stm32f10x_can.c ****     {
 276:/home/virusv/usart/Libraries/src/stm32f10x_can.c ****       InitStatus = CAN_InitStatus_Success ;
 340              		.loc 1 276 0
 341 0190 0123     		movs	r3, #1
 342 0192 FB73     		strb	r3, [r7, #15]
 343              	.L11:
 277:/home/virusv/usart/Libraries/src/stm32f10x_can.c ****     }
 278:/home/virusv/usart/Libraries/src/stm32f10x_can.c ****   }
 279:/home/virusv/usart/Libraries/src/stm32f10x_can.c **** 
 280:/home/virusv/usart/Libraries/src/stm32f10x_can.c ****   /* At this step, return the status of initialization */
 281:/home/virusv/usart/Libraries/src/stm32f10x_can.c ****   return InitStatus;
 344              		.loc 1 281 0
 345 0194 FB7B     		ldrb	r3, [r7, #15]	@ zero_extendqisi2
 282:/home/virusv/usart/Libraries/src/stm32f10x_can.c **** }
 346              		.loc 1 282 0
 347 0196 1846     		mov	r0, r3
 348 0198 1437     		adds	r7, r7, #20
 349              		.cfi_def_cfa_offset 4
 350 019a BD46     		mov	sp, r7
 351              		.cfi_def_cfa_register 13
 352              		@ sp needed
 353 019c 5DF8047B 		ldr	r7, [sp], #4
 354              		.cfi_restore 7
 355              		.cfi_def_cfa_offset 0
 356 01a0 7047     		bx	lr
 357              		.cfi_endproc
 358              	.LFE30:
 360 01a2 00BF     		.section	.text.CAN_FilterInit,"ax",%progbits
 361              		.align	2
 362              		.global	CAN_FilterInit
 363              		.thumb
 364              		.thumb_func
 366              	CAN_FilterInit:
 367              	.LFB31:
 283:/home/virusv/usart/Libraries/src/stm32f10x_can.c **** 
 284:/home/virusv/usart/Libraries/src/stm32f10x_can.c **** /**
 285:/home/virusv/usart/Libraries/src/stm32f10x_can.c ****   * @brief  Initializes the CAN peripheral according to the specified
 286:/home/virusv/usart/Libraries/src/stm32f10x_can.c ****   *         parameters in the CAN_FilterInitStruct.
 287:/home/virusv/usart/Libraries/src/stm32f10x_can.c ****   * @param  CAN_FilterInitStruct: pointer to a CAN_FilterInitTypeDef
 288:/home/virusv/usart/Libraries/src/stm32f10x_can.c ****   *                               structure that contains the configuration 
 289:/home/virusv/usart/Libraries/src/stm32f10x_can.c ****   *                               information.
 290:/home/virusv/usart/Libraries/src/stm32f10x_can.c ****   * @retval None.
 291:/home/virusv/usart/Libraries/src/stm32f10x_can.c ****   */
 292:/home/virusv/usart/Libraries/src/stm32f10x_can.c **** void CAN_FilterInit(CAN_FilterInitTypeDef* CAN_FilterInitStruct)
 293:/home/virusv/usart/Libraries/src/stm32f10x_can.c **** {
 368              		.loc 1 293 0
 369              		.cfi_startproc
 370              		@ args = 0, pretend = 0, frame = 16
 371              		@ frame_needed = 1, uses_anonymous_args = 0
 372              		@ link register save eliminated.
 373 0000 80B4     		push	{r7}
 374              		.cfi_def_cfa_offset 4
 375              		.cfi_offset 7, -4
 376 0002 85B0     		sub	sp, sp, #20
 377              		.cfi_def_cfa_offset 24
 378 0004 00AF     		add	r7, sp, #0
 379              		.cfi_def_cfa_register 7
 380 0006 7860     		str	r0, [r7, #4]
 294:/home/virusv/usart/Libraries/src/stm32f10x_can.c ****   uint32_t filter_number_bit_pos = 0;
 381              		.loc 1 294 0
 382 0008 0023     		movs	r3, #0
 383 000a FB60     		str	r3, [r7, #12]
 295:/home/virusv/usart/Libraries/src/stm32f10x_can.c ****   /* Check the parameters */
 296:/home/virusv/usart/Libraries/src/stm32f10x_can.c ****   assert_param(IS_CAN_FILTER_NUMBER(CAN_FilterInitStruct->CAN_FilterNumber));
 297:/home/virusv/usart/Libraries/src/stm32f10x_can.c ****   assert_param(IS_CAN_FILTER_MODE(CAN_FilterInitStruct->CAN_FilterMode));
 298:/home/virusv/usart/Libraries/src/stm32f10x_can.c ****   assert_param(IS_CAN_FILTER_SCALE(CAN_FilterInitStruct->CAN_FilterScale));
 299:/home/virusv/usart/Libraries/src/stm32f10x_can.c ****   assert_param(IS_CAN_FILTER_FIFO(CAN_FilterInitStruct->CAN_FilterFIFOAssignment));
 300:/home/virusv/usart/Libraries/src/stm32f10x_can.c ****   assert_param(IS_FUNCTIONAL_STATE(CAN_FilterInitStruct->CAN_FilterActivation));
 301:/home/virusv/usart/Libraries/src/stm32f10x_can.c **** 
 302:/home/virusv/usart/Libraries/src/stm32f10x_can.c ****   filter_number_bit_pos = ((uint32_t)1) << CAN_FilterInitStruct->CAN_FilterNumber;
 384              		.loc 1 302 0
 385 000c 7B68     		ldr	r3, [r7, #4]
 386 000e 9B7A     		ldrb	r3, [r3, #10]	@ zero_extendqisi2
 387 0010 1A46     		mov	r2, r3
 388 0012 0123     		movs	r3, #1
 389 0014 9340     		lsls	r3, r3, r2
 390 0016 FB60     		str	r3, [r7, #12]
 303:/home/virusv/usart/Libraries/src/stm32f10x_can.c **** 
 304:/home/virusv/usart/Libraries/src/stm32f10x_can.c ****   /* Initialisation mode for the filter */
 305:/home/virusv/usart/Libraries/src/stm32f10x_can.c ****   CAN1->FMR |= FMR_FINIT;
 391              		.loc 1 305 0
 392 0018 554A     		ldr	r2, .L37
 393 001a 554B     		ldr	r3, .L37
 394 001c D3F80032 		ldr	r3, [r3, #512]
 395 0020 43F00103 		orr	r3, r3, #1
 396 0024 C2F80032 		str	r3, [r2, #512]
 306:/home/virusv/usart/Libraries/src/stm32f10x_can.c **** 
 307:/home/virusv/usart/Libraries/src/stm32f10x_can.c ****   /* Filter Deactivation */
 308:/home/virusv/usart/Libraries/src/stm32f10x_can.c ****   CAN1->FA1R &= ~(uint32_t)filter_number_bit_pos;
 397              		.loc 1 308 0
 398 0028 5149     		ldr	r1, .L37
 399 002a 514B     		ldr	r3, .L37
 400 002c D3F81C22 		ldr	r2, [r3, #540]
 401 0030 FB68     		ldr	r3, [r7, #12]
 402 0032 DB43     		mvns	r3, r3
 403 0034 1340     		ands	r3, r3, r2
 404 0036 C1F81C32 		str	r3, [r1, #540]
 309:/home/virusv/usart/Libraries/src/stm32f10x_can.c **** 
 310:/home/virusv/usart/Libraries/src/stm32f10x_can.c ****   /* Filter Scale */
 311:/home/virusv/usart/Libraries/src/stm32f10x_can.c ****   if (CAN_FilterInitStruct->CAN_FilterScale == CAN_FilterScale_16bit)
 405              		.loc 1 311 0
 406 003a 7B68     		ldr	r3, [r7, #4]
 407 003c 1B7B     		ldrb	r3, [r3, #12]	@ zero_extendqisi2
 408 003e 002B     		cmp	r3, #0
 409 0040 25D1     		bne	.L30
 312:/home/virusv/usart/Libraries/src/stm32f10x_can.c ****   {
 313:/home/virusv/usart/Libraries/src/stm32f10x_can.c ****     /* 16-bit scale for the filter */
 314:/home/virusv/usart/Libraries/src/stm32f10x_can.c ****     CAN1->FS1R &= ~(uint32_t)filter_number_bit_pos;
 410              		.loc 1 314 0
 411 0042 4B49     		ldr	r1, .L37
 412 0044 4A4B     		ldr	r3, .L37
 413 0046 D3F80C22 		ldr	r2, [r3, #524]
 414 004a FB68     		ldr	r3, [r7, #12]
 415 004c DB43     		mvns	r3, r3
 416 004e 1340     		ands	r3, r3, r2
 417 0050 C1F80C32 		str	r3, [r1, #524]
 315:/home/virusv/usart/Libraries/src/stm32f10x_can.c **** 
 316:/home/virusv/usart/Libraries/src/stm32f10x_can.c ****     /* First 16-bit identifier and First 16-bit mask */
 317:/home/virusv/usart/Libraries/src/stm32f10x_can.c ****     /* Or First 16-bit identifier and Second 16-bit identifier */
 318:/home/virusv/usart/Libraries/src/stm32f10x_can.c ****     CAN1->sFilterRegister[CAN_FilterInitStruct->CAN_FilterNumber].FR1 = 
 418              		.loc 1 318 0
 419 0054 4649     		ldr	r1, .L37
 420 0056 7B68     		ldr	r3, [r7, #4]
 421 0058 9B7A     		ldrb	r3, [r3, #10]	@ zero_extendqisi2
 422 005a 1846     		mov	r0, r3
 319:/home/virusv/usart/Libraries/src/stm32f10x_can.c ****     ((0x0000FFFF & (uint32_t)CAN_FilterInitStruct->CAN_FilterMaskIdLow) << 16) |
 423              		.loc 1 319 0
 424 005c 7B68     		ldr	r3, [r7, #4]
 425 005e DB88     		ldrh	r3, [r3, #6]
 426 0060 1B04     		lsls	r3, r3, #16
 320:/home/virusv/usart/Libraries/src/stm32f10x_can.c ****         (0x0000FFFF & (uint32_t)CAN_FilterInitStruct->CAN_FilterIdLow);
 427              		.loc 1 320 0
 428 0062 7A68     		ldr	r2, [r7, #4]
 429 0064 5288     		ldrh	r2, [r2, #2]
 319:/home/virusv/usart/Libraries/src/stm32f10x_can.c ****     ((0x0000FFFF & (uint32_t)CAN_FilterInitStruct->CAN_FilterMaskIdLow) << 16) |
 430              		.loc 1 319 0
 431 0066 1A43     		orrs	r2, r2, r3
 318:/home/virusv/usart/Libraries/src/stm32f10x_can.c ****     ((0x0000FFFF & (uint32_t)CAN_FilterInitStruct->CAN_FilterMaskIdLow) << 16) |
 432              		.loc 1 318 0
 433 0068 00F14803 		add	r3, r0, #72
 434 006c 41F83320 		str	r2, [r1, r3, lsl #3]
 321:/home/virusv/usart/Libraries/src/stm32f10x_can.c **** 
 322:/home/virusv/usart/Libraries/src/stm32f10x_can.c ****     /* Second 16-bit identifier and Second 16-bit mask */
 323:/home/virusv/usart/Libraries/src/stm32f10x_can.c ****     /* Or Third 16-bit identifier and Fourth 16-bit identifier */
 324:/home/virusv/usart/Libraries/src/stm32f10x_can.c ****     CAN1->sFilterRegister[CAN_FilterInitStruct->CAN_FilterNumber].FR2 = 
 435              		.loc 1 324 0
 436 0070 3F49     		ldr	r1, .L37
 437 0072 7B68     		ldr	r3, [r7, #4]
 438 0074 9B7A     		ldrb	r3, [r3, #10]	@ zero_extendqisi2
 439 0076 1846     		mov	r0, r3
 325:/home/virusv/usart/Libraries/src/stm32f10x_can.c ****     ((0x0000FFFF & (uint32_t)CAN_FilterInitStruct->CAN_FilterMaskIdHigh) << 16) |
 440              		.loc 1 325 0
 441 0078 7B68     		ldr	r3, [r7, #4]
 442 007a 9B88     		ldrh	r3, [r3, #4]
 443 007c 1B04     		lsls	r3, r3, #16
 326:/home/virusv/usart/Libraries/src/stm32f10x_can.c ****         (0x0000FFFF & (uint32_t)CAN_FilterInitStruct->CAN_FilterIdHigh);
 444              		.loc 1 326 0
 445 007e 7A68     		ldr	r2, [r7, #4]
 446 0080 1288     		ldrh	r2, [r2]
 325:/home/virusv/usart/Libraries/src/stm32f10x_can.c ****     ((0x0000FFFF & (uint32_t)CAN_FilterInitStruct->CAN_FilterMaskIdHigh) << 16) |
 447              		.loc 1 325 0
 448 0082 1A43     		orrs	r2, r2, r3
 324:/home/virusv/usart/Libraries/src/stm32f10x_can.c ****     ((0x0000FFFF & (uint32_t)CAN_FilterInitStruct->CAN_FilterMaskIdHigh) << 16) |
 449              		.loc 1 324 0
 450 0084 00F14803 		add	r3, r0, #72
 451 0088 DB00     		lsls	r3, r3, #3
 452 008a 0B44     		add	r3, r3, r1
 453 008c 5A60     		str	r2, [r3, #4]
 454              	.L30:
 327:/home/virusv/usart/Libraries/src/stm32f10x_can.c ****   }
 328:/home/virusv/usart/Libraries/src/stm32f10x_can.c **** 
 329:/home/virusv/usart/Libraries/src/stm32f10x_can.c ****   if (CAN_FilterInitStruct->CAN_FilterScale == CAN_FilterScale_32bit)
 455              		.loc 1 329 0
 456 008e 7B68     		ldr	r3, [r7, #4]
 457 0090 1B7B     		ldrb	r3, [r3, #12]	@ zero_extendqisi2
 458 0092 012B     		cmp	r3, #1
 459 0094 24D1     		bne	.L31
 330:/home/virusv/usart/Libraries/src/stm32f10x_can.c ****   {
 331:/home/virusv/usart/Libraries/src/stm32f10x_can.c ****     /* 32-bit scale for the filter */
 332:/home/virusv/usart/Libraries/src/stm32f10x_can.c ****     CAN1->FS1R |= filter_number_bit_pos;
 460              		.loc 1 332 0
 461 0096 3649     		ldr	r1, .L37
 462 0098 354B     		ldr	r3, .L37
 463 009a D3F80C22 		ldr	r2, [r3, #524]
 464 009e FB68     		ldr	r3, [r7, #12]
 465 00a0 1343     		orrs	r3, r3, r2
 466 00a2 C1F80C32 		str	r3, [r1, #524]
 333:/home/virusv/usart/Libraries/src/stm32f10x_can.c ****     /* 32-bit identifier or First 32-bit identifier */
 334:/home/virusv/usart/Libraries/src/stm32f10x_can.c ****     CAN1->sFilterRegister[CAN_FilterInitStruct->CAN_FilterNumber].FR1 = 
 467              		.loc 1 334 0
 468 00a6 3249     		ldr	r1, .L37
 469 00a8 7B68     		ldr	r3, [r7, #4]
 470 00aa 9B7A     		ldrb	r3, [r3, #10]	@ zero_extendqisi2
 471 00ac 1846     		mov	r0, r3
 335:/home/virusv/usart/Libraries/src/stm32f10x_can.c ****     ((0x0000FFFF & (uint32_t)CAN_FilterInitStruct->CAN_FilterIdHigh) << 16) |
 472              		.loc 1 335 0
 473 00ae 7B68     		ldr	r3, [r7, #4]
 474 00b0 1B88     		ldrh	r3, [r3]
 475 00b2 1B04     		lsls	r3, r3, #16
 336:/home/virusv/usart/Libraries/src/stm32f10x_can.c ****         (0x0000FFFF & (uint32_t)CAN_FilterInitStruct->CAN_FilterIdLow);
 476              		.loc 1 336 0
 477 00b4 7A68     		ldr	r2, [r7, #4]
 478 00b6 5288     		ldrh	r2, [r2, #2]
 335:/home/virusv/usart/Libraries/src/stm32f10x_can.c ****     ((0x0000FFFF & (uint32_t)CAN_FilterInitStruct->CAN_FilterIdHigh) << 16) |
 479              		.loc 1 335 0
 480 00b8 1A43     		orrs	r2, r2, r3
 334:/home/virusv/usart/Libraries/src/stm32f10x_can.c ****     ((0x0000FFFF & (uint32_t)CAN_FilterInitStruct->CAN_FilterIdHigh) << 16) |
 481              		.loc 1 334 0
 482 00ba 00F14803 		add	r3, r0, #72
 483 00be 41F83320 		str	r2, [r1, r3, lsl #3]
 337:/home/virusv/usart/Libraries/src/stm32f10x_can.c ****     /* 32-bit mask or Second 32-bit identifier */
 338:/home/virusv/usart/Libraries/src/stm32f10x_can.c ****     CAN1->sFilterRegister[CAN_FilterInitStruct->CAN_FilterNumber].FR2 = 
 484              		.loc 1 338 0
 485 00c2 2B49     		ldr	r1, .L37
 486 00c4 7B68     		ldr	r3, [r7, #4]
 487 00c6 9B7A     		ldrb	r3, [r3, #10]	@ zero_extendqisi2
 488 00c8 1846     		mov	r0, r3
 339:/home/virusv/usart/Libraries/src/stm32f10x_can.c ****     ((0x0000FFFF & (uint32_t)CAN_FilterInitStruct->CAN_FilterMaskIdHigh) << 16) |
 489              		.loc 1 339 0
 490 00ca 7B68     		ldr	r3, [r7, #4]
 491 00cc 9B88     		ldrh	r3, [r3, #4]
 492 00ce 1B04     		lsls	r3, r3, #16
 340:/home/virusv/usart/Libraries/src/stm32f10x_can.c ****         (0x0000FFFF & (uint32_t)CAN_FilterInitStruct->CAN_FilterMaskIdLow);
 493              		.loc 1 340 0
 494 00d0 7A68     		ldr	r2, [r7, #4]
 495 00d2 D288     		ldrh	r2, [r2, #6]
 339:/home/virusv/usart/Libraries/src/stm32f10x_can.c ****     ((0x0000FFFF & (uint32_t)CAN_FilterInitStruct->CAN_FilterMaskIdHigh) << 16) |
 496              		.loc 1 339 0
 497 00d4 1A43     		orrs	r2, r2, r3
 338:/home/virusv/usart/Libraries/src/stm32f10x_can.c ****     ((0x0000FFFF & (uint32_t)CAN_FilterInitStruct->CAN_FilterMaskIdHigh) << 16) |
 498              		.loc 1 338 0
 499 00d6 00F14803 		add	r3, r0, #72
 500 00da DB00     		lsls	r3, r3, #3
 501 00dc 0B44     		add	r3, r3, r1
 502 00de 5A60     		str	r2, [r3, #4]
 503              	.L31:
 341:/home/virusv/usart/Libraries/src/stm32f10x_can.c ****   }
 342:/home/virusv/usart/Libraries/src/stm32f10x_can.c **** 
 343:/home/virusv/usart/Libraries/src/stm32f10x_can.c ****   /* Filter Mode */
 344:/home/virusv/usart/Libraries/src/stm32f10x_can.c ****   if (CAN_FilterInitStruct->CAN_FilterMode == CAN_FilterMode_IdMask)
 504              		.loc 1 344 0
 505 00e0 7B68     		ldr	r3, [r7, #4]
 506 00e2 DB7A     		ldrb	r3, [r3, #11]	@ zero_extendqisi2
 507 00e4 002B     		cmp	r3, #0
 508 00e6 09D1     		bne	.L32
 345:/home/virusv/usart/Libraries/src/stm32f10x_can.c ****   {
 346:/home/virusv/usart/Libraries/src/stm32f10x_can.c ****     /*Id/Mask mode for the filter*/
 347:/home/virusv/usart/Libraries/src/stm32f10x_can.c ****     CAN1->FM1R &= ~(uint32_t)filter_number_bit_pos;
 509              		.loc 1 347 0
 510 00e8 2149     		ldr	r1, .L37
 511 00ea 214B     		ldr	r3, .L37
 512 00ec D3F80422 		ldr	r2, [r3, #516]
 513 00f0 FB68     		ldr	r3, [r7, #12]
 514 00f2 DB43     		mvns	r3, r3
 515 00f4 1340     		ands	r3, r3, r2
 516 00f6 C1F80432 		str	r3, [r1, #516]
 517 00fa 07E0     		b	.L33
 518              	.L32:
 348:/home/virusv/usart/Libraries/src/stm32f10x_can.c ****   }
 349:/home/virusv/usart/Libraries/src/stm32f10x_can.c ****   else /* CAN_FilterInitStruct->CAN_FilterMode == CAN_FilterMode_IdList */
 350:/home/virusv/usart/Libraries/src/stm32f10x_can.c ****   {
 351:/home/virusv/usart/Libraries/src/stm32f10x_can.c ****     /*Identifier list mode for the filter*/
 352:/home/virusv/usart/Libraries/src/stm32f10x_can.c ****     CAN1->FM1R |= (uint32_t)filter_number_bit_pos;
 519              		.loc 1 352 0
 520 00fc 1C49     		ldr	r1, .L37
 521 00fe 1C4B     		ldr	r3, .L37
 522 0100 D3F80422 		ldr	r2, [r3, #516]
 523 0104 FB68     		ldr	r3, [r7, #12]
 524 0106 1343     		orrs	r3, r3, r2
 525 0108 C1F80432 		str	r3, [r1, #516]
 526              	.L33:
 353:/home/virusv/usart/Libraries/src/stm32f10x_can.c ****   }
 354:/home/virusv/usart/Libraries/src/stm32f10x_can.c **** 
 355:/home/virusv/usart/Libraries/src/stm32f10x_can.c ****   /* Filter FIFO assignment */
 356:/home/virusv/usart/Libraries/src/stm32f10x_can.c ****   if (CAN_FilterInitStruct->CAN_FilterFIFOAssignment == CAN_Filter_FIFO0)
 527              		.loc 1 356 0
 528 010c 7B68     		ldr	r3, [r7, #4]
 529 010e 1B89     		ldrh	r3, [r3, #8]
 530 0110 002B     		cmp	r3, #0
 531 0112 08D1     		bne	.L34
 357:/home/virusv/usart/Libraries/src/stm32f10x_can.c ****   {
 358:/home/virusv/usart/Libraries/src/stm32f10x_can.c ****     /* FIFO 0 assignation for the filter */
 359:/home/virusv/usart/Libraries/src/stm32f10x_can.c ****     CAN1->FFA1R &= ~(uint32_t)filter_number_bit_pos;
 532              		.loc 1 359 0
 533 0114 1649     		ldr	r1, .L37
 534 0116 164B     		ldr	r3, .L37
 535 0118 D3F81422 		ldr	r2, [r3, #532]
 536 011c FB68     		ldr	r3, [r7, #12]
 537 011e DB43     		mvns	r3, r3
 538 0120 1340     		ands	r3, r3, r2
 539 0122 C1F81432 		str	r3, [r1, #532]
 540              	.L34:
 360:/home/virusv/usart/Libraries/src/stm32f10x_can.c ****   }
 361:/home/virusv/usart/Libraries/src/stm32f10x_can.c **** 
 362:/home/virusv/usart/Libraries/src/stm32f10x_can.c ****   if (CAN_FilterInitStruct->CAN_FilterFIFOAssignment == CAN_Filter_FIFO1)
 541              		.loc 1 362 0
 542 0126 7B68     		ldr	r3, [r7, #4]
 543 0128 1B89     		ldrh	r3, [r3, #8]
 544 012a 012B     		cmp	r3, #1
 545 012c 07D1     		bne	.L35
 363:/home/virusv/usart/Libraries/src/stm32f10x_can.c ****   {
 364:/home/virusv/usart/Libraries/src/stm32f10x_can.c ****     /* FIFO 1 assignation for the filter */
 365:/home/virusv/usart/Libraries/src/stm32f10x_can.c ****     CAN1->FFA1R |= (uint32_t)filter_number_bit_pos;
 546              		.loc 1 365 0
 547 012e 1049     		ldr	r1, .L37
 548 0130 0F4B     		ldr	r3, .L37
 549 0132 D3F81422 		ldr	r2, [r3, #532]
 550 0136 FB68     		ldr	r3, [r7, #12]
 551 0138 1343     		orrs	r3, r3, r2
 552 013a C1F81432 		str	r3, [r1, #532]
 553              	.L35:
 366:/home/virusv/usart/Libraries/src/stm32f10x_can.c ****   }
 367:/home/virusv/usart/Libraries/src/stm32f10x_can.c ****   
 368:/home/virusv/usart/Libraries/src/stm32f10x_can.c ****   /* Filter activation */
 369:/home/virusv/usart/Libraries/src/stm32f10x_can.c ****   if (CAN_FilterInitStruct->CAN_FilterActivation == ENABLE)
 554              		.loc 1 369 0
 555 013e 7B68     		ldr	r3, [r7, #4]
 556 0140 5B7B     		ldrb	r3, [r3, #13]	@ zero_extendqisi2
 557 0142 012B     		cmp	r3, #1
 558 0144 07D1     		bne	.L36
 370:/home/virusv/usart/Libraries/src/stm32f10x_can.c ****   {
 371:/home/virusv/usart/Libraries/src/stm32f10x_can.c ****     CAN1->FA1R |= filter_number_bit_pos;
 559              		.loc 1 371 0
 560 0146 0A49     		ldr	r1, .L37
 561 0148 094B     		ldr	r3, .L37
 562 014a D3F81C22 		ldr	r2, [r3, #540]
 563 014e FB68     		ldr	r3, [r7, #12]
 564 0150 1343     		orrs	r3, r3, r2
 565 0152 C1F81C32 		str	r3, [r1, #540]
 566              	.L36:
 372:/home/virusv/usart/Libraries/src/stm32f10x_can.c ****   }
 373:/home/virusv/usart/Libraries/src/stm32f10x_can.c **** 
 374:/home/virusv/usart/Libraries/src/stm32f10x_can.c ****   /* Leave the initialisation mode for the filter */
 375:/home/virusv/usart/Libraries/src/stm32f10x_can.c ****   CAN1->FMR &= ~FMR_FINIT;
 567              		.loc 1 375 0
 568 0156 064A     		ldr	r2, .L37
 569 0158 054B     		ldr	r3, .L37
 570 015a D3F80032 		ldr	r3, [r3, #512]
 571 015e 23F00103 		bic	r3, r3, #1
 572 0162 C2F80032 		str	r3, [r2, #512]
 376:/home/virusv/usart/Libraries/src/stm32f10x_can.c **** }
 573              		.loc 1 376 0
 574 0166 1437     		adds	r7, r7, #20
 575              		.cfi_def_cfa_offset 4
 576 0168 BD46     		mov	sp, r7
 577              		.cfi_def_cfa_register 13
 578              		@ sp needed
 579 016a 5DF8047B 		ldr	r7, [sp], #4
 580              		.cfi_restore 7
 581              		.cfi_def_cfa_offset 0
 582 016e 7047     		bx	lr
 583              	.L38:
 584              		.align	2
 585              	.L37:
 586 0170 00640040 		.word	1073767424
 587              		.cfi_endproc
 588              	.LFE31:
 590              		.section	.text.CAN_StructInit,"ax",%progbits
 591              		.align	2
 592              		.global	CAN_StructInit
 593              		.thumb
 594              		.thumb_func
 596              	CAN_StructInit:
 597              	.LFB32:
 377:/home/virusv/usart/Libraries/src/stm32f10x_can.c **** 
 378:/home/virusv/usart/Libraries/src/stm32f10x_can.c **** /**
 379:/home/virusv/usart/Libraries/src/stm32f10x_can.c ****   * @brief  Fills each CAN_InitStruct member with its default value.
 380:/home/virusv/usart/Libraries/src/stm32f10x_can.c ****   * @param  CAN_InitStruct: pointer to a CAN_InitTypeDef structure which
 381:/home/virusv/usart/Libraries/src/stm32f10x_can.c ****   *                         will be initialized.
 382:/home/virusv/usart/Libraries/src/stm32f10x_can.c ****   * @retval None.
 383:/home/virusv/usart/Libraries/src/stm32f10x_can.c ****   */
 384:/home/virusv/usart/Libraries/src/stm32f10x_can.c **** void CAN_StructInit(CAN_InitTypeDef* CAN_InitStruct)
 385:/home/virusv/usart/Libraries/src/stm32f10x_can.c **** {
 598              		.loc 1 385 0
 599              		.cfi_startproc
 600              		@ args = 0, pretend = 0, frame = 8
 601              		@ frame_needed = 1, uses_anonymous_args = 0
 602              		@ link register save eliminated.
 603 0000 80B4     		push	{r7}
 604              		.cfi_def_cfa_offset 4
 605              		.cfi_offset 7, -4
 606 0002 83B0     		sub	sp, sp, #12
 607              		.cfi_def_cfa_offset 16
 608 0004 00AF     		add	r7, sp, #0
 609              		.cfi_def_cfa_register 7
 610 0006 7860     		str	r0, [r7, #4]
 386:/home/virusv/usart/Libraries/src/stm32f10x_can.c ****   /* Reset CAN init structure parameters values */
 387:/home/virusv/usart/Libraries/src/stm32f10x_can.c ****   
 388:/home/virusv/usart/Libraries/src/stm32f10x_can.c ****   /* Initialize the time triggered communication mode */
 389:/home/virusv/usart/Libraries/src/stm32f10x_can.c ****   CAN_InitStruct->CAN_TTCM = DISABLE;
 611              		.loc 1 389 0
 612 0008 7B68     		ldr	r3, [r7, #4]
 613 000a 0022     		movs	r2, #0
 614 000c 9A71     		strb	r2, [r3, #6]
 390:/home/virusv/usart/Libraries/src/stm32f10x_can.c ****   
 391:/home/virusv/usart/Libraries/src/stm32f10x_can.c ****   /* Initialize the automatic bus-off management */
 392:/home/virusv/usart/Libraries/src/stm32f10x_can.c ****   CAN_InitStruct->CAN_ABOM = DISABLE;
 615              		.loc 1 392 0
 616 000e 7B68     		ldr	r3, [r7, #4]
 617 0010 0022     		movs	r2, #0
 618 0012 DA71     		strb	r2, [r3, #7]
 393:/home/virusv/usart/Libraries/src/stm32f10x_can.c ****   
 394:/home/virusv/usart/Libraries/src/stm32f10x_can.c ****   /* Initialize the automatic wake-up mode */
 395:/home/virusv/usart/Libraries/src/stm32f10x_can.c ****   CAN_InitStruct->CAN_AWUM = DISABLE;
 619              		.loc 1 395 0
 620 0014 7B68     		ldr	r3, [r7, #4]
 621 0016 0022     		movs	r2, #0
 622 0018 1A72     		strb	r2, [r3, #8]
 396:/home/virusv/usart/Libraries/src/stm32f10x_can.c ****   
 397:/home/virusv/usart/Libraries/src/stm32f10x_can.c ****   /* Initialize the no automatic retransmission */
 398:/home/virusv/usart/Libraries/src/stm32f10x_can.c ****   CAN_InitStruct->CAN_NART = DISABLE;
 623              		.loc 1 398 0
 624 001a 7B68     		ldr	r3, [r7, #4]
 625 001c 0022     		movs	r2, #0
 626 001e 5A72     		strb	r2, [r3, #9]
 399:/home/virusv/usart/Libraries/src/stm32f10x_can.c ****   
 400:/home/virusv/usart/Libraries/src/stm32f10x_can.c ****   /* Initialize the receive FIFO locked mode */
 401:/home/virusv/usart/Libraries/src/stm32f10x_can.c ****   CAN_InitStruct->CAN_RFLM = DISABLE;
 627              		.loc 1 401 0
 628 0020 7B68     		ldr	r3, [r7, #4]
 629 0022 0022     		movs	r2, #0
 630 0024 9A72     		strb	r2, [r3, #10]
 402:/home/virusv/usart/Libraries/src/stm32f10x_can.c ****   
 403:/home/virusv/usart/Libraries/src/stm32f10x_can.c ****   /* Initialize the transmit FIFO priority */
 404:/home/virusv/usart/Libraries/src/stm32f10x_can.c ****   CAN_InitStruct->CAN_TXFP = DISABLE;
 631              		.loc 1 404 0
 632 0026 7B68     		ldr	r3, [r7, #4]
 633 0028 0022     		movs	r2, #0
 634 002a DA72     		strb	r2, [r3, #11]
 405:/home/virusv/usart/Libraries/src/stm32f10x_can.c ****   
 406:/home/virusv/usart/Libraries/src/stm32f10x_can.c ****   /* Initialize the CAN_Mode member */
 407:/home/virusv/usart/Libraries/src/stm32f10x_can.c ****   CAN_InitStruct->CAN_Mode = CAN_Mode_Normal;
 635              		.loc 1 407 0
 636 002c 7B68     		ldr	r3, [r7, #4]
 637 002e 0022     		movs	r2, #0
 638 0030 9A70     		strb	r2, [r3, #2]
 408:/home/virusv/usart/Libraries/src/stm32f10x_can.c ****   
 409:/home/virusv/usart/Libraries/src/stm32f10x_can.c ****   /* Initialize the CAN_SJW member */
 410:/home/virusv/usart/Libraries/src/stm32f10x_can.c ****   CAN_InitStruct->CAN_SJW = CAN_SJW_1tq;
 639              		.loc 1 410 0
 640 0032 7B68     		ldr	r3, [r7, #4]
 641 0034 0022     		movs	r2, #0
 642 0036 DA70     		strb	r2, [r3, #3]
 411:/home/virusv/usart/Libraries/src/stm32f10x_can.c ****   
 412:/home/virusv/usart/Libraries/src/stm32f10x_can.c ****   /* Initialize the CAN_BS1 member */
 413:/home/virusv/usart/Libraries/src/stm32f10x_can.c ****   CAN_InitStruct->CAN_BS1 = CAN_BS1_4tq;
 643              		.loc 1 413 0
 644 0038 7B68     		ldr	r3, [r7, #4]
 645 003a 0322     		movs	r2, #3
 646 003c 1A71     		strb	r2, [r3, #4]
 414:/home/virusv/usart/Libraries/src/stm32f10x_can.c ****   
 415:/home/virusv/usart/Libraries/src/stm32f10x_can.c ****   /* Initialize the CAN_BS2 member */
 416:/home/virusv/usart/Libraries/src/stm32f10x_can.c ****   CAN_InitStruct->CAN_BS2 = CAN_BS2_3tq;
 647              		.loc 1 416 0
 648 003e 7B68     		ldr	r3, [r7, #4]
 649 0040 0222     		movs	r2, #2
 650 0042 5A71     		strb	r2, [r3, #5]
 417:/home/virusv/usart/Libraries/src/stm32f10x_can.c ****   
 418:/home/virusv/usart/Libraries/src/stm32f10x_can.c ****   /* Initialize the CAN_Prescaler member */
 419:/home/virusv/usart/Libraries/src/stm32f10x_can.c ****   CAN_InitStruct->CAN_Prescaler = 1;
 651              		.loc 1 419 0
 652 0044 7B68     		ldr	r3, [r7, #4]
 653 0046 0122     		movs	r2, #1
 654 0048 1A80     		strh	r2, [r3]	@ movhi
 420:/home/virusv/usart/Libraries/src/stm32f10x_can.c **** }
 655              		.loc 1 420 0
 656 004a 0C37     		adds	r7, r7, #12
 657              		.cfi_def_cfa_offset 4
 658 004c BD46     		mov	sp, r7
 659              		.cfi_def_cfa_register 13
 660              		@ sp needed
 661 004e 5DF8047B 		ldr	r7, [sp], #4
 662              		.cfi_restore 7
 663              		.cfi_def_cfa_offset 0
 664 0052 7047     		bx	lr
 665              		.cfi_endproc
 666              	.LFE32:
 668              		.section	.text.CAN_SlaveStartBank,"ax",%progbits
 669              		.align	2
 670              		.global	CAN_SlaveStartBank
 671              		.thumb
 672              		.thumb_func
 674              	CAN_SlaveStartBank:
 675              	.LFB33:
 421:/home/virusv/usart/Libraries/src/stm32f10x_can.c **** 
 422:/home/virusv/usart/Libraries/src/stm32f10x_can.c **** /**
 423:/home/virusv/usart/Libraries/src/stm32f10x_can.c ****   * @brief  Select the start bank filter for slave CAN.
 424:/home/virusv/usart/Libraries/src/stm32f10x_can.c ****   * @note   This function applies only to STM32 Connectivity line devices.
 425:/home/virusv/usart/Libraries/src/stm32f10x_can.c ****   * @param  CAN_BankNumber: Select the start slave bank filter from 1..27.
 426:/home/virusv/usart/Libraries/src/stm32f10x_can.c ****   * @retval None.
 427:/home/virusv/usart/Libraries/src/stm32f10x_can.c ****   */
 428:/home/virusv/usart/Libraries/src/stm32f10x_can.c **** void CAN_SlaveStartBank(uint8_t CAN_BankNumber) 
 429:/home/virusv/usart/Libraries/src/stm32f10x_can.c **** {
 676              		.loc 1 429 0
 677              		.cfi_startproc
 678              		@ args = 0, pretend = 0, frame = 8
 679              		@ frame_needed = 1, uses_anonymous_args = 0
 680              		@ link register save eliminated.
 681 0000 80B4     		push	{r7}
 682              		.cfi_def_cfa_offset 4
 683              		.cfi_offset 7, -4
 684 0002 83B0     		sub	sp, sp, #12
 685              		.cfi_def_cfa_offset 16
 686 0004 00AF     		add	r7, sp, #0
 687              		.cfi_def_cfa_register 7
 688 0006 0346     		mov	r3, r0
 689 0008 FB71     		strb	r3, [r7, #7]
 430:/home/virusv/usart/Libraries/src/stm32f10x_can.c ****   /* Check the parameters */
 431:/home/virusv/usart/Libraries/src/stm32f10x_can.c ****   assert_param(IS_CAN_BANKNUMBER(CAN_BankNumber));
 432:/home/virusv/usart/Libraries/src/stm32f10x_can.c ****   
 433:/home/virusv/usart/Libraries/src/stm32f10x_can.c ****   /* Enter Initialisation mode for the filter */
 434:/home/virusv/usart/Libraries/src/stm32f10x_can.c ****   CAN1->FMR |= FMR_FINIT;
 690              		.loc 1 434 0
 691 000a 144A     		ldr	r2, .L41
 692 000c 134B     		ldr	r3, .L41
 693 000e D3F80032 		ldr	r3, [r3, #512]
 694 0012 43F00103 		orr	r3, r3, #1
 695 0016 C2F80032 		str	r3, [r2, #512]
 435:/home/virusv/usart/Libraries/src/stm32f10x_can.c ****   
 436:/home/virusv/usart/Libraries/src/stm32f10x_can.c ****   /* Select the start slave bank */
 437:/home/virusv/usart/Libraries/src/stm32f10x_can.c ****   CAN1->FMR &= (uint32_t)0xFFFFC0F1 ;
 696              		.loc 1 437 0
 697 001a 104A     		ldr	r2, .L41
 698 001c 0F4B     		ldr	r3, .L41
 699 001e D3F80032 		ldr	r3, [r3, #512]
 700 0022 23F47C53 		bic	r3, r3, #16128
 701 0026 23F00E03 		bic	r3, r3, #14
 702 002a C2F80032 		str	r3, [r2, #512]
 438:/home/virusv/usart/Libraries/src/stm32f10x_can.c ****   CAN1->FMR |= (uint32_t)(CAN_BankNumber)<<8;
 703              		.loc 1 438 0
 704 002e 0B49     		ldr	r1, .L41
 705 0030 0A4B     		ldr	r3, .L41
 706 0032 D3F80022 		ldr	r2, [r3, #512]
 707 0036 FB79     		ldrb	r3, [r7, #7]	@ zero_extendqisi2
 708 0038 1B02     		lsls	r3, r3, #8
 709 003a 1343     		orrs	r3, r3, r2
 710 003c C1F80032 		str	r3, [r1, #512]
 439:/home/virusv/usart/Libraries/src/stm32f10x_can.c ****   
 440:/home/virusv/usart/Libraries/src/stm32f10x_can.c ****   /* Leave Initialisation mode for the filter */
 441:/home/virusv/usart/Libraries/src/stm32f10x_can.c ****   CAN1->FMR &= ~FMR_FINIT;
 711              		.loc 1 441 0
 712 0040 064A     		ldr	r2, .L41
 713 0042 064B     		ldr	r3, .L41
 714 0044 D3F80032 		ldr	r3, [r3, #512]
 715 0048 23F00103 		bic	r3, r3, #1
 716 004c C2F80032 		str	r3, [r2, #512]
 442:/home/virusv/usart/Libraries/src/stm32f10x_can.c **** }
 717              		.loc 1 442 0
 718 0050 0C37     		adds	r7, r7, #12
 719              		.cfi_def_cfa_offset 4
 720 0052 BD46     		mov	sp, r7
 721              		.cfi_def_cfa_register 13
 722              		@ sp needed
 723 0054 5DF8047B 		ldr	r7, [sp], #4
 724              		.cfi_restore 7
 725              		.cfi_def_cfa_offset 0
 726 0058 7047     		bx	lr
 727              	.L42:
 728 005a 00BF     		.align	2
 729              	.L41:
 730 005c 00640040 		.word	1073767424
 731              		.cfi_endproc
 732              	.LFE33:
 734              		.section	.text.CAN_DBGFreeze,"ax",%progbits
 735              		.align	2
 736              		.global	CAN_DBGFreeze
 737              		.thumb
 738              		.thumb_func
 740              	CAN_DBGFreeze:
 741              	.LFB34:
 443:/home/virusv/usart/Libraries/src/stm32f10x_can.c **** 
 444:/home/virusv/usart/Libraries/src/stm32f10x_can.c **** /**
 445:/home/virusv/usart/Libraries/src/stm32f10x_can.c ****   * @brief  Enables or disables the DBG Freeze for CAN.
 446:/home/virusv/usart/Libraries/src/stm32f10x_can.c ****   * @param  CANx:     where x can be 1 or 2 to to select the CAN peripheral.
 447:/home/virusv/usart/Libraries/src/stm32f10x_can.c ****   * @param  NewState: new state of the CAN peripheral. This parameter can 
 448:/home/virusv/usart/Libraries/src/stm32f10x_can.c ****   *                   be: ENABLE or DISABLE.
 449:/home/virusv/usart/Libraries/src/stm32f10x_can.c ****   * @retval None.
 450:/home/virusv/usart/Libraries/src/stm32f10x_can.c ****   */
 451:/home/virusv/usart/Libraries/src/stm32f10x_can.c **** void CAN_DBGFreeze(CAN_TypeDef* CANx, FunctionalState NewState)
 452:/home/virusv/usart/Libraries/src/stm32f10x_can.c **** {
 742              		.loc 1 452 0
 743              		.cfi_startproc
 744              		@ args = 0, pretend = 0, frame = 8
 745              		@ frame_needed = 1, uses_anonymous_args = 0
 746              		@ link register save eliminated.
 747 0000 80B4     		push	{r7}
 748              		.cfi_def_cfa_offset 4
 749              		.cfi_offset 7, -4
 750 0002 83B0     		sub	sp, sp, #12
 751              		.cfi_def_cfa_offset 16
 752 0004 00AF     		add	r7, sp, #0
 753              		.cfi_def_cfa_register 7
 754 0006 7860     		str	r0, [r7, #4]
 755 0008 0B46     		mov	r3, r1
 756 000a FB70     		strb	r3, [r7, #3]
 453:/home/virusv/usart/Libraries/src/stm32f10x_can.c ****   /* Check the parameters */
 454:/home/virusv/usart/Libraries/src/stm32f10x_can.c ****   assert_param(IS_CAN_ALL_PERIPH(CANx));
 455:/home/virusv/usart/Libraries/src/stm32f10x_can.c ****   assert_param(IS_FUNCTIONAL_STATE(NewState));
 456:/home/virusv/usart/Libraries/src/stm32f10x_can.c ****   
 457:/home/virusv/usart/Libraries/src/stm32f10x_can.c ****   if (NewState != DISABLE)
 757              		.loc 1 457 0
 758 000c FB78     		ldrb	r3, [r7, #3]	@ zero_extendqisi2
 759 000e 002B     		cmp	r3, #0
 760 0010 06D0     		beq	.L44
 458:/home/virusv/usart/Libraries/src/stm32f10x_can.c ****   {
 459:/home/virusv/usart/Libraries/src/stm32f10x_can.c ****     /* Enable Debug Freeze  */
 460:/home/virusv/usart/Libraries/src/stm32f10x_can.c ****     CANx->MCR |= MCR_DBF;
 761              		.loc 1 460 0
 762 0012 7B68     		ldr	r3, [r7, #4]
 763 0014 1B68     		ldr	r3, [r3]
 764 0016 43F48032 		orr	r2, r3, #65536
 765 001a 7B68     		ldr	r3, [r7, #4]
 766 001c 1A60     		str	r2, [r3]
 767 001e 05E0     		b	.L43
 768              	.L44:
 461:/home/virusv/usart/Libraries/src/stm32f10x_can.c ****   }
 462:/home/virusv/usart/Libraries/src/stm32f10x_can.c ****   else
 463:/home/virusv/usart/Libraries/src/stm32f10x_can.c ****   {
 464:/home/virusv/usart/Libraries/src/stm32f10x_can.c ****     /* Disable Debug Freeze */
 465:/home/virusv/usart/Libraries/src/stm32f10x_can.c ****     CANx->MCR &= ~MCR_DBF;
 769              		.loc 1 465 0
 770 0020 7B68     		ldr	r3, [r7, #4]
 771 0022 1B68     		ldr	r3, [r3]
 772 0024 23F48032 		bic	r2, r3, #65536
 773 0028 7B68     		ldr	r3, [r7, #4]
 774 002a 1A60     		str	r2, [r3]
 775              	.L43:
 466:/home/virusv/usart/Libraries/src/stm32f10x_can.c ****   }
 467:/home/virusv/usart/Libraries/src/stm32f10x_can.c **** }
 776              		.loc 1 467 0
 777 002c 0C37     		adds	r7, r7, #12
 778              		.cfi_def_cfa_offset 4
 779 002e BD46     		mov	sp, r7
 780              		.cfi_def_cfa_register 13
 781              		@ sp needed
 782 0030 5DF8047B 		ldr	r7, [sp], #4
 783              		.cfi_restore 7
 784              		.cfi_def_cfa_offset 0
 785 0034 7047     		bx	lr
 786              		.cfi_endproc
 787              	.LFE34:
 789 0036 00BF     		.section	.text.CAN_TTComModeCmd,"ax",%progbits
 790              		.align	2
 791              		.global	CAN_TTComModeCmd
 792              		.thumb
 793              		.thumb_func
 795              	CAN_TTComModeCmd:
 796              	.LFB35:
 468:/home/virusv/usart/Libraries/src/stm32f10x_can.c **** 
 469:/home/virusv/usart/Libraries/src/stm32f10x_can.c **** 
 470:/home/virusv/usart/Libraries/src/stm32f10x_can.c **** /**
 471:/home/virusv/usart/Libraries/src/stm32f10x_can.c ****   * @brief  Enables or disabes the CAN Time TriggerOperation communication mode.
 472:/home/virusv/usart/Libraries/src/stm32f10x_can.c ****   * @param  CANx:      where x can be 1 or 2 to to select the CAN peripheral.
 473:/home/virusv/usart/Libraries/src/stm32f10x_can.c ****   * @param  NewState : Mode new state , can be one of @ref FunctionalState.
 474:/home/virusv/usart/Libraries/src/stm32f10x_can.c ****   * @note   when enabled, Time stamp (TIME[15:0]) value is sent in the last 
 475:/home/virusv/usart/Libraries/src/stm32f10x_can.c ****   *         two data bytes of the 8-byte message: TIME[7:0] in data byte 6 
 476:/home/virusv/usart/Libraries/src/stm32f10x_can.c ****   *         and TIME[15:8] in data byte 7 
 477:/home/virusv/usart/Libraries/src/stm32f10x_can.c ****   * @note   DLC must be programmed as 8 in order Time Stamp (2 bytes) to be 
 478:/home/virusv/usart/Libraries/src/stm32f10x_can.c ****   *         sent over the CAN bus.  
 479:/home/virusv/usart/Libraries/src/stm32f10x_can.c ****   * @retval None
 480:/home/virusv/usart/Libraries/src/stm32f10x_can.c ****   */
 481:/home/virusv/usart/Libraries/src/stm32f10x_can.c **** void CAN_TTComModeCmd(CAN_TypeDef* CANx, FunctionalState NewState)
 482:/home/virusv/usart/Libraries/src/stm32f10x_can.c **** {
 797              		.loc 1 482 0
 798              		.cfi_startproc
 799              		@ args = 0, pretend = 0, frame = 8
 800              		@ frame_needed = 1, uses_anonymous_args = 0
 801              		@ link register save eliminated.
 802 0000 80B4     		push	{r7}
 803              		.cfi_def_cfa_offset 4
 804              		.cfi_offset 7, -4
 805 0002 83B0     		sub	sp, sp, #12
 806              		.cfi_def_cfa_offset 16
 807 0004 00AF     		add	r7, sp, #0
 808              		.cfi_def_cfa_register 7
 809 0006 7860     		str	r0, [r7, #4]
 810 0008 0B46     		mov	r3, r1
 811 000a FB70     		strb	r3, [r7, #3]
 483:/home/virusv/usart/Libraries/src/stm32f10x_can.c ****   /* Check the parameters */
 484:/home/virusv/usart/Libraries/src/stm32f10x_can.c ****   assert_param(IS_CAN_ALL_PERIPH(CANx));
 485:/home/virusv/usart/Libraries/src/stm32f10x_can.c ****   assert_param(IS_FUNCTIONAL_STATE(NewState));
 486:/home/virusv/usart/Libraries/src/stm32f10x_can.c ****   if (NewState != DISABLE)
 812              		.loc 1 486 0
 813 000c FB78     		ldrb	r3, [r7, #3]	@ zero_extendqisi2
 814 000e 002B     		cmp	r3, #0
 815 0010 1ED0     		beq	.L47
 487:/home/virusv/usart/Libraries/src/stm32f10x_can.c ****   {
 488:/home/virusv/usart/Libraries/src/stm32f10x_can.c ****     /* Enable the TTCM mode */
 489:/home/virusv/usart/Libraries/src/stm32f10x_can.c ****     CANx->MCR |= CAN_MCR_TTCM;
 816              		.loc 1 489 0
 817 0012 7B68     		ldr	r3, [r7, #4]
 818 0014 1B68     		ldr	r3, [r3]
 819 0016 43F08002 		orr	r2, r3, #128
 820 001a 7B68     		ldr	r3, [r7, #4]
 821 001c 1A60     		str	r2, [r3]
 490:/home/virusv/usart/Libraries/src/stm32f10x_can.c **** 
 491:/home/virusv/usart/Libraries/src/stm32f10x_can.c ****     /* Set TGT bits */
 492:/home/virusv/usart/Libraries/src/stm32f10x_can.c ****     CANx->sTxMailBox[0].TDTR |= ((uint32_t)CAN_TDT0R_TGT);
 822              		.loc 1 492 0
 823 001e 7B68     		ldr	r3, [r7, #4]
 824 0020 D3F88431 		ldr	r3, [r3, #388]
 825 0024 43F48072 		orr	r2, r3, #256
 826 0028 7B68     		ldr	r3, [r7, #4]
 827 002a C3F88421 		str	r2, [r3, #388]
 493:/home/virusv/usart/Libraries/src/stm32f10x_can.c ****     CANx->sTxMailBox[1].TDTR |= ((uint32_t)CAN_TDT1R_TGT);
 828              		.loc 1 493 0
 829 002e 7B68     		ldr	r3, [r7, #4]
 830 0030 D3F89431 		ldr	r3, [r3, #404]
 831 0034 43F48072 		orr	r2, r3, #256
 832 0038 7B68     		ldr	r3, [r7, #4]
 833 003a C3F89421 		str	r2, [r3, #404]
 494:/home/virusv/usart/Libraries/src/stm32f10x_can.c ****     CANx->sTxMailBox[2].TDTR |= ((uint32_t)CAN_TDT2R_TGT);
 834              		.loc 1 494 0
 835 003e 7B68     		ldr	r3, [r7, #4]
 836 0040 D3F8A431 		ldr	r3, [r3, #420]
 837 0044 43F48072 		orr	r2, r3, #256
 838 0048 7B68     		ldr	r3, [r7, #4]
 839 004a C3F8A421 		str	r2, [r3, #420]
 840 004e 1DE0     		b	.L46
 841              	.L47:
 495:/home/virusv/usart/Libraries/src/stm32f10x_can.c ****   }
 496:/home/virusv/usart/Libraries/src/stm32f10x_can.c ****   else
 497:/home/virusv/usart/Libraries/src/stm32f10x_can.c ****   {
 498:/home/virusv/usart/Libraries/src/stm32f10x_can.c ****     /* Disable the TTCM mode */
 499:/home/virusv/usart/Libraries/src/stm32f10x_can.c ****     CANx->MCR &= (uint32_t)(~(uint32_t)CAN_MCR_TTCM);
 842              		.loc 1 499 0
 843 0050 7B68     		ldr	r3, [r7, #4]
 844 0052 1B68     		ldr	r3, [r3]
 845 0054 23F08002 		bic	r2, r3, #128
 846 0058 7B68     		ldr	r3, [r7, #4]
 847 005a 1A60     		str	r2, [r3]
 500:/home/virusv/usart/Libraries/src/stm32f10x_can.c **** 
 501:/home/virusv/usart/Libraries/src/stm32f10x_can.c ****     /* Reset TGT bits */
 502:/home/virusv/usart/Libraries/src/stm32f10x_can.c ****     CANx->sTxMailBox[0].TDTR &= ((uint32_t)~CAN_TDT0R_TGT);
 848              		.loc 1 502 0
 849 005c 7B68     		ldr	r3, [r7, #4]
 850 005e D3F88431 		ldr	r3, [r3, #388]
 851 0062 23F48072 		bic	r2, r3, #256
 852 0066 7B68     		ldr	r3, [r7, #4]
 853 0068 C3F88421 		str	r2, [r3, #388]
 503:/home/virusv/usart/Libraries/src/stm32f10x_can.c ****     CANx->sTxMailBox[1].TDTR &= ((uint32_t)~CAN_TDT1R_TGT);
 854              		.loc 1 503 0
 855 006c 7B68     		ldr	r3, [r7, #4]
 856 006e D3F89431 		ldr	r3, [r3, #404]
 857 0072 23F48072 		bic	r2, r3, #256
 858 0076 7B68     		ldr	r3, [r7, #4]
 859 0078 C3F89421 		str	r2, [r3, #404]
 504:/home/virusv/usart/Libraries/src/stm32f10x_can.c ****     CANx->sTxMailBox[2].TDTR &= ((uint32_t)~CAN_TDT2R_TGT);
 860              		.loc 1 504 0
 861 007c 7B68     		ldr	r3, [r7, #4]
 862 007e D3F8A431 		ldr	r3, [r3, #420]
 863 0082 23F48072 		bic	r2, r3, #256
 864 0086 7B68     		ldr	r3, [r7, #4]
 865 0088 C3F8A421 		str	r2, [r3, #420]
 866              	.L46:
 505:/home/virusv/usart/Libraries/src/stm32f10x_can.c ****   }
 506:/home/virusv/usart/Libraries/src/stm32f10x_can.c **** }
 867              		.loc 1 506 0
 868 008c 0C37     		adds	r7, r7, #12
 869              		.cfi_def_cfa_offset 4
 870 008e BD46     		mov	sp, r7
 871              		.cfi_def_cfa_register 13
 872              		@ sp needed
 873 0090 5DF8047B 		ldr	r7, [sp], #4
 874              		.cfi_restore 7
 875              		.cfi_def_cfa_offset 0
 876 0094 7047     		bx	lr
 877              		.cfi_endproc
 878              	.LFE35:
 880 0096 00BF     		.section	.text.CAN_Transmit,"ax",%progbits
 881              		.align	2
 882              		.global	CAN_Transmit
 883              		.thumb
 884              		.thumb_func
 886              	CAN_Transmit:
 887              	.LFB36:
 507:/home/virusv/usart/Libraries/src/stm32f10x_can.c **** /**
 508:/home/virusv/usart/Libraries/src/stm32f10x_can.c ****   * @brief  Initiates the transmission of a message.
 509:/home/virusv/usart/Libraries/src/stm32f10x_can.c ****   * @param  CANx:      where x can be 1 or 2 to to select the CAN peripheral.
 510:/home/virusv/usart/Libraries/src/stm32f10x_can.c ****   * @param  TxMessage: pointer to a structure which contains CAN Id, CAN
 511:/home/virusv/usart/Libraries/src/stm32f10x_can.c ****   *                    DLC and CAN data.
 512:/home/virusv/usart/Libraries/src/stm32f10x_can.c ****   * @retval The number of the mailbox that is used for transmission
 513:/home/virusv/usart/Libraries/src/stm32f10x_can.c ****   *                    or CAN_TxStatus_NoMailBox if there is no empty mailbox.
 514:/home/virusv/usart/Libraries/src/stm32f10x_can.c ****   */
 515:/home/virusv/usart/Libraries/src/stm32f10x_can.c **** uint8_t CAN_Transmit(CAN_TypeDef* CANx, CanTxMsg* TxMessage)
 516:/home/virusv/usart/Libraries/src/stm32f10x_can.c **** {
 888              		.loc 1 516 0
 889              		.cfi_startproc
 890              		@ args = 0, pretend = 0, frame = 16
 891              		@ frame_needed = 1, uses_anonymous_args = 0
 892              		@ link register save eliminated.
 893 0000 80B4     		push	{r7}
 894              		.cfi_def_cfa_offset 4
 895              		.cfi_offset 7, -4
 896 0002 85B0     		sub	sp, sp, #20
 897              		.cfi_def_cfa_offset 24
 898 0004 00AF     		add	r7, sp, #0
 899              		.cfi_def_cfa_register 7
 900 0006 7860     		str	r0, [r7, #4]
 901 0008 3960     		str	r1, [r7]
 517:/home/virusv/usart/Libraries/src/stm32f10x_can.c ****   uint8_t transmit_mailbox = 0;
 902              		.loc 1 517 0
 903 000a 0023     		movs	r3, #0
 904 000c FB73     		strb	r3, [r7, #15]
 518:/home/virusv/usart/Libraries/src/stm32f10x_can.c ****   /* Check the parameters */
 519:/home/virusv/usart/Libraries/src/stm32f10x_can.c ****   assert_param(IS_CAN_ALL_PERIPH(CANx));
 520:/home/virusv/usart/Libraries/src/stm32f10x_can.c ****   assert_param(IS_CAN_IDTYPE(TxMessage->IDE));
 521:/home/virusv/usart/Libraries/src/stm32f10x_can.c ****   assert_param(IS_CAN_RTR(TxMessage->RTR));
 522:/home/virusv/usart/Libraries/src/stm32f10x_can.c ****   assert_param(IS_CAN_DLC(TxMessage->DLC));
 523:/home/virusv/usart/Libraries/src/stm32f10x_can.c **** 
 524:/home/virusv/usart/Libraries/src/stm32f10x_can.c ****   /* Select one empty transmit mailbox */
 525:/home/virusv/usart/Libraries/src/stm32f10x_can.c ****   if ((CANx->TSR&CAN_TSR_TME0) == CAN_TSR_TME0)
 905              		.loc 1 525 0
 906 000e 7B68     		ldr	r3, [r7, #4]
 907 0010 9B68     		ldr	r3, [r3, #8]
 908 0012 03F08063 		and	r3, r3, #67108864
 909 0016 002B     		cmp	r3, #0
 910 0018 02D0     		beq	.L50
 526:/home/virusv/usart/Libraries/src/stm32f10x_can.c ****   {
 527:/home/virusv/usart/Libraries/src/stm32f10x_can.c ****     transmit_mailbox = 0;
 911              		.loc 1 527 0
 912 001a 0023     		movs	r3, #0
 913 001c FB73     		strb	r3, [r7, #15]
 914 001e 13E0     		b	.L51
 915              	.L50:
 528:/home/virusv/usart/Libraries/src/stm32f10x_can.c ****   }
 529:/home/virusv/usart/Libraries/src/stm32f10x_can.c ****   else if ((CANx->TSR&CAN_TSR_TME1) == CAN_TSR_TME1)
 916              		.loc 1 529 0
 917 0020 7B68     		ldr	r3, [r7, #4]
 918 0022 9B68     		ldr	r3, [r3, #8]
 919 0024 03F00063 		and	r3, r3, #134217728
 920 0028 002B     		cmp	r3, #0
 921 002a 02D0     		beq	.L52
 530:/home/virusv/usart/Libraries/src/stm32f10x_can.c ****   {
 531:/home/virusv/usart/Libraries/src/stm32f10x_can.c ****     transmit_mailbox = 1;
 922              		.loc 1 531 0
 923 002c 0123     		movs	r3, #1
 924 002e FB73     		strb	r3, [r7, #15]
 925 0030 0AE0     		b	.L51
 926              	.L52:
 532:/home/virusv/usart/Libraries/src/stm32f10x_can.c ****   }
 533:/home/virusv/usart/Libraries/src/stm32f10x_can.c ****   else if ((CANx->TSR&CAN_TSR_TME2) == CAN_TSR_TME2)
 927              		.loc 1 533 0
 928 0032 7B68     		ldr	r3, [r7, #4]
 929 0034 9B68     		ldr	r3, [r3, #8]
 930 0036 03F08053 		and	r3, r3, #268435456
 931 003a 002B     		cmp	r3, #0
 932 003c 02D0     		beq	.L53
 534:/home/virusv/usart/Libraries/src/stm32f10x_can.c ****   {
 535:/home/virusv/usart/Libraries/src/stm32f10x_can.c ****     transmit_mailbox = 2;
 933              		.loc 1 535 0
 934 003e 0223     		movs	r3, #2
 935 0040 FB73     		strb	r3, [r7, #15]
 936 0042 01E0     		b	.L51
 937              	.L53:
 536:/home/virusv/usart/Libraries/src/stm32f10x_can.c ****   }
 537:/home/virusv/usart/Libraries/src/stm32f10x_can.c ****   else
 538:/home/virusv/usart/Libraries/src/stm32f10x_can.c ****   {
 539:/home/virusv/usart/Libraries/src/stm32f10x_can.c ****     transmit_mailbox = CAN_TxStatus_NoMailBox;
 938              		.loc 1 539 0
 939 0044 0423     		movs	r3, #4
 940 0046 FB73     		strb	r3, [r7, #15]
 941              	.L51:
 540:/home/virusv/usart/Libraries/src/stm32f10x_can.c ****   }
 541:/home/virusv/usart/Libraries/src/stm32f10x_can.c **** 
 542:/home/virusv/usart/Libraries/src/stm32f10x_can.c ****   if (transmit_mailbox != CAN_TxStatus_NoMailBox)
 942              		.loc 1 542 0
 943 0048 FB7B     		ldrb	r3, [r7, #15]	@ zero_extendqisi2
 944 004a 042B     		cmp	r3, #4
 945 004c 00F09880 		beq	.L54
 543:/home/virusv/usart/Libraries/src/stm32f10x_can.c ****   {
 544:/home/virusv/usart/Libraries/src/stm32f10x_can.c ****     /* Set up the Id */
 545:/home/virusv/usart/Libraries/src/stm32f10x_can.c ****     CANx->sTxMailBox[transmit_mailbox].TIR &= TMIDxR_TXRQ;
 946              		.loc 1 545 0
 947 0050 FB7B     		ldrb	r3, [r7, #15]	@ zero_extendqisi2
 948 0052 FA7B     		ldrb	r2, [r7, #15]	@ zero_extendqisi2
 949 0054 7968     		ldr	r1, [r7, #4]
 950 0056 1832     		adds	r2, r2, #24
 951 0058 1201     		lsls	r2, r2, #4
 952 005a 0A44     		add	r2, r2, r1
 953 005c 1268     		ldr	r2, [r2]
 954 005e 02F00102 		and	r2, r2, #1
 955 0062 7968     		ldr	r1, [r7, #4]
 956 0064 1833     		adds	r3, r3, #24
 957 0066 1B01     		lsls	r3, r3, #4
 958 0068 0B44     		add	r3, r3, r1
 959 006a 1A60     		str	r2, [r3]
 546:/home/virusv/usart/Libraries/src/stm32f10x_can.c ****     if (TxMessage->IDE == CAN_Id_Standard)
 960              		.loc 1 546 0
 961 006c 3B68     		ldr	r3, [r7]
 962 006e 1B7A     		ldrb	r3, [r3, #8]	@ zero_extendqisi2
 963 0070 002B     		cmp	r3, #0
 964 0072 13D1     		bne	.L55
 547:/home/virusv/usart/Libraries/src/stm32f10x_can.c ****     {
 548:/home/virusv/usart/Libraries/src/stm32f10x_can.c ****       assert_param(IS_CAN_STDID(TxMessage->StdId));  
 549:/home/virusv/usart/Libraries/src/stm32f10x_can.c ****       CANx->sTxMailBox[transmit_mailbox].TIR |= ((TxMessage->StdId << 21) | \
 965              		.loc 1 549 0
 966 0074 FB7B     		ldrb	r3, [r7, #15]	@ zero_extendqisi2
 967 0076 FA7B     		ldrb	r2, [r7, #15]	@ zero_extendqisi2
 968 0078 7968     		ldr	r1, [r7, #4]
 969 007a 1832     		adds	r2, r2, #24
 970 007c 1201     		lsls	r2, r2, #4
 971 007e 0A44     		add	r2, r2, r1
 972 0080 1168     		ldr	r1, [r2]
 973 0082 3A68     		ldr	r2, [r7]
 974 0084 1268     		ldr	r2, [r2]
 975 0086 5205     		lsls	r2, r2, #21
 550:/home/virusv/usart/Libraries/src/stm32f10x_can.c ****                                                   TxMessage->RTR);
 976              		.loc 1 550 0
 977 0088 3868     		ldr	r0, [r7]
 978 008a 407A     		ldrb	r0, [r0, #9]	@ zero_extendqisi2
 549:/home/virusv/usart/Libraries/src/stm32f10x_can.c ****                                                   TxMessage->RTR);
 979              		.loc 1 549 0
 980 008c 0243     		orrs	r2, r2, r0
 981 008e 0A43     		orrs	r2, r2, r1
 982 0090 7968     		ldr	r1, [r7, #4]
 983 0092 1833     		adds	r3, r3, #24
 984 0094 1B01     		lsls	r3, r3, #4
 985 0096 0B44     		add	r3, r3, r1
 986 0098 1A60     		str	r2, [r3]
 987 009a 15E0     		b	.L56
 988              	.L55:
 551:/home/virusv/usart/Libraries/src/stm32f10x_can.c ****     }
 552:/home/virusv/usart/Libraries/src/stm32f10x_can.c ****     else
 553:/home/virusv/usart/Libraries/src/stm32f10x_can.c ****     {
 554:/home/virusv/usart/Libraries/src/stm32f10x_can.c ****       assert_param(IS_CAN_EXTID(TxMessage->ExtId));
 555:/home/virusv/usart/Libraries/src/stm32f10x_can.c ****       CANx->sTxMailBox[transmit_mailbox].TIR |= ((TxMessage->ExtId << 3) | \
 989              		.loc 1 555 0
 990 009c FB7B     		ldrb	r3, [r7, #15]	@ zero_extendqisi2
 991 009e FA7B     		ldrb	r2, [r7, #15]	@ zero_extendqisi2
 992 00a0 7968     		ldr	r1, [r7, #4]
 993 00a2 1832     		adds	r2, r2, #24
 994 00a4 1201     		lsls	r2, r2, #4
 995 00a6 0A44     		add	r2, r2, r1
 996 00a8 1168     		ldr	r1, [r2]
 997 00aa 3A68     		ldr	r2, [r7]
 998 00ac 5268     		ldr	r2, [r2, #4]
 999 00ae D200     		lsls	r2, r2, #3
 556:/home/virusv/usart/Libraries/src/stm32f10x_can.c ****                                                   TxMessage->IDE | \
 1000              		.loc 1 556 0
 1001 00b0 3868     		ldr	r0, [r7]
 1002 00b2 007A     		ldrb	r0, [r0, #8]	@ zero_extendqisi2
 555:/home/virusv/usart/Libraries/src/stm32f10x_can.c ****                                                   TxMessage->IDE | \
 1003              		.loc 1 555 0
 1004 00b4 0243     		orrs	r2, r2, r0
 557:/home/virusv/usart/Libraries/src/stm32f10x_can.c ****                                                   TxMessage->RTR);
 1005              		.loc 1 557 0
 1006 00b6 3868     		ldr	r0, [r7]
 1007 00b8 407A     		ldrb	r0, [r0, #9]	@ zero_extendqisi2
 556:/home/virusv/usart/Libraries/src/stm32f10x_can.c ****                                                   TxMessage->IDE | \
 1008              		.loc 1 556 0
 1009 00ba 0243     		orrs	r2, r2, r0
 555:/home/virusv/usart/Libraries/src/stm32f10x_can.c ****                                                   TxMessage->IDE | \
 1010              		.loc 1 555 0
 1011 00bc 0A43     		orrs	r2, r2, r1
 1012 00be 7968     		ldr	r1, [r7, #4]
 1013 00c0 1833     		adds	r3, r3, #24
 1014 00c2 1B01     		lsls	r3, r3, #4
 1015 00c4 0B44     		add	r3, r3, r1
 1016 00c6 1A60     		str	r2, [r3]
 1017              	.L56:
 558:/home/virusv/usart/Libraries/src/stm32f10x_can.c ****     }
 559:/home/virusv/usart/Libraries/src/stm32f10x_can.c ****     
 560:/home/virusv/usart/Libraries/src/stm32f10x_can.c ****     /* Set up the DLC */
 561:/home/virusv/usart/Libraries/src/stm32f10x_can.c ****     TxMessage->DLC &= (uint8_t)0x0000000F;
 1018              		.loc 1 561 0
 1019 00c8 3B68     		ldr	r3, [r7]
 1020 00ca 9B7A     		ldrb	r3, [r3, #10]	@ zero_extendqisi2
 1021 00cc 03F00F03 		and	r3, r3, #15
 1022 00d0 DAB2     		uxtb	r2, r3
 1023 00d2 3B68     		ldr	r3, [r7]
 1024 00d4 9A72     		strb	r2, [r3, #10]
 562:/home/virusv/usart/Libraries/src/stm32f10x_can.c ****     CANx->sTxMailBox[transmit_mailbox].TDTR &= (uint32_t)0xFFFFFFF0;
 1025              		.loc 1 562 0
 1026 00d6 FB7B     		ldrb	r3, [r7, #15]	@ zero_extendqisi2
 1027 00d8 FA7B     		ldrb	r2, [r7, #15]	@ zero_extendqisi2
 1028 00da 7968     		ldr	r1, [r7, #4]
 1029 00dc 1832     		adds	r2, r2, #24
 1030 00de 1201     		lsls	r2, r2, #4
 1031 00e0 0A44     		add	r2, r2, r1
 1032 00e2 5268     		ldr	r2, [r2, #4]
 1033 00e4 22F00F02 		bic	r2, r2, #15
 1034 00e8 7968     		ldr	r1, [r7, #4]
 1035 00ea 1833     		adds	r3, r3, #24
 1036 00ec 1B01     		lsls	r3, r3, #4
 1037 00ee 0B44     		add	r3, r3, r1
 1038 00f0 5A60     		str	r2, [r3, #4]
 563:/home/virusv/usart/Libraries/src/stm32f10x_can.c ****     CANx->sTxMailBox[transmit_mailbox].TDTR |= TxMessage->DLC;
 1039              		.loc 1 563 0
 1040 00f2 FB7B     		ldrb	r3, [r7, #15]	@ zero_extendqisi2
 1041 00f4 FA7B     		ldrb	r2, [r7, #15]	@ zero_extendqisi2
 1042 00f6 7968     		ldr	r1, [r7, #4]
 1043 00f8 1832     		adds	r2, r2, #24
 1044 00fa 1201     		lsls	r2, r2, #4
 1045 00fc 0A44     		add	r2, r2, r1
 1046 00fe 5268     		ldr	r2, [r2, #4]
 1047 0100 3968     		ldr	r1, [r7]
 1048 0102 897A     		ldrb	r1, [r1, #10]	@ zero_extendqisi2
 1049 0104 0A43     		orrs	r2, r2, r1
 1050 0106 7968     		ldr	r1, [r7, #4]
 1051 0108 1833     		adds	r3, r3, #24
 1052 010a 1B01     		lsls	r3, r3, #4
 1053 010c 0B44     		add	r3, r3, r1
 1054 010e 5A60     		str	r2, [r3, #4]
 564:/home/virusv/usart/Libraries/src/stm32f10x_can.c **** 
 565:/home/virusv/usart/Libraries/src/stm32f10x_can.c ****     /* Set up the data field */
 566:/home/virusv/usart/Libraries/src/stm32f10x_can.c ****     CANx->sTxMailBox[transmit_mailbox].TDLR = (((uint32_t)TxMessage->Data[3] << 24) | 
 1055              		.loc 1 566 0
 1056 0110 FB7B     		ldrb	r3, [r7, #15]	@ zero_extendqisi2
 1057 0112 3A68     		ldr	r2, [r7]
 1058 0114 927B     		ldrb	r2, [r2, #14]	@ zero_extendqisi2
 1059 0116 1106     		lsls	r1, r2, #24
 567:/home/virusv/usart/Libraries/src/stm32f10x_can.c ****                                              ((uint32_t)TxMessage->Data[2] << 16) |
 1060              		.loc 1 567 0
 1061 0118 3A68     		ldr	r2, [r7]
 1062 011a 527B     		ldrb	r2, [r2, #13]	@ zero_extendqisi2
 1063 011c 1204     		lsls	r2, r2, #16
 566:/home/virusv/usart/Libraries/src/stm32f10x_can.c ****                                              ((uint32_t)TxMessage->Data[2] << 16) |
 1064              		.loc 1 566 0
 1065 011e 1143     		orrs	r1, r1, r2
 568:/home/virusv/usart/Libraries/src/stm32f10x_can.c ****                                              ((uint32_t)TxMessage->Data[1] << 8) | 
 1066              		.loc 1 568 0
 1067 0120 3A68     		ldr	r2, [r7]
 1068 0122 127B     		ldrb	r2, [r2, #12]	@ zero_extendqisi2
 1069 0124 1202     		lsls	r2, r2, #8
 567:/home/virusv/usart/Libraries/src/stm32f10x_can.c ****                                              ((uint32_t)TxMessage->Data[2] << 16) |
 1070              		.loc 1 567 0
 1071 0126 0A43     		orrs	r2, r2, r1
 569:/home/virusv/usart/Libraries/src/stm32f10x_can.c ****                                              ((uint32_t)TxMessage->Data[0]));
 1072              		.loc 1 569 0
 1073 0128 3968     		ldr	r1, [r7]
 1074 012a C97A     		ldrb	r1, [r1, #11]	@ zero_extendqisi2
 568:/home/virusv/usart/Libraries/src/stm32f10x_can.c ****                                              ((uint32_t)TxMessage->Data[1] << 8) | 
 1075              		.loc 1 568 0
 1076 012c 0A43     		orrs	r2, r2, r1
 566:/home/virusv/usart/Libraries/src/stm32f10x_can.c ****                                              ((uint32_t)TxMessage->Data[2] << 16) |
 1077              		.loc 1 566 0
 1078 012e 7968     		ldr	r1, [r7, #4]
 1079 0130 1B01     		lsls	r3, r3, #4
 1080 0132 0B44     		add	r3, r3, r1
 1081 0134 03F5C473 		add	r3, r3, #392
 1082 0138 1A60     		str	r2, [r3]
 570:/home/virusv/usart/Libraries/src/stm32f10x_can.c ****     CANx->sTxMailBox[transmit_mailbox].TDHR = (((uint32_t)TxMessage->Data[7] << 24) | 
 1083              		.loc 1 570 0
 1084 013a FB7B     		ldrb	r3, [r7, #15]	@ zero_extendqisi2
 1085 013c 3A68     		ldr	r2, [r7]
 1086 013e 927C     		ldrb	r2, [r2, #18]	@ zero_extendqisi2
 1087 0140 1106     		lsls	r1, r2, #24
 571:/home/virusv/usart/Libraries/src/stm32f10x_can.c ****                                              ((uint32_t)TxMessage->Data[6] << 16) |
 1088              		.loc 1 571 0
 1089 0142 3A68     		ldr	r2, [r7]
 1090 0144 527C     		ldrb	r2, [r2, #17]	@ zero_extendqisi2
 1091 0146 1204     		lsls	r2, r2, #16
 570:/home/virusv/usart/Libraries/src/stm32f10x_can.c ****     CANx->sTxMailBox[transmit_mailbox].TDHR = (((uint32_t)TxMessage->Data[7] << 24) | 
 1092              		.loc 1 570 0
 1093 0148 1143     		orrs	r1, r1, r2
 572:/home/virusv/usart/Libraries/src/stm32f10x_can.c ****                                              ((uint32_t)TxMessage->Data[5] << 8) |
 1094              		.loc 1 572 0
 1095 014a 3A68     		ldr	r2, [r7]
 1096 014c 127C     		ldrb	r2, [r2, #16]	@ zero_extendqisi2
 1097 014e 1202     		lsls	r2, r2, #8
 571:/home/virusv/usart/Libraries/src/stm32f10x_can.c ****                                              ((uint32_t)TxMessage->Data[6] << 16) |
 1098              		.loc 1 571 0
 1099 0150 0A43     		orrs	r2, r2, r1
 573:/home/virusv/usart/Libraries/src/stm32f10x_can.c ****                                              ((uint32_t)TxMessage->Data[4]));
 1100              		.loc 1 573 0
 1101 0152 3968     		ldr	r1, [r7]
 1102 0154 C97B     		ldrb	r1, [r1, #15]	@ zero_extendqisi2
 572:/home/virusv/usart/Libraries/src/stm32f10x_can.c ****                                              ((uint32_t)TxMessage->Data[5] << 8) |
 1103              		.loc 1 572 0
 1104 0156 0A43     		orrs	r2, r2, r1
 570:/home/virusv/usart/Libraries/src/stm32f10x_can.c ****                                              ((uint32_t)TxMessage->Data[6] << 16) |
 1105              		.loc 1 570 0
 1106 0158 7968     		ldr	r1, [r7, #4]
 1107 015a 1B01     		lsls	r3, r3, #4
 1108 015c 0B44     		add	r3, r3, r1
 1109 015e 03F5C473 		add	r3, r3, #392
 1110 0162 5A60     		str	r2, [r3, #4]
 574:/home/virusv/usart/Libraries/src/stm32f10x_can.c ****     /* Request transmission */
 575:/home/virusv/usart/Libraries/src/stm32f10x_can.c ****     CANx->sTxMailBox[transmit_mailbox].TIR |= TMIDxR_TXRQ;
 1111              		.loc 1 575 0
 1112 0164 FB7B     		ldrb	r3, [r7, #15]	@ zero_extendqisi2
 1113 0166 FA7B     		ldrb	r2, [r7, #15]	@ zero_extendqisi2
 1114 0168 7968     		ldr	r1, [r7, #4]
 1115 016a 1832     		adds	r2, r2, #24
 1116 016c 1201     		lsls	r2, r2, #4
 1117 016e 0A44     		add	r2, r2, r1
 1118 0170 1268     		ldr	r2, [r2]
 1119 0172 42F00102 		orr	r2, r2, #1
 1120 0176 7968     		ldr	r1, [r7, #4]
 1121 0178 1833     		adds	r3, r3, #24
 1122 017a 1B01     		lsls	r3, r3, #4
 1123 017c 0B44     		add	r3, r3, r1
 1124 017e 1A60     		str	r2, [r3]
 1125              	.L54:
 576:/home/virusv/usart/Libraries/src/stm32f10x_can.c ****   }
 577:/home/virusv/usart/Libraries/src/stm32f10x_can.c ****   return transmit_mailbox;
 1126              		.loc 1 577 0
 1127 0180 FB7B     		ldrb	r3, [r7, #15]	@ zero_extendqisi2
 578:/home/virusv/usart/Libraries/src/stm32f10x_can.c **** }
 1128              		.loc 1 578 0
 1129 0182 1846     		mov	r0, r3
 1130 0184 1437     		adds	r7, r7, #20
 1131              		.cfi_def_cfa_offset 4
 1132 0186 BD46     		mov	sp, r7
 1133              		.cfi_def_cfa_register 13
 1134              		@ sp needed
 1135 0188 5DF8047B 		ldr	r7, [sp], #4
 1136              		.cfi_restore 7
 1137              		.cfi_def_cfa_offset 0
 1138 018c 7047     		bx	lr
 1139              		.cfi_endproc
 1140              	.LFE36:
 1142 018e 00BF     		.section	.text.CAN_TransmitStatus,"ax",%progbits
 1143              		.align	2
 1144              		.global	CAN_TransmitStatus
 1145              		.thumb
 1146              		.thumb_func
 1148              	CAN_TransmitStatus:
 1149              	.LFB37:
 579:/home/virusv/usart/Libraries/src/stm32f10x_can.c **** 
 580:/home/virusv/usart/Libraries/src/stm32f10x_can.c **** /**
 581:/home/virusv/usart/Libraries/src/stm32f10x_can.c ****   * @brief  Checks the transmission of a message.
 582:/home/virusv/usart/Libraries/src/stm32f10x_can.c ****   * @param  CANx:            where x can be 1 or 2 to to select the 
 583:/home/virusv/usart/Libraries/src/stm32f10x_can.c ****   *                          CAN peripheral.
 584:/home/virusv/usart/Libraries/src/stm32f10x_can.c ****   * @param  TransmitMailbox: the number of the mailbox that is used for 
 585:/home/virusv/usart/Libraries/src/stm32f10x_can.c ****   *                          transmission.
 586:/home/virusv/usart/Libraries/src/stm32f10x_can.c ****   * @retval CAN_TxStatus_Ok if the CAN driver transmits the message, CAN_TxStatus_Failed 
 587:/home/virusv/usart/Libraries/src/stm32f10x_can.c ****   *         in an other case.
 588:/home/virusv/usart/Libraries/src/stm32f10x_can.c ****   */
 589:/home/virusv/usart/Libraries/src/stm32f10x_can.c **** uint8_t CAN_TransmitStatus(CAN_TypeDef* CANx, uint8_t TransmitMailbox)
 590:/home/virusv/usart/Libraries/src/stm32f10x_can.c **** {
 1150              		.loc 1 590 0
 1151              		.cfi_startproc
 1152              		@ args = 0, pretend = 0, frame = 16
 1153              		@ frame_needed = 1, uses_anonymous_args = 0
 1154              		@ link register save eliminated.
 1155 0000 80B4     		push	{r7}
 1156              		.cfi_def_cfa_offset 4
 1157              		.cfi_offset 7, -4
 1158 0002 85B0     		sub	sp, sp, #20
 1159              		.cfi_def_cfa_offset 24
 1160 0004 00AF     		add	r7, sp, #0
 1161              		.cfi_def_cfa_register 7
 1162 0006 7860     		str	r0, [r7, #4]
 1163 0008 0B46     		mov	r3, r1
 1164 000a FB70     		strb	r3, [r7, #3]
 591:/home/virusv/usart/Libraries/src/stm32f10x_can.c ****   uint32_t state = 0;
 1165              		.loc 1 591 0
 1166 000c 0023     		movs	r3, #0
 1167 000e FB60     		str	r3, [r7, #12]
 592:/home/virusv/usart/Libraries/src/stm32f10x_can.c **** 
 593:/home/virusv/usart/Libraries/src/stm32f10x_can.c ****   /* Check the parameters */
 594:/home/virusv/usart/Libraries/src/stm32f10x_can.c ****   assert_param(IS_CAN_ALL_PERIPH(CANx));
 595:/home/virusv/usart/Libraries/src/stm32f10x_can.c ****   assert_param(IS_CAN_TRANSMITMAILBOX(TransmitMailbox));
 596:/home/virusv/usart/Libraries/src/stm32f10x_can.c ****  
 597:/home/virusv/usart/Libraries/src/stm32f10x_can.c ****   switch (TransmitMailbox)
 1168              		.loc 1 597 0
 1169 0010 FB78     		ldrb	r3, [r7, #3]	@ zero_extendqisi2
 1170 0012 012B     		cmp	r3, #1
 1171 0014 09D0     		beq	.L60
 1172 0016 022B     		cmp	r3, #2
 1173 0018 0DD0     		beq	.L61
 1174 001a 002B     		cmp	r3, #0
 1175 001c 11D1     		bne	.L75
 598:/home/virusv/usart/Libraries/src/stm32f10x_can.c ****   {
 599:/home/virusv/usart/Libraries/src/stm32f10x_can.c ****     case (CAN_TXMAILBOX_0): 
 600:/home/virusv/usart/Libraries/src/stm32f10x_can.c ****       state =   CANx->TSR &  (CAN_TSR_RQCP0 | CAN_TSR_TXOK0 | CAN_TSR_TME0);
 1176              		.loc 1 600 0
 1177 001e 7B68     		ldr	r3, [r7, #4]
 1178 0020 9A68     		ldr	r2, [r3, #8]
 1179 0022 264B     		ldr	r3, .L76
 1180 0024 1340     		ands	r3, r3, r2
 1181 0026 FB60     		str	r3, [r7, #12]
 601:/home/virusv/usart/Libraries/src/stm32f10x_can.c ****       break;
 1182              		.loc 1 601 0
 1183 0028 0EE0     		b	.L63
 1184              	.L60:
 602:/home/virusv/usart/Libraries/src/stm32f10x_can.c ****     case (CAN_TXMAILBOX_1): 
 603:/home/virusv/usart/Libraries/src/stm32f10x_can.c ****       state =   CANx->TSR &  (CAN_TSR_RQCP1 | CAN_TSR_TXOK1 | CAN_TSR_TME1);
 1185              		.loc 1 603 0
 1186 002a 7B68     		ldr	r3, [r7, #4]
 1187 002c 9A68     		ldr	r2, [r3, #8]
 1188 002e 244B     		ldr	r3, .L76+4
 1189 0030 1340     		ands	r3, r3, r2
 1190 0032 FB60     		str	r3, [r7, #12]
 604:/home/virusv/usart/Libraries/src/stm32f10x_can.c ****       break;
 1191              		.loc 1 604 0
 1192 0034 08E0     		b	.L63
 1193              	.L61:
 605:/home/virusv/usart/Libraries/src/stm32f10x_can.c ****     case (CAN_TXMAILBOX_2): 
 606:/home/virusv/usart/Libraries/src/stm32f10x_can.c ****       state =   CANx->TSR &  (CAN_TSR_RQCP2 | CAN_TSR_TXOK2 | CAN_TSR_TME2);
 1194              		.loc 1 606 0
 1195 0036 7B68     		ldr	r3, [r7, #4]
 1196 0038 9A68     		ldr	r2, [r3, #8]
 1197 003a 224B     		ldr	r3, .L76+8
 1198 003c 1340     		ands	r3, r3, r2
 1199 003e FB60     		str	r3, [r7, #12]
 607:/home/virusv/usart/Libraries/src/stm32f10x_can.c ****       break;
 1200              		.loc 1 607 0
 1201 0040 02E0     		b	.L63
 1202              	.L75:
 608:/home/virusv/usart/Libraries/src/stm32f10x_can.c ****     default:
 609:/home/virusv/usart/Libraries/src/stm32f10x_can.c ****       state = CAN_TxStatus_Failed;
 1203              		.loc 1 609 0
 1204 0042 0023     		movs	r3, #0
 1205 0044 FB60     		str	r3, [r7, #12]
 610:/home/virusv/usart/Libraries/src/stm32f10x_can.c ****       break;
 1206              		.loc 1 610 0
 1207 0046 00BF     		nop
 1208              	.L63:
 611:/home/virusv/usart/Libraries/src/stm32f10x_can.c ****   }
 612:/home/virusv/usart/Libraries/src/stm32f10x_can.c ****   switch (state)
 1209              		.loc 1 612 0
 1210 0048 FB68     		ldr	r3, [r7, #12]
 1211 004a 1F4A     		ldr	r2, .L76+12
 1212 004c 9342     		cmp	r3, r2
 1213 004e 1BD0     		beq	.L65
 1214 0050 1D4A     		ldr	r2, .L76+12
 1215 0052 9342     		cmp	r3, r2
 1216 0054 08D8     		bhi	.L66
 1217 0056 1D4A     		ldr	r2, .L76+16
 1218 0058 9342     		cmp	r3, r2
 1219 005a 12D0     		beq	.L67
 1220 005c 174A     		ldr	r2, .L76
 1221 005e 9342     		cmp	r3, r2
 1222 0060 18D0     		beq	.L68
 1223 0062 002B     		cmp	r3, #0
 1224 0064 0AD0     		beq	.L69
 1225 0066 1EE0     		b	.L64
 1226              	.L66:
 1227 0068 194A     		ldr	r2, .L76+20
 1228 006a 9342     		cmp	r3, r2
 1229 006c 0FD0     		beq	.L70
 1230 006e 154A     		ldr	r2, .L76+8
 1231 0070 9342     		cmp	r3, r2
 1232 0072 15D0     		beq	.L71
 1233 0074 124A     		ldr	r2, .L76+4
 1234 0076 9342     		cmp	r3, r2
 1235 0078 0FD0     		beq	.L72
 1236 007a 14E0     		b	.L64
 1237              	.L69:
 613:/home/virusv/usart/Libraries/src/stm32f10x_can.c ****   {
 614:/home/virusv/usart/Libraries/src/stm32f10x_can.c ****       /* transmit pending  */
 615:/home/virusv/usart/Libraries/src/stm32f10x_can.c ****     case (0x0): state = CAN_TxStatus_Pending;
 1238              		.loc 1 615 0
 1239 007c 0223     		movs	r3, #2
 1240 007e FB60     		str	r3, [r7, #12]
 616:/home/virusv/usart/Libraries/src/stm32f10x_can.c ****       break;
 1241              		.loc 1 616 0
 1242 0080 14E0     		b	.L73
 1243              	.L67:
 617:/home/virusv/usart/Libraries/src/stm32f10x_can.c ****       /* transmit failed  */
 618:/home/virusv/usart/Libraries/src/stm32f10x_can.c ****      case (CAN_TSR_RQCP0 | CAN_TSR_TME0): state = CAN_TxStatus_Failed;
 1244              		.loc 1 618 0
 1245 0082 0023     		movs	r3, #0
 1246 0084 FB60     		str	r3, [r7, #12]
 619:/home/virusv/usart/Libraries/src/stm32f10x_can.c ****       break;
 1247              		.loc 1 619 0
 1248 0086 11E0     		b	.L73
 1249              	.L65:
 620:/home/virusv/usart/Libraries/src/stm32f10x_can.c ****      case (CAN_TSR_RQCP1 | CAN_TSR_TME1): state = CAN_TxStatus_Failed;
 1250              		.loc 1 620 0
 1251 0088 0023     		movs	r3, #0
 1252 008a FB60     		str	r3, [r7, #12]
 621:/home/virusv/usart/Libraries/src/stm32f10x_can.c ****       break;
 1253              		.loc 1 621 0
 1254 008c 0EE0     		b	.L73
 1255              	.L70:
 622:/home/virusv/usart/Libraries/src/stm32f10x_can.c ****      case (CAN_TSR_RQCP2 | CAN_TSR_TME2): state = CAN_TxStatus_Failed;
 1256              		.loc 1 622 0
 1257 008e 0023     		movs	r3, #0
 1258 0090 FB60     		str	r3, [r7, #12]
 623:/home/virusv/usart/Libraries/src/stm32f10x_can.c ****       break;
 1259              		.loc 1 623 0
 1260 0092 0BE0     		b	.L73
 1261              	.L68:
 624:/home/virusv/usart/Libraries/src/stm32f10x_can.c ****       /* transmit succeeded  */
 625:/home/virusv/usart/Libraries/src/stm32f10x_can.c ****     case (CAN_TSR_RQCP0 | CAN_TSR_TXOK0 | CAN_TSR_TME0):state = CAN_TxStatus_Ok;
 1262              		.loc 1 625 0
 1263 0094 0123     		movs	r3, #1
 1264 0096 FB60     		str	r3, [r7, #12]
 626:/home/virusv/usart/Libraries/src/stm32f10x_can.c ****       break;
 1265              		.loc 1 626 0
 1266 0098 08E0     		b	.L73
 1267              	.L72:
 627:/home/virusv/usart/Libraries/src/stm32f10x_can.c ****     case (CAN_TSR_RQCP1 | CAN_TSR_TXOK1 | CAN_TSR_TME1):state = CAN_TxStatus_Ok;
 1268              		.loc 1 627 0
 1269 009a 0123     		movs	r3, #1
 1270 009c FB60     		str	r3, [r7, #12]
 628:/home/virusv/usart/Libraries/src/stm32f10x_can.c ****       break;
 1271              		.loc 1 628 0
 1272 009e 05E0     		b	.L73
 1273              	.L71:
 629:/home/virusv/usart/Libraries/src/stm32f10x_can.c ****     case (CAN_TSR_RQCP2 | CAN_TSR_TXOK2 | CAN_TSR_TME2):state = CAN_TxStatus_Ok;
 1274              		.loc 1 629 0
 1275 00a0 0123     		movs	r3, #1
 1276 00a2 FB60     		str	r3, [r7, #12]
 630:/home/virusv/usart/Libraries/src/stm32f10x_can.c ****       break;
 1277              		.loc 1 630 0
 1278 00a4 02E0     		b	.L73
 1279              	.L64:
 631:/home/virusv/usart/Libraries/src/stm32f10x_can.c ****     default: state = CAN_TxStatus_Failed;
 1280              		.loc 1 631 0
 1281 00a6 0023     		movs	r3, #0
 1282 00a8 FB60     		str	r3, [r7, #12]
 632:/home/virusv/usart/Libraries/src/stm32f10x_can.c ****       break;
 1283              		.loc 1 632 0
 1284 00aa 00BF     		nop
 1285              	.L73:
 633:/home/virusv/usart/Libraries/src/stm32f10x_can.c ****   }
 634:/home/virusv/usart/Libraries/src/stm32f10x_can.c ****   return (uint8_t) state;
 1286              		.loc 1 634 0
 1287 00ac FB68     		ldr	r3, [r7, #12]
 1288 00ae DBB2     		uxtb	r3, r3
 635:/home/virusv/usart/Libraries/src/stm32f10x_can.c **** }
 1289              		.loc 1 635 0
 1290 00b0 1846     		mov	r0, r3
 1291 00b2 1437     		adds	r7, r7, #20
 1292              		.cfi_def_cfa_offset 4
 1293 00b4 BD46     		mov	sp, r7
 1294              		.cfi_def_cfa_register 13
 1295              		@ sp needed
 1296 00b6 5DF8047B 		ldr	r7, [sp], #4
 1297              		.cfi_restore 7
 1298              		.cfi_def_cfa_offset 0
 1299 00ba 7047     		bx	lr
 1300              	.L77:
 1301              		.align	2
 1302              	.L76:
 1303 00bc 03000004 		.word	67108867
 1304 00c0 00030008 		.word	134218496
 1305 00c4 00000310 		.word	268632064
 1306 00c8 00010008 		.word	134217984
 1307 00cc 01000004 		.word	67108865
 1308 00d0 00000110 		.word	268500992
 1309              		.cfi_endproc
 1310              	.LFE37:
 1312              		.section	.text.CAN_CancelTransmit,"ax",%progbits
 1313              		.align	2
 1314              		.global	CAN_CancelTransmit
 1315              		.thumb
 1316              		.thumb_func
 1318              	CAN_CancelTransmit:
 1319              	.LFB38:
 636:/home/virusv/usart/Libraries/src/stm32f10x_can.c **** 
 637:/home/virusv/usart/Libraries/src/stm32f10x_can.c **** /**
 638:/home/virusv/usart/Libraries/src/stm32f10x_can.c ****   * @brief  Cancels a transmit request.
 639:/home/virusv/usart/Libraries/src/stm32f10x_can.c ****   * @param  CANx:     where x can be 1 or 2 to to select the CAN peripheral. 
 640:/home/virusv/usart/Libraries/src/stm32f10x_can.c ****   * @param  Mailbox:  Mailbox number.
 641:/home/virusv/usart/Libraries/src/stm32f10x_can.c ****   * @retval None.
 642:/home/virusv/usart/Libraries/src/stm32f10x_can.c ****   */
 643:/home/virusv/usart/Libraries/src/stm32f10x_can.c **** void CAN_CancelTransmit(CAN_TypeDef* CANx, uint8_t Mailbox)
 644:/home/virusv/usart/Libraries/src/stm32f10x_can.c **** {
 1320              		.loc 1 644 0
 1321              		.cfi_startproc
 1322              		@ args = 0, pretend = 0, frame = 8
 1323              		@ frame_needed = 1, uses_anonymous_args = 0
 1324              		@ link register save eliminated.
 1325 0000 80B4     		push	{r7}
 1326              		.cfi_def_cfa_offset 4
 1327              		.cfi_offset 7, -4
 1328 0002 83B0     		sub	sp, sp, #12
 1329              		.cfi_def_cfa_offset 16
 1330 0004 00AF     		add	r7, sp, #0
 1331              		.cfi_def_cfa_register 7
 1332 0006 7860     		str	r0, [r7, #4]
 1333 0008 0B46     		mov	r3, r1
 1334 000a FB70     		strb	r3, [r7, #3]
 645:/home/virusv/usart/Libraries/src/stm32f10x_can.c ****   /* Check the parameters */
 646:/home/virusv/usart/Libraries/src/stm32f10x_can.c ****   assert_param(IS_CAN_ALL_PERIPH(CANx));
 647:/home/virusv/usart/Libraries/src/stm32f10x_can.c ****   assert_param(IS_CAN_TRANSMITMAILBOX(Mailbox));
 648:/home/virusv/usart/Libraries/src/stm32f10x_can.c ****   /* abort transmission */
 649:/home/virusv/usart/Libraries/src/stm32f10x_can.c ****   switch (Mailbox)
 1335              		.loc 1 649 0
 1336 000c FB78     		ldrb	r3, [r7, #3]	@ zero_extendqisi2
 1337 000e 012B     		cmp	r3, #1
 1338 0010 0BD0     		beq	.L80
 1339 0012 022B     		cmp	r3, #2
 1340 0014 10D0     		beq	.L81
 1341 0016 002B     		cmp	r3, #0
 1342 0018 00D0     		beq	.L82
 650:/home/virusv/usart/Libraries/src/stm32f10x_can.c ****   {
 651:/home/virusv/usart/Libraries/src/stm32f10x_can.c ****     case (CAN_TXMAILBOX_0): CANx->TSR |= CAN_TSR_ABRQ0;
 652:/home/virusv/usart/Libraries/src/stm32f10x_can.c ****       break;
 653:/home/virusv/usart/Libraries/src/stm32f10x_can.c ****     case (CAN_TXMAILBOX_1): CANx->TSR |= CAN_TSR_ABRQ1;
 654:/home/virusv/usart/Libraries/src/stm32f10x_can.c ****       break;
 655:/home/virusv/usart/Libraries/src/stm32f10x_can.c ****     case (CAN_TXMAILBOX_2): CANx->TSR |= CAN_TSR_ABRQ2;
 656:/home/virusv/usart/Libraries/src/stm32f10x_can.c ****       break;
 657:/home/virusv/usart/Libraries/src/stm32f10x_can.c ****     default:
 658:/home/virusv/usart/Libraries/src/stm32f10x_can.c ****       break;
 1343              		.loc 1 658 0
 1344 001a 14E0     		b	.L78
 1345              	.L82:
 651:/home/virusv/usart/Libraries/src/stm32f10x_can.c ****       break;
 1346              		.loc 1 651 0
 1347 001c 7B68     		ldr	r3, [r7, #4]
 1348 001e 9B68     		ldr	r3, [r3, #8]
 1349 0020 43F08002 		orr	r2, r3, #128
 1350 0024 7B68     		ldr	r3, [r7, #4]
 1351 0026 9A60     		str	r2, [r3, #8]
 652:/home/virusv/usart/Libraries/src/stm32f10x_can.c ****     case (CAN_TXMAILBOX_1): CANx->TSR |= CAN_TSR_ABRQ1;
 1352              		.loc 1 652 0
 1353 0028 0DE0     		b	.L78
 1354              	.L80:
 653:/home/virusv/usart/Libraries/src/stm32f10x_can.c ****       break;
 1355              		.loc 1 653 0
 1356 002a 7B68     		ldr	r3, [r7, #4]
 1357 002c 9B68     		ldr	r3, [r3, #8]
 1358 002e 43F40042 		orr	r2, r3, #32768
 1359 0032 7B68     		ldr	r3, [r7, #4]
 1360 0034 9A60     		str	r2, [r3, #8]
 654:/home/virusv/usart/Libraries/src/stm32f10x_can.c ****     case (CAN_TXMAILBOX_2): CANx->TSR |= CAN_TSR_ABRQ2;
 1361              		.loc 1 654 0
 1362 0036 06E0     		b	.L78
 1363              	.L81:
 655:/home/virusv/usart/Libraries/src/stm32f10x_can.c ****       break;
 1364              		.loc 1 655 0
 1365 0038 7B68     		ldr	r3, [r7, #4]
 1366 003a 9B68     		ldr	r3, [r3, #8]
 1367 003c 43F40002 		orr	r2, r3, #8388608
 1368 0040 7B68     		ldr	r3, [r7, #4]
 1369 0042 9A60     		str	r2, [r3, #8]
 656:/home/virusv/usart/Libraries/src/stm32f10x_can.c ****     default:
 1370              		.loc 1 656 0
 1371 0044 00BF     		nop
 1372              	.L78:
 659:/home/virusv/usart/Libraries/src/stm32f10x_can.c ****   }
 660:/home/virusv/usart/Libraries/src/stm32f10x_can.c **** }
 1373              		.loc 1 660 0
 1374 0046 0C37     		adds	r7, r7, #12
 1375              		.cfi_def_cfa_offset 4
 1376 0048 BD46     		mov	sp, r7
 1377              		.cfi_def_cfa_register 13
 1378              		@ sp needed
 1379 004a 5DF8047B 		ldr	r7, [sp], #4
 1380              		.cfi_restore 7
 1381              		.cfi_def_cfa_offset 0
 1382 004e 7047     		bx	lr
 1383              		.cfi_endproc
 1384              	.LFE38:
 1386              		.section	.text.CAN_Receive,"ax",%progbits
 1387              		.align	2
 1388              		.global	CAN_Receive
 1389              		.thumb
 1390              		.thumb_func
 1392              	CAN_Receive:
 1393              	.LFB39:
 661:/home/virusv/usart/Libraries/src/stm32f10x_can.c **** 
 662:/home/virusv/usart/Libraries/src/stm32f10x_can.c **** 
 663:/home/virusv/usart/Libraries/src/stm32f10x_can.c **** /**
 664:/home/virusv/usart/Libraries/src/stm32f10x_can.c ****   * @brief  Receives a message.
 665:/home/virusv/usart/Libraries/src/stm32f10x_can.c ****   * @param  CANx:       where x can be 1 or 2 to to select the CAN peripheral.
 666:/home/virusv/usart/Libraries/src/stm32f10x_can.c ****   * @param  FIFONumber: Receive FIFO number, CAN_FIFO0 or CAN_FIFO1.
 667:/home/virusv/usart/Libraries/src/stm32f10x_can.c ****   * @param  RxMessage:  pointer to a structure receive message which contains 
 668:/home/virusv/usart/Libraries/src/stm32f10x_can.c ****   *                     CAN Id, CAN DLC, CAN datas and FMI number.
 669:/home/virusv/usart/Libraries/src/stm32f10x_can.c ****   * @retval None.
 670:/home/virusv/usart/Libraries/src/stm32f10x_can.c ****   */
 671:/home/virusv/usart/Libraries/src/stm32f10x_can.c **** void CAN_Receive(CAN_TypeDef* CANx, uint8_t FIFONumber, CanRxMsg* RxMessage)
 672:/home/virusv/usart/Libraries/src/stm32f10x_can.c **** {
 1394              		.loc 1 672 0
 1395              		.cfi_startproc
 1396              		@ args = 0, pretend = 0, frame = 16
 1397              		@ frame_needed = 1, uses_anonymous_args = 0
 1398              		@ link register save eliminated.
 1399 0000 80B4     		push	{r7}
 1400              		.cfi_def_cfa_offset 4
 1401              		.cfi_offset 7, -4
 1402 0002 85B0     		sub	sp, sp, #20
 1403              		.cfi_def_cfa_offset 24
 1404 0004 00AF     		add	r7, sp, #0
 1405              		.cfi_def_cfa_register 7
 1406 0006 F860     		str	r0, [r7, #12]
 1407 0008 0B46     		mov	r3, r1
 1408 000a 7A60     		str	r2, [r7, #4]
 1409 000c FB72     		strb	r3, [r7, #11]
 673:/home/virusv/usart/Libraries/src/stm32f10x_can.c ****   /* Check the parameters */
 674:/home/virusv/usart/Libraries/src/stm32f10x_can.c ****   assert_param(IS_CAN_ALL_PERIPH(CANx));
 675:/home/virusv/usart/Libraries/src/stm32f10x_can.c ****   assert_param(IS_CAN_FIFO(FIFONumber));
 676:/home/virusv/usart/Libraries/src/stm32f10x_can.c ****   /* Get the Id */
 677:/home/virusv/usart/Libraries/src/stm32f10x_can.c ****   RxMessage->IDE = (uint8_t)0x04 & CANx->sFIFOMailBox[FIFONumber].RIR;
 1410              		.loc 1 677 0
 1411 000e FB7A     		ldrb	r3, [r7, #11]	@ zero_extendqisi2
 1412 0010 FA68     		ldr	r2, [r7, #12]
 1413 0012 1B33     		adds	r3, r3, #27
 1414 0014 1B01     		lsls	r3, r3, #4
 1415 0016 1344     		add	r3, r3, r2
 1416 0018 1B68     		ldr	r3, [r3]
 1417 001a DBB2     		uxtb	r3, r3
 1418 001c 03F00403 		and	r3, r3, #4
 1419 0020 DAB2     		uxtb	r2, r3
 1420 0022 7B68     		ldr	r3, [r7, #4]
 1421 0024 1A72     		strb	r2, [r3, #8]
 678:/home/virusv/usart/Libraries/src/stm32f10x_can.c ****   if (RxMessage->IDE == CAN_Id_Standard)
 1422              		.loc 1 678 0
 1423 0026 7B68     		ldr	r3, [r7, #4]
 1424 0028 1B7A     		ldrb	r3, [r3, #8]	@ zero_extendqisi2
 1425 002a 002B     		cmp	r3, #0
 1426 002c 09D1     		bne	.L85
 679:/home/virusv/usart/Libraries/src/stm32f10x_can.c ****   {
 680:/home/virusv/usart/Libraries/src/stm32f10x_can.c ****     RxMessage->StdId = (uint32_t)0x000007FF & (CANx->sFIFOMailBox[FIFONumber].RIR >> 21);
 1427              		.loc 1 680 0
 1428 002e FB7A     		ldrb	r3, [r7, #11]	@ zero_extendqisi2
 1429 0030 FA68     		ldr	r2, [r7, #12]
 1430 0032 1B33     		adds	r3, r3, #27
 1431 0034 1B01     		lsls	r3, r3, #4
 1432 0036 1344     		add	r3, r3, r2
 1433 0038 1B68     		ldr	r3, [r3]
 1434 003a 5A0D     		lsrs	r2, r3, #21
 1435 003c 7B68     		ldr	r3, [r7, #4]
 1436 003e 1A60     		str	r2, [r3]
 1437 0040 08E0     		b	.L86
 1438              	.L85:
 681:/home/virusv/usart/Libraries/src/stm32f10x_can.c ****   }
 682:/home/virusv/usart/Libraries/src/stm32f10x_can.c ****   else
 683:/home/virusv/usart/Libraries/src/stm32f10x_can.c ****   {
 684:/home/virusv/usart/Libraries/src/stm32f10x_can.c ****     RxMessage->ExtId = (uint32_t)0x1FFFFFFF & (CANx->sFIFOMailBox[FIFONumber].RIR >> 3);
 1439              		.loc 1 684 0
 1440 0042 FB7A     		ldrb	r3, [r7, #11]	@ zero_extendqisi2
 1441 0044 FA68     		ldr	r2, [r7, #12]
 1442 0046 1B33     		adds	r3, r3, #27
 1443 0048 1B01     		lsls	r3, r3, #4
 1444 004a 1344     		add	r3, r3, r2
 1445 004c 1B68     		ldr	r3, [r3]
 1446 004e DA08     		lsrs	r2, r3, #3
 1447 0050 7B68     		ldr	r3, [r7, #4]
 1448 0052 5A60     		str	r2, [r3, #4]
 1449              	.L86:
 685:/home/virusv/usart/Libraries/src/stm32f10x_can.c ****   }
 686:/home/virusv/usart/Libraries/src/stm32f10x_can.c ****   
 687:/home/virusv/usart/Libraries/src/stm32f10x_can.c ****   RxMessage->RTR = (uint8_t)0x02 & CANx->sFIFOMailBox[FIFONumber].RIR;
 1450              		.loc 1 687 0
 1451 0054 FB7A     		ldrb	r3, [r7, #11]	@ zero_extendqisi2
 1452 0056 FA68     		ldr	r2, [r7, #12]
 1453 0058 1B33     		adds	r3, r3, #27
 1454 005a 1B01     		lsls	r3, r3, #4
 1455 005c 1344     		add	r3, r3, r2
 1456 005e 1B68     		ldr	r3, [r3]
 1457 0060 DBB2     		uxtb	r3, r3
 1458 0062 03F00203 		and	r3, r3, #2
 1459 0066 DAB2     		uxtb	r2, r3
 1460 0068 7B68     		ldr	r3, [r7, #4]
 1461 006a 5A72     		strb	r2, [r3, #9]
 688:/home/virusv/usart/Libraries/src/stm32f10x_can.c ****   /* Get the DLC */
 689:/home/virusv/usart/Libraries/src/stm32f10x_can.c ****   RxMessage->DLC = (uint8_t)0x0F & CANx->sFIFOMailBox[FIFONumber].RDTR;
 1462              		.loc 1 689 0
 1463 006c FB7A     		ldrb	r3, [r7, #11]	@ zero_extendqisi2
 1464 006e FA68     		ldr	r2, [r7, #12]
 1465 0070 1B33     		adds	r3, r3, #27
 1466 0072 1B01     		lsls	r3, r3, #4
 1467 0074 1344     		add	r3, r3, r2
 1468 0076 5B68     		ldr	r3, [r3, #4]
 1469 0078 DBB2     		uxtb	r3, r3
 1470 007a 03F00F03 		and	r3, r3, #15
 1471 007e DAB2     		uxtb	r2, r3
 1472 0080 7B68     		ldr	r3, [r7, #4]
 1473 0082 9A72     		strb	r2, [r3, #10]
 690:/home/virusv/usart/Libraries/src/stm32f10x_can.c ****   /* Get the FMI */
 691:/home/virusv/usart/Libraries/src/stm32f10x_can.c ****   RxMessage->FMI = (uint8_t)0xFF & (CANx->sFIFOMailBox[FIFONumber].RDTR >> 8);
 1474              		.loc 1 691 0
 1475 0084 FB7A     		ldrb	r3, [r7, #11]	@ zero_extendqisi2
 1476 0086 FA68     		ldr	r2, [r7, #12]
 1477 0088 1B33     		adds	r3, r3, #27
 1478 008a 1B01     		lsls	r3, r3, #4
 1479 008c 1344     		add	r3, r3, r2
 1480 008e 5B68     		ldr	r3, [r3, #4]
 1481 0090 1B0A     		lsrs	r3, r3, #8
 1482 0092 DAB2     		uxtb	r2, r3
 1483 0094 7B68     		ldr	r3, [r7, #4]
 1484 0096 DA74     		strb	r2, [r3, #19]
 692:/home/virusv/usart/Libraries/src/stm32f10x_can.c ****   /* Get the data field */
 693:/home/virusv/usart/Libraries/src/stm32f10x_can.c ****   RxMessage->Data[0] = (uint8_t)0xFF & CANx->sFIFOMailBox[FIFONumber].RDLR;
 1485              		.loc 1 693 0
 1486 0098 FB7A     		ldrb	r3, [r7, #11]	@ zero_extendqisi2
 1487 009a FA68     		ldr	r2, [r7, #12]
 1488 009c 1B01     		lsls	r3, r3, #4
 1489 009e 1344     		add	r3, r3, r2
 1490 00a0 03F5DC73 		add	r3, r3, #440
 1491 00a4 1B68     		ldr	r3, [r3]
 1492 00a6 DAB2     		uxtb	r2, r3
 1493 00a8 7B68     		ldr	r3, [r7, #4]
 1494 00aa DA72     		strb	r2, [r3, #11]
 694:/home/virusv/usart/Libraries/src/stm32f10x_can.c ****   RxMessage->Data[1] = (uint8_t)0xFF & (CANx->sFIFOMailBox[FIFONumber].RDLR >> 8);
 1495              		.loc 1 694 0
 1496 00ac FB7A     		ldrb	r3, [r7, #11]	@ zero_extendqisi2
 1497 00ae FA68     		ldr	r2, [r7, #12]
 1498 00b0 1B01     		lsls	r3, r3, #4
 1499 00b2 1344     		add	r3, r3, r2
 1500 00b4 03F5DC73 		add	r3, r3, #440
 1501 00b8 1B68     		ldr	r3, [r3]
 1502 00ba 1B0A     		lsrs	r3, r3, #8
 1503 00bc DAB2     		uxtb	r2, r3
 1504 00be 7B68     		ldr	r3, [r7, #4]
 1505 00c0 1A73     		strb	r2, [r3, #12]
 695:/home/virusv/usart/Libraries/src/stm32f10x_can.c ****   RxMessage->Data[2] = (uint8_t)0xFF & (CANx->sFIFOMailBox[FIFONumber].RDLR >> 16);
 1506              		.loc 1 695 0
 1507 00c2 FB7A     		ldrb	r3, [r7, #11]	@ zero_extendqisi2
 1508 00c4 FA68     		ldr	r2, [r7, #12]
 1509 00c6 1B01     		lsls	r3, r3, #4
 1510 00c8 1344     		add	r3, r3, r2
 1511 00ca 03F5DC73 		add	r3, r3, #440
 1512 00ce 1B68     		ldr	r3, [r3]
 1513 00d0 1B0C     		lsrs	r3, r3, #16
 1514 00d2 DAB2     		uxtb	r2, r3
 1515 00d4 7B68     		ldr	r3, [r7, #4]
 1516 00d6 5A73     		strb	r2, [r3, #13]
 696:/home/virusv/usart/Libraries/src/stm32f10x_can.c ****   RxMessage->Data[3] = (uint8_t)0xFF & (CANx->sFIFOMailBox[FIFONumber].RDLR >> 24);
 1517              		.loc 1 696 0
 1518 00d8 FB7A     		ldrb	r3, [r7, #11]	@ zero_extendqisi2
 1519 00da FA68     		ldr	r2, [r7, #12]
 1520 00dc 1B01     		lsls	r3, r3, #4
 1521 00de 1344     		add	r3, r3, r2
 1522 00e0 03F5DC73 		add	r3, r3, #440
 1523 00e4 1B68     		ldr	r3, [r3]
 1524 00e6 1B0E     		lsrs	r3, r3, #24
 1525 00e8 DAB2     		uxtb	r2, r3
 1526 00ea 7B68     		ldr	r3, [r7, #4]
 1527 00ec 9A73     		strb	r2, [r3, #14]
 697:/home/virusv/usart/Libraries/src/stm32f10x_can.c ****   RxMessage->Data[4] = (uint8_t)0xFF & CANx->sFIFOMailBox[FIFONumber].RDHR;
 1528              		.loc 1 697 0
 1529 00ee FB7A     		ldrb	r3, [r7, #11]	@ zero_extendqisi2
 1530 00f0 FA68     		ldr	r2, [r7, #12]
 1531 00f2 1B01     		lsls	r3, r3, #4
 1532 00f4 1344     		add	r3, r3, r2
 1533 00f6 03F5DC73 		add	r3, r3, #440
 1534 00fa 5B68     		ldr	r3, [r3, #4]
 1535 00fc DAB2     		uxtb	r2, r3
 1536 00fe 7B68     		ldr	r3, [r7, #4]
 1537 0100 DA73     		strb	r2, [r3, #15]
 698:/home/virusv/usart/Libraries/src/stm32f10x_can.c ****   RxMessage->Data[5] = (uint8_t)0xFF & (CANx->sFIFOMailBox[FIFONumber].RDHR >> 8);
 1538              		.loc 1 698 0
 1539 0102 FB7A     		ldrb	r3, [r7, #11]	@ zero_extendqisi2
 1540 0104 FA68     		ldr	r2, [r7, #12]
 1541 0106 1B01     		lsls	r3, r3, #4
 1542 0108 1344     		add	r3, r3, r2
 1543 010a 03F5DC73 		add	r3, r3, #440
 1544 010e 5B68     		ldr	r3, [r3, #4]
 1545 0110 1B0A     		lsrs	r3, r3, #8
 1546 0112 DAB2     		uxtb	r2, r3
 1547 0114 7B68     		ldr	r3, [r7, #4]
 1548 0116 1A74     		strb	r2, [r3, #16]
 699:/home/virusv/usart/Libraries/src/stm32f10x_can.c ****   RxMessage->Data[6] = (uint8_t)0xFF & (CANx->sFIFOMailBox[FIFONumber].RDHR >> 16);
 1549              		.loc 1 699 0
 1550 0118 FB7A     		ldrb	r3, [r7, #11]	@ zero_extendqisi2
 1551 011a FA68     		ldr	r2, [r7, #12]
 1552 011c 1B01     		lsls	r3, r3, #4
 1553 011e 1344     		add	r3, r3, r2
 1554 0120 03F5DC73 		add	r3, r3, #440
 1555 0124 5B68     		ldr	r3, [r3, #4]
 1556 0126 1B0C     		lsrs	r3, r3, #16
 1557 0128 DAB2     		uxtb	r2, r3
 1558 012a 7B68     		ldr	r3, [r7, #4]
 1559 012c 5A74     		strb	r2, [r3, #17]
 700:/home/virusv/usart/Libraries/src/stm32f10x_can.c ****   RxMessage->Data[7] = (uint8_t)0xFF & (CANx->sFIFOMailBox[FIFONumber].RDHR >> 24);
 1560              		.loc 1 700 0
 1561 012e FB7A     		ldrb	r3, [r7, #11]	@ zero_extendqisi2
 1562 0130 FA68     		ldr	r2, [r7, #12]
 1563 0132 1B01     		lsls	r3, r3, #4
 1564 0134 1344     		add	r3, r3, r2
 1565 0136 03F5DC73 		add	r3, r3, #440
 1566 013a 5B68     		ldr	r3, [r3, #4]
 1567 013c 1B0E     		lsrs	r3, r3, #24
 1568 013e DAB2     		uxtb	r2, r3
 1569 0140 7B68     		ldr	r3, [r7, #4]
 1570 0142 9A74     		strb	r2, [r3, #18]
 701:/home/virusv/usart/Libraries/src/stm32f10x_can.c ****   /* Release the FIFO */
 702:/home/virusv/usart/Libraries/src/stm32f10x_can.c ****   /* Release FIFO0 */
 703:/home/virusv/usart/Libraries/src/stm32f10x_can.c ****   if (FIFONumber == CAN_FIFO0)
 1571              		.loc 1 703 0
 1572 0144 FB7A     		ldrb	r3, [r7, #11]	@ zero_extendqisi2
 1573 0146 002B     		cmp	r3, #0
 1574 0148 06D1     		bne	.L87
 704:/home/virusv/usart/Libraries/src/stm32f10x_can.c ****   {
 705:/home/virusv/usart/Libraries/src/stm32f10x_can.c ****     CANx->RF0R |= CAN_RF0R_RFOM0;
 1575              		.loc 1 705 0
 1576 014a FB68     		ldr	r3, [r7, #12]
 1577 014c DB68     		ldr	r3, [r3, #12]
 1578 014e 43F02002 		orr	r2, r3, #32
 1579 0152 FB68     		ldr	r3, [r7, #12]
 1580 0154 DA60     		str	r2, [r3, #12]
 1581 0156 05E0     		b	.L84
 1582              	.L87:
 706:/home/virusv/usart/Libraries/src/stm32f10x_can.c ****   }
 707:/home/virusv/usart/Libraries/src/stm32f10x_can.c ****   /* Release FIFO1 */
 708:/home/virusv/usart/Libraries/src/stm32f10x_can.c ****   else /* FIFONumber == CAN_FIFO1 */
 709:/home/virusv/usart/Libraries/src/stm32f10x_can.c ****   {
 710:/home/virusv/usart/Libraries/src/stm32f10x_can.c ****     CANx->RF1R |= CAN_RF1R_RFOM1;
 1583              		.loc 1 710 0
 1584 0158 FB68     		ldr	r3, [r7, #12]
 1585 015a 1B69     		ldr	r3, [r3, #16]
 1586 015c 43F02002 		orr	r2, r3, #32
 1587 0160 FB68     		ldr	r3, [r7, #12]
 1588 0162 1A61     		str	r2, [r3, #16]
 1589              	.L84:
 711:/home/virusv/usart/Libraries/src/stm32f10x_can.c ****   }
 712:/home/virusv/usart/Libraries/src/stm32f10x_can.c **** }
 1590              		.loc 1 712 0
 1591 0164 1437     		adds	r7, r7, #20
 1592              		.cfi_def_cfa_offset 4
 1593 0166 BD46     		mov	sp, r7
 1594              		.cfi_def_cfa_register 13
 1595              		@ sp needed
 1596 0168 5DF8047B 		ldr	r7, [sp], #4
 1597              		.cfi_restore 7
 1598              		.cfi_def_cfa_offset 0
 1599 016c 7047     		bx	lr
 1600              		.cfi_endproc
 1601              	.LFE39:
 1603 016e 00BF     		.section	.text.CAN_FIFORelease,"ax",%progbits
 1604              		.align	2
 1605              		.global	CAN_FIFORelease
 1606              		.thumb
 1607              		.thumb_func
 1609              	CAN_FIFORelease:
 1610              	.LFB40:
 713:/home/virusv/usart/Libraries/src/stm32f10x_can.c **** 
 714:/home/virusv/usart/Libraries/src/stm32f10x_can.c **** /**
 715:/home/virusv/usart/Libraries/src/stm32f10x_can.c ****   * @brief  Releases the specified FIFO.
 716:/home/virusv/usart/Libraries/src/stm32f10x_can.c ****   * @param  CANx:       where x can be 1 or 2 to to select the CAN peripheral. 
 717:/home/virusv/usart/Libraries/src/stm32f10x_can.c ****   * @param  FIFONumber: FIFO to release, CAN_FIFO0 or CAN_FIFO1.
 718:/home/virusv/usart/Libraries/src/stm32f10x_can.c ****   * @retval None.
 719:/home/virusv/usart/Libraries/src/stm32f10x_can.c ****   */
 720:/home/virusv/usart/Libraries/src/stm32f10x_can.c **** void CAN_FIFORelease(CAN_TypeDef* CANx, uint8_t FIFONumber)
 721:/home/virusv/usart/Libraries/src/stm32f10x_can.c **** {
 1611              		.loc 1 721 0
 1612              		.cfi_startproc
 1613              		@ args = 0, pretend = 0, frame = 8
 1614              		@ frame_needed = 1, uses_anonymous_args = 0
 1615              		@ link register save eliminated.
 1616 0000 80B4     		push	{r7}
 1617              		.cfi_def_cfa_offset 4
 1618              		.cfi_offset 7, -4
 1619 0002 83B0     		sub	sp, sp, #12
 1620              		.cfi_def_cfa_offset 16
 1621 0004 00AF     		add	r7, sp, #0
 1622              		.cfi_def_cfa_register 7
 1623 0006 7860     		str	r0, [r7, #4]
 1624 0008 0B46     		mov	r3, r1
 1625 000a FB70     		strb	r3, [r7, #3]
 722:/home/virusv/usart/Libraries/src/stm32f10x_can.c ****   /* Check the parameters */
 723:/home/virusv/usart/Libraries/src/stm32f10x_can.c ****   assert_param(IS_CAN_ALL_PERIPH(CANx));
 724:/home/virusv/usart/Libraries/src/stm32f10x_can.c ****   assert_param(IS_CAN_FIFO(FIFONumber));
 725:/home/virusv/usart/Libraries/src/stm32f10x_can.c ****   /* Release FIFO0 */
 726:/home/virusv/usart/Libraries/src/stm32f10x_can.c ****   if (FIFONumber == CAN_FIFO0)
 1626              		.loc 1 726 0
 1627 000c FB78     		ldrb	r3, [r7, #3]	@ zero_extendqisi2
 1628 000e 002B     		cmp	r3, #0
 1629 0010 06D1     		bne	.L90
 727:/home/virusv/usart/Libraries/src/stm32f10x_can.c ****   {
 728:/home/virusv/usart/Libraries/src/stm32f10x_can.c ****     CANx->RF0R |= CAN_RF0R_RFOM0;
 1630              		.loc 1 728 0
 1631 0012 7B68     		ldr	r3, [r7, #4]
 1632 0014 DB68     		ldr	r3, [r3, #12]
 1633 0016 43F02002 		orr	r2, r3, #32
 1634 001a 7B68     		ldr	r3, [r7, #4]
 1635 001c DA60     		str	r2, [r3, #12]
 1636 001e 05E0     		b	.L89
 1637              	.L90:
 729:/home/virusv/usart/Libraries/src/stm32f10x_can.c ****   }
 730:/home/virusv/usart/Libraries/src/stm32f10x_can.c ****   /* Release FIFO1 */
 731:/home/virusv/usart/Libraries/src/stm32f10x_can.c ****   else /* FIFONumber == CAN_FIFO1 */
 732:/home/virusv/usart/Libraries/src/stm32f10x_can.c ****   {
 733:/home/virusv/usart/Libraries/src/stm32f10x_can.c ****     CANx->RF1R |= CAN_RF1R_RFOM1;
 1638              		.loc 1 733 0
 1639 0020 7B68     		ldr	r3, [r7, #4]
 1640 0022 1B69     		ldr	r3, [r3, #16]
 1641 0024 43F02002 		orr	r2, r3, #32
 1642 0028 7B68     		ldr	r3, [r7, #4]
 1643 002a 1A61     		str	r2, [r3, #16]
 1644              	.L89:
 734:/home/virusv/usart/Libraries/src/stm32f10x_can.c ****   }
 735:/home/virusv/usart/Libraries/src/stm32f10x_can.c **** }
 1645              		.loc 1 735 0
 1646 002c 0C37     		adds	r7, r7, #12
 1647              		.cfi_def_cfa_offset 4
 1648 002e BD46     		mov	sp, r7
 1649              		.cfi_def_cfa_register 13
 1650              		@ sp needed
 1651 0030 5DF8047B 		ldr	r7, [sp], #4
 1652              		.cfi_restore 7
 1653              		.cfi_def_cfa_offset 0
 1654 0034 7047     		bx	lr
 1655              		.cfi_endproc
 1656              	.LFE40:
 1658 0036 00BF     		.section	.text.CAN_MessagePending,"ax",%progbits
 1659              		.align	2
 1660              		.global	CAN_MessagePending
 1661              		.thumb
 1662              		.thumb_func
 1664              	CAN_MessagePending:
 1665              	.LFB41:
 736:/home/virusv/usart/Libraries/src/stm32f10x_can.c **** 
 737:/home/virusv/usart/Libraries/src/stm32f10x_can.c **** /**
 738:/home/virusv/usart/Libraries/src/stm32f10x_can.c ****   * @brief  Returns the number of pending messages.
 739:/home/virusv/usart/Libraries/src/stm32f10x_can.c ****   * @param  CANx:       where x can be 1 or 2 to to select the CAN peripheral.
 740:/home/virusv/usart/Libraries/src/stm32f10x_can.c ****   * @param  FIFONumber: Receive FIFO number, CAN_FIFO0 or CAN_FIFO1.
 741:/home/virusv/usart/Libraries/src/stm32f10x_can.c ****   * @retval NbMessage : which is the number of pending message.
 742:/home/virusv/usart/Libraries/src/stm32f10x_can.c ****   */
 743:/home/virusv/usart/Libraries/src/stm32f10x_can.c **** uint8_t CAN_MessagePending(CAN_TypeDef* CANx, uint8_t FIFONumber)
 744:/home/virusv/usart/Libraries/src/stm32f10x_can.c **** {
 1666              		.loc 1 744 0
 1667              		.cfi_startproc
 1668              		@ args = 0, pretend = 0, frame = 16
 1669              		@ frame_needed = 1, uses_anonymous_args = 0
 1670              		@ link register save eliminated.
 1671 0000 80B4     		push	{r7}
 1672              		.cfi_def_cfa_offset 4
 1673              		.cfi_offset 7, -4
 1674 0002 85B0     		sub	sp, sp, #20
 1675              		.cfi_def_cfa_offset 24
 1676 0004 00AF     		add	r7, sp, #0
 1677              		.cfi_def_cfa_register 7
 1678 0006 7860     		str	r0, [r7, #4]
 1679 0008 0B46     		mov	r3, r1
 1680 000a FB70     		strb	r3, [r7, #3]
 745:/home/virusv/usart/Libraries/src/stm32f10x_can.c ****   uint8_t message_pending=0;
 1681              		.loc 1 745 0
 1682 000c 0023     		movs	r3, #0
 1683 000e FB73     		strb	r3, [r7, #15]
 746:/home/virusv/usart/Libraries/src/stm32f10x_can.c ****   /* Check the parameters */
 747:/home/virusv/usart/Libraries/src/stm32f10x_can.c ****   assert_param(IS_CAN_ALL_PERIPH(CANx));
 748:/home/virusv/usart/Libraries/src/stm32f10x_can.c ****   assert_param(IS_CAN_FIFO(FIFONumber));
 749:/home/virusv/usart/Libraries/src/stm32f10x_can.c ****   if (FIFONumber == CAN_FIFO0)
 1684              		.loc 1 749 0
 1685 0010 FB78     		ldrb	r3, [r7, #3]	@ zero_extendqisi2
 1686 0012 002B     		cmp	r3, #0
 1687 0014 06D1     		bne	.L93
 750:/home/virusv/usart/Libraries/src/stm32f10x_can.c ****   {
 751:/home/virusv/usart/Libraries/src/stm32f10x_can.c ****     message_pending = (uint8_t)(CANx->RF0R&(uint32_t)0x03);
 1688              		.loc 1 751 0
 1689 0016 7B68     		ldr	r3, [r7, #4]
 1690 0018 DB68     		ldr	r3, [r3, #12]
 1691 001a DBB2     		uxtb	r3, r3
 1692 001c 03F00303 		and	r3, r3, #3
 1693 0020 FB73     		strb	r3, [r7, #15]
 1694 0022 0BE0     		b	.L94
 1695              	.L93:
 752:/home/virusv/usart/Libraries/src/stm32f10x_can.c ****   }
 753:/home/virusv/usart/Libraries/src/stm32f10x_can.c ****   else if (FIFONumber == CAN_FIFO1)
 1696              		.loc 1 753 0
 1697 0024 FB78     		ldrb	r3, [r7, #3]	@ zero_extendqisi2
 1698 0026 012B     		cmp	r3, #1
 1699 0028 06D1     		bne	.L95
 754:/home/virusv/usart/Libraries/src/stm32f10x_can.c ****   {
 755:/home/virusv/usart/Libraries/src/stm32f10x_can.c ****     message_pending = (uint8_t)(CANx->RF1R&(uint32_t)0x03);
 1700              		.loc 1 755 0
 1701 002a 7B68     		ldr	r3, [r7, #4]
 1702 002c 1B69     		ldr	r3, [r3, #16]
 1703 002e DBB2     		uxtb	r3, r3
 1704 0030 03F00303 		and	r3, r3, #3
 1705 0034 FB73     		strb	r3, [r7, #15]
 1706 0036 01E0     		b	.L94
 1707              	.L95:
 756:/home/virusv/usart/Libraries/src/stm32f10x_can.c ****   }
 757:/home/virusv/usart/Libraries/src/stm32f10x_can.c ****   else
 758:/home/virusv/usart/Libraries/src/stm32f10x_can.c ****   {
 759:/home/virusv/usart/Libraries/src/stm32f10x_can.c ****     message_pending = 0;
 1708              		.loc 1 759 0
 1709 0038 0023     		movs	r3, #0
 1710 003a FB73     		strb	r3, [r7, #15]
 1711              	.L94:
 760:/home/virusv/usart/Libraries/src/stm32f10x_can.c ****   }
 761:/home/virusv/usart/Libraries/src/stm32f10x_can.c ****   return message_pending;
 1712              		.loc 1 761 0
 1713 003c FB7B     		ldrb	r3, [r7, #15]	@ zero_extendqisi2
 762:/home/virusv/usart/Libraries/src/stm32f10x_can.c **** }
 1714              		.loc 1 762 0
 1715 003e 1846     		mov	r0, r3
 1716 0040 1437     		adds	r7, r7, #20
 1717              		.cfi_def_cfa_offset 4
 1718 0042 BD46     		mov	sp, r7
 1719              		.cfi_def_cfa_register 13
 1720              		@ sp needed
 1721 0044 5DF8047B 		ldr	r7, [sp], #4
 1722              		.cfi_restore 7
 1723              		.cfi_def_cfa_offset 0
 1724 0048 7047     		bx	lr
 1725              		.cfi_endproc
 1726              	.LFE41:
 1728 004a 00BF     		.section	.text.CAN_OperatingModeRequest,"ax",%progbits
 1729              		.align	2
 1730              		.global	CAN_OperatingModeRequest
 1731              		.thumb
 1732              		.thumb_func
 1734              	CAN_OperatingModeRequest:
 1735              	.LFB42:
 763:/home/virusv/usart/Libraries/src/stm32f10x_can.c **** 
 764:/home/virusv/usart/Libraries/src/stm32f10x_can.c **** 
 765:/home/virusv/usart/Libraries/src/stm32f10x_can.c **** /**
 766:/home/virusv/usart/Libraries/src/stm32f10x_can.c ****   * @brief   Select the CAN Operation mode.
 767:/home/virusv/usart/Libraries/src/stm32f10x_can.c ****   * @param CAN_OperatingMode : CAN Operating Mode. This parameter can be one 
 768:/home/virusv/usart/Libraries/src/stm32f10x_can.c ****   *                            of @ref CAN_OperatingMode_TypeDef enumeration.
 769:/home/virusv/usart/Libraries/src/stm32f10x_can.c ****   * @retval status of the requested mode which can be 
 770:/home/virusv/usart/Libraries/src/stm32f10x_can.c ****   *         - CAN_ModeStatus_Failed    CAN failed entering the specific mode 
 771:/home/virusv/usart/Libraries/src/stm32f10x_can.c ****   *         - CAN_ModeStatus_Success   CAN Succeed entering the specific mode 
 772:/home/virusv/usart/Libraries/src/stm32f10x_can.c **** 
 773:/home/virusv/usart/Libraries/src/stm32f10x_can.c ****   */
 774:/home/virusv/usart/Libraries/src/stm32f10x_can.c **** uint8_t CAN_OperatingModeRequest(CAN_TypeDef* CANx, uint8_t CAN_OperatingMode)
 775:/home/virusv/usart/Libraries/src/stm32f10x_can.c **** {
 1736              		.loc 1 775 0
 1737              		.cfi_startproc
 1738              		@ args = 0, pretend = 0, frame = 16
 1739              		@ frame_needed = 1, uses_anonymous_args = 0
 1740              		@ link register save eliminated.
 1741 0000 80B4     		push	{r7}
 1742              		.cfi_def_cfa_offset 4
 1743              		.cfi_offset 7, -4
 1744 0002 85B0     		sub	sp, sp, #20
 1745              		.cfi_def_cfa_offset 24
 1746 0004 00AF     		add	r7, sp, #0
 1747              		.cfi_def_cfa_register 7
 1748 0006 7860     		str	r0, [r7, #4]
 1749 0008 0B46     		mov	r3, r1
 1750 000a FB70     		strb	r3, [r7, #3]
 776:/home/virusv/usart/Libraries/src/stm32f10x_can.c ****   uint8_t status = CAN_ModeStatus_Failed;
 1751              		.loc 1 776 0
 1752 000c 0023     		movs	r3, #0
 1753 000e FB73     		strb	r3, [r7, #15]
 777:/home/virusv/usart/Libraries/src/stm32f10x_can.c ****   
 778:/home/virusv/usart/Libraries/src/stm32f10x_can.c ****   /* Timeout for INAK or also for SLAK bits*/
 779:/home/virusv/usart/Libraries/src/stm32f10x_can.c ****   uint32_t timeout = INAK_TIMEOUT; 
 1754              		.loc 1 779 0
 1755 0010 4FF6FF73 		movw	r3, #65535
 1756 0014 BB60     		str	r3, [r7, #8]
 780:/home/virusv/usart/Libraries/src/stm32f10x_can.c **** 
 781:/home/virusv/usart/Libraries/src/stm32f10x_can.c ****   /* Check the parameters */
 782:/home/virusv/usart/Libraries/src/stm32f10x_can.c ****   assert_param(IS_CAN_ALL_PERIPH(CANx));
 783:/home/virusv/usart/Libraries/src/stm32f10x_can.c ****   assert_param(IS_CAN_OPERATING_MODE(CAN_OperatingMode));
 784:/home/virusv/usart/Libraries/src/stm32f10x_can.c **** 
 785:/home/virusv/usart/Libraries/src/stm32f10x_can.c ****   if (CAN_OperatingMode == CAN_OperatingMode_Initialization)
 1757              		.loc 1 785 0
 1758 0016 FB78     		ldrb	r3, [r7, #3]	@ zero_extendqisi2
 1759 0018 002B     		cmp	r3, #0
 1760 001a 20D1     		bne	.L98
 786:/home/virusv/usart/Libraries/src/stm32f10x_can.c ****   {
 787:/home/virusv/usart/Libraries/src/stm32f10x_can.c ****     /* Request initialisation */
 788:/home/virusv/usart/Libraries/src/stm32f10x_can.c ****     CANx->MCR = (uint32_t)((CANx->MCR & (uint32_t)(~(uint32_t)CAN_MCR_SLEEP)) | CAN_MCR_INRQ);
 1761              		.loc 1 788 0
 1762 001c 7B68     		ldr	r3, [r7, #4]
 1763 001e 1B68     		ldr	r3, [r3]
 1764 0020 23F00303 		bic	r3, r3, #3
 1765 0024 43F00102 		orr	r2, r3, #1
 1766 0028 7B68     		ldr	r3, [r7, #4]
 1767 002a 1A60     		str	r2, [r3]
 789:/home/virusv/usart/Libraries/src/stm32f10x_can.c **** 
 790:/home/virusv/usart/Libraries/src/stm32f10x_can.c ****     /* Wait the acknowledge */
 791:/home/virusv/usart/Libraries/src/stm32f10x_can.c ****     while (((CANx->MSR & CAN_MODE_MASK) != CAN_MSR_INAK) && (timeout != 0))
 1768              		.loc 1 791 0
 1769 002c 02E0     		b	.L99
 1770              	.L101:
 792:/home/virusv/usart/Libraries/src/stm32f10x_can.c ****     {
 793:/home/virusv/usart/Libraries/src/stm32f10x_can.c ****       timeout--;
 1771              		.loc 1 793 0
 1772 002e BB68     		ldr	r3, [r7, #8]
 1773 0030 013B     		subs	r3, r3, #1
 1774 0032 BB60     		str	r3, [r7, #8]
 1775              	.L99:
 791:/home/virusv/usart/Libraries/src/stm32f10x_can.c ****     {
 1776              		.loc 1 791 0
 1777 0034 7B68     		ldr	r3, [r7, #4]
 1778 0036 5B68     		ldr	r3, [r3, #4]
 1779 0038 03F00303 		and	r3, r3, #3
 1780 003c 012B     		cmp	r3, #1
 1781 003e 02D0     		beq	.L100
 791:/home/virusv/usart/Libraries/src/stm32f10x_can.c ****     {
 1782              		.loc 1 791 0 is_stmt 0 discriminator 1
 1783 0040 BB68     		ldr	r3, [r7, #8]
 1784 0042 002B     		cmp	r3, #0
 1785 0044 F3D1     		bne	.L101
 1786              	.L100:
 794:/home/virusv/usart/Libraries/src/stm32f10x_can.c ****     }
 795:/home/virusv/usart/Libraries/src/stm32f10x_can.c ****     if ((CANx->MSR & CAN_MODE_MASK) != CAN_MSR_INAK)
 1787              		.loc 1 795 0 is_stmt 1
 1788 0046 7B68     		ldr	r3, [r7, #4]
 1789 0048 5B68     		ldr	r3, [r3, #4]
 1790 004a 03F00303 		and	r3, r3, #3
 1791 004e 012B     		cmp	r3, #1
 1792 0050 02D0     		beq	.L102
 796:/home/virusv/usart/Libraries/src/stm32f10x_can.c ****     {
 797:/home/virusv/usart/Libraries/src/stm32f10x_can.c ****       status = CAN_ModeStatus_Failed;
 1793              		.loc 1 797 0
 1794 0052 0023     		movs	r3, #0
 1795 0054 FB73     		strb	r3, [r7, #15]
 1796 0056 4AE0     		b	.L104
 1797              	.L102:
 798:/home/virusv/usart/Libraries/src/stm32f10x_can.c ****     }
 799:/home/virusv/usart/Libraries/src/stm32f10x_can.c ****     else
 800:/home/virusv/usart/Libraries/src/stm32f10x_can.c ****     {
 801:/home/virusv/usart/Libraries/src/stm32f10x_can.c ****       status = CAN_ModeStatus_Success;
 1798              		.loc 1 801 0
 1799 0058 0123     		movs	r3, #1
 1800 005a FB73     		strb	r3, [r7, #15]
 1801 005c 47E0     		b	.L104
 1802              	.L98:
 802:/home/virusv/usart/Libraries/src/stm32f10x_can.c ****     }
 803:/home/virusv/usart/Libraries/src/stm32f10x_can.c ****   }
 804:/home/virusv/usart/Libraries/src/stm32f10x_can.c ****   else  if (CAN_OperatingMode == CAN_OperatingMode_Normal)
 1803              		.loc 1 804 0
 1804 005e FB78     		ldrb	r3, [r7, #3]	@ zero_extendqisi2
 1805 0060 012B     		cmp	r3, #1
 1806 0062 1ED1     		bne	.L105
 805:/home/virusv/usart/Libraries/src/stm32f10x_can.c ****   {
 806:/home/virusv/usart/Libraries/src/stm32f10x_can.c ****     /* Request leave initialisation and sleep mode  and enter Normal mode */
 807:/home/virusv/usart/Libraries/src/stm32f10x_can.c ****     CANx->MCR &= (uint32_t)(~(CAN_MCR_SLEEP|CAN_MCR_INRQ));
 1807              		.loc 1 807 0
 1808 0064 7B68     		ldr	r3, [r7, #4]
 1809 0066 1B68     		ldr	r3, [r3]
 1810 0068 23F00302 		bic	r2, r3, #3
 1811 006c 7B68     		ldr	r3, [r7, #4]
 1812 006e 1A60     		str	r2, [r3]
 808:/home/virusv/usart/Libraries/src/stm32f10x_can.c **** 
 809:/home/virusv/usart/Libraries/src/stm32f10x_can.c ****     /* Wait the acknowledge */
 810:/home/virusv/usart/Libraries/src/stm32f10x_can.c ****     while (((CANx->MSR & CAN_MODE_MASK) != 0) && (timeout!=0))
 1813              		.loc 1 810 0
 1814 0070 02E0     		b	.L106
 1815              	.L108:
 811:/home/virusv/usart/Libraries/src/stm32f10x_can.c ****     {
 812:/home/virusv/usart/Libraries/src/stm32f10x_can.c ****       timeout--;
 1816              		.loc 1 812 0
 1817 0072 BB68     		ldr	r3, [r7, #8]
 1818 0074 013B     		subs	r3, r3, #1
 1819 0076 BB60     		str	r3, [r7, #8]
 1820              	.L106:
 810:/home/virusv/usart/Libraries/src/stm32f10x_can.c ****     {
 1821              		.loc 1 810 0
 1822 0078 7B68     		ldr	r3, [r7, #4]
 1823 007a 5B68     		ldr	r3, [r3, #4]
 1824 007c 03F00303 		and	r3, r3, #3
 1825 0080 002B     		cmp	r3, #0
 1826 0082 02D0     		beq	.L107
 810:/home/virusv/usart/Libraries/src/stm32f10x_can.c ****     {
 1827              		.loc 1 810 0 is_stmt 0 discriminator 1
 1828 0084 BB68     		ldr	r3, [r7, #8]
 1829 0086 002B     		cmp	r3, #0
 1830 0088 F3D1     		bne	.L108
 1831              	.L107:
 813:/home/virusv/usart/Libraries/src/stm32f10x_can.c ****     }
 814:/home/virusv/usart/Libraries/src/stm32f10x_can.c ****     if ((CANx->MSR & CAN_MODE_MASK) != 0)
 1832              		.loc 1 814 0 is_stmt 1
 1833 008a 7B68     		ldr	r3, [r7, #4]
 1834 008c 5B68     		ldr	r3, [r3, #4]
 1835 008e 03F00303 		and	r3, r3, #3
 1836 0092 002B     		cmp	r3, #0
 1837 0094 02D0     		beq	.L109
 815:/home/virusv/usart/Libraries/src/stm32f10x_can.c ****     {
 816:/home/virusv/usart/Libraries/src/stm32f10x_can.c ****       status = CAN_ModeStatus_Failed;
 1838              		.loc 1 816 0
 1839 0096 0023     		movs	r3, #0
 1840 0098 FB73     		strb	r3, [r7, #15]
 1841 009a 28E0     		b	.L104
 1842              	.L109:
 817:/home/virusv/usart/Libraries/src/stm32f10x_can.c ****     }
 818:/home/virusv/usart/Libraries/src/stm32f10x_can.c ****     else
 819:/home/virusv/usart/Libraries/src/stm32f10x_can.c ****     {
 820:/home/virusv/usart/Libraries/src/stm32f10x_can.c ****       status = CAN_ModeStatus_Success;
 1843              		.loc 1 820 0
 1844 009c 0123     		movs	r3, #1
 1845 009e FB73     		strb	r3, [r7, #15]
 1846 00a0 25E0     		b	.L104
 1847              	.L105:
 821:/home/virusv/usart/Libraries/src/stm32f10x_can.c ****     }
 822:/home/virusv/usart/Libraries/src/stm32f10x_can.c ****   }
 823:/home/virusv/usart/Libraries/src/stm32f10x_can.c ****   else  if (CAN_OperatingMode == CAN_OperatingMode_Sleep)
 1848              		.loc 1 823 0
 1849 00a2 FB78     		ldrb	r3, [r7, #3]	@ zero_extendqisi2
 1850 00a4 022B     		cmp	r3, #2
 1851 00a6 20D1     		bne	.L111
 824:/home/virusv/usart/Libraries/src/stm32f10x_can.c ****   {
 825:/home/virusv/usart/Libraries/src/stm32f10x_can.c ****     /* Request Sleep mode */
 826:/home/virusv/usart/Libraries/src/stm32f10x_can.c ****     CANx->MCR = (uint32_t)((CANx->MCR & (uint32_t)(~(uint32_t)CAN_MCR_INRQ)) | CAN_MCR_SLEEP);
 1852              		.loc 1 826 0
 1853 00a8 7B68     		ldr	r3, [r7, #4]
 1854 00aa 1B68     		ldr	r3, [r3]
 1855 00ac 23F00303 		bic	r3, r3, #3
 1856 00b0 43F00202 		orr	r2, r3, #2
 1857 00b4 7B68     		ldr	r3, [r7, #4]
 1858 00b6 1A60     		str	r2, [r3]
 827:/home/virusv/usart/Libraries/src/stm32f10x_can.c **** 
 828:/home/virusv/usart/Libraries/src/stm32f10x_can.c ****     /* Wait the acknowledge */
 829:/home/virusv/usart/Libraries/src/stm32f10x_can.c ****     while (((CANx->MSR & CAN_MODE_MASK) != CAN_MSR_SLAK) && (timeout!=0))
 1859              		.loc 1 829 0
 1860 00b8 02E0     		b	.L112
 1861              	.L114:
 830:/home/virusv/usart/Libraries/src/stm32f10x_can.c ****     {
 831:/home/virusv/usart/Libraries/src/stm32f10x_can.c ****       timeout--;
 1862              		.loc 1 831 0
 1863 00ba BB68     		ldr	r3, [r7, #8]
 1864 00bc 013B     		subs	r3, r3, #1
 1865 00be BB60     		str	r3, [r7, #8]
 1866              	.L112:
 829:/home/virusv/usart/Libraries/src/stm32f10x_can.c ****     {
 1867              		.loc 1 829 0
 1868 00c0 7B68     		ldr	r3, [r7, #4]
 1869 00c2 5B68     		ldr	r3, [r3, #4]
 1870 00c4 03F00303 		and	r3, r3, #3
 1871 00c8 022B     		cmp	r3, #2
 1872 00ca 02D0     		beq	.L113
 829:/home/virusv/usart/Libraries/src/stm32f10x_can.c ****     {
 1873              		.loc 1 829 0 is_stmt 0 discriminator 1
 1874 00cc BB68     		ldr	r3, [r7, #8]
 1875 00ce 002B     		cmp	r3, #0
 1876 00d0 F3D1     		bne	.L114
 1877              	.L113:
 832:/home/virusv/usart/Libraries/src/stm32f10x_can.c ****     }
 833:/home/virusv/usart/Libraries/src/stm32f10x_can.c ****     if ((CANx->MSR & CAN_MODE_MASK) != CAN_MSR_SLAK)
 1878              		.loc 1 833 0 is_stmt 1
 1879 00d2 7B68     		ldr	r3, [r7, #4]
 1880 00d4 5B68     		ldr	r3, [r3, #4]
 1881 00d6 03F00303 		and	r3, r3, #3
 1882 00da 022B     		cmp	r3, #2
 1883 00dc 02D0     		beq	.L115
 834:/home/virusv/usart/Libraries/src/stm32f10x_can.c ****     {
 835:/home/virusv/usart/Libraries/src/stm32f10x_can.c ****       status = CAN_ModeStatus_Failed;
 1884              		.loc 1 835 0
 1885 00de 0023     		movs	r3, #0
 1886 00e0 FB73     		strb	r3, [r7, #15]
 1887 00e2 04E0     		b	.L104
 1888              	.L115:
 836:/home/virusv/usart/Libraries/src/stm32f10x_can.c ****     }
 837:/home/virusv/usart/Libraries/src/stm32f10x_can.c ****     else
 838:/home/virusv/usart/Libraries/src/stm32f10x_can.c ****     {
 839:/home/virusv/usart/Libraries/src/stm32f10x_can.c ****       status = CAN_ModeStatus_Success;
 1889              		.loc 1 839 0
 1890 00e4 0123     		movs	r3, #1
 1891 00e6 FB73     		strb	r3, [r7, #15]
 1892 00e8 01E0     		b	.L104
 1893              	.L111:
 840:/home/virusv/usart/Libraries/src/stm32f10x_can.c ****     }
 841:/home/virusv/usart/Libraries/src/stm32f10x_can.c ****   }
 842:/home/virusv/usart/Libraries/src/stm32f10x_can.c ****   else
 843:/home/virusv/usart/Libraries/src/stm32f10x_can.c ****   {
 844:/home/virusv/usart/Libraries/src/stm32f10x_can.c ****     status = CAN_ModeStatus_Failed;
 1894              		.loc 1 844 0
 1895 00ea 0023     		movs	r3, #0
 1896 00ec FB73     		strb	r3, [r7, #15]
 1897              	.L104:
 845:/home/virusv/usart/Libraries/src/stm32f10x_can.c ****   }
 846:/home/virusv/usart/Libraries/src/stm32f10x_can.c **** 
 847:/home/virusv/usart/Libraries/src/stm32f10x_can.c ****   return  (uint8_t) status;
 1898              		.loc 1 847 0
 1899 00ee FB7B     		ldrb	r3, [r7, #15]	@ zero_extendqisi2
 848:/home/virusv/usart/Libraries/src/stm32f10x_can.c **** }
 1900              		.loc 1 848 0
 1901 00f0 1846     		mov	r0, r3
 1902 00f2 1437     		adds	r7, r7, #20
 1903              		.cfi_def_cfa_offset 4
 1904 00f4 BD46     		mov	sp, r7
 1905              		.cfi_def_cfa_register 13
 1906              		@ sp needed
 1907 00f6 5DF8047B 		ldr	r7, [sp], #4
 1908              		.cfi_restore 7
 1909              		.cfi_def_cfa_offset 0
 1910 00fa 7047     		bx	lr
 1911              		.cfi_endproc
 1912              	.LFE42:
 1914              		.section	.text.CAN_Sleep,"ax",%progbits
 1915              		.align	2
 1916              		.global	CAN_Sleep
 1917              		.thumb
 1918              		.thumb_func
 1920              	CAN_Sleep:
 1921              	.LFB43:
 849:/home/virusv/usart/Libraries/src/stm32f10x_can.c **** 
 850:/home/virusv/usart/Libraries/src/stm32f10x_can.c **** /**
 851:/home/virusv/usart/Libraries/src/stm32f10x_can.c ****   * @brief  Enters the low power mode.
 852:/home/virusv/usart/Libraries/src/stm32f10x_can.c ****   * @param  CANx:   where x can be 1 or 2 to to select the CAN peripheral.
 853:/home/virusv/usart/Libraries/src/stm32f10x_can.c ****   * @retval status: CAN_Sleep_Ok if sleep entered, CAN_Sleep_Failed in an 
 854:/home/virusv/usart/Libraries/src/stm32f10x_can.c ****   *                 other case.
 855:/home/virusv/usart/Libraries/src/stm32f10x_can.c ****   */
 856:/home/virusv/usart/Libraries/src/stm32f10x_can.c **** uint8_t CAN_Sleep(CAN_TypeDef* CANx)
 857:/home/virusv/usart/Libraries/src/stm32f10x_can.c **** {
 1922              		.loc 1 857 0
 1923              		.cfi_startproc
 1924              		@ args = 0, pretend = 0, frame = 16
 1925              		@ frame_needed = 1, uses_anonymous_args = 0
 1926              		@ link register save eliminated.
 1927 0000 80B4     		push	{r7}
 1928              		.cfi_def_cfa_offset 4
 1929              		.cfi_offset 7, -4
 1930 0002 85B0     		sub	sp, sp, #20
 1931              		.cfi_def_cfa_offset 24
 1932 0004 00AF     		add	r7, sp, #0
 1933              		.cfi_def_cfa_register 7
 1934 0006 7860     		str	r0, [r7, #4]
 858:/home/virusv/usart/Libraries/src/stm32f10x_can.c ****   uint8_t sleepstatus = CAN_Sleep_Failed;
 1935              		.loc 1 858 0
 1936 0008 0023     		movs	r3, #0
 1937 000a FB73     		strb	r3, [r7, #15]
 859:/home/virusv/usart/Libraries/src/stm32f10x_can.c ****   
 860:/home/virusv/usart/Libraries/src/stm32f10x_can.c ****   /* Check the parameters */
 861:/home/virusv/usart/Libraries/src/stm32f10x_can.c ****   assert_param(IS_CAN_ALL_PERIPH(CANx));
 862:/home/virusv/usart/Libraries/src/stm32f10x_can.c ****     
 863:/home/virusv/usart/Libraries/src/stm32f10x_can.c ****   /* Request Sleep mode */
 864:/home/virusv/usart/Libraries/src/stm32f10x_can.c ****    CANx->MCR = (((CANx->MCR) & (uint32_t)(~(uint32_t)CAN_MCR_INRQ)) | CAN_MCR_SLEEP);
 1938              		.loc 1 864 0
 1939 000c 7B68     		ldr	r3, [r7, #4]
 1940 000e 1B68     		ldr	r3, [r3]
 1941 0010 23F00303 		bic	r3, r3, #3
 1942 0014 43F00202 		orr	r2, r3, #2
 1943 0018 7B68     		ldr	r3, [r7, #4]
 1944 001a 1A60     		str	r2, [r3]
 865:/home/virusv/usart/Libraries/src/stm32f10x_can.c ****    
 866:/home/virusv/usart/Libraries/src/stm32f10x_can.c ****   /* Sleep mode status */
 867:/home/virusv/usart/Libraries/src/stm32f10x_can.c ****   if ((CANx->MSR & (CAN_MSR_SLAK|CAN_MSR_INAK)) == CAN_MSR_SLAK)
 1945              		.loc 1 867 0
 1946 001c 7B68     		ldr	r3, [r7, #4]
 1947 001e 5B68     		ldr	r3, [r3, #4]
 1948 0020 03F00303 		and	r3, r3, #3
 1949 0024 022B     		cmp	r3, #2
 1950 0026 01D1     		bne	.L119
 868:/home/virusv/usart/Libraries/src/stm32f10x_can.c ****   {
 869:/home/virusv/usart/Libraries/src/stm32f10x_can.c ****     /* Sleep mode not entered */
 870:/home/virusv/usart/Libraries/src/stm32f10x_can.c ****     sleepstatus =  CAN_Sleep_Ok;
 1951              		.loc 1 870 0
 1952 0028 0123     		movs	r3, #1
 1953 002a FB73     		strb	r3, [r7, #15]
 1954              	.L119:
 871:/home/virusv/usart/Libraries/src/stm32f10x_can.c ****   }
 872:/home/virusv/usart/Libraries/src/stm32f10x_can.c ****   /* return sleep mode status */
 873:/home/virusv/usart/Libraries/src/stm32f10x_can.c ****    return (uint8_t)sleepstatus;
 1955              		.loc 1 873 0
 1956 002c FB7B     		ldrb	r3, [r7, #15]	@ zero_extendqisi2
 874:/home/virusv/usart/Libraries/src/stm32f10x_can.c **** }
 1957              		.loc 1 874 0
 1958 002e 1846     		mov	r0, r3
 1959 0030 1437     		adds	r7, r7, #20
 1960              		.cfi_def_cfa_offset 4
 1961 0032 BD46     		mov	sp, r7
 1962              		.cfi_def_cfa_register 13
 1963              		@ sp needed
 1964 0034 5DF8047B 		ldr	r7, [sp], #4
 1965              		.cfi_restore 7
 1966              		.cfi_def_cfa_offset 0
 1967 0038 7047     		bx	lr
 1968              		.cfi_endproc
 1969              	.LFE43:
 1971 003a 00BF     		.section	.text.CAN_WakeUp,"ax",%progbits
 1972              		.align	2
 1973              		.global	CAN_WakeUp
 1974              		.thumb
 1975              		.thumb_func
 1977              	CAN_WakeUp:
 1978              	.LFB44:
 875:/home/virusv/usart/Libraries/src/stm32f10x_can.c **** 
 876:/home/virusv/usart/Libraries/src/stm32f10x_can.c **** /**
 877:/home/virusv/usart/Libraries/src/stm32f10x_can.c ****   * @brief  Wakes the CAN up.
 878:/home/virusv/usart/Libraries/src/stm32f10x_can.c ****   * @param  CANx:    where x can be 1 or 2 to to select the CAN peripheral.
 879:/home/virusv/usart/Libraries/src/stm32f10x_can.c ****   * @retval status:  CAN_WakeUp_Ok if sleep mode left, CAN_WakeUp_Failed in an 
 880:/home/virusv/usart/Libraries/src/stm32f10x_can.c ****   *                  other case.
 881:/home/virusv/usart/Libraries/src/stm32f10x_can.c ****   */
 882:/home/virusv/usart/Libraries/src/stm32f10x_can.c **** uint8_t CAN_WakeUp(CAN_TypeDef* CANx)
 883:/home/virusv/usart/Libraries/src/stm32f10x_can.c **** {
 1979              		.loc 1 883 0
 1980              		.cfi_startproc
 1981              		@ args = 0, pretend = 0, frame = 16
 1982              		@ frame_needed = 1, uses_anonymous_args = 0
 1983              		@ link register save eliminated.
 1984 0000 80B4     		push	{r7}
 1985              		.cfi_def_cfa_offset 4
 1986              		.cfi_offset 7, -4
 1987 0002 85B0     		sub	sp, sp, #20
 1988              		.cfi_def_cfa_offset 24
 1989 0004 00AF     		add	r7, sp, #0
 1990              		.cfi_def_cfa_register 7
 1991 0006 7860     		str	r0, [r7, #4]
 884:/home/virusv/usart/Libraries/src/stm32f10x_can.c ****   uint32_t wait_slak = SLAK_TIMEOUT;
 1992              		.loc 1 884 0
 1993 0008 4FF6FF73 		movw	r3, #65535
 1994 000c FB60     		str	r3, [r7, #12]
 885:/home/virusv/usart/Libraries/src/stm32f10x_can.c ****   uint8_t wakeupstatus = CAN_WakeUp_Failed;
 1995              		.loc 1 885 0
 1996 000e 0023     		movs	r3, #0
 1997 0010 FB72     		strb	r3, [r7, #11]
 886:/home/virusv/usart/Libraries/src/stm32f10x_can.c ****   
 887:/home/virusv/usart/Libraries/src/stm32f10x_can.c ****   /* Check the parameters */
 888:/home/virusv/usart/Libraries/src/stm32f10x_can.c ****   assert_param(IS_CAN_ALL_PERIPH(CANx));
 889:/home/virusv/usart/Libraries/src/stm32f10x_can.c ****     
 890:/home/virusv/usart/Libraries/src/stm32f10x_can.c ****   /* Wake up request */
 891:/home/virusv/usart/Libraries/src/stm32f10x_can.c ****   CANx->MCR &= ~(uint32_t)CAN_MCR_SLEEP;
 1998              		.loc 1 891 0
 1999 0012 7B68     		ldr	r3, [r7, #4]
 2000 0014 1B68     		ldr	r3, [r3]
 2001 0016 23F00202 		bic	r2, r3, #2
 2002 001a 7B68     		ldr	r3, [r7, #4]
 2003 001c 1A60     		str	r2, [r3]
 892:/home/virusv/usart/Libraries/src/stm32f10x_can.c ****     
 893:/home/virusv/usart/Libraries/src/stm32f10x_can.c ****   /* Sleep mode status */
 894:/home/virusv/usart/Libraries/src/stm32f10x_can.c ****   while(((CANx->MSR & CAN_MSR_SLAK) == CAN_MSR_SLAK)&&(wait_slak!=0x00))
 2004              		.loc 1 894 0
 2005 001e 02E0     		b	.L122
 2006              	.L124:
 895:/home/virusv/usart/Libraries/src/stm32f10x_can.c ****   {
 896:/home/virusv/usart/Libraries/src/stm32f10x_can.c ****    wait_slak--;
 2007              		.loc 1 896 0
 2008 0020 FB68     		ldr	r3, [r7, #12]
 2009 0022 013B     		subs	r3, r3, #1
 2010 0024 FB60     		str	r3, [r7, #12]
 2011              	.L122:
 894:/home/virusv/usart/Libraries/src/stm32f10x_can.c ****   {
 2012              		.loc 1 894 0
 2013 0026 7B68     		ldr	r3, [r7, #4]
 2014 0028 5B68     		ldr	r3, [r3, #4]
 2015 002a 03F00203 		and	r3, r3, #2
 2016 002e 002B     		cmp	r3, #0
 2017 0030 02D0     		beq	.L123
 894:/home/virusv/usart/Libraries/src/stm32f10x_can.c ****   {
 2018              		.loc 1 894 0 is_stmt 0 discriminator 1
 2019 0032 FB68     		ldr	r3, [r7, #12]
 2020 0034 002B     		cmp	r3, #0
 2021 0036 F3D1     		bne	.L124
 2022              	.L123:
 897:/home/virusv/usart/Libraries/src/stm32f10x_can.c ****   }
 898:/home/virusv/usart/Libraries/src/stm32f10x_can.c ****   if((CANx->MSR & CAN_MSR_SLAK) != CAN_MSR_SLAK)
 2023              		.loc 1 898 0 is_stmt 1
 2024 0038 7B68     		ldr	r3, [r7, #4]
 2025 003a 5B68     		ldr	r3, [r3, #4]
 2026 003c 03F00203 		and	r3, r3, #2
 2027 0040 002B     		cmp	r3, #0
 2028 0042 01D1     		bne	.L125
 899:/home/virusv/usart/Libraries/src/stm32f10x_can.c ****   {
 900:/home/virusv/usart/Libraries/src/stm32f10x_can.c ****    /* wake up done : Sleep mode exited */
 901:/home/virusv/usart/Libraries/src/stm32f10x_can.c ****     wakeupstatus = CAN_WakeUp_Ok;
 2029              		.loc 1 901 0
 2030 0044 0123     		movs	r3, #1
 2031 0046 FB72     		strb	r3, [r7, #11]
 2032              	.L125:
 902:/home/virusv/usart/Libraries/src/stm32f10x_can.c ****   }
 903:/home/virusv/usart/Libraries/src/stm32f10x_can.c ****   /* return wakeup status */
 904:/home/virusv/usart/Libraries/src/stm32f10x_can.c ****   return (uint8_t)wakeupstatus;
 2033              		.loc 1 904 0
 2034 0048 FB7A     		ldrb	r3, [r7, #11]	@ zero_extendqisi2
 905:/home/virusv/usart/Libraries/src/stm32f10x_can.c **** }
 2035              		.loc 1 905 0
 2036 004a 1846     		mov	r0, r3
 2037 004c 1437     		adds	r7, r7, #20
 2038              		.cfi_def_cfa_offset 4
 2039 004e BD46     		mov	sp, r7
 2040              		.cfi_def_cfa_register 13
 2041              		@ sp needed
 2042 0050 5DF8047B 		ldr	r7, [sp], #4
 2043              		.cfi_restore 7
 2044              		.cfi_def_cfa_offset 0
 2045 0054 7047     		bx	lr
 2046              		.cfi_endproc
 2047              	.LFE44:
 2049 0056 00BF     		.section	.text.CAN_GetLastErrorCode,"ax",%progbits
 2050              		.align	2
 2051              		.global	CAN_GetLastErrorCode
 2052              		.thumb
 2053              		.thumb_func
 2055              	CAN_GetLastErrorCode:
 2056              	.LFB45:
 906:/home/virusv/usart/Libraries/src/stm32f10x_can.c **** 
 907:/home/virusv/usart/Libraries/src/stm32f10x_can.c **** 
 908:/home/virusv/usart/Libraries/src/stm32f10x_can.c **** /**
 909:/home/virusv/usart/Libraries/src/stm32f10x_can.c ****   * @brief  Returns the CANx's last error code (LEC).
 910:/home/virusv/usart/Libraries/src/stm32f10x_can.c ****   * @param  CANx:          where x can be 1 or 2 to to select the CAN peripheral.  
 911:/home/virusv/usart/Libraries/src/stm32f10x_can.c ****   * @retval CAN_ErrorCode: specifies the Error code : 
 912:/home/virusv/usart/Libraries/src/stm32f10x_can.c ****   *                        - CAN_ERRORCODE_NoErr            No Error  
 913:/home/virusv/usart/Libraries/src/stm32f10x_can.c ****   *                        - CAN_ERRORCODE_StuffErr         Stuff Error
 914:/home/virusv/usart/Libraries/src/stm32f10x_can.c ****   *                        - CAN_ERRORCODE_FormErr          Form Error
 915:/home/virusv/usart/Libraries/src/stm32f10x_can.c ****   *                        - CAN_ERRORCODE_ACKErr           Acknowledgment Error
 916:/home/virusv/usart/Libraries/src/stm32f10x_can.c ****   *                        - CAN_ERRORCODE_BitRecessiveErr  Bit Recessive Error
 917:/home/virusv/usart/Libraries/src/stm32f10x_can.c ****   *                        - CAN_ERRORCODE_BitDominantErr   Bit Dominant Error
 918:/home/virusv/usart/Libraries/src/stm32f10x_can.c ****   *                        - CAN_ERRORCODE_CRCErr           CRC Error
 919:/home/virusv/usart/Libraries/src/stm32f10x_can.c ****   *                        - CAN_ERRORCODE_SoftwareSetErr   Software Set Error  
 920:/home/virusv/usart/Libraries/src/stm32f10x_can.c ****   */
 921:/home/virusv/usart/Libraries/src/stm32f10x_can.c ****  
 922:/home/virusv/usart/Libraries/src/stm32f10x_can.c **** uint8_t CAN_GetLastErrorCode(CAN_TypeDef* CANx)
 923:/home/virusv/usart/Libraries/src/stm32f10x_can.c **** {
 2057              		.loc 1 923 0
 2058              		.cfi_startproc
 2059              		@ args = 0, pretend = 0, frame = 16
 2060              		@ frame_needed = 1, uses_anonymous_args = 0
 2061              		@ link register save eliminated.
 2062 0000 80B4     		push	{r7}
 2063              		.cfi_def_cfa_offset 4
 2064              		.cfi_offset 7, -4
 2065 0002 85B0     		sub	sp, sp, #20
 2066              		.cfi_def_cfa_offset 24
 2067 0004 00AF     		add	r7, sp, #0
 2068              		.cfi_def_cfa_register 7
 2069 0006 7860     		str	r0, [r7, #4]
 924:/home/virusv/usart/Libraries/src/stm32f10x_can.c ****   uint8_t errorcode=0;
 2070              		.loc 1 924 0
 2071 0008 0023     		movs	r3, #0
 2072 000a FB73     		strb	r3, [r7, #15]
 925:/home/virusv/usart/Libraries/src/stm32f10x_can.c ****   
 926:/home/virusv/usart/Libraries/src/stm32f10x_can.c ****   /* Check the parameters */
 927:/home/virusv/usart/Libraries/src/stm32f10x_can.c ****   assert_param(IS_CAN_ALL_PERIPH(CANx));
 928:/home/virusv/usart/Libraries/src/stm32f10x_can.c ****   
 929:/home/virusv/usart/Libraries/src/stm32f10x_can.c ****   /* Get the error code*/
 930:/home/virusv/usart/Libraries/src/stm32f10x_can.c ****   errorcode = (((uint8_t)CANx->ESR) & (uint8_t)CAN_ESR_LEC);
 2073              		.loc 1 930 0
 2074 000c 7B68     		ldr	r3, [r7, #4]
 2075 000e 9B69     		ldr	r3, [r3, #24]
 2076 0010 DBB2     		uxtb	r3, r3
 2077 0012 03F07003 		and	r3, r3, #112
 2078 0016 FB73     		strb	r3, [r7, #15]
 931:/home/virusv/usart/Libraries/src/stm32f10x_can.c ****   
 932:/home/virusv/usart/Libraries/src/stm32f10x_can.c ****   /* Return the error code*/
 933:/home/virusv/usart/Libraries/src/stm32f10x_can.c ****   return errorcode;
 2079              		.loc 1 933 0
 2080 0018 FB7B     		ldrb	r3, [r7, #15]	@ zero_extendqisi2
 934:/home/virusv/usart/Libraries/src/stm32f10x_can.c **** }
 2081              		.loc 1 934 0
 2082 001a 1846     		mov	r0, r3
 2083 001c 1437     		adds	r7, r7, #20
 2084              		.cfi_def_cfa_offset 4
 2085 001e BD46     		mov	sp, r7
 2086              		.cfi_def_cfa_register 13
 2087              		@ sp needed
 2088 0020 5DF8047B 		ldr	r7, [sp], #4
 2089              		.cfi_restore 7
 2090              		.cfi_def_cfa_offset 0
 2091 0024 7047     		bx	lr
 2092              		.cfi_endproc
 2093              	.LFE45:
 2095 0026 00BF     		.section	.text.CAN_GetReceiveErrorCounter,"ax",%progbits
 2096              		.align	2
 2097              		.global	CAN_GetReceiveErrorCounter
 2098              		.thumb
 2099              		.thumb_func
 2101              	CAN_GetReceiveErrorCounter:
 2102              	.LFB46:
 935:/home/virusv/usart/Libraries/src/stm32f10x_can.c **** /**
 936:/home/virusv/usart/Libraries/src/stm32f10x_can.c ****   * @brief  Returns the CANx Receive Error Counter (REC).
 937:/home/virusv/usart/Libraries/src/stm32f10x_can.c ****   * @note   In case of an error during reception, this counter is incremented 
 938:/home/virusv/usart/Libraries/src/stm32f10x_can.c ****   *         by 1 or by 8 depending on the error condition as defined by the CAN 
 939:/home/virusv/usart/Libraries/src/stm32f10x_can.c ****   *         standard. After every successful reception, the counter is 
 940:/home/virusv/usart/Libraries/src/stm32f10x_can.c ****   *         decremented by 1 or reset to 120 if its value was higher than 128. 
 941:/home/virusv/usart/Libraries/src/stm32f10x_can.c ****   *         When the counter value exceeds 127, the CAN controller enters the 
 942:/home/virusv/usart/Libraries/src/stm32f10x_can.c ****   *         error passive state.  
 943:/home/virusv/usart/Libraries/src/stm32f10x_can.c ****   * @param  CANx: where x can be 1 or 2 to to select the CAN peripheral.  
 944:/home/virusv/usart/Libraries/src/stm32f10x_can.c ****   * @retval CAN Receive Error Counter. 
 945:/home/virusv/usart/Libraries/src/stm32f10x_can.c ****   */
 946:/home/virusv/usart/Libraries/src/stm32f10x_can.c **** uint8_t CAN_GetReceiveErrorCounter(CAN_TypeDef* CANx)
 947:/home/virusv/usart/Libraries/src/stm32f10x_can.c **** {
 2103              		.loc 1 947 0
 2104              		.cfi_startproc
 2105              		@ args = 0, pretend = 0, frame = 16
 2106              		@ frame_needed = 1, uses_anonymous_args = 0
 2107              		@ link register save eliminated.
 2108 0000 80B4     		push	{r7}
 2109              		.cfi_def_cfa_offset 4
 2110              		.cfi_offset 7, -4
 2111 0002 85B0     		sub	sp, sp, #20
 2112              		.cfi_def_cfa_offset 24
 2113 0004 00AF     		add	r7, sp, #0
 2114              		.cfi_def_cfa_register 7
 2115 0006 7860     		str	r0, [r7, #4]
 948:/home/virusv/usart/Libraries/src/stm32f10x_can.c ****   uint8_t counter=0;
 2116              		.loc 1 948 0
 2117 0008 0023     		movs	r3, #0
 2118 000a FB73     		strb	r3, [r7, #15]
 949:/home/virusv/usart/Libraries/src/stm32f10x_can.c ****   
 950:/home/virusv/usart/Libraries/src/stm32f10x_can.c ****   /* Check the parameters */
 951:/home/virusv/usart/Libraries/src/stm32f10x_can.c ****   assert_param(IS_CAN_ALL_PERIPH(CANx));
 952:/home/virusv/usart/Libraries/src/stm32f10x_can.c ****   
 953:/home/virusv/usart/Libraries/src/stm32f10x_can.c ****   /* Get the Receive Error Counter*/
 954:/home/virusv/usart/Libraries/src/stm32f10x_can.c ****   counter = (uint8_t)((CANx->ESR & CAN_ESR_REC)>> 24);
 2119              		.loc 1 954 0
 2120 000c 7B68     		ldr	r3, [r7, #4]
 2121 000e 9B69     		ldr	r3, [r3, #24]
 2122 0010 1B0E     		lsrs	r3, r3, #24
 2123 0012 FB73     		strb	r3, [r7, #15]
 955:/home/virusv/usart/Libraries/src/stm32f10x_can.c ****   
 956:/home/virusv/usart/Libraries/src/stm32f10x_can.c ****   /* Return the Receive Error Counter*/
 957:/home/virusv/usart/Libraries/src/stm32f10x_can.c ****   return counter;
 2124              		.loc 1 957 0
 2125 0014 FB7B     		ldrb	r3, [r7, #15]	@ zero_extendqisi2
 958:/home/virusv/usart/Libraries/src/stm32f10x_can.c **** }
 2126              		.loc 1 958 0
 2127 0016 1846     		mov	r0, r3
 2128 0018 1437     		adds	r7, r7, #20
 2129              		.cfi_def_cfa_offset 4
 2130 001a BD46     		mov	sp, r7
 2131              		.cfi_def_cfa_register 13
 2132              		@ sp needed
 2133 001c 5DF8047B 		ldr	r7, [sp], #4
 2134              		.cfi_restore 7
 2135              		.cfi_def_cfa_offset 0
 2136 0020 7047     		bx	lr
 2137              		.cfi_endproc
 2138              	.LFE46:
 2140 0022 00BF     		.section	.text.CAN_GetLSBTransmitErrorCounter,"ax",%progbits
 2141              		.align	2
 2142              		.global	CAN_GetLSBTransmitErrorCounter
 2143              		.thumb
 2144              		.thumb_func
 2146              	CAN_GetLSBTransmitErrorCounter:
 2147              	.LFB47:
 959:/home/virusv/usart/Libraries/src/stm32f10x_can.c **** 
 960:/home/virusv/usart/Libraries/src/stm32f10x_can.c **** 
 961:/home/virusv/usart/Libraries/src/stm32f10x_can.c **** /**
 962:/home/virusv/usart/Libraries/src/stm32f10x_can.c ****   * @brief  Returns the LSB of the 9-bit CANx Transmit Error Counter(TEC).
 963:/home/virusv/usart/Libraries/src/stm32f10x_can.c ****   * @param  CANx:   where x can be 1 or 2 to to select the CAN peripheral.  
 964:/home/virusv/usart/Libraries/src/stm32f10x_can.c ****   * @retval LSB of the 9-bit CAN Transmit Error Counter. 
 965:/home/virusv/usart/Libraries/src/stm32f10x_can.c ****   */
 966:/home/virusv/usart/Libraries/src/stm32f10x_can.c **** uint8_t CAN_GetLSBTransmitErrorCounter(CAN_TypeDef* CANx)
 967:/home/virusv/usart/Libraries/src/stm32f10x_can.c **** {
 2148              		.loc 1 967 0
 2149              		.cfi_startproc
 2150              		@ args = 0, pretend = 0, frame = 16
 2151              		@ frame_needed = 1, uses_anonymous_args = 0
 2152              		@ link register save eliminated.
 2153 0000 80B4     		push	{r7}
 2154              		.cfi_def_cfa_offset 4
 2155              		.cfi_offset 7, -4
 2156 0002 85B0     		sub	sp, sp, #20
 2157              		.cfi_def_cfa_offset 24
 2158 0004 00AF     		add	r7, sp, #0
 2159              		.cfi_def_cfa_register 7
 2160 0006 7860     		str	r0, [r7, #4]
 968:/home/virusv/usart/Libraries/src/stm32f10x_can.c ****   uint8_t counter=0;
 2161              		.loc 1 968 0
 2162 0008 0023     		movs	r3, #0
 2163 000a FB73     		strb	r3, [r7, #15]
 969:/home/virusv/usart/Libraries/src/stm32f10x_can.c ****   
 970:/home/virusv/usart/Libraries/src/stm32f10x_can.c ****   /* Check the parameters */
 971:/home/virusv/usart/Libraries/src/stm32f10x_can.c ****   assert_param(IS_CAN_ALL_PERIPH(CANx));
 972:/home/virusv/usart/Libraries/src/stm32f10x_can.c ****   
 973:/home/virusv/usart/Libraries/src/stm32f10x_can.c ****   /* Get the LSB of the 9-bit CANx Transmit Error Counter(TEC) */
 974:/home/virusv/usart/Libraries/src/stm32f10x_can.c ****   counter = (uint8_t)((CANx->ESR & CAN_ESR_TEC)>> 16);
 2164              		.loc 1 974 0
 2165 000c 7B68     		ldr	r3, [r7, #4]
 2166 000e 9B69     		ldr	r3, [r3, #24]
 2167 0010 03F47F03 		and	r3, r3, #16711680
 2168 0014 1B0C     		lsrs	r3, r3, #16
 2169 0016 FB73     		strb	r3, [r7, #15]
 975:/home/virusv/usart/Libraries/src/stm32f10x_can.c ****   
 976:/home/virusv/usart/Libraries/src/stm32f10x_can.c ****   /* Return the LSB of the 9-bit CANx Transmit Error Counter(TEC) */
 977:/home/virusv/usart/Libraries/src/stm32f10x_can.c ****   return counter;
 2170              		.loc 1 977 0
 2171 0018 FB7B     		ldrb	r3, [r7, #15]	@ zero_extendqisi2
 978:/home/virusv/usart/Libraries/src/stm32f10x_can.c **** }
 2172              		.loc 1 978 0
 2173 001a 1846     		mov	r0, r3
 2174 001c 1437     		adds	r7, r7, #20
 2175              		.cfi_def_cfa_offset 4
 2176 001e BD46     		mov	sp, r7
 2177              		.cfi_def_cfa_register 13
 2178              		@ sp needed
 2179 0020 5DF8047B 		ldr	r7, [sp], #4
 2180              		.cfi_restore 7
 2181              		.cfi_def_cfa_offset 0
 2182 0024 7047     		bx	lr
 2183              		.cfi_endproc
 2184              	.LFE47:
 2186 0026 00BF     		.section	.text.CAN_ITConfig,"ax",%progbits
 2187              		.align	2
 2188              		.global	CAN_ITConfig
 2189              		.thumb
 2190              		.thumb_func
 2192              	CAN_ITConfig:
 2193              	.LFB48:
 979:/home/virusv/usart/Libraries/src/stm32f10x_can.c **** 
 980:/home/virusv/usart/Libraries/src/stm32f10x_can.c **** 
 981:/home/virusv/usart/Libraries/src/stm32f10x_can.c **** /**
 982:/home/virusv/usart/Libraries/src/stm32f10x_can.c ****   * @brief  Enables or disables the specified CANx interrupts.
 983:/home/virusv/usart/Libraries/src/stm32f10x_can.c ****   * @param  CANx:   where x can be 1 or 2 to to select the CAN peripheral.
 984:/home/virusv/usart/Libraries/src/stm32f10x_can.c ****   * @param  CAN_IT: specifies the CAN interrupt sources to be enabled or disabled.
 985:/home/virusv/usart/Libraries/src/stm32f10x_can.c ****   *                 This parameter can be: 
 986:/home/virusv/usart/Libraries/src/stm32f10x_can.c ****   *                 - CAN_IT_TME, 
 987:/home/virusv/usart/Libraries/src/stm32f10x_can.c ****   *                 - CAN_IT_FMP0, 
 988:/home/virusv/usart/Libraries/src/stm32f10x_can.c ****   *                 - CAN_IT_FF0,
 989:/home/virusv/usart/Libraries/src/stm32f10x_can.c ****   *                 - CAN_IT_FOV0, 
 990:/home/virusv/usart/Libraries/src/stm32f10x_can.c ****   *                 - CAN_IT_FMP1, 
 991:/home/virusv/usart/Libraries/src/stm32f10x_can.c ****   *                 - CAN_IT_FF1,
 992:/home/virusv/usart/Libraries/src/stm32f10x_can.c ****   *                 - CAN_IT_FOV1, 
 993:/home/virusv/usart/Libraries/src/stm32f10x_can.c ****   *                 - CAN_IT_EWG, 
 994:/home/virusv/usart/Libraries/src/stm32f10x_can.c ****   *                 - CAN_IT_EPV,
 995:/home/virusv/usart/Libraries/src/stm32f10x_can.c ****   *                 - CAN_IT_LEC, 
 996:/home/virusv/usart/Libraries/src/stm32f10x_can.c ****   *                 - CAN_IT_ERR, 
 997:/home/virusv/usart/Libraries/src/stm32f10x_can.c ****   *                 - CAN_IT_WKU or 
 998:/home/virusv/usart/Libraries/src/stm32f10x_can.c ****   *                 - CAN_IT_SLK.
 999:/home/virusv/usart/Libraries/src/stm32f10x_can.c ****   * @param  NewState: new state of the CAN interrupts.
1000:/home/virusv/usart/Libraries/src/stm32f10x_can.c ****   *                   This parameter can be: ENABLE or DISABLE.
1001:/home/virusv/usart/Libraries/src/stm32f10x_can.c ****   * @retval None.
1002:/home/virusv/usart/Libraries/src/stm32f10x_can.c ****   */
1003:/home/virusv/usart/Libraries/src/stm32f10x_can.c **** void CAN_ITConfig(CAN_TypeDef* CANx, uint32_t CAN_IT, FunctionalState NewState)
1004:/home/virusv/usart/Libraries/src/stm32f10x_can.c **** {
 2194              		.loc 1 1004 0
 2195              		.cfi_startproc
 2196              		@ args = 0, pretend = 0, frame = 16
 2197              		@ frame_needed = 1, uses_anonymous_args = 0
 2198              		@ link register save eliminated.
 2199 0000 80B4     		push	{r7}
 2200              		.cfi_def_cfa_offset 4
 2201              		.cfi_offset 7, -4
 2202 0002 85B0     		sub	sp, sp, #20
 2203              		.cfi_def_cfa_offset 24
 2204 0004 00AF     		add	r7, sp, #0
 2205              		.cfi_def_cfa_register 7
 2206 0006 F860     		str	r0, [r7, #12]
 2207 0008 B960     		str	r1, [r7, #8]
 2208 000a 1346     		mov	r3, r2
 2209 000c FB71     		strb	r3, [r7, #7]
1005:/home/virusv/usart/Libraries/src/stm32f10x_can.c ****   /* Check the parameters */
1006:/home/virusv/usart/Libraries/src/stm32f10x_can.c ****   assert_param(IS_CAN_ALL_PERIPH(CANx));
1007:/home/virusv/usart/Libraries/src/stm32f10x_can.c ****   assert_param(IS_CAN_IT(CAN_IT));
1008:/home/virusv/usart/Libraries/src/stm32f10x_can.c ****   assert_param(IS_FUNCTIONAL_STATE(NewState));
1009:/home/virusv/usart/Libraries/src/stm32f10x_can.c **** 
1010:/home/virusv/usart/Libraries/src/stm32f10x_can.c ****   if (NewState != DISABLE)
 2210              		.loc 1 1010 0
 2211 000e FB79     		ldrb	r3, [r7, #7]	@ zero_extendqisi2
 2212 0010 002B     		cmp	r3, #0
 2213 0012 06D0     		beq	.L134
1011:/home/virusv/usart/Libraries/src/stm32f10x_can.c ****   {
1012:/home/virusv/usart/Libraries/src/stm32f10x_can.c ****     /* Enable the selected CANx interrupt */
1013:/home/virusv/usart/Libraries/src/stm32f10x_can.c ****     CANx->IER |= CAN_IT;
 2214              		.loc 1 1013 0
 2215 0014 FB68     		ldr	r3, [r7, #12]
 2216 0016 5A69     		ldr	r2, [r3, #20]
 2217 0018 BB68     		ldr	r3, [r7, #8]
 2218 001a 1A43     		orrs	r2, r2, r3
 2219 001c FB68     		ldr	r3, [r7, #12]
 2220 001e 5A61     		str	r2, [r3, #20]
 2221 0020 06E0     		b	.L133
 2222              	.L134:
1014:/home/virusv/usart/Libraries/src/stm32f10x_can.c ****   }
1015:/home/virusv/usart/Libraries/src/stm32f10x_can.c ****   else
1016:/home/virusv/usart/Libraries/src/stm32f10x_can.c ****   {
1017:/home/virusv/usart/Libraries/src/stm32f10x_can.c ****     /* Disable the selected CANx interrupt */
1018:/home/virusv/usart/Libraries/src/stm32f10x_can.c ****     CANx->IER &= ~CAN_IT;
 2223              		.loc 1 1018 0
 2224 0022 FB68     		ldr	r3, [r7, #12]
 2225 0024 5A69     		ldr	r2, [r3, #20]
 2226 0026 BB68     		ldr	r3, [r7, #8]
 2227 0028 DB43     		mvns	r3, r3
 2228 002a 1A40     		ands	r2, r2, r3
 2229 002c FB68     		ldr	r3, [r7, #12]
 2230 002e 5A61     		str	r2, [r3, #20]
 2231              	.L133:
1019:/home/virusv/usart/Libraries/src/stm32f10x_can.c ****   }
1020:/home/virusv/usart/Libraries/src/stm32f10x_can.c **** }
 2232              		.loc 1 1020 0
 2233 0030 1437     		adds	r7, r7, #20
 2234              		.cfi_def_cfa_offset 4
 2235 0032 BD46     		mov	sp, r7
 2236              		.cfi_def_cfa_register 13
 2237              		@ sp needed
 2238 0034 5DF8047B 		ldr	r7, [sp], #4
 2239              		.cfi_restore 7
 2240              		.cfi_def_cfa_offset 0
 2241 0038 7047     		bx	lr
 2242              		.cfi_endproc
 2243              	.LFE48:
 2245 003a 00BF     		.section	.text.CAN_GetFlagStatus,"ax",%progbits
 2246              		.align	2
 2247              		.global	CAN_GetFlagStatus
 2248              		.thumb
 2249              		.thumb_func
 2251              	CAN_GetFlagStatus:
 2252              	.LFB49:
1021:/home/virusv/usart/Libraries/src/stm32f10x_can.c **** /**
1022:/home/virusv/usart/Libraries/src/stm32f10x_can.c ****   * @brief  Checks whether the specified CAN flag is set or not.
1023:/home/virusv/usart/Libraries/src/stm32f10x_can.c ****   * @param  CANx:     where x can be 1 or 2 to to select the CAN peripheral.
1024:/home/virusv/usart/Libraries/src/stm32f10x_can.c ****   * @param  CAN_FLAG: specifies the flag to check.
1025:/home/virusv/usart/Libraries/src/stm32f10x_can.c ****   *                   This parameter can be one of the following flags: 
1026:/home/virusv/usart/Libraries/src/stm32f10x_can.c ****   *                  - CAN_FLAG_EWG
1027:/home/virusv/usart/Libraries/src/stm32f10x_can.c ****   *                  - CAN_FLAG_EPV 
1028:/home/virusv/usart/Libraries/src/stm32f10x_can.c ****   *                  - CAN_FLAG_BOF
1029:/home/virusv/usart/Libraries/src/stm32f10x_can.c ****   *                  - CAN_FLAG_RQCP0
1030:/home/virusv/usart/Libraries/src/stm32f10x_can.c ****   *                  - CAN_FLAG_RQCP1
1031:/home/virusv/usart/Libraries/src/stm32f10x_can.c ****   *                  - CAN_FLAG_RQCP2
1032:/home/virusv/usart/Libraries/src/stm32f10x_can.c ****   *                  - CAN_FLAG_FMP1   
1033:/home/virusv/usart/Libraries/src/stm32f10x_can.c ****   *                  - CAN_FLAG_FF1       
1034:/home/virusv/usart/Libraries/src/stm32f10x_can.c ****   *                  - CAN_FLAG_FOV1   
1035:/home/virusv/usart/Libraries/src/stm32f10x_can.c ****   *                  - CAN_FLAG_FMP0   
1036:/home/virusv/usart/Libraries/src/stm32f10x_can.c ****   *                  - CAN_FLAG_FF0       
1037:/home/virusv/usart/Libraries/src/stm32f10x_can.c ****   *                  - CAN_FLAG_FOV0   
1038:/home/virusv/usart/Libraries/src/stm32f10x_can.c ****   *                  - CAN_FLAG_WKU 
1039:/home/virusv/usart/Libraries/src/stm32f10x_can.c ****   *                  - CAN_FLAG_SLAK  
1040:/home/virusv/usart/Libraries/src/stm32f10x_can.c ****   *                  - CAN_FLAG_LEC       
1041:/home/virusv/usart/Libraries/src/stm32f10x_can.c ****   * @retval The new state of CAN_FLAG (SET or RESET).
1042:/home/virusv/usart/Libraries/src/stm32f10x_can.c ****   */
1043:/home/virusv/usart/Libraries/src/stm32f10x_can.c **** FlagStatus CAN_GetFlagStatus(CAN_TypeDef* CANx, uint32_t CAN_FLAG)
1044:/home/virusv/usart/Libraries/src/stm32f10x_can.c **** {
 2253              		.loc 1 1044 0
 2254              		.cfi_startproc
 2255              		@ args = 0, pretend = 0, frame = 16
 2256              		@ frame_needed = 1, uses_anonymous_args = 0
 2257              		@ link register save eliminated.
 2258 0000 80B4     		push	{r7}
 2259              		.cfi_def_cfa_offset 4
 2260              		.cfi_offset 7, -4
 2261 0002 85B0     		sub	sp, sp, #20
 2262              		.cfi_def_cfa_offset 24
 2263 0004 00AF     		add	r7, sp, #0
 2264              		.cfi_def_cfa_register 7
 2265 0006 7860     		str	r0, [r7, #4]
 2266 0008 3960     		str	r1, [r7]
1045:/home/virusv/usart/Libraries/src/stm32f10x_can.c ****   FlagStatus bitstatus = RESET;
 2267              		.loc 1 1045 0
 2268 000a 0023     		movs	r3, #0
 2269 000c FB73     		strb	r3, [r7, #15]
1046:/home/virusv/usart/Libraries/src/stm32f10x_can.c ****   
1047:/home/virusv/usart/Libraries/src/stm32f10x_can.c ****   /* Check the parameters */
1048:/home/virusv/usart/Libraries/src/stm32f10x_can.c ****   assert_param(IS_CAN_ALL_PERIPH(CANx));
1049:/home/virusv/usart/Libraries/src/stm32f10x_can.c ****   assert_param(IS_CAN_GET_FLAG(CAN_FLAG));
1050:/home/virusv/usart/Libraries/src/stm32f10x_can.c ****   
1051:/home/virusv/usart/Libraries/src/stm32f10x_can.c **** 
1052:/home/virusv/usart/Libraries/src/stm32f10x_can.c ****   if((CAN_FLAG & CAN_FLAGS_ESR) != (uint32_t)RESET)
 2270              		.loc 1 1052 0
 2271 000e 3B68     		ldr	r3, [r7]
 2272 0010 03F47003 		and	r3, r3, #15728640
 2273 0014 002B     		cmp	r3, #0
 2274 0016 0DD0     		beq	.L137
1053:/home/virusv/usart/Libraries/src/stm32f10x_can.c ****   { 
1054:/home/virusv/usart/Libraries/src/stm32f10x_can.c ****     /* Check the status of the specified CAN flag */
1055:/home/virusv/usart/Libraries/src/stm32f10x_can.c ****     if ((CANx->ESR & (CAN_FLAG & 0x000FFFFF)) != (uint32_t)RESET)
 2275              		.loc 1 1055 0
 2276 0018 7B68     		ldr	r3, [r7, #4]
 2277 001a 9A69     		ldr	r2, [r3, #24]
 2278 001c 3B68     		ldr	r3, [r7]
 2279 001e 1340     		ands	r3, r3, r2
 2280 0020 C3F31303 		ubfx	r3, r3, #0, #20
 2281 0024 002B     		cmp	r3, #0
 2282 0026 02D0     		beq	.L138
1056:/home/virusv/usart/Libraries/src/stm32f10x_can.c ****     { 
1057:/home/virusv/usart/Libraries/src/stm32f10x_can.c ****       /* CAN_FLAG is set */
1058:/home/virusv/usart/Libraries/src/stm32f10x_can.c ****       bitstatus = SET;
 2283              		.loc 1 1058 0
 2284 0028 0123     		movs	r3, #1
 2285 002a FB73     		strb	r3, [r7, #15]
 2286 002c 48E0     		b	.L140
 2287              	.L138:
1059:/home/virusv/usart/Libraries/src/stm32f10x_can.c ****     }
1060:/home/virusv/usart/Libraries/src/stm32f10x_can.c ****     else
1061:/home/virusv/usart/Libraries/src/stm32f10x_can.c ****     { 
1062:/home/virusv/usart/Libraries/src/stm32f10x_can.c ****       /* CAN_FLAG is reset */
1063:/home/virusv/usart/Libraries/src/stm32f10x_can.c ****       bitstatus = RESET;
 2288              		.loc 1 1063 0
 2289 002e 0023     		movs	r3, #0
 2290 0030 FB73     		strb	r3, [r7, #15]
 2291 0032 45E0     		b	.L140
 2292              	.L137:
1064:/home/virusv/usart/Libraries/src/stm32f10x_can.c ****     }
1065:/home/virusv/usart/Libraries/src/stm32f10x_can.c ****   }
1066:/home/virusv/usart/Libraries/src/stm32f10x_can.c ****   else if((CAN_FLAG & CAN_FLAGS_MSR) != (uint32_t)RESET)
 2293              		.loc 1 1066 0
 2294 0034 3B68     		ldr	r3, [r7]
 2295 0036 03F08073 		and	r3, r3, #16777216
 2296 003a 002B     		cmp	r3, #0
 2297 003c 0DD0     		beq	.L141
1067:/home/virusv/usart/Libraries/src/stm32f10x_can.c ****   { 
1068:/home/virusv/usart/Libraries/src/stm32f10x_can.c ****     /* Check the status of the specified CAN flag */
1069:/home/virusv/usart/Libraries/src/stm32f10x_can.c ****     if ((CANx->MSR & (CAN_FLAG & 0x000FFFFF)) != (uint32_t)RESET)
 2298              		.loc 1 1069 0
 2299 003e 7B68     		ldr	r3, [r7, #4]
 2300 0040 5A68     		ldr	r2, [r3, #4]
 2301 0042 3B68     		ldr	r3, [r7]
 2302 0044 1340     		ands	r3, r3, r2
 2303 0046 C3F31303 		ubfx	r3, r3, #0, #20
 2304 004a 002B     		cmp	r3, #0
 2305 004c 02D0     		beq	.L142
1070:/home/virusv/usart/Libraries/src/stm32f10x_can.c ****     { 
1071:/home/virusv/usart/Libraries/src/stm32f10x_can.c ****       /* CAN_FLAG is set */
1072:/home/virusv/usart/Libraries/src/stm32f10x_can.c ****       bitstatus = SET;
 2306              		.loc 1 1072 0
 2307 004e 0123     		movs	r3, #1
 2308 0050 FB73     		strb	r3, [r7, #15]
 2309 0052 35E0     		b	.L140
 2310              	.L142:
1073:/home/virusv/usart/Libraries/src/stm32f10x_can.c ****     }
1074:/home/virusv/usart/Libraries/src/stm32f10x_can.c ****     else
1075:/home/virusv/usart/Libraries/src/stm32f10x_can.c ****     { 
1076:/home/virusv/usart/Libraries/src/stm32f10x_can.c ****       /* CAN_FLAG is reset */
1077:/home/virusv/usart/Libraries/src/stm32f10x_can.c ****       bitstatus = RESET;
 2311              		.loc 1 1077 0
 2312 0054 0023     		movs	r3, #0
 2313 0056 FB73     		strb	r3, [r7, #15]
 2314 0058 32E0     		b	.L140
 2315              	.L141:
1078:/home/virusv/usart/Libraries/src/stm32f10x_can.c ****     }
1079:/home/virusv/usart/Libraries/src/stm32f10x_can.c ****   }
1080:/home/virusv/usart/Libraries/src/stm32f10x_can.c ****   else if((CAN_FLAG & CAN_FLAGS_TSR) != (uint32_t)RESET)
 2316              		.loc 1 1080 0
 2317 005a 3B68     		ldr	r3, [r7]
 2318 005c 03F00063 		and	r3, r3, #134217728
 2319 0060 002B     		cmp	r3, #0
 2320 0062 0DD0     		beq	.L144
1081:/home/virusv/usart/Libraries/src/stm32f10x_can.c ****   { 
1082:/home/virusv/usart/Libraries/src/stm32f10x_can.c ****     /* Check the status of the specified CAN flag */
1083:/home/virusv/usart/Libraries/src/stm32f10x_can.c ****     if ((CANx->TSR & (CAN_FLAG & 0x000FFFFF)) != (uint32_t)RESET)
 2321              		.loc 1 1083 0
 2322 0064 7B68     		ldr	r3, [r7, #4]
 2323 0066 9A68     		ldr	r2, [r3, #8]
 2324 0068 3B68     		ldr	r3, [r7]
 2325 006a 1340     		ands	r3, r3, r2
 2326 006c C3F31303 		ubfx	r3, r3, #0, #20
 2327 0070 002B     		cmp	r3, #0
 2328 0072 02D0     		beq	.L145
1084:/home/virusv/usart/Libraries/src/stm32f10x_can.c ****     { 
1085:/home/virusv/usart/Libraries/src/stm32f10x_can.c ****       /* CAN_FLAG is set */
1086:/home/virusv/usart/Libraries/src/stm32f10x_can.c ****       bitstatus = SET;
 2329              		.loc 1 1086 0
 2330 0074 0123     		movs	r3, #1
 2331 0076 FB73     		strb	r3, [r7, #15]
 2332 0078 22E0     		b	.L140
 2333              	.L145:
1087:/home/virusv/usart/Libraries/src/stm32f10x_can.c ****     }
1088:/home/virusv/usart/Libraries/src/stm32f10x_can.c ****     else
1089:/home/virusv/usart/Libraries/src/stm32f10x_can.c ****     { 
1090:/home/virusv/usart/Libraries/src/stm32f10x_can.c ****       /* CAN_FLAG is reset */
1091:/home/virusv/usart/Libraries/src/stm32f10x_can.c ****       bitstatus = RESET;
 2334              		.loc 1 1091 0
 2335 007a 0023     		movs	r3, #0
 2336 007c FB73     		strb	r3, [r7, #15]
 2337 007e 1FE0     		b	.L140
 2338              	.L144:
1092:/home/virusv/usart/Libraries/src/stm32f10x_can.c ****     }
1093:/home/virusv/usart/Libraries/src/stm32f10x_can.c ****   }
1094:/home/virusv/usart/Libraries/src/stm32f10x_can.c ****   else if((CAN_FLAG & CAN_FLAGS_RF0R) != (uint32_t)RESET)
 2339              		.loc 1 1094 0
 2340 0080 3B68     		ldr	r3, [r7]
 2341 0082 03F00073 		and	r3, r3, #33554432
 2342 0086 002B     		cmp	r3, #0
 2343 0088 0DD0     		beq	.L147
1095:/home/virusv/usart/Libraries/src/stm32f10x_can.c ****   { 
1096:/home/virusv/usart/Libraries/src/stm32f10x_can.c ****     /* Check the status of the specified CAN flag */
1097:/home/virusv/usart/Libraries/src/stm32f10x_can.c ****     if ((CANx->RF0R & (CAN_FLAG & 0x000FFFFF)) != (uint32_t)RESET)
 2344              		.loc 1 1097 0
 2345 008a 7B68     		ldr	r3, [r7, #4]
 2346 008c DA68     		ldr	r2, [r3, #12]
 2347 008e 3B68     		ldr	r3, [r7]
 2348 0090 1340     		ands	r3, r3, r2
 2349 0092 C3F31303 		ubfx	r3, r3, #0, #20
 2350 0096 002B     		cmp	r3, #0
 2351 0098 02D0     		beq	.L148
1098:/home/virusv/usart/Libraries/src/stm32f10x_can.c ****     { 
1099:/home/virusv/usart/Libraries/src/stm32f10x_can.c ****       /* CAN_FLAG is set */
1100:/home/virusv/usart/Libraries/src/stm32f10x_can.c ****       bitstatus = SET;
 2352              		.loc 1 1100 0
 2353 009a 0123     		movs	r3, #1
 2354 009c FB73     		strb	r3, [r7, #15]
 2355 009e 0FE0     		b	.L140
 2356              	.L148:
1101:/home/virusv/usart/Libraries/src/stm32f10x_can.c ****     }
1102:/home/virusv/usart/Libraries/src/stm32f10x_can.c ****     else
1103:/home/virusv/usart/Libraries/src/stm32f10x_can.c ****     { 
1104:/home/virusv/usart/Libraries/src/stm32f10x_can.c ****       /* CAN_FLAG is reset */
1105:/home/virusv/usart/Libraries/src/stm32f10x_can.c ****       bitstatus = RESET;
 2357              		.loc 1 1105 0
 2358 00a0 0023     		movs	r3, #0
 2359 00a2 FB73     		strb	r3, [r7, #15]
 2360 00a4 0CE0     		b	.L140
 2361              	.L147:
1106:/home/virusv/usart/Libraries/src/stm32f10x_can.c ****     }
1107:/home/virusv/usart/Libraries/src/stm32f10x_can.c ****   }
1108:/home/virusv/usart/Libraries/src/stm32f10x_can.c ****   else /* If(CAN_FLAG & CAN_FLAGS_RF1R != (uint32_t)RESET) */
1109:/home/virusv/usart/Libraries/src/stm32f10x_can.c ****   { 
1110:/home/virusv/usart/Libraries/src/stm32f10x_can.c ****     /* Check the status of the specified CAN flag */
1111:/home/virusv/usart/Libraries/src/stm32f10x_can.c ****     if ((uint32_t)(CANx->RF1R & (CAN_FLAG & 0x000FFFFF)) != (uint32_t)RESET)
 2362              		.loc 1 1111 0
 2363 00a6 7B68     		ldr	r3, [r7, #4]
 2364 00a8 1A69     		ldr	r2, [r3, #16]
 2365 00aa 3B68     		ldr	r3, [r7]
 2366 00ac 1340     		ands	r3, r3, r2
 2367 00ae C3F31303 		ubfx	r3, r3, #0, #20
 2368 00b2 002B     		cmp	r3, #0
 2369 00b4 02D0     		beq	.L150
1112:/home/virusv/usart/Libraries/src/stm32f10x_can.c ****     { 
1113:/home/virusv/usart/Libraries/src/stm32f10x_can.c ****       /* CAN_FLAG is set */
1114:/home/virusv/usart/Libraries/src/stm32f10x_can.c ****       bitstatus = SET;
 2370              		.loc 1 1114 0
 2371 00b6 0123     		movs	r3, #1
 2372 00b8 FB73     		strb	r3, [r7, #15]
 2373 00ba 01E0     		b	.L140
 2374              	.L150:
1115:/home/virusv/usart/Libraries/src/stm32f10x_can.c ****     }
1116:/home/virusv/usart/Libraries/src/stm32f10x_can.c ****     else
1117:/home/virusv/usart/Libraries/src/stm32f10x_can.c ****     { 
1118:/home/virusv/usart/Libraries/src/stm32f10x_can.c ****       /* CAN_FLAG is reset */
1119:/home/virusv/usart/Libraries/src/stm32f10x_can.c ****       bitstatus = RESET;
 2375              		.loc 1 1119 0
 2376 00bc 0023     		movs	r3, #0
 2377 00be FB73     		strb	r3, [r7, #15]
 2378              	.L140:
1120:/home/virusv/usart/Libraries/src/stm32f10x_can.c ****     }
1121:/home/virusv/usart/Libraries/src/stm32f10x_can.c ****   }
1122:/home/virusv/usart/Libraries/src/stm32f10x_can.c ****   /* Return the CAN_FLAG status */
1123:/home/virusv/usart/Libraries/src/stm32f10x_can.c ****   return  bitstatus;
 2379              		.loc 1 1123 0
 2380 00c0 FB7B     		ldrb	r3, [r7, #15]	@ zero_extendqisi2
1124:/home/virusv/usart/Libraries/src/stm32f10x_can.c **** }
 2381              		.loc 1 1124 0
 2382 00c2 1846     		mov	r0, r3
 2383 00c4 1437     		adds	r7, r7, #20
 2384              		.cfi_def_cfa_offset 4
 2385 00c6 BD46     		mov	sp, r7
 2386              		.cfi_def_cfa_register 13
 2387              		@ sp needed
 2388 00c8 5DF8047B 		ldr	r7, [sp], #4
 2389              		.cfi_restore 7
 2390              		.cfi_def_cfa_offset 0
 2391 00cc 7047     		bx	lr
 2392              		.cfi_endproc
 2393              	.LFE49:
 2395 00ce 00BF     		.section	.text.CAN_ClearFlag,"ax",%progbits
 2396              		.align	2
 2397              		.global	CAN_ClearFlag
 2398              		.thumb
 2399              		.thumb_func
 2401              	CAN_ClearFlag:
 2402              	.LFB50:
1125:/home/virusv/usart/Libraries/src/stm32f10x_can.c **** 
1126:/home/virusv/usart/Libraries/src/stm32f10x_can.c **** /**
1127:/home/virusv/usart/Libraries/src/stm32f10x_can.c ****   * @brief  Clears the CAN's pending flags.
1128:/home/virusv/usart/Libraries/src/stm32f10x_can.c ****   * @param  CANx:     where x can be 1 or 2 to to select the CAN peripheral.
1129:/home/virusv/usart/Libraries/src/stm32f10x_can.c ****   * @param  CAN_FLAG: specifies the flag to clear.
1130:/home/virusv/usart/Libraries/src/stm32f10x_can.c ****   *                   This parameter can be one of the following flags: 
1131:/home/virusv/usart/Libraries/src/stm32f10x_can.c ****   *                    - CAN_FLAG_RQCP0
1132:/home/virusv/usart/Libraries/src/stm32f10x_can.c ****   *                    - CAN_FLAG_RQCP1
1133:/home/virusv/usart/Libraries/src/stm32f10x_can.c ****   *                    - CAN_FLAG_RQCP2
1134:/home/virusv/usart/Libraries/src/stm32f10x_can.c ****   *                    - CAN_FLAG_FF1       
1135:/home/virusv/usart/Libraries/src/stm32f10x_can.c ****   *                    - CAN_FLAG_FOV1   
1136:/home/virusv/usart/Libraries/src/stm32f10x_can.c ****   *                    - CAN_FLAG_FF0       
1137:/home/virusv/usart/Libraries/src/stm32f10x_can.c ****   *                    - CAN_FLAG_FOV0   
1138:/home/virusv/usart/Libraries/src/stm32f10x_can.c ****   *                    - CAN_FLAG_WKU   
1139:/home/virusv/usart/Libraries/src/stm32f10x_can.c ****   *                    - CAN_FLAG_SLAK    
1140:/home/virusv/usart/Libraries/src/stm32f10x_can.c ****   *                    - CAN_FLAG_LEC       
1141:/home/virusv/usart/Libraries/src/stm32f10x_can.c ****   * @retval None.
1142:/home/virusv/usart/Libraries/src/stm32f10x_can.c ****   */
1143:/home/virusv/usart/Libraries/src/stm32f10x_can.c **** void CAN_ClearFlag(CAN_TypeDef* CANx, uint32_t CAN_FLAG)
1144:/home/virusv/usart/Libraries/src/stm32f10x_can.c **** {
 2403              		.loc 1 1144 0
 2404              		.cfi_startproc
 2405              		@ args = 0, pretend = 0, frame = 16
 2406              		@ frame_needed = 1, uses_anonymous_args = 0
 2407              		@ link register save eliminated.
 2408 0000 80B4     		push	{r7}
 2409              		.cfi_def_cfa_offset 4
 2410              		.cfi_offset 7, -4
 2411 0002 85B0     		sub	sp, sp, #20
 2412              		.cfi_def_cfa_offset 24
 2413 0004 00AF     		add	r7, sp, #0
 2414              		.cfi_def_cfa_register 7
 2415 0006 7860     		str	r0, [r7, #4]
 2416 0008 3960     		str	r1, [r7]
1145:/home/virusv/usart/Libraries/src/stm32f10x_can.c ****   uint32_t flagtmp=0;
 2417              		.loc 1 1145 0
 2418 000a 0023     		movs	r3, #0
 2419 000c FB60     		str	r3, [r7, #12]
1146:/home/virusv/usart/Libraries/src/stm32f10x_can.c ****   /* Check the parameters */
1147:/home/virusv/usart/Libraries/src/stm32f10x_can.c ****   assert_param(IS_CAN_ALL_PERIPH(CANx));
1148:/home/virusv/usart/Libraries/src/stm32f10x_can.c ****   assert_param(IS_CAN_CLEAR_FLAG(CAN_FLAG));
1149:/home/virusv/usart/Libraries/src/stm32f10x_can.c ****   
1150:/home/virusv/usart/Libraries/src/stm32f10x_can.c ****   if (CAN_FLAG == CAN_FLAG_LEC) /* ESR register */
 2420              		.loc 1 1150 0
 2421 000e 3B68     		ldr	r3, [r7]
 2422 0010 164A     		ldr	r2, .L158
 2423 0012 9342     		cmp	r3, r2
 2424 0014 03D1     		bne	.L153
1151:/home/virusv/usart/Libraries/src/stm32f10x_can.c ****   {
1152:/home/virusv/usart/Libraries/src/stm32f10x_can.c ****     /* Clear the selected CAN flags */
1153:/home/virusv/usart/Libraries/src/stm32f10x_can.c ****     CANx->ESR = (uint32_t)RESET;
 2425              		.loc 1 1153 0
 2426 0016 7B68     		ldr	r3, [r7, #4]
 2427 0018 0022     		movs	r2, #0
 2428 001a 9A61     		str	r2, [r3, #24]
 2429 001c 21E0     		b	.L152
 2430              	.L153:
1154:/home/virusv/usart/Libraries/src/stm32f10x_can.c ****   }
1155:/home/virusv/usart/Libraries/src/stm32f10x_can.c ****   else /* MSR or TSR or RF0R or RF1R */
1156:/home/virusv/usart/Libraries/src/stm32f10x_can.c ****   {
1157:/home/virusv/usart/Libraries/src/stm32f10x_can.c ****     flagtmp = CAN_FLAG & 0x000FFFFF;
 2431              		.loc 1 1157 0
 2432 001e 3B68     		ldr	r3, [r7]
 2433 0020 C3F31303 		ubfx	r3, r3, #0, #20
 2434 0024 FB60     		str	r3, [r7, #12]
1158:/home/virusv/usart/Libraries/src/stm32f10x_can.c **** 
1159:/home/virusv/usart/Libraries/src/stm32f10x_can.c ****     if ((CAN_FLAG & CAN_FLAGS_RF0R)!=(uint32_t)RESET)
 2435              		.loc 1 1159 0
 2436 0026 3B68     		ldr	r3, [r7]
 2437 0028 03F00073 		and	r3, r3, #33554432
 2438 002c 002B     		cmp	r3, #0
 2439 002e 03D0     		beq	.L155
1160:/home/virusv/usart/Libraries/src/stm32f10x_can.c ****     {
1161:/home/virusv/usart/Libraries/src/stm32f10x_can.c ****       /* Receive Flags */
1162:/home/virusv/usart/Libraries/src/stm32f10x_can.c ****       CANx->RF0R = (uint32_t)(flagtmp);
 2440              		.loc 1 1162 0
 2441 0030 7B68     		ldr	r3, [r7, #4]
 2442 0032 FA68     		ldr	r2, [r7, #12]
 2443 0034 DA60     		str	r2, [r3, #12]
 2444 0036 14E0     		b	.L152
 2445              	.L155:
1163:/home/virusv/usart/Libraries/src/stm32f10x_can.c ****     }
1164:/home/virusv/usart/Libraries/src/stm32f10x_can.c ****     else if ((CAN_FLAG & CAN_FLAGS_RF1R)!=(uint32_t)RESET)
 2446              		.loc 1 1164 0
 2447 0038 3B68     		ldr	r3, [r7]
 2448 003a 03F08063 		and	r3, r3, #67108864
 2449 003e 002B     		cmp	r3, #0
 2450 0040 03D0     		beq	.L156
1165:/home/virusv/usart/Libraries/src/stm32f10x_can.c ****     {
1166:/home/virusv/usart/Libraries/src/stm32f10x_can.c ****       /* Receive Flags */
1167:/home/virusv/usart/Libraries/src/stm32f10x_can.c ****       CANx->RF1R = (uint32_t)(flagtmp);
 2451              		.loc 1 1167 0
 2452 0042 7B68     		ldr	r3, [r7, #4]
 2453 0044 FA68     		ldr	r2, [r7, #12]
 2454 0046 1A61     		str	r2, [r3, #16]
 2455 0048 0BE0     		b	.L152
 2456              	.L156:
1168:/home/virusv/usart/Libraries/src/stm32f10x_can.c ****     }
1169:/home/virusv/usart/Libraries/src/stm32f10x_can.c ****     else if ((CAN_FLAG & CAN_FLAGS_TSR)!=(uint32_t)RESET)
 2457              		.loc 1 1169 0
 2458 004a 3B68     		ldr	r3, [r7]
 2459 004c 03F00063 		and	r3, r3, #134217728
 2460 0050 002B     		cmp	r3, #0
 2461 0052 03D0     		beq	.L157
1170:/home/virusv/usart/Libraries/src/stm32f10x_can.c ****     {
1171:/home/virusv/usart/Libraries/src/stm32f10x_can.c ****       /* Transmit Flags */
1172:/home/virusv/usart/Libraries/src/stm32f10x_can.c ****       CANx->TSR = (uint32_t)(flagtmp);
 2462              		.loc 1 1172 0
 2463 0054 7B68     		ldr	r3, [r7, #4]
 2464 0056 FA68     		ldr	r2, [r7, #12]
 2465 0058 9A60     		str	r2, [r3, #8]
 2466 005a 02E0     		b	.L152
 2467              	.L157:
1173:/home/virusv/usart/Libraries/src/stm32f10x_can.c ****     }
1174:/home/virusv/usart/Libraries/src/stm32f10x_can.c ****     else /* If((CAN_FLAG & CAN_FLAGS_MSR)!=(uint32_t)RESET) */
1175:/home/virusv/usart/Libraries/src/stm32f10x_can.c ****     {
1176:/home/virusv/usart/Libraries/src/stm32f10x_can.c ****       /* Operating mode Flags */
1177:/home/virusv/usart/Libraries/src/stm32f10x_can.c ****       CANx->MSR = (uint32_t)(flagtmp);
 2468              		.loc 1 1177 0
 2469 005c 7B68     		ldr	r3, [r7, #4]
 2470 005e FA68     		ldr	r2, [r7, #12]
 2471 0060 5A60     		str	r2, [r3, #4]
 2472              	.L152:
1178:/home/virusv/usart/Libraries/src/stm32f10x_can.c ****     }
1179:/home/virusv/usart/Libraries/src/stm32f10x_can.c ****   }
1180:/home/virusv/usart/Libraries/src/stm32f10x_can.c **** }
 2473              		.loc 1 1180 0
 2474 0062 1437     		adds	r7, r7, #20
 2475              		.cfi_def_cfa_offset 4
 2476 0064 BD46     		mov	sp, r7
 2477              		.cfi_def_cfa_register 13
 2478              		@ sp needed
 2479 0066 5DF8047B 		ldr	r7, [sp], #4
 2480              		.cfi_restore 7
 2481              		.cfi_def_cfa_offset 0
 2482 006a 7047     		bx	lr
 2483              	.L159:
 2484              		.align	2
 2485              	.L158:
 2486 006c 7000F030 		.word	821035120
 2487              		.cfi_endproc
 2488              	.LFE50:
 2490              		.section	.text.CAN_GetITStatus,"ax",%progbits
 2491              		.align	2
 2492              		.global	CAN_GetITStatus
 2493              		.thumb
 2494              		.thumb_func
 2496              	CAN_GetITStatus:
 2497              	.LFB51:
1181:/home/virusv/usart/Libraries/src/stm32f10x_can.c **** 
1182:/home/virusv/usart/Libraries/src/stm32f10x_can.c **** /**
1183:/home/virusv/usart/Libraries/src/stm32f10x_can.c ****   * @brief  Checks whether the specified CANx interrupt has occurred or not.
1184:/home/virusv/usart/Libraries/src/stm32f10x_can.c ****   * @param  CANx:    where x can be 1 or 2 to to select the CAN peripheral.
1185:/home/virusv/usart/Libraries/src/stm32f10x_can.c ****   * @param  CAN_IT:  specifies the CAN interrupt source to check.
1186:/home/virusv/usart/Libraries/src/stm32f10x_can.c ****   *                  This parameter can be one of the following flags: 
1187:/home/virusv/usart/Libraries/src/stm32f10x_can.c ****   *                 -  CAN_IT_TME               
1188:/home/virusv/usart/Libraries/src/stm32f10x_can.c ****   *                 -  CAN_IT_FMP0              
1189:/home/virusv/usart/Libraries/src/stm32f10x_can.c ****   *                 -  CAN_IT_FF0               
1190:/home/virusv/usart/Libraries/src/stm32f10x_can.c ****   *                 -  CAN_IT_FOV0              
1191:/home/virusv/usart/Libraries/src/stm32f10x_can.c ****   *                 -  CAN_IT_FMP1              
1192:/home/virusv/usart/Libraries/src/stm32f10x_can.c ****   *                 -  CAN_IT_FF1               
1193:/home/virusv/usart/Libraries/src/stm32f10x_can.c ****   *                 -  CAN_IT_FOV1              
1194:/home/virusv/usart/Libraries/src/stm32f10x_can.c ****   *                 -  CAN_IT_WKU  
1195:/home/virusv/usart/Libraries/src/stm32f10x_can.c ****   *                 -  CAN_IT_SLK  
1196:/home/virusv/usart/Libraries/src/stm32f10x_can.c ****   *                 -  CAN_IT_EWG    
1197:/home/virusv/usart/Libraries/src/stm32f10x_can.c ****   *                 -  CAN_IT_EPV    
1198:/home/virusv/usart/Libraries/src/stm32f10x_can.c ****   *                 -  CAN_IT_BOF    
1199:/home/virusv/usart/Libraries/src/stm32f10x_can.c ****   *                 -  CAN_IT_LEC    
1200:/home/virusv/usart/Libraries/src/stm32f10x_can.c ****   *                 -  CAN_IT_ERR 
1201:/home/virusv/usart/Libraries/src/stm32f10x_can.c ****   * @retval The current state of CAN_IT (SET or RESET).
1202:/home/virusv/usart/Libraries/src/stm32f10x_can.c ****   */
1203:/home/virusv/usart/Libraries/src/stm32f10x_can.c **** ITStatus CAN_GetITStatus(CAN_TypeDef* CANx, uint32_t CAN_IT)
1204:/home/virusv/usart/Libraries/src/stm32f10x_can.c **** {
 2498              		.loc 1 1204 0
 2499              		.cfi_startproc
 2500              		@ args = 0, pretend = 0, frame = 16
 2501              		@ frame_needed = 1, uses_anonymous_args = 0
 2502 0000 80B5     		push	{r7, lr}
 2503              		.cfi_def_cfa_offset 8
 2504              		.cfi_offset 7, -8
 2505              		.cfi_offset 14, -4
 2506 0002 84B0     		sub	sp, sp, #16
 2507              		.cfi_def_cfa_offset 24
 2508 0004 00AF     		add	r7, sp, #0
 2509              		.cfi_def_cfa_register 7
 2510 0006 7860     		str	r0, [r7, #4]
 2511 0008 3960     		str	r1, [r7]
1205:/home/virusv/usart/Libraries/src/stm32f10x_can.c ****   ITStatus itstatus = RESET;
 2512              		.loc 1 1205 0
 2513 000a 0023     		movs	r3, #0
 2514 000c FB73     		strb	r3, [r7, #15]
1206:/home/virusv/usart/Libraries/src/stm32f10x_can.c ****   /* Check the parameters */
1207:/home/virusv/usart/Libraries/src/stm32f10x_can.c ****   assert_param(IS_CAN_ALL_PERIPH(CANx));
1208:/home/virusv/usart/Libraries/src/stm32f10x_can.c ****   assert_param(IS_CAN_IT(CAN_IT));
1209:/home/virusv/usart/Libraries/src/stm32f10x_can.c ****   
1210:/home/virusv/usart/Libraries/src/stm32f10x_can.c ****   /* check the enable interrupt bit */
1211:/home/virusv/usart/Libraries/src/stm32f10x_can.c ****  if((CANx->IER & CAN_IT) != RESET)
 2515              		.loc 1 1211 0
 2516 000e 7B68     		ldr	r3, [r7, #4]
 2517 0010 5A69     		ldr	r2, [r3, #20]
 2518 0012 3B68     		ldr	r3, [r7]
 2519 0014 1340     		ands	r3, r3, r2
 2520 0016 002B     		cmp	r3, #0
 2521 0018 00F0B280 		beq	.L161
1212:/home/virusv/usart/Libraries/src/stm32f10x_can.c ****  {
1213:/home/virusv/usart/Libraries/src/stm32f10x_can.c ****    /* in case the Interrupt is enabled, .... */
1214:/home/virusv/usart/Libraries/src/stm32f10x_can.c ****     switch (CAN_IT)
 2522              		.loc 1 1214 0
 2523 001c 3B68     		ldr	r3, [r7]
 2524 001e 402B     		cmp	r3, #64
 2525 0020 62D0     		beq	.L163
 2526 0022 402B     		cmp	r3, #64
 2527 0024 0FD8     		bhi	.L164
 2528 0026 042B     		cmp	r3, #4
 2529 0028 3AD0     		beq	.L165
 2530 002a 042B     		cmp	r3, #4
 2531 002c 04D8     		bhi	.L166
 2532 002e 012B     		cmp	r3, #1
 2533 0030 24D0     		beq	.L167
 2534 0032 022B     		cmp	r3, #2
 2535 0034 2BD0     		beq	.L168
 2536 0036 9FE0     		b	.L162
 2537              	.L166:
 2538 0038 102B     		cmp	r3, #16
 2539 003a 43D0     		beq	.L169
 2540 003c 202B     		cmp	r3, #32
 2541 003e 4AD0     		beq	.L170
 2542 0040 082B     		cmp	r3, #8
 2543 0042 36D0     		beq	.L171
 2544 0044 98E0     		b	.L162
 2545              	.L164:
 2546 0046 B3F5006F 		cmp	r3, #2048
 2547 004a 00F08380 		beq	.L172
 2548 004e B3F5006F 		cmp	r3, #2048
 2549 0052 09D8     		bhi	.L173
 2550 0054 B3F5007F 		cmp	r3, #512
 2551 0058 6AD0     		beq	.L174
 2552 005a B3F5806F 		cmp	r3, #1024
 2553 005e 70D0     		beq	.L175
 2554 0060 B3F5807F 		cmp	r3, #256
 2555 0064 5BD0     		beq	.L176
 2556 0066 87E0     		b	.L162
 2557              	.L173:
 2558 0068 B3F5803F 		cmp	r3, #65536
 2559 006c 45D0     		beq	.L177
 2560 006e B3F5003F 		cmp	r3, #131072
 2561 0072 4BD0     		beq	.L178
 2562 0074 B3F5004F 		cmp	r3, #32768
 2563 0078 75D0     		beq	.L179
 2564 007a 7DE0     		b	.L162
 2565              	.L167:
1215:/home/virusv/usart/Libraries/src/stm32f10x_can.c ****     {
1216:/home/virusv/usart/Libraries/src/stm32f10x_can.c ****       case CAN_IT_TME:
1217:/home/virusv/usart/Libraries/src/stm32f10x_can.c ****                /* Check CAN_TSR_RQCPx bits */
1218:/home/virusv/usart/Libraries/src/stm32f10x_can.c **** 	             itstatus = CheckITStatus(CANx->TSR, CAN_TSR_RQCP0|CAN_TSR_RQCP1|CAN_TSR_RQCP2);  
 2566              		.loc 1 1218 0
 2567 007c 7B68     		ldr	r3, [r7, #4]
 2568 007e 9B68     		ldr	r3, [r3, #8]
 2569 0080 1846     		mov	r0, r3
 2570 0082 4349     		ldr	r1, .L183
 2571 0084 FFF7FEFF 		bl	CheckITStatus
 2572 0088 0346     		mov	r3, r0
 2573 008a FB73     		strb	r3, [r7, #15]
1219:/home/virusv/usart/Libraries/src/stm32f10x_can.c **** 	      break;
 2574              		.loc 1 1219 0
 2575 008c 77E0     		b	.L180
 2576              	.L168:
1220:/home/virusv/usart/Libraries/src/stm32f10x_can.c ****       case CAN_IT_FMP0:
1221:/home/virusv/usart/Libraries/src/stm32f10x_can.c ****                /* Check CAN_RF0R_FMP0 bit */
1222:/home/virusv/usart/Libraries/src/stm32f10x_can.c **** 	             itstatus = CheckITStatus(CANx->RF0R, CAN_RF0R_FMP0);  
 2577              		.loc 1 1222 0
 2578 008e 7B68     		ldr	r3, [r7, #4]
 2579 0090 DB68     		ldr	r3, [r3, #12]
 2580 0092 1846     		mov	r0, r3
 2581 0094 0321     		movs	r1, #3
 2582 0096 FFF7FEFF 		bl	CheckITStatus
 2583 009a 0346     		mov	r3, r0
 2584 009c FB73     		strb	r3, [r7, #15]
1223:/home/virusv/usart/Libraries/src/stm32f10x_can.c **** 	      break;
 2585              		.loc 1 1223 0
 2586 009e 6EE0     		b	.L180
 2587              	.L165:
1224:/home/virusv/usart/Libraries/src/stm32f10x_can.c ****       case CAN_IT_FF0:
1225:/home/virusv/usart/Libraries/src/stm32f10x_can.c ****                /* Check CAN_RF0R_FULL0 bit */
1226:/home/virusv/usart/Libraries/src/stm32f10x_can.c ****                itstatus = CheckITStatus(CANx->RF0R, CAN_RF0R_FULL0);  
 2588              		.loc 1 1226 0
 2589 00a0 7B68     		ldr	r3, [r7, #4]
 2590 00a2 DB68     		ldr	r3, [r3, #12]
 2591 00a4 1846     		mov	r0, r3
 2592 00a6 0821     		movs	r1, #8
 2593 00a8 FFF7FEFF 		bl	CheckITStatus
 2594 00ac 0346     		mov	r3, r0
 2595 00ae FB73     		strb	r3, [r7, #15]
1227:/home/virusv/usart/Libraries/src/stm32f10x_can.c **** 	      break;
 2596              		.loc 1 1227 0
 2597 00b0 65E0     		b	.L180
 2598              	.L171:
1228:/home/virusv/usart/Libraries/src/stm32f10x_can.c ****       case CAN_IT_FOV0:
1229:/home/virusv/usart/Libraries/src/stm32f10x_can.c ****                /* Check CAN_RF0R_FOVR0 bit */
1230:/home/virusv/usart/Libraries/src/stm32f10x_can.c ****                itstatus = CheckITStatus(CANx->RF0R, CAN_RF0R_FOVR0);  
 2599              		.loc 1 1230 0
 2600 00b2 7B68     		ldr	r3, [r7, #4]
 2601 00b4 DB68     		ldr	r3, [r3, #12]
 2602 00b6 1846     		mov	r0, r3
 2603 00b8 1021     		movs	r1, #16
 2604 00ba FFF7FEFF 		bl	CheckITStatus
 2605 00be 0346     		mov	r3, r0
 2606 00c0 FB73     		strb	r3, [r7, #15]
1231:/home/virusv/usart/Libraries/src/stm32f10x_can.c **** 	      break;
 2607              		.loc 1 1231 0
 2608 00c2 5CE0     		b	.L180
 2609              	.L169:
1232:/home/virusv/usart/Libraries/src/stm32f10x_can.c ****       case CAN_IT_FMP1:
1233:/home/virusv/usart/Libraries/src/stm32f10x_can.c ****                /* Check CAN_RF1R_FMP1 bit */
1234:/home/virusv/usart/Libraries/src/stm32f10x_can.c ****                itstatus = CheckITStatus(CANx->RF1R, CAN_RF1R_FMP1);  
 2610              		.loc 1 1234 0
 2611 00c4 7B68     		ldr	r3, [r7, #4]
 2612 00c6 1B69     		ldr	r3, [r3, #16]
 2613 00c8 1846     		mov	r0, r3
 2614 00ca 0321     		movs	r1, #3
 2615 00cc FFF7FEFF 		bl	CheckITStatus
 2616 00d0 0346     		mov	r3, r0
 2617 00d2 FB73     		strb	r3, [r7, #15]
1235:/home/virusv/usart/Libraries/src/stm32f10x_can.c **** 	      break;
 2618              		.loc 1 1235 0
 2619 00d4 53E0     		b	.L180
 2620              	.L170:
1236:/home/virusv/usart/Libraries/src/stm32f10x_can.c ****       case CAN_IT_FF1:
1237:/home/virusv/usart/Libraries/src/stm32f10x_can.c ****                /* Check CAN_RF1R_FULL1 bit */
1238:/home/virusv/usart/Libraries/src/stm32f10x_can.c **** 	             itstatus = CheckITStatus(CANx->RF1R, CAN_RF1R_FULL1);  
 2621              		.loc 1 1238 0
 2622 00d6 7B68     		ldr	r3, [r7, #4]
 2623 00d8 1B69     		ldr	r3, [r3, #16]
 2624 00da 1846     		mov	r0, r3
 2625 00dc 0821     		movs	r1, #8
 2626 00de FFF7FEFF 		bl	CheckITStatus
 2627 00e2 0346     		mov	r3, r0
 2628 00e4 FB73     		strb	r3, [r7, #15]
1239:/home/virusv/usart/Libraries/src/stm32f10x_can.c **** 	      break;
 2629              		.loc 1 1239 0
 2630 00e6 4AE0     		b	.L180
 2631              	.L163:
1240:/home/virusv/usart/Libraries/src/stm32f10x_can.c ****       case CAN_IT_FOV1:
1241:/home/virusv/usart/Libraries/src/stm32f10x_can.c ****                /* Check CAN_RF1R_FOVR1 bit */
1242:/home/virusv/usart/Libraries/src/stm32f10x_can.c **** 	             itstatus = CheckITStatus(CANx->RF1R, CAN_RF1R_FOVR1);  
 2632              		.loc 1 1242 0
 2633 00e8 7B68     		ldr	r3, [r7, #4]
 2634 00ea 1B69     		ldr	r3, [r3, #16]
 2635 00ec 1846     		mov	r0, r3
 2636 00ee 1021     		movs	r1, #16
 2637 00f0 FFF7FEFF 		bl	CheckITStatus
 2638 00f4 0346     		mov	r3, r0
 2639 00f6 FB73     		strb	r3, [r7, #15]
1243:/home/virusv/usart/Libraries/src/stm32f10x_can.c **** 	      break;
 2640              		.loc 1 1243 0
 2641 00f8 41E0     		b	.L180
 2642              	.L177:
1244:/home/virusv/usart/Libraries/src/stm32f10x_can.c ****       case CAN_IT_WKU:
1245:/home/virusv/usart/Libraries/src/stm32f10x_can.c ****                /* Check CAN_MSR_WKUI bit */
1246:/home/virusv/usart/Libraries/src/stm32f10x_can.c ****                itstatus = CheckITStatus(CANx->MSR, CAN_MSR_WKUI);  
 2643              		.loc 1 1246 0
 2644 00fa 7B68     		ldr	r3, [r7, #4]
 2645 00fc 5B68     		ldr	r3, [r3, #4]
 2646 00fe 1846     		mov	r0, r3
 2647 0100 0821     		movs	r1, #8
 2648 0102 FFF7FEFF 		bl	CheckITStatus
 2649 0106 0346     		mov	r3, r0
 2650 0108 FB73     		strb	r3, [r7, #15]
1247:/home/virusv/usart/Libraries/src/stm32f10x_can.c **** 	      break;
 2651              		.loc 1 1247 0
 2652 010a 38E0     		b	.L180
 2653              	.L178:
1248:/home/virusv/usart/Libraries/src/stm32f10x_can.c ****       case CAN_IT_SLK:
1249:/home/virusv/usart/Libraries/src/stm32f10x_can.c ****                /* Check CAN_MSR_SLAKI bit */
1250:/home/virusv/usart/Libraries/src/stm32f10x_can.c **** 	             itstatus = CheckITStatus(CANx->MSR, CAN_MSR_SLAKI);  
 2654              		.loc 1 1250 0
 2655 010c 7B68     		ldr	r3, [r7, #4]
 2656 010e 5B68     		ldr	r3, [r3, #4]
 2657 0110 1846     		mov	r0, r3
 2658 0112 1021     		movs	r1, #16
 2659 0114 FFF7FEFF 		bl	CheckITStatus
 2660 0118 0346     		mov	r3, r0
 2661 011a FB73     		strb	r3, [r7, #15]
1251:/home/virusv/usart/Libraries/src/stm32f10x_can.c **** 	      break;
 2662              		.loc 1 1251 0
 2663 011c 2FE0     		b	.L180
 2664              	.L176:
1252:/home/virusv/usart/Libraries/src/stm32f10x_can.c ****       case CAN_IT_EWG:
1253:/home/virusv/usart/Libraries/src/stm32f10x_can.c ****                /* Check CAN_ESR_EWGF bit */
1254:/home/virusv/usart/Libraries/src/stm32f10x_can.c **** 	             itstatus = CheckITStatus(CANx->ESR, CAN_ESR_EWGF);  
 2665              		.loc 1 1254 0
 2666 011e 7B68     		ldr	r3, [r7, #4]
 2667 0120 9B69     		ldr	r3, [r3, #24]
 2668 0122 1846     		mov	r0, r3
 2669 0124 0121     		movs	r1, #1
 2670 0126 FFF7FEFF 		bl	CheckITStatus
 2671 012a 0346     		mov	r3, r0
 2672 012c FB73     		strb	r3, [r7, #15]
1255:/home/virusv/usart/Libraries/src/stm32f10x_can.c **** 	      break;
 2673              		.loc 1 1255 0
 2674 012e 26E0     		b	.L180
 2675              	.L174:
1256:/home/virusv/usart/Libraries/src/stm32f10x_can.c ****       case CAN_IT_EPV:
1257:/home/virusv/usart/Libraries/src/stm32f10x_can.c ****                /* Check CAN_ESR_EPVF bit */
1258:/home/virusv/usart/Libraries/src/stm32f10x_can.c **** 	             itstatus = CheckITStatus(CANx->ESR, CAN_ESR_EPVF);  
 2676              		.loc 1 1258 0
 2677 0130 7B68     		ldr	r3, [r7, #4]
 2678 0132 9B69     		ldr	r3, [r3, #24]
 2679 0134 1846     		mov	r0, r3
 2680 0136 0221     		movs	r1, #2
 2681 0138 FFF7FEFF 		bl	CheckITStatus
 2682 013c 0346     		mov	r3, r0
 2683 013e FB73     		strb	r3, [r7, #15]
1259:/home/virusv/usart/Libraries/src/stm32f10x_can.c **** 	      break;
 2684              		.loc 1 1259 0
 2685 0140 1DE0     		b	.L180
 2686              	.L175:
1260:/home/virusv/usart/Libraries/src/stm32f10x_can.c ****       case CAN_IT_BOF:
1261:/home/virusv/usart/Libraries/src/stm32f10x_can.c ****                /* Check CAN_ESR_BOFF bit */
1262:/home/virusv/usart/Libraries/src/stm32f10x_can.c **** 	             itstatus = CheckITStatus(CANx->ESR, CAN_ESR_BOFF);  
 2687              		.loc 1 1262 0
 2688 0142 7B68     		ldr	r3, [r7, #4]
 2689 0144 9B69     		ldr	r3, [r3, #24]
 2690 0146 1846     		mov	r0, r3
 2691 0148 0421     		movs	r1, #4
 2692 014a FFF7FEFF 		bl	CheckITStatus
 2693 014e 0346     		mov	r3, r0
 2694 0150 FB73     		strb	r3, [r7, #15]
1263:/home/virusv/usart/Libraries/src/stm32f10x_can.c **** 	      break;
 2695              		.loc 1 1263 0
 2696 0152 14E0     		b	.L180
 2697              	.L172:
1264:/home/virusv/usart/Libraries/src/stm32f10x_can.c ****       case CAN_IT_LEC:
1265:/home/virusv/usart/Libraries/src/stm32f10x_can.c ****                /* Check CAN_ESR_LEC bit */
1266:/home/virusv/usart/Libraries/src/stm32f10x_can.c **** 	             itstatus = CheckITStatus(CANx->ESR, CAN_ESR_LEC);  
 2698              		.loc 1 1266 0
 2699 0154 7B68     		ldr	r3, [r7, #4]
 2700 0156 9B69     		ldr	r3, [r3, #24]
 2701 0158 1846     		mov	r0, r3
 2702 015a 7021     		movs	r1, #112
 2703 015c FFF7FEFF 		bl	CheckITStatus
 2704 0160 0346     		mov	r3, r0
 2705 0162 FB73     		strb	r3, [r7, #15]
1267:/home/virusv/usart/Libraries/src/stm32f10x_can.c **** 	      break;
 2706              		.loc 1 1267 0
 2707 0164 0BE0     		b	.L180
 2708              	.L179:
1268:/home/virusv/usart/Libraries/src/stm32f10x_can.c ****       case CAN_IT_ERR:
1269:/home/virusv/usart/Libraries/src/stm32f10x_can.c ****                /* Check CAN_MSR_ERRI bit */ 
1270:/home/virusv/usart/Libraries/src/stm32f10x_can.c ****                itstatus = CheckITStatus(CANx->MSR, CAN_MSR_ERRI); 
 2709              		.loc 1 1270 0
 2710 0166 7B68     		ldr	r3, [r7, #4]
 2711 0168 5B68     		ldr	r3, [r3, #4]
 2712 016a 1846     		mov	r0, r3
 2713 016c 0421     		movs	r1, #4
 2714 016e FFF7FEFF 		bl	CheckITStatus
 2715 0172 0346     		mov	r3, r0
 2716 0174 FB73     		strb	r3, [r7, #15]
1271:/home/virusv/usart/Libraries/src/stm32f10x_can.c **** 	      break;
 2717              		.loc 1 1271 0
 2718 0176 02E0     		b	.L180
 2719              	.L162:
1272:/home/virusv/usart/Libraries/src/stm32f10x_can.c ****       default :
1273:/home/virusv/usart/Libraries/src/stm32f10x_can.c ****                /* in case of error, return RESET */
1274:/home/virusv/usart/Libraries/src/stm32f10x_can.c ****               itstatus = RESET;
 2720              		.loc 1 1274 0
 2721 0178 0023     		movs	r3, #0
 2722 017a FB73     		strb	r3, [r7, #15]
1275:/home/virusv/usart/Libraries/src/stm32f10x_can.c ****               break;
 2723              		.loc 1 1275 0
 2724 017c 00BF     		nop
 2725              	.L180:
 2726 017e 01E0     		b	.L181
 2727              	.L161:
1276:/home/virusv/usart/Libraries/src/stm32f10x_can.c ****     }
1277:/home/virusv/usart/Libraries/src/stm32f10x_can.c ****   }
1278:/home/virusv/usart/Libraries/src/stm32f10x_can.c ****   else
1279:/home/virusv/usart/Libraries/src/stm32f10x_can.c ****   {
1280:/home/virusv/usart/Libraries/src/stm32f10x_can.c ****    /* in case the Interrupt is not enabled, return RESET */
1281:/home/virusv/usart/Libraries/src/stm32f10x_can.c ****     itstatus  = RESET;
 2728              		.loc 1 1281 0
 2729 0180 0023     		movs	r3, #0
 2730 0182 FB73     		strb	r3, [r7, #15]
 2731              	.L181:
1282:/home/virusv/usart/Libraries/src/stm32f10x_can.c ****   }
1283:/home/virusv/usart/Libraries/src/stm32f10x_can.c ****   
1284:/home/virusv/usart/Libraries/src/stm32f10x_can.c ****   /* Return the CAN_IT status */
1285:/home/virusv/usart/Libraries/src/stm32f10x_can.c ****   return  itstatus;
 2732              		.loc 1 1285 0
 2733 0184 FB7B     		ldrb	r3, [r7, #15]	@ zero_extendqisi2
1286:/home/virusv/usart/Libraries/src/stm32f10x_can.c **** }
 2734              		.loc 1 1286 0
 2735 0186 1846     		mov	r0, r3
 2736 0188 1037     		adds	r7, r7, #16
 2737              		.cfi_def_cfa_offset 8
 2738 018a BD46     		mov	sp, r7
 2739              		.cfi_def_cfa_register 13
 2740              		@ sp needed
 2741 018c 80BD     		pop	{r7, pc}
 2742              	.L184:
 2743 018e 00BF     		.align	2
 2744              	.L183:
 2745 0190 01010100 		.word	65793
 2746              		.cfi_endproc
 2747              	.LFE51:
 2749              		.section	.text.CAN_ClearITPendingBit,"ax",%progbits
 2750              		.align	2
 2751              		.global	CAN_ClearITPendingBit
 2752              		.thumb
 2753              		.thumb_func
 2755              	CAN_ClearITPendingBit:
 2756              	.LFB52:
1287:/home/virusv/usart/Libraries/src/stm32f10x_can.c **** 
1288:/home/virusv/usart/Libraries/src/stm32f10x_can.c **** /**
1289:/home/virusv/usart/Libraries/src/stm32f10x_can.c ****   * @brief  Clears the CANx's interrupt pending bits.
1290:/home/virusv/usart/Libraries/src/stm32f10x_can.c ****   * @param  CANx:    where x can be 1 or 2 to to select the CAN peripheral.
1291:/home/virusv/usart/Libraries/src/stm32f10x_can.c ****   * @param  CAN_IT: specifies the interrupt pending bit to clear.
1292:/home/virusv/usart/Libraries/src/stm32f10x_can.c ****   *                  -  CAN_IT_TME                     
1293:/home/virusv/usart/Libraries/src/stm32f10x_can.c ****   *                  -  CAN_IT_FF0               
1294:/home/virusv/usart/Libraries/src/stm32f10x_can.c ****   *                  -  CAN_IT_FOV0                     
1295:/home/virusv/usart/Libraries/src/stm32f10x_can.c ****   *                  -  CAN_IT_FF1               
1296:/home/virusv/usart/Libraries/src/stm32f10x_can.c ****   *                  -  CAN_IT_FOV1              
1297:/home/virusv/usart/Libraries/src/stm32f10x_can.c ****   *                  -  CAN_IT_WKU  
1298:/home/virusv/usart/Libraries/src/stm32f10x_can.c ****   *                  -  CAN_IT_SLK  
1299:/home/virusv/usart/Libraries/src/stm32f10x_can.c ****   *                  -  CAN_IT_EWG    
1300:/home/virusv/usart/Libraries/src/stm32f10x_can.c ****   *                  -  CAN_IT_EPV    
1301:/home/virusv/usart/Libraries/src/stm32f10x_can.c ****   *                  -  CAN_IT_BOF    
1302:/home/virusv/usart/Libraries/src/stm32f10x_can.c ****   *                  -  CAN_IT_LEC    
1303:/home/virusv/usart/Libraries/src/stm32f10x_can.c ****   *                  -  CAN_IT_ERR 
1304:/home/virusv/usart/Libraries/src/stm32f10x_can.c ****   * @retval None.
1305:/home/virusv/usart/Libraries/src/stm32f10x_can.c ****   */
1306:/home/virusv/usart/Libraries/src/stm32f10x_can.c **** void CAN_ClearITPendingBit(CAN_TypeDef* CANx, uint32_t CAN_IT)
1307:/home/virusv/usart/Libraries/src/stm32f10x_can.c **** {
 2757              		.loc 1 1307 0
 2758              		.cfi_startproc
 2759              		@ args = 0, pretend = 0, frame = 8
 2760              		@ frame_needed = 1, uses_anonymous_args = 0
 2761              		@ link register save eliminated.
 2762 0000 80B4     		push	{r7}
 2763              		.cfi_def_cfa_offset 4
 2764              		.cfi_offset 7, -4
 2765 0002 83B0     		sub	sp, sp, #12
 2766              		.cfi_def_cfa_offset 16
 2767 0004 00AF     		add	r7, sp, #0
 2768              		.cfi_def_cfa_register 7
 2769 0006 7860     		str	r0, [r7, #4]
 2770 0008 3960     		str	r1, [r7]
1308:/home/virusv/usart/Libraries/src/stm32f10x_can.c ****   /* Check the parameters */
1309:/home/virusv/usart/Libraries/src/stm32f10x_can.c ****   assert_param(IS_CAN_ALL_PERIPH(CANx));
1310:/home/virusv/usart/Libraries/src/stm32f10x_can.c ****   assert_param(IS_CAN_CLEAR_IT(CAN_IT));
1311:/home/virusv/usart/Libraries/src/stm32f10x_can.c **** 
1312:/home/virusv/usart/Libraries/src/stm32f10x_can.c ****   switch (CAN_IT)
 2771              		.loc 1 1312 0
 2772 000a 3B68     		ldr	r3, [r7]
 2773 000c B3F5807F 		cmp	r3, #256
 2774 0010 43D0     		beq	.L187
 2775 0012 B3F5807F 		cmp	r3, #256
 2776 0016 0DD8     		bhi	.L188
 2777 0018 082B     		cmp	r3, #8
 2778 001a 2AD0     		beq	.L189
 2779 001c 082B     		cmp	r3, #8
 2780 001e 04D8     		bhi	.L190
 2781 0020 012B     		cmp	r3, #1
 2782 0022 1ED0     		beq	.L191
 2783 0024 042B     		cmp	r3, #4
 2784 0026 20D0     		beq	.L192
1313:/home/virusv/usart/Libraries/src/stm32f10x_can.c ****   {
1314:/home/virusv/usart/Libraries/src/stm32f10x_can.c ****       case CAN_IT_TME:
1315:/home/virusv/usart/Libraries/src/stm32f10x_can.c ****               /* Clear CAN_TSR_RQCPx (rc_w1)*/
1316:/home/virusv/usart/Libraries/src/stm32f10x_can.c **** 	      CANx->TSR = CAN_TSR_RQCP0|CAN_TSR_RQCP1|CAN_TSR_RQCP2;  
1317:/home/virusv/usart/Libraries/src/stm32f10x_can.c **** 	      break;
1318:/home/virusv/usart/Libraries/src/stm32f10x_can.c ****       case CAN_IT_FF0:
1319:/home/virusv/usart/Libraries/src/stm32f10x_can.c ****               /* Clear CAN_RF0R_FULL0 (rc_w1)*/
1320:/home/virusv/usart/Libraries/src/stm32f10x_can.c **** 	      CANx->RF0R = CAN_RF0R_FULL0; 
1321:/home/virusv/usart/Libraries/src/stm32f10x_can.c **** 	      break;
1322:/home/virusv/usart/Libraries/src/stm32f10x_can.c ****       case CAN_IT_FOV0:
1323:/home/virusv/usart/Libraries/src/stm32f10x_can.c ****               /* Clear CAN_RF0R_FOVR0 (rc_w1)*/
1324:/home/virusv/usart/Libraries/src/stm32f10x_can.c **** 	      CANx->RF0R = CAN_RF0R_FOVR0; 
1325:/home/virusv/usart/Libraries/src/stm32f10x_can.c **** 	      break;
1326:/home/virusv/usart/Libraries/src/stm32f10x_can.c ****       case CAN_IT_FF1:
1327:/home/virusv/usart/Libraries/src/stm32f10x_can.c ****               /* Clear CAN_RF1R_FULL1 (rc_w1)*/
1328:/home/virusv/usart/Libraries/src/stm32f10x_can.c **** 	      CANx->RF1R = CAN_RF1R_FULL1;  
1329:/home/virusv/usart/Libraries/src/stm32f10x_can.c **** 	      break;
1330:/home/virusv/usart/Libraries/src/stm32f10x_can.c ****       case CAN_IT_FOV1:
1331:/home/virusv/usart/Libraries/src/stm32f10x_can.c ****               /* Clear CAN_RF1R_FOVR1 (rc_w1)*/
1332:/home/virusv/usart/Libraries/src/stm32f10x_can.c **** 	      CANx->RF1R = CAN_RF1R_FOVR1; 
1333:/home/virusv/usart/Libraries/src/stm32f10x_can.c **** 	      break;
1334:/home/virusv/usart/Libraries/src/stm32f10x_can.c ****       case CAN_IT_WKU:
1335:/home/virusv/usart/Libraries/src/stm32f10x_can.c ****               /* Clear CAN_MSR_WKUI (rc_w1)*/
1336:/home/virusv/usart/Libraries/src/stm32f10x_can.c **** 	      CANx->MSR = CAN_MSR_WKUI;  
1337:/home/virusv/usart/Libraries/src/stm32f10x_can.c **** 	      break;
1338:/home/virusv/usart/Libraries/src/stm32f10x_can.c ****       case CAN_IT_SLK:
1339:/home/virusv/usart/Libraries/src/stm32f10x_can.c ****               /* Clear CAN_MSR_SLAKI (rc_w1)*/ 
1340:/home/virusv/usart/Libraries/src/stm32f10x_can.c **** 	      CANx->MSR = CAN_MSR_SLAKI;   
1341:/home/virusv/usart/Libraries/src/stm32f10x_can.c **** 	      break;
1342:/home/virusv/usart/Libraries/src/stm32f10x_can.c ****       case CAN_IT_EWG:
1343:/home/virusv/usart/Libraries/src/stm32f10x_can.c ****               /* Clear CAN_MSR_ERRI (rc_w1) */
1344:/home/virusv/usart/Libraries/src/stm32f10x_can.c **** 	      CANx->MSR = CAN_MSR_ERRI;
1345:/home/virusv/usart/Libraries/src/stm32f10x_can.c ****               /* Note : the corresponding Flag is cleared by hardware depending 
1346:/home/virusv/usart/Libraries/src/stm32f10x_can.c ****                         of the CAN Bus status*/ 
1347:/home/virusv/usart/Libraries/src/stm32f10x_can.c **** 	      break;
1348:/home/virusv/usart/Libraries/src/stm32f10x_can.c ****       case CAN_IT_EPV:
1349:/home/virusv/usart/Libraries/src/stm32f10x_can.c ****               /* Clear CAN_MSR_ERRI (rc_w1) */
1350:/home/virusv/usart/Libraries/src/stm32f10x_can.c **** 	      CANx->MSR = CAN_MSR_ERRI; 
1351:/home/virusv/usart/Libraries/src/stm32f10x_can.c ****               /* Note : the corresponding Flag is cleared by hardware depending 
1352:/home/virusv/usart/Libraries/src/stm32f10x_can.c ****                         of the CAN Bus status*/
1353:/home/virusv/usart/Libraries/src/stm32f10x_can.c **** 	      break;
1354:/home/virusv/usart/Libraries/src/stm32f10x_can.c ****       case CAN_IT_BOF:
1355:/home/virusv/usart/Libraries/src/stm32f10x_can.c ****               /* Clear CAN_MSR_ERRI (rc_w1) */ 
1356:/home/virusv/usart/Libraries/src/stm32f10x_can.c **** 	      CANx->MSR = CAN_MSR_ERRI; 
1357:/home/virusv/usart/Libraries/src/stm32f10x_can.c ****               /* Note : the corresponding Flag is cleared by hardware depending 
1358:/home/virusv/usart/Libraries/src/stm32f10x_can.c ****                         of the CAN Bus status*/
1359:/home/virusv/usart/Libraries/src/stm32f10x_can.c **** 	      break;
1360:/home/virusv/usart/Libraries/src/stm32f10x_can.c ****       case CAN_IT_LEC:
1361:/home/virusv/usart/Libraries/src/stm32f10x_can.c ****               /*  Clear LEC bits */
1362:/home/virusv/usart/Libraries/src/stm32f10x_can.c **** 	      CANx->ESR = RESET; 
1363:/home/virusv/usart/Libraries/src/stm32f10x_can.c ****               /* Clear CAN_MSR_ERRI (rc_w1) */
1364:/home/virusv/usart/Libraries/src/stm32f10x_can.c **** 	      CANx->MSR = CAN_MSR_ERRI; 
1365:/home/virusv/usart/Libraries/src/stm32f10x_can.c **** 	      break;
1366:/home/virusv/usart/Libraries/src/stm32f10x_can.c ****       case CAN_IT_ERR:
1367:/home/virusv/usart/Libraries/src/stm32f10x_can.c ****               /*Clear LEC bits */
1368:/home/virusv/usart/Libraries/src/stm32f10x_can.c **** 	      CANx->ESR = RESET; 
1369:/home/virusv/usart/Libraries/src/stm32f10x_can.c ****               /* Clear CAN_MSR_ERRI (rc_w1) */
1370:/home/virusv/usart/Libraries/src/stm32f10x_can.c **** 	      CANx->MSR = CAN_MSR_ERRI; 
1371:/home/virusv/usart/Libraries/src/stm32f10x_can.c **** 	      /* Note : BOFF, EPVF and EWGF Flags are cleared by hardware depending 
1372:/home/virusv/usart/Libraries/src/stm32f10x_can.c ****                   of the CAN Bus status*/
1373:/home/virusv/usart/Libraries/src/stm32f10x_can.c **** 	      break;
1374:/home/virusv/usart/Libraries/src/stm32f10x_can.c ****       default :
1375:/home/virusv/usart/Libraries/src/stm32f10x_can.c **** 	      break;
 2785              		.loc 1 1375 0
 2786 0028 51E0     		b	.L185
 2787              	.L190:
1312:/home/virusv/usart/Libraries/src/stm32f10x_can.c ****   {
 2788              		.loc 1 1312 0
 2789 002a 202B     		cmp	r3, #32
 2790 002c 25D0     		beq	.L193
 2791 002e 402B     		cmp	r3, #64
 2792 0030 27D0     		beq	.L194
 2793              		.loc 1 1375 0
 2794 0032 4CE0     		b	.L185
 2795              	.L188:
1312:/home/virusv/usart/Libraries/src/stm32f10x_can.c ****   {
 2796              		.loc 1 1312 0
 2797 0034 B3F5006F 		cmp	r3, #2048
 2798 0038 3BD0     		beq	.L195
 2799 003a B3F5006F 		cmp	r3, #2048
 2800 003e 06D8     		bhi	.L196
 2801 0040 B3F5007F 		cmp	r3, #512
 2802 0044 2DD0     		beq	.L197
 2803 0046 B3F5806F 		cmp	r3, #1024
 2804 004a 2ED0     		beq	.L198
 2805              		.loc 1 1375 0
 2806 004c 3FE0     		b	.L185
 2807              	.L196:
1312:/home/virusv/usart/Libraries/src/stm32f10x_can.c ****   {
 2808              		.loc 1 1312 0
 2809 004e B3F5803F 		cmp	r3, #65536
 2810 0052 1AD0     		beq	.L199
 2811 0054 B3F5003F 		cmp	r3, #131072
 2812 0058 1BD0     		beq	.L200
 2813 005a B3F5004F 		cmp	r3, #32768
 2814 005e 2FD0     		beq	.L201
 2815              		.loc 1 1375 0
 2816 0060 35E0     		b	.L185
 2817              	.L191:
1316:/home/virusv/usart/Libraries/src/stm32f10x_can.c **** 	      break;
 2818              		.loc 1 1316 0
 2819 0062 7B68     		ldr	r3, [r7, #4]
 2820 0064 1C4A     		ldr	r2, .L203
 2821 0066 9A60     		str	r2, [r3, #8]
1317:/home/virusv/usart/Libraries/src/stm32f10x_can.c ****       case CAN_IT_FF0:
 2822              		.loc 1 1317 0
 2823 0068 31E0     		b	.L185
 2824              	.L192:
1320:/home/virusv/usart/Libraries/src/stm32f10x_can.c **** 	      break;
 2825              		.loc 1 1320 0
 2826 006a 7B68     		ldr	r3, [r7, #4]
 2827 006c 0822     		movs	r2, #8
 2828 006e DA60     		str	r2, [r3, #12]
1321:/home/virusv/usart/Libraries/src/stm32f10x_can.c ****       case CAN_IT_FOV0:
 2829              		.loc 1 1321 0
 2830 0070 2DE0     		b	.L185
 2831              	.L189:
1324:/home/virusv/usart/Libraries/src/stm32f10x_can.c **** 	      break;
 2832              		.loc 1 1324 0
 2833 0072 7B68     		ldr	r3, [r7, #4]
 2834 0074 1022     		movs	r2, #16
 2835 0076 DA60     		str	r2, [r3, #12]
1325:/home/virusv/usart/Libraries/src/stm32f10x_can.c ****       case CAN_IT_FF1:
 2836              		.loc 1 1325 0
 2837 0078 29E0     		b	.L185
 2838              	.L193:
1328:/home/virusv/usart/Libraries/src/stm32f10x_can.c **** 	      break;
 2839              		.loc 1 1328 0
 2840 007a 7B68     		ldr	r3, [r7, #4]
 2841 007c 0822     		movs	r2, #8
 2842 007e 1A61     		str	r2, [r3, #16]
1329:/home/virusv/usart/Libraries/src/stm32f10x_can.c ****       case CAN_IT_FOV1:
 2843              		.loc 1 1329 0
 2844 0080 25E0     		b	.L185
 2845              	.L194:
1332:/home/virusv/usart/Libraries/src/stm32f10x_can.c **** 	      break;
 2846              		.loc 1 1332 0
 2847 0082 7B68     		ldr	r3, [r7, #4]
 2848 0084 1022     		movs	r2, #16
 2849 0086 1A61     		str	r2, [r3, #16]
1333:/home/virusv/usart/Libraries/src/stm32f10x_can.c ****       case CAN_IT_WKU:
 2850              		.loc 1 1333 0
 2851 0088 21E0     		b	.L185
 2852              	.L199:
1336:/home/virusv/usart/Libraries/src/stm32f10x_can.c **** 	      break;
 2853              		.loc 1 1336 0
 2854 008a 7B68     		ldr	r3, [r7, #4]
 2855 008c 0822     		movs	r2, #8
 2856 008e 5A60     		str	r2, [r3, #4]
1337:/home/virusv/usart/Libraries/src/stm32f10x_can.c ****       case CAN_IT_SLK:
 2857              		.loc 1 1337 0
 2858 0090 1DE0     		b	.L185
 2859              	.L200:
1340:/home/virusv/usart/Libraries/src/stm32f10x_can.c **** 	      break;
 2860              		.loc 1 1340 0
 2861 0092 7B68     		ldr	r3, [r7, #4]
 2862 0094 1022     		movs	r2, #16
 2863 0096 5A60     		str	r2, [r3, #4]
1341:/home/virusv/usart/Libraries/src/stm32f10x_can.c ****       case CAN_IT_EWG:
 2864              		.loc 1 1341 0
 2865 0098 19E0     		b	.L185
 2866              	.L187:
1344:/home/virusv/usart/Libraries/src/stm32f10x_can.c ****               /* Note : the corresponding Flag is cleared by hardware depending 
 2867              		.loc 1 1344 0
 2868 009a 7B68     		ldr	r3, [r7, #4]
 2869 009c 0422     		movs	r2, #4
 2870 009e 5A60     		str	r2, [r3, #4]
1347:/home/virusv/usart/Libraries/src/stm32f10x_can.c ****       case CAN_IT_EPV:
 2871              		.loc 1 1347 0
 2872 00a0 15E0     		b	.L185
 2873              	.L197:
1350:/home/virusv/usart/Libraries/src/stm32f10x_can.c ****               /* Note : the corresponding Flag is cleared by hardware depending 
 2874              		.loc 1 1350 0
 2875 00a2 7B68     		ldr	r3, [r7, #4]
 2876 00a4 0422     		movs	r2, #4
 2877 00a6 5A60     		str	r2, [r3, #4]
1353:/home/virusv/usart/Libraries/src/stm32f10x_can.c ****       case CAN_IT_BOF:
 2878              		.loc 1 1353 0
 2879 00a8 11E0     		b	.L185
 2880              	.L198:
1356:/home/virusv/usart/Libraries/src/stm32f10x_can.c ****               /* Note : the corresponding Flag is cleared by hardware depending 
 2881              		.loc 1 1356 0
 2882 00aa 7B68     		ldr	r3, [r7, #4]
 2883 00ac 0422     		movs	r2, #4
 2884 00ae 5A60     		str	r2, [r3, #4]
1359:/home/virusv/usart/Libraries/src/stm32f10x_can.c ****       case CAN_IT_LEC:
 2885              		.loc 1 1359 0
 2886 00b0 0DE0     		b	.L185
 2887              	.L195:
1362:/home/virusv/usart/Libraries/src/stm32f10x_can.c ****               /* Clear CAN_MSR_ERRI (rc_w1) */
 2888              		.loc 1 1362 0
 2889 00b2 7B68     		ldr	r3, [r7, #4]
 2890 00b4 0022     		movs	r2, #0
 2891 00b6 9A61     		str	r2, [r3, #24]
1364:/home/virusv/usart/Libraries/src/stm32f10x_can.c **** 	      break;
 2892              		.loc 1 1364 0
 2893 00b8 7B68     		ldr	r3, [r7, #4]
 2894 00ba 0422     		movs	r2, #4
 2895 00bc 5A60     		str	r2, [r3, #4]
1365:/home/virusv/usart/Libraries/src/stm32f10x_can.c ****       case CAN_IT_ERR:
 2896              		.loc 1 1365 0
 2897 00be 06E0     		b	.L185
 2898              	.L201:
1368:/home/virusv/usart/Libraries/src/stm32f10x_can.c ****               /* Clear CAN_MSR_ERRI (rc_w1) */
 2899              		.loc 1 1368 0
 2900 00c0 7B68     		ldr	r3, [r7, #4]
 2901 00c2 0022     		movs	r2, #0
 2902 00c4 9A61     		str	r2, [r3, #24]
1370:/home/virusv/usart/Libraries/src/stm32f10x_can.c **** 	      /* Note : BOFF, EPVF and EWGF Flags are cleared by hardware depending 
 2903              		.loc 1 1370 0
 2904 00c6 7B68     		ldr	r3, [r7, #4]
 2905 00c8 0422     		movs	r2, #4
 2906 00ca 5A60     		str	r2, [r3, #4]
1373:/home/virusv/usart/Libraries/src/stm32f10x_can.c ****       default :
 2907              		.loc 1 1373 0
 2908 00cc 00BF     		nop
 2909              	.L185:
1376:/home/virusv/usart/Libraries/src/stm32f10x_can.c ****    }
1377:/home/virusv/usart/Libraries/src/stm32f10x_can.c **** }
 2910              		.loc 1 1377 0
 2911 00ce 0C37     		adds	r7, r7, #12
 2912              		.cfi_def_cfa_offset 4
 2913 00d0 BD46     		mov	sp, r7
 2914              		.cfi_def_cfa_register 13
 2915              		@ sp needed
 2916 00d2 5DF8047B 		ldr	r7, [sp], #4
 2917              		.cfi_restore 7
 2918              		.cfi_def_cfa_offset 0
 2919 00d6 7047     		bx	lr
 2920              	.L204:
 2921              		.align	2
 2922              	.L203:
 2923 00d8 01010100 		.word	65793
 2924              		.cfi_endproc
 2925              	.LFE52:
 2927              		.section	.text.CheckITStatus,"ax",%progbits
 2928              		.align	2
 2929              		.thumb
 2930              		.thumb_func
 2932              	CheckITStatus:
 2933              	.LFB53:
1378:/home/virusv/usart/Libraries/src/stm32f10x_can.c **** 
1379:/home/virusv/usart/Libraries/src/stm32f10x_can.c **** /**
1380:/home/virusv/usart/Libraries/src/stm32f10x_can.c ****   * @brief  Checks whether the CAN interrupt has occurred or not.
1381:/home/virusv/usart/Libraries/src/stm32f10x_can.c ****   * @param  CAN_Reg: specifies the CAN interrupt register to check.
1382:/home/virusv/usart/Libraries/src/stm32f10x_can.c ****   * @param  It_Bit:  specifies the interrupt source bit to check.
1383:/home/virusv/usart/Libraries/src/stm32f10x_can.c ****   * @retval The new state of the CAN Interrupt (SET or RESET).
1384:/home/virusv/usart/Libraries/src/stm32f10x_can.c ****   */
1385:/home/virusv/usart/Libraries/src/stm32f10x_can.c **** static ITStatus CheckITStatus(uint32_t CAN_Reg, uint32_t It_Bit)
1386:/home/virusv/usart/Libraries/src/stm32f10x_can.c **** {
 2934              		.loc 1 1386 0
 2935              		.cfi_startproc
 2936              		@ args = 0, pretend = 0, frame = 16
 2937              		@ frame_needed = 1, uses_anonymous_args = 0
 2938              		@ link register save eliminated.
 2939 0000 80B4     		push	{r7}
 2940              		.cfi_def_cfa_offset 4
 2941              		.cfi_offset 7, -4
 2942 0002 85B0     		sub	sp, sp, #20
 2943              		.cfi_def_cfa_offset 24
 2944 0004 00AF     		add	r7, sp, #0
 2945              		.cfi_def_cfa_register 7
 2946 0006 7860     		str	r0, [r7, #4]
 2947 0008 3960     		str	r1, [r7]
1387:/home/virusv/usart/Libraries/src/stm32f10x_can.c ****   ITStatus pendingbitstatus = RESET;
 2948              		.loc 1 1387 0
 2949 000a 0023     		movs	r3, #0
 2950 000c FB73     		strb	r3, [r7, #15]
1388:/home/virusv/usart/Libraries/src/stm32f10x_can.c ****   
1389:/home/virusv/usart/Libraries/src/stm32f10x_can.c ****   if ((CAN_Reg & It_Bit) != (uint32_t)RESET)
 2951              		.loc 1 1389 0
 2952 000e 7A68     		ldr	r2, [r7, #4]
 2953 0010 3B68     		ldr	r3, [r7]
 2954 0012 1340     		ands	r3, r3, r2
 2955 0014 002B     		cmp	r3, #0
 2956 0016 02D0     		beq	.L206
1390:/home/virusv/usart/Libraries/src/stm32f10x_can.c ****   {
1391:/home/virusv/usart/Libraries/src/stm32f10x_can.c ****     /* CAN_IT is set */
1392:/home/virusv/usart/Libraries/src/stm32f10x_can.c ****     pendingbitstatus = SET;
 2957              		.loc 1 1392 0
 2958 0018 0123     		movs	r3, #1
 2959 001a FB73     		strb	r3, [r7, #15]
 2960 001c 01E0     		b	.L207
 2961              	.L206:
1393:/home/virusv/usart/Libraries/src/stm32f10x_can.c ****   }
1394:/home/virusv/usart/Libraries/src/stm32f10x_can.c ****   else
1395:/home/virusv/usart/Libraries/src/stm32f10x_can.c ****   {
1396:/home/virusv/usart/Libraries/src/stm32f10x_can.c ****     /* CAN_IT is reset */
1397:/home/virusv/usart/Libraries/src/stm32f10x_can.c ****     pendingbitstatus = RESET;
 2962              		.loc 1 1397 0
 2963 001e 0023     		movs	r3, #0
 2964 0020 FB73     		strb	r3, [r7, #15]
 2965              	.L207:
1398:/home/virusv/usart/Libraries/src/stm32f10x_can.c ****   }
1399:/home/virusv/usart/Libraries/src/stm32f10x_can.c ****   return pendingbitstatus;
 2966              		.loc 1 1399 0
 2967 0022 FB7B     		ldrb	r3, [r7, #15]	@ zero_extendqisi2
1400:/home/virusv/usart/Libraries/src/stm32f10x_can.c **** }
 2968              		.loc 1 1400 0
 2969 0024 1846     		mov	r0, r3
 2970 0026 1437     		adds	r7, r7, #20
 2971              		.cfi_def_cfa_offset 4
 2972 0028 BD46     		mov	sp, r7
 2973              		.cfi_def_cfa_register 13
 2974              		@ sp needed
 2975 002a 5DF8047B 		ldr	r7, [sp], #4
 2976              		.cfi_restore 7
 2977              		.cfi_def_cfa_offset 0
 2978 002e 7047     		bx	lr
 2979              		.cfi_endproc
 2980              	.LFE53:
 2982              		.text
 2983              	.Letext0:
 2984              		.file 2 "/usr/include/newlib/machine/_default_types.h"
 2985              		.file 3 "/usr/include/newlib/sys/_stdint.h"
 2986              		.file 4 "/home/virusv/usart/CMSIS/CM3/DeviceSupport/ST/STM32F10x/stm32f10x.h"
 2987              		.file 5 "/home/virusv/usart/Libraries/inc/stm32f10x_can.h"
 2988              		.file 6 "/home/virusv/usart/CMSIS/CM3/CoreSupport/core_cm3.h"