   1              		.syntax unified
   2              		.cpu cortex-m3
   3              		.fpu softvfp
   4              		.eabi_attribute 20, 1
   5              		.eabi_attribute 21, 1
   6              		.eabi_attribute 23, 3
   7              		.eabi_attribute 24, 1
   8              		.eabi_attribute 25, 1
   9              		.eabi_attribute 26, 1
  10              		.eabi_attribute 30, 6
  11              		.eabi_attribute 34, 1
  12              		.eabi_attribute 18, 4
  13              		.thumb
  14              		.file	"stm32f10x_spi.c"
  15              		.text
  16              	.Ltext0:
  17              		.cfi_sections	.debug_frame
  18              		.section	.text.SPI_I2S_DeInit,"ax",%progbits
  19              		.align	2
  20              		.global	SPI_I2S_DeInit
  21              		.thumb
  22              		.thumb_func
  24              	SPI_I2S_DeInit:
  25              	.LFB29:
  26              		.file 1 "/home/virusv/TDSAST_IOT/Libraries/src/stm32f10x_spi.c"
   1:/home/virusv/TDSAST_IOT/Libraries/src/stm32f10x_spi.c **** /**
   2:/home/virusv/TDSAST_IOT/Libraries/src/stm32f10x_spi.c ****   ******************************************************************************
   3:/home/virusv/TDSAST_IOT/Libraries/src/stm32f10x_spi.c ****   * @file    stm32f10x_spi.c
   4:/home/virusv/TDSAST_IOT/Libraries/src/stm32f10x_spi.c ****   * @author  MCD Application Team
   5:/home/virusv/TDSAST_IOT/Libraries/src/stm32f10x_spi.c ****   * @version V3.5.0
   6:/home/virusv/TDSAST_IOT/Libraries/src/stm32f10x_spi.c ****   * @date    11-March-2011
   7:/home/virusv/TDSAST_IOT/Libraries/src/stm32f10x_spi.c ****   * @brief   This file provides all the SPI firmware functions.
   8:/home/virusv/TDSAST_IOT/Libraries/src/stm32f10x_spi.c ****   ******************************************************************************
   9:/home/virusv/TDSAST_IOT/Libraries/src/stm32f10x_spi.c ****   * @attention
  10:/home/virusv/TDSAST_IOT/Libraries/src/stm32f10x_spi.c ****   *
  11:/home/virusv/TDSAST_IOT/Libraries/src/stm32f10x_spi.c ****   * THE PRESENT FIRMWARE WHICH IS FOR GUIDANCE ONLY AIMS AT PROVIDING CUSTOMERS
  12:/home/virusv/TDSAST_IOT/Libraries/src/stm32f10x_spi.c ****   * WITH CODING INFORMATION REGARDING THEIR PRODUCTS IN ORDER FOR THEM TO SAVE
  13:/home/virusv/TDSAST_IOT/Libraries/src/stm32f10x_spi.c ****   * TIME. AS A RESULT, STMICROELECTRONICS SHALL NOT BE HELD LIABLE FOR ANY
  14:/home/virusv/TDSAST_IOT/Libraries/src/stm32f10x_spi.c ****   * DIRECT, INDIRECT OR CONSEQUENTIAL DAMAGES WITH RESPECT TO ANY CLAIMS ARISING
  15:/home/virusv/TDSAST_IOT/Libraries/src/stm32f10x_spi.c ****   * FROM THE CONTENT OF SUCH FIRMWARE AND/OR THE USE MADE BY CUSTOMERS OF THE
  16:/home/virusv/TDSAST_IOT/Libraries/src/stm32f10x_spi.c ****   * CODING INFORMATION CONTAINED HEREIN IN CONNECTION WITH THEIR PRODUCTS.
  17:/home/virusv/TDSAST_IOT/Libraries/src/stm32f10x_spi.c ****   *
  18:/home/virusv/TDSAST_IOT/Libraries/src/stm32f10x_spi.c ****   * <h2><center>&copy; COPYRIGHT 2011 STMicroelectronics</center></h2>
  19:/home/virusv/TDSAST_IOT/Libraries/src/stm32f10x_spi.c ****   ******************************************************************************
  20:/home/virusv/TDSAST_IOT/Libraries/src/stm32f10x_spi.c ****   */
  21:/home/virusv/TDSAST_IOT/Libraries/src/stm32f10x_spi.c **** 
  22:/home/virusv/TDSAST_IOT/Libraries/src/stm32f10x_spi.c **** /* Includes ------------------------------------------------------------------*/
  23:/home/virusv/TDSAST_IOT/Libraries/src/stm32f10x_spi.c **** #include "stm32f10x_spi.h"
  24:/home/virusv/TDSAST_IOT/Libraries/src/stm32f10x_spi.c **** #include "stm32f10x_rcc.h"
  25:/home/virusv/TDSAST_IOT/Libraries/src/stm32f10x_spi.c **** 
  26:/home/virusv/TDSAST_IOT/Libraries/src/stm32f10x_spi.c **** /** @addtogroup STM32F10x_StdPeriph_Driver
  27:/home/virusv/TDSAST_IOT/Libraries/src/stm32f10x_spi.c ****   * @{
  28:/home/virusv/TDSAST_IOT/Libraries/src/stm32f10x_spi.c ****   */
  29:/home/virusv/TDSAST_IOT/Libraries/src/stm32f10x_spi.c **** 
  30:/home/virusv/TDSAST_IOT/Libraries/src/stm32f10x_spi.c **** /** @defgroup SPI 
  31:/home/virusv/TDSAST_IOT/Libraries/src/stm32f10x_spi.c ****   * @brief SPI driver modules
  32:/home/virusv/TDSAST_IOT/Libraries/src/stm32f10x_spi.c ****   * @{
  33:/home/virusv/TDSAST_IOT/Libraries/src/stm32f10x_spi.c ****   */ 
  34:/home/virusv/TDSAST_IOT/Libraries/src/stm32f10x_spi.c **** 
  35:/home/virusv/TDSAST_IOT/Libraries/src/stm32f10x_spi.c **** /** @defgroup SPI_Private_TypesDefinitions
  36:/home/virusv/TDSAST_IOT/Libraries/src/stm32f10x_spi.c ****   * @{
  37:/home/virusv/TDSAST_IOT/Libraries/src/stm32f10x_spi.c ****   */
  38:/home/virusv/TDSAST_IOT/Libraries/src/stm32f10x_spi.c **** 
  39:/home/virusv/TDSAST_IOT/Libraries/src/stm32f10x_spi.c **** /**
  40:/home/virusv/TDSAST_IOT/Libraries/src/stm32f10x_spi.c ****   * @}
  41:/home/virusv/TDSAST_IOT/Libraries/src/stm32f10x_spi.c ****   */ 
  42:/home/virusv/TDSAST_IOT/Libraries/src/stm32f10x_spi.c **** 
  43:/home/virusv/TDSAST_IOT/Libraries/src/stm32f10x_spi.c **** 
  44:/home/virusv/TDSAST_IOT/Libraries/src/stm32f10x_spi.c **** /** @defgroup SPI_Private_Defines
  45:/home/virusv/TDSAST_IOT/Libraries/src/stm32f10x_spi.c ****   * @{
  46:/home/virusv/TDSAST_IOT/Libraries/src/stm32f10x_spi.c ****   */
  47:/home/virusv/TDSAST_IOT/Libraries/src/stm32f10x_spi.c **** 
  48:/home/virusv/TDSAST_IOT/Libraries/src/stm32f10x_spi.c **** /* SPI SPE mask */
  49:/home/virusv/TDSAST_IOT/Libraries/src/stm32f10x_spi.c **** #define CR1_SPE_Set          ((uint16_t)0x0040)
  50:/home/virusv/TDSAST_IOT/Libraries/src/stm32f10x_spi.c **** #define CR1_SPE_Reset        ((uint16_t)0xFFBF)
  51:/home/virusv/TDSAST_IOT/Libraries/src/stm32f10x_spi.c **** 
  52:/home/virusv/TDSAST_IOT/Libraries/src/stm32f10x_spi.c **** /* I2S I2SE mask */
  53:/home/virusv/TDSAST_IOT/Libraries/src/stm32f10x_spi.c **** #define I2SCFGR_I2SE_Set     ((uint16_t)0x0400)
  54:/home/virusv/TDSAST_IOT/Libraries/src/stm32f10x_spi.c **** #define I2SCFGR_I2SE_Reset   ((uint16_t)0xFBFF)
  55:/home/virusv/TDSAST_IOT/Libraries/src/stm32f10x_spi.c **** 
  56:/home/virusv/TDSAST_IOT/Libraries/src/stm32f10x_spi.c **** /* SPI CRCNext mask */
  57:/home/virusv/TDSAST_IOT/Libraries/src/stm32f10x_spi.c **** #define CR1_CRCNext_Set      ((uint16_t)0x1000)
  58:/home/virusv/TDSAST_IOT/Libraries/src/stm32f10x_spi.c **** 
  59:/home/virusv/TDSAST_IOT/Libraries/src/stm32f10x_spi.c **** /* SPI CRCEN mask */
  60:/home/virusv/TDSAST_IOT/Libraries/src/stm32f10x_spi.c **** #define CR1_CRCEN_Set        ((uint16_t)0x2000)
  61:/home/virusv/TDSAST_IOT/Libraries/src/stm32f10x_spi.c **** #define CR1_CRCEN_Reset      ((uint16_t)0xDFFF)
  62:/home/virusv/TDSAST_IOT/Libraries/src/stm32f10x_spi.c **** 
  63:/home/virusv/TDSAST_IOT/Libraries/src/stm32f10x_spi.c **** /* SPI SSOE mask */
  64:/home/virusv/TDSAST_IOT/Libraries/src/stm32f10x_spi.c **** #define CR2_SSOE_Set         ((uint16_t)0x0004)
  65:/home/virusv/TDSAST_IOT/Libraries/src/stm32f10x_spi.c **** #define CR2_SSOE_Reset       ((uint16_t)0xFFFB)
  66:/home/virusv/TDSAST_IOT/Libraries/src/stm32f10x_spi.c **** 
  67:/home/virusv/TDSAST_IOT/Libraries/src/stm32f10x_spi.c **** /* SPI registers Masks */
  68:/home/virusv/TDSAST_IOT/Libraries/src/stm32f10x_spi.c **** #define CR1_CLEAR_Mask       ((uint16_t)0x3040)
  69:/home/virusv/TDSAST_IOT/Libraries/src/stm32f10x_spi.c **** #define I2SCFGR_CLEAR_Mask   ((uint16_t)0xF040)
  70:/home/virusv/TDSAST_IOT/Libraries/src/stm32f10x_spi.c **** 
  71:/home/virusv/TDSAST_IOT/Libraries/src/stm32f10x_spi.c **** /* SPI or I2S mode selection masks */
  72:/home/virusv/TDSAST_IOT/Libraries/src/stm32f10x_spi.c **** #define SPI_Mode_Select      ((uint16_t)0xF7FF)
  73:/home/virusv/TDSAST_IOT/Libraries/src/stm32f10x_spi.c **** #define I2S_Mode_Select      ((uint16_t)0x0800) 
  74:/home/virusv/TDSAST_IOT/Libraries/src/stm32f10x_spi.c **** 
  75:/home/virusv/TDSAST_IOT/Libraries/src/stm32f10x_spi.c **** /* I2S clock source selection masks */
  76:/home/virusv/TDSAST_IOT/Libraries/src/stm32f10x_spi.c **** #define I2S2_CLOCK_SRC       ((uint32_t)(0x00020000))
  77:/home/virusv/TDSAST_IOT/Libraries/src/stm32f10x_spi.c **** #define I2S3_CLOCK_SRC       ((uint32_t)(0x00040000))
  78:/home/virusv/TDSAST_IOT/Libraries/src/stm32f10x_spi.c **** #define I2S_MUL_MASK         ((uint32_t)(0x0000F000))
  79:/home/virusv/TDSAST_IOT/Libraries/src/stm32f10x_spi.c **** #define I2S_DIV_MASK         ((uint32_t)(0x000000F0))
  80:/home/virusv/TDSAST_IOT/Libraries/src/stm32f10x_spi.c **** 
  81:/home/virusv/TDSAST_IOT/Libraries/src/stm32f10x_spi.c **** /**
  82:/home/virusv/TDSAST_IOT/Libraries/src/stm32f10x_spi.c ****   * @}
  83:/home/virusv/TDSAST_IOT/Libraries/src/stm32f10x_spi.c ****   */
  84:/home/virusv/TDSAST_IOT/Libraries/src/stm32f10x_spi.c **** 
  85:/home/virusv/TDSAST_IOT/Libraries/src/stm32f10x_spi.c **** /** @defgroup SPI_Private_Macros
  86:/home/virusv/TDSAST_IOT/Libraries/src/stm32f10x_spi.c ****   * @{
  87:/home/virusv/TDSAST_IOT/Libraries/src/stm32f10x_spi.c ****   */
  88:/home/virusv/TDSAST_IOT/Libraries/src/stm32f10x_spi.c **** 
  89:/home/virusv/TDSAST_IOT/Libraries/src/stm32f10x_spi.c **** /**
  90:/home/virusv/TDSAST_IOT/Libraries/src/stm32f10x_spi.c ****   * @}
  91:/home/virusv/TDSAST_IOT/Libraries/src/stm32f10x_spi.c ****   */
  92:/home/virusv/TDSAST_IOT/Libraries/src/stm32f10x_spi.c **** 
  93:/home/virusv/TDSAST_IOT/Libraries/src/stm32f10x_spi.c **** /** @defgroup SPI_Private_Variables
  94:/home/virusv/TDSAST_IOT/Libraries/src/stm32f10x_spi.c ****   * @{
  95:/home/virusv/TDSAST_IOT/Libraries/src/stm32f10x_spi.c ****   */
  96:/home/virusv/TDSAST_IOT/Libraries/src/stm32f10x_spi.c **** 
  97:/home/virusv/TDSAST_IOT/Libraries/src/stm32f10x_spi.c **** /**
  98:/home/virusv/TDSAST_IOT/Libraries/src/stm32f10x_spi.c ****   * @}
  99:/home/virusv/TDSAST_IOT/Libraries/src/stm32f10x_spi.c ****   */
 100:/home/virusv/TDSAST_IOT/Libraries/src/stm32f10x_spi.c **** 
 101:/home/virusv/TDSAST_IOT/Libraries/src/stm32f10x_spi.c **** /** @defgroup SPI_Private_FunctionPrototypes
 102:/home/virusv/TDSAST_IOT/Libraries/src/stm32f10x_spi.c ****   * @{
 103:/home/virusv/TDSAST_IOT/Libraries/src/stm32f10x_spi.c ****   */
 104:/home/virusv/TDSAST_IOT/Libraries/src/stm32f10x_spi.c **** 
 105:/home/virusv/TDSAST_IOT/Libraries/src/stm32f10x_spi.c **** /**
 106:/home/virusv/TDSAST_IOT/Libraries/src/stm32f10x_spi.c ****   * @}
 107:/home/virusv/TDSAST_IOT/Libraries/src/stm32f10x_spi.c ****   */
 108:/home/virusv/TDSAST_IOT/Libraries/src/stm32f10x_spi.c **** 
 109:/home/virusv/TDSAST_IOT/Libraries/src/stm32f10x_spi.c **** /** @defgroup SPI_Private_Functions
 110:/home/virusv/TDSAST_IOT/Libraries/src/stm32f10x_spi.c ****   * @{
 111:/home/virusv/TDSAST_IOT/Libraries/src/stm32f10x_spi.c ****   */
 112:/home/virusv/TDSAST_IOT/Libraries/src/stm32f10x_spi.c **** 
 113:/home/virusv/TDSAST_IOT/Libraries/src/stm32f10x_spi.c **** /**
 114:/home/virusv/TDSAST_IOT/Libraries/src/stm32f10x_spi.c ****   * @brief  Deinitializes the SPIx peripheral registers to their default
 115:/home/virusv/TDSAST_IOT/Libraries/src/stm32f10x_spi.c ****   *         reset values (Affects also the I2Ss).
 116:/home/virusv/TDSAST_IOT/Libraries/src/stm32f10x_spi.c ****   * @param  SPIx: where x can be 1, 2 or 3 to select the SPI peripheral.
 117:/home/virusv/TDSAST_IOT/Libraries/src/stm32f10x_spi.c ****   * @retval None
 118:/home/virusv/TDSAST_IOT/Libraries/src/stm32f10x_spi.c ****   */
 119:/home/virusv/TDSAST_IOT/Libraries/src/stm32f10x_spi.c **** void SPI_I2S_DeInit(SPI_TypeDef* SPIx)
 120:/home/virusv/TDSAST_IOT/Libraries/src/stm32f10x_spi.c **** {
  27              		.loc 1 120 0
  28              		.cfi_startproc
  29              		@ args = 0, pretend = 0, frame = 8
  30              		@ frame_needed = 1, uses_anonymous_args = 0
  31 0000 80B5     		push	{r7, lr}
  32              		.cfi_def_cfa_offset 8
  33              		.cfi_offset 7, -8
  34              		.cfi_offset 14, -4
  35 0002 82B0     		sub	sp, sp, #8
  36              		.cfi_def_cfa_offset 16
  37 0004 00AF     		add	r7, sp, #0
  38              		.cfi_def_cfa_register 7
  39 0006 7860     		str	r0, [r7, #4]
 121:/home/virusv/TDSAST_IOT/Libraries/src/stm32f10x_spi.c ****   /* Check the parameters */
 122:/home/virusv/TDSAST_IOT/Libraries/src/stm32f10x_spi.c ****   assert_param(IS_SPI_ALL_PERIPH(SPIx));
 123:/home/virusv/TDSAST_IOT/Libraries/src/stm32f10x_spi.c **** 
 124:/home/virusv/TDSAST_IOT/Libraries/src/stm32f10x_spi.c ****   if (SPIx == SPI1)
  40              		.loc 1 124 0
  41 0008 7B68     		ldr	r3, [r7, #4]
  42 000a 174A     		ldr	r2, .L5
  43 000c 9342     		cmp	r3, r2
  44 000e 0AD1     		bne	.L2
 125:/home/virusv/TDSAST_IOT/Libraries/src/stm32f10x_spi.c ****   {
 126:/home/virusv/TDSAST_IOT/Libraries/src/stm32f10x_spi.c ****     /* Enable SPI1 reset state */
 127:/home/virusv/TDSAST_IOT/Libraries/src/stm32f10x_spi.c ****     RCC_APB2PeriphResetCmd(RCC_APB2Periph_SPI1, ENABLE);
  45              		.loc 1 127 0
  46 0010 4FF48050 		mov	r0, #4096
  47 0014 0121     		movs	r1, #1
  48 0016 FFF7FEFF 		bl	RCC_APB2PeriphResetCmd
 128:/home/virusv/TDSAST_IOT/Libraries/src/stm32f10x_spi.c ****     /* Release SPI1 from reset state */
 129:/home/virusv/TDSAST_IOT/Libraries/src/stm32f10x_spi.c ****     RCC_APB2PeriphResetCmd(RCC_APB2Periph_SPI1, DISABLE);
  49              		.loc 1 129 0
  50 001a 4FF48050 		mov	r0, #4096
  51 001e 0021     		movs	r1, #0
  52 0020 FFF7FEFF 		bl	RCC_APB2PeriphResetCmd
  53 0024 1CE0     		b	.L1
  54              	.L2:
 130:/home/virusv/TDSAST_IOT/Libraries/src/stm32f10x_spi.c ****   }
 131:/home/virusv/TDSAST_IOT/Libraries/src/stm32f10x_spi.c ****   else if (SPIx == SPI2)
  55              		.loc 1 131 0
  56 0026 7B68     		ldr	r3, [r7, #4]
  57 0028 104A     		ldr	r2, .L5+4
  58 002a 9342     		cmp	r3, r2
  59 002c 0AD1     		bne	.L4
 132:/home/virusv/TDSAST_IOT/Libraries/src/stm32f10x_spi.c ****   {
 133:/home/virusv/TDSAST_IOT/Libraries/src/stm32f10x_spi.c ****     /* Enable SPI2 reset state */
 134:/home/virusv/TDSAST_IOT/Libraries/src/stm32f10x_spi.c ****     RCC_APB1PeriphResetCmd(RCC_APB1Periph_SPI2, ENABLE);
  60              		.loc 1 134 0
  61 002e 4FF48040 		mov	r0, #16384
  62 0032 0121     		movs	r1, #1
  63 0034 FFF7FEFF 		bl	RCC_APB1PeriphResetCmd
 135:/home/virusv/TDSAST_IOT/Libraries/src/stm32f10x_spi.c ****     /* Release SPI2 from reset state */
 136:/home/virusv/TDSAST_IOT/Libraries/src/stm32f10x_spi.c ****     RCC_APB1PeriphResetCmd(RCC_APB1Periph_SPI2, DISABLE);
  64              		.loc 1 136 0
  65 0038 4FF48040 		mov	r0, #16384
  66 003c 0021     		movs	r1, #0
  67 003e FFF7FEFF 		bl	RCC_APB1PeriphResetCmd
  68 0042 0DE0     		b	.L1
  69              	.L4:
 137:/home/virusv/TDSAST_IOT/Libraries/src/stm32f10x_spi.c ****   }
 138:/home/virusv/TDSAST_IOT/Libraries/src/stm32f10x_spi.c ****   else
 139:/home/virusv/TDSAST_IOT/Libraries/src/stm32f10x_spi.c ****   {
 140:/home/virusv/TDSAST_IOT/Libraries/src/stm32f10x_spi.c ****     if (SPIx == SPI3)
  70              		.loc 1 140 0
  71 0044 7B68     		ldr	r3, [r7, #4]
  72 0046 0A4A     		ldr	r2, .L5+8
  73 0048 9342     		cmp	r3, r2
  74 004a 09D1     		bne	.L1
 141:/home/virusv/TDSAST_IOT/Libraries/src/stm32f10x_spi.c ****     {
 142:/home/virusv/TDSAST_IOT/Libraries/src/stm32f10x_spi.c ****       /* Enable SPI3 reset state */
 143:/home/virusv/TDSAST_IOT/Libraries/src/stm32f10x_spi.c ****       RCC_APB1PeriphResetCmd(RCC_APB1Periph_SPI3, ENABLE);
  75              		.loc 1 143 0
  76 004c 4FF40040 		mov	r0, #32768
  77 0050 0121     		movs	r1, #1
  78 0052 FFF7FEFF 		bl	RCC_APB1PeriphResetCmd
 144:/home/virusv/TDSAST_IOT/Libraries/src/stm32f10x_spi.c ****       /* Release SPI3 from reset state */
 145:/home/virusv/TDSAST_IOT/Libraries/src/stm32f10x_spi.c ****       RCC_APB1PeriphResetCmd(RCC_APB1Periph_SPI3, DISABLE);
  79              		.loc 1 145 0
  80 0056 4FF40040 		mov	r0, #32768
  81 005a 0021     		movs	r1, #0
  82 005c FFF7FEFF 		bl	RCC_APB1PeriphResetCmd
  83              	.L1:
 146:/home/virusv/TDSAST_IOT/Libraries/src/stm32f10x_spi.c ****     }
 147:/home/virusv/TDSAST_IOT/Libraries/src/stm32f10x_spi.c ****   }
 148:/home/virusv/TDSAST_IOT/Libraries/src/stm32f10x_spi.c **** }
  84              		.loc 1 148 0
  85 0060 0837     		adds	r7, r7, #8
  86              		.cfi_def_cfa_offset 8
  87 0062 BD46     		mov	sp, r7
  88              		.cfi_def_cfa_register 13
  89              		@ sp needed
  90 0064 80BD     		pop	{r7, pc}
  91              	.L6:
  92 0066 00BF     		.align	2
  93              	.L5:
  94 0068 00300140 		.word	1073819648
  95 006c 00380040 		.word	1073756160
  96 0070 003C0040 		.word	1073757184
  97              		.cfi_endproc
  98              	.LFE29:
 100              		.section	.text.SPI_Init,"ax",%progbits
 101              		.align	2
 102              		.global	SPI_Init
 103              		.thumb
 104              		.thumb_func
 106              	SPI_Init:
 107              	.LFB30:
 149:/home/virusv/TDSAST_IOT/Libraries/src/stm32f10x_spi.c **** 
 150:/home/virusv/TDSAST_IOT/Libraries/src/stm32f10x_spi.c **** /**
 151:/home/virusv/TDSAST_IOT/Libraries/src/stm32f10x_spi.c ****   * @brief  Initializes the SPIx peripheral according to the specified 
 152:/home/virusv/TDSAST_IOT/Libraries/src/stm32f10x_spi.c ****   *         parameters in the SPI_InitStruct.
 153:/home/virusv/TDSAST_IOT/Libraries/src/stm32f10x_spi.c ****   * @param  SPIx: where x can be 1, 2 or 3 to select the SPI peripheral.
 154:/home/virusv/TDSAST_IOT/Libraries/src/stm32f10x_spi.c ****   * @param  SPI_InitStruct: pointer to a SPI_InitTypeDef structure that
 155:/home/virusv/TDSAST_IOT/Libraries/src/stm32f10x_spi.c ****   *         contains the configuration information for the specified SPI peripheral.
 156:/home/virusv/TDSAST_IOT/Libraries/src/stm32f10x_spi.c ****   * @retval None
 157:/home/virusv/TDSAST_IOT/Libraries/src/stm32f10x_spi.c ****   */
 158:/home/virusv/TDSAST_IOT/Libraries/src/stm32f10x_spi.c **** void SPI_Init(SPI_TypeDef* SPIx, SPI_InitTypeDef* SPI_InitStruct)
 159:/home/virusv/TDSAST_IOT/Libraries/src/stm32f10x_spi.c **** {
 108              		.loc 1 159 0
 109              		.cfi_startproc
 110              		@ args = 0, pretend = 0, frame = 16
 111              		@ frame_needed = 1, uses_anonymous_args = 0
 112              		@ link register save eliminated.
 113 0000 80B4     		push	{r7}
 114              		.cfi_def_cfa_offset 4
 115              		.cfi_offset 7, -4
 116 0002 85B0     		sub	sp, sp, #20
 117              		.cfi_def_cfa_offset 24
 118 0004 00AF     		add	r7, sp, #0
 119              		.cfi_def_cfa_register 7
 120 0006 7860     		str	r0, [r7, #4]
 121 0008 3960     		str	r1, [r7]
 160:/home/virusv/TDSAST_IOT/Libraries/src/stm32f10x_spi.c ****   uint16_t tmpreg = 0;
 122              		.loc 1 160 0
 123 000a 0023     		movs	r3, #0
 124 000c FB81     		strh	r3, [r7, #14]	@ movhi
 161:/home/virusv/TDSAST_IOT/Libraries/src/stm32f10x_spi.c ****   
 162:/home/virusv/TDSAST_IOT/Libraries/src/stm32f10x_spi.c ****   /* check the parameters */
 163:/home/virusv/TDSAST_IOT/Libraries/src/stm32f10x_spi.c ****   assert_param(IS_SPI_ALL_PERIPH(SPIx));   
 164:/home/virusv/TDSAST_IOT/Libraries/src/stm32f10x_spi.c ****   
 165:/home/virusv/TDSAST_IOT/Libraries/src/stm32f10x_spi.c ****   /* Check the SPI parameters */
 166:/home/virusv/TDSAST_IOT/Libraries/src/stm32f10x_spi.c ****   assert_param(IS_SPI_DIRECTION_MODE(SPI_InitStruct->SPI_Direction));
 167:/home/virusv/TDSAST_IOT/Libraries/src/stm32f10x_spi.c ****   assert_param(IS_SPI_MODE(SPI_InitStruct->SPI_Mode));
 168:/home/virusv/TDSAST_IOT/Libraries/src/stm32f10x_spi.c ****   assert_param(IS_SPI_DATASIZE(SPI_InitStruct->SPI_DataSize));
 169:/home/virusv/TDSAST_IOT/Libraries/src/stm32f10x_spi.c ****   assert_param(IS_SPI_CPOL(SPI_InitStruct->SPI_CPOL));
 170:/home/virusv/TDSAST_IOT/Libraries/src/stm32f10x_spi.c ****   assert_param(IS_SPI_CPHA(SPI_InitStruct->SPI_CPHA));
 171:/home/virusv/TDSAST_IOT/Libraries/src/stm32f10x_spi.c ****   assert_param(IS_SPI_NSS(SPI_InitStruct->SPI_NSS));
 172:/home/virusv/TDSAST_IOT/Libraries/src/stm32f10x_spi.c ****   assert_param(IS_SPI_BAUDRATE_PRESCALER(SPI_InitStruct->SPI_BaudRatePrescaler));
 173:/home/virusv/TDSAST_IOT/Libraries/src/stm32f10x_spi.c ****   assert_param(IS_SPI_FIRST_BIT(SPI_InitStruct->SPI_FirstBit));
 174:/home/virusv/TDSAST_IOT/Libraries/src/stm32f10x_spi.c ****   assert_param(IS_SPI_CRC_POLYNOMIAL(SPI_InitStruct->SPI_CRCPolynomial));
 175:/home/virusv/TDSAST_IOT/Libraries/src/stm32f10x_spi.c **** 
 176:/home/virusv/TDSAST_IOT/Libraries/src/stm32f10x_spi.c **** /*---------------------------- SPIx CR1 Configuration ------------------------*/
 177:/home/virusv/TDSAST_IOT/Libraries/src/stm32f10x_spi.c ****   /* Get the SPIx CR1 value */
 178:/home/virusv/TDSAST_IOT/Libraries/src/stm32f10x_spi.c ****   tmpreg = SPIx->CR1;
 125              		.loc 1 178 0
 126 000e 7B68     		ldr	r3, [r7, #4]
 127 0010 1B88     		ldrh	r3, [r3]	@ movhi
 128 0012 FB81     		strh	r3, [r7, #14]	@ movhi
 179:/home/virusv/TDSAST_IOT/Libraries/src/stm32f10x_spi.c ****   /* Clear BIDIMode, BIDIOE, RxONLY, SSM, SSI, LSBFirst, BR, MSTR, CPOL and CPHA bits */
 180:/home/virusv/TDSAST_IOT/Libraries/src/stm32f10x_spi.c ****   tmpreg &= CR1_CLEAR_Mask;
 129              		.loc 1 180 0
 130 0014 FB89     		ldrh	r3, [r7, #14]	@ movhi
 131 0016 03F44153 		and	r3, r3, #12352
 132 001a FB81     		strh	r3, [r7, #14]	@ movhi
 181:/home/virusv/TDSAST_IOT/Libraries/src/stm32f10x_spi.c ****   /* Configure SPIx: direction, NSS management, first transmitted bit, BaudRate prescaler
 182:/home/virusv/TDSAST_IOT/Libraries/src/stm32f10x_spi.c ****      master/salve mode, CPOL and CPHA */
 183:/home/virusv/TDSAST_IOT/Libraries/src/stm32f10x_spi.c ****   /* Set BIDImode, BIDIOE and RxONLY bits according to SPI_Direction value */
 184:/home/virusv/TDSAST_IOT/Libraries/src/stm32f10x_spi.c ****   /* Set SSM, SSI and MSTR bits according to SPI_Mode and SPI_NSS values */
 185:/home/virusv/TDSAST_IOT/Libraries/src/stm32f10x_spi.c ****   /* Set LSBFirst bit according to SPI_FirstBit value */
 186:/home/virusv/TDSAST_IOT/Libraries/src/stm32f10x_spi.c ****   /* Set BR bits according to SPI_BaudRatePrescaler value */
 187:/home/virusv/TDSAST_IOT/Libraries/src/stm32f10x_spi.c ****   /* Set CPOL bit according to SPI_CPOL value */
 188:/home/virusv/TDSAST_IOT/Libraries/src/stm32f10x_spi.c ****   /* Set CPHA bit according to SPI_CPHA value */
 189:/home/virusv/TDSAST_IOT/Libraries/src/stm32f10x_spi.c ****   tmpreg |= (uint16_t)((uint32_t)SPI_InitStruct->SPI_Direction | SPI_InitStruct->SPI_Mode |
 133              		.loc 1 189 0
 134 001c 3B68     		ldr	r3, [r7]
 135 001e 1A88     		ldrh	r2, [r3]
 136 0020 3B68     		ldr	r3, [r7]
 137 0022 5B88     		ldrh	r3, [r3, #2]
 138 0024 1343     		orrs	r3, r3, r2
 139 0026 9AB2     		uxth	r2, r3
 190:/home/virusv/TDSAST_IOT/Libraries/src/stm32f10x_spi.c ****                   SPI_InitStruct->SPI_DataSize | SPI_InitStruct->SPI_CPOL |  
 140              		.loc 1 190 0
 141 0028 3B68     		ldr	r3, [r7]
 142 002a 9B88     		ldrh	r3, [r3, #4]
 189:/home/virusv/TDSAST_IOT/Libraries/src/stm32f10x_spi.c ****                   SPI_InitStruct->SPI_DataSize | SPI_InitStruct->SPI_CPOL |  
 143              		.loc 1 189 0
 144 002c 1343     		orrs	r3, r3, r2
 145 002e 9AB2     		uxth	r2, r3
 146              		.loc 1 190 0
 147 0030 3B68     		ldr	r3, [r7]
 148 0032 DB88     		ldrh	r3, [r3, #6]
 189:/home/virusv/TDSAST_IOT/Libraries/src/stm32f10x_spi.c ****                   SPI_InitStruct->SPI_DataSize | SPI_InitStruct->SPI_CPOL |  
 149              		.loc 1 189 0
 150 0034 1343     		orrs	r3, r3, r2
 151 0036 9AB2     		uxth	r2, r3
 191:/home/virusv/TDSAST_IOT/Libraries/src/stm32f10x_spi.c ****                   SPI_InitStruct->SPI_CPHA | SPI_InitStruct->SPI_NSS |  
 152              		.loc 1 191 0
 153 0038 3B68     		ldr	r3, [r7]
 154 003a 1B89     		ldrh	r3, [r3, #8]
 189:/home/virusv/TDSAST_IOT/Libraries/src/stm32f10x_spi.c ****                   SPI_InitStruct->SPI_DataSize | SPI_InitStruct->SPI_CPOL |  
 155              		.loc 1 189 0
 156 003c 1343     		orrs	r3, r3, r2
 157 003e 9AB2     		uxth	r2, r3
 158              		.loc 1 191 0
 159 0040 3B68     		ldr	r3, [r7]
 160 0042 5B89     		ldrh	r3, [r3, #10]
 189:/home/virusv/TDSAST_IOT/Libraries/src/stm32f10x_spi.c ****                   SPI_InitStruct->SPI_DataSize | SPI_InitStruct->SPI_CPOL |  
 161              		.loc 1 189 0
 162 0044 1343     		orrs	r3, r3, r2
 163 0046 9AB2     		uxth	r2, r3
 192:/home/virusv/TDSAST_IOT/Libraries/src/stm32f10x_spi.c ****                   SPI_InitStruct->SPI_BaudRatePrescaler | SPI_InitStruct->SPI_FirstBit);
 164              		.loc 1 192 0
 165 0048 3B68     		ldr	r3, [r7]
 166 004a 9B89     		ldrh	r3, [r3, #12]
 189:/home/virusv/TDSAST_IOT/Libraries/src/stm32f10x_spi.c ****                   SPI_InitStruct->SPI_DataSize | SPI_InitStruct->SPI_CPOL |  
 167              		.loc 1 189 0
 168 004c 1343     		orrs	r3, r3, r2
 169 004e 9AB2     		uxth	r2, r3
 170              		.loc 1 192 0
 171 0050 3B68     		ldr	r3, [r7]
 172 0052 DB89     		ldrh	r3, [r3, #14]
 189:/home/virusv/TDSAST_IOT/Libraries/src/stm32f10x_spi.c ****                   SPI_InitStruct->SPI_DataSize | SPI_InitStruct->SPI_CPOL |  
 173              		.loc 1 189 0
 174 0054 1343     		orrs	r3, r3, r2
 175 0056 9AB2     		uxth	r2, r3
 176 0058 FB89     		ldrh	r3, [r7, #14]	@ movhi
 177 005a 1343     		orrs	r3, r3, r2
 178 005c FB81     		strh	r3, [r7, #14]	@ movhi
 193:/home/virusv/TDSAST_IOT/Libraries/src/stm32f10x_spi.c ****   /* Write to SPIx CR1 */
 194:/home/virusv/TDSAST_IOT/Libraries/src/stm32f10x_spi.c ****   SPIx->CR1 = tmpreg;
 179              		.loc 1 194 0
 180 005e 7B68     		ldr	r3, [r7, #4]
 181 0060 FA89     		ldrh	r2, [r7, #14]	@ movhi
 182 0062 1A80     		strh	r2, [r3]	@ movhi
 195:/home/virusv/TDSAST_IOT/Libraries/src/stm32f10x_spi.c ****   
 196:/home/virusv/TDSAST_IOT/Libraries/src/stm32f10x_spi.c ****   /* Activate the SPI mode (Reset I2SMOD bit in I2SCFGR register) */
 197:/home/virusv/TDSAST_IOT/Libraries/src/stm32f10x_spi.c ****   SPIx->I2SCFGR &= SPI_Mode_Select;		
 183              		.loc 1 197 0
 184 0064 7B68     		ldr	r3, [r7, #4]
 185 0066 9B8B     		ldrh	r3, [r3, #28]	@ movhi
 186 0068 9BB2     		uxth	r3, r3
 187 006a 23F40063 		bic	r3, r3, #2048
 188 006e 9AB2     		uxth	r2, r3
 189 0070 7B68     		ldr	r3, [r7, #4]
 190 0072 9A83     		strh	r2, [r3, #28]	@ movhi
 198:/home/virusv/TDSAST_IOT/Libraries/src/stm32f10x_spi.c **** 
 199:/home/virusv/TDSAST_IOT/Libraries/src/stm32f10x_spi.c **** /*---------------------------- SPIx CRCPOLY Configuration --------------------*/
 200:/home/virusv/TDSAST_IOT/Libraries/src/stm32f10x_spi.c ****   /* Write to SPIx CRCPOLY */
 201:/home/virusv/TDSAST_IOT/Libraries/src/stm32f10x_spi.c ****   SPIx->CRCPR = SPI_InitStruct->SPI_CRCPolynomial;
 191              		.loc 1 201 0
 192 0074 3B68     		ldr	r3, [r7]
 193 0076 1A8A     		ldrh	r2, [r3, #16]
 194 0078 7B68     		ldr	r3, [r7, #4]
 195 007a 1A82     		strh	r2, [r3, #16]	@ movhi
 202:/home/virusv/TDSAST_IOT/Libraries/src/stm32f10x_spi.c **** }
 196              		.loc 1 202 0
 197 007c 1437     		adds	r7, r7, #20
 198              		.cfi_def_cfa_offset 4
 199 007e BD46     		mov	sp, r7
 200              		.cfi_def_cfa_register 13
 201              		@ sp needed
 202 0080 5DF8047B 		ldr	r7, [sp], #4
 203              		.cfi_restore 7
 204              		.cfi_def_cfa_offset 0
 205 0084 7047     		bx	lr
 206              		.cfi_endproc
 207              	.LFE30:
 209 0086 00BF     		.section	.text.I2S_Init,"ax",%progbits
 210              		.align	2
 211              		.global	I2S_Init
 212              		.thumb
 213              		.thumb_func
 215              	I2S_Init:
 216              	.LFB31:
 203:/home/virusv/TDSAST_IOT/Libraries/src/stm32f10x_spi.c **** 
 204:/home/virusv/TDSAST_IOT/Libraries/src/stm32f10x_spi.c **** /**
 205:/home/virusv/TDSAST_IOT/Libraries/src/stm32f10x_spi.c ****   * @brief  Initializes the SPIx peripheral according to the specified 
 206:/home/virusv/TDSAST_IOT/Libraries/src/stm32f10x_spi.c ****   *         parameters in the I2S_InitStruct.
 207:/home/virusv/TDSAST_IOT/Libraries/src/stm32f10x_spi.c ****   * @param  SPIx: where x can be  2 or 3 to select the SPI peripheral
 208:/home/virusv/TDSAST_IOT/Libraries/src/stm32f10x_spi.c ****   *         (configured in I2S mode).
 209:/home/virusv/TDSAST_IOT/Libraries/src/stm32f10x_spi.c ****   * @param  I2S_InitStruct: pointer to an I2S_InitTypeDef structure that
 210:/home/virusv/TDSAST_IOT/Libraries/src/stm32f10x_spi.c ****   *         contains the configuration information for the specified SPI peripheral
 211:/home/virusv/TDSAST_IOT/Libraries/src/stm32f10x_spi.c ****   *         configured in I2S mode.
 212:/home/virusv/TDSAST_IOT/Libraries/src/stm32f10x_spi.c ****   * @note
 213:/home/virusv/TDSAST_IOT/Libraries/src/stm32f10x_spi.c ****   *  The function calculates the optimal prescaler needed to obtain the most 
 214:/home/virusv/TDSAST_IOT/Libraries/src/stm32f10x_spi.c ****   *  accurate audio frequency (depending on the I2S clock source, the PLL values 
 215:/home/virusv/TDSAST_IOT/Libraries/src/stm32f10x_spi.c ****   *  and the product configuration). But in case the prescaler value is greater 
 216:/home/virusv/TDSAST_IOT/Libraries/src/stm32f10x_spi.c ****   *  than 511, the default value (0x02) will be configured instead.  *   
 217:/home/virusv/TDSAST_IOT/Libraries/src/stm32f10x_spi.c ****   * @retval None
 218:/home/virusv/TDSAST_IOT/Libraries/src/stm32f10x_spi.c ****   */
 219:/home/virusv/TDSAST_IOT/Libraries/src/stm32f10x_spi.c **** void I2S_Init(SPI_TypeDef* SPIx, I2S_InitTypeDef* I2S_InitStruct)
 220:/home/virusv/TDSAST_IOT/Libraries/src/stm32f10x_spi.c **** {
 217              		.loc 1 220 0
 218              		.cfi_startproc
 219              		@ args = 0, pretend = 0, frame = 48
 220              		@ frame_needed = 1, uses_anonymous_args = 0
 221 0000 80B5     		push	{r7, lr}
 222              		.cfi_def_cfa_offset 8
 223              		.cfi_offset 7, -8
 224              		.cfi_offset 14, -4
 225 0002 8CB0     		sub	sp, sp, #48
 226              		.cfi_def_cfa_offset 56
 227 0004 00AF     		add	r7, sp, #0
 228              		.cfi_def_cfa_register 7
 229 0006 7860     		str	r0, [r7, #4]
 230 0008 3960     		str	r1, [r7]
 221:/home/virusv/TDSAST_IOT/Libraries/src/stm32f10x_spi.c ****   uint16_t tmpreg = 0, i2sdiv = 2, i2sodd = 0, packetlength = 1;
 231              		.loc 1 221 0
 232 000a 0023     		movs	r3, #0
 233 000c 7B84     		strh	r3, [r7, #34]	@ movhi
 234 000e 0223     		movs	r3, #2
 235 0010 FB85     		strh	r3, [r7, #46]	@ movhi
 236 0012 0023     		movs	r3, #0
 237 0014 BB85     		strh	r3, [r7, #44]	@ movhi
 238 0016 0123     		movs	r3, #1
 239 0018 7B85     		strh	r3, [r7, #42]	@ movhi
 222:/home/virusv/TDSAST_IOT/Libraries/src/stm32f10x_spi.c ****   uint32_t tmp = 0;
 240              		.loc 1 222 0
 241 001a 0023     		movs	r3, #0
 242 001c 7B62     		str	r3, [r7, #36]
 223:/home/virusv/TDSAST_IOT/Libraries/src/stm32f10x_spi.c ****   RCC_ClocksTypeDef RCC_Clocks;
 224:/home/virusv/TDSAST_IOT/Libraries/src/stm32f10x_spi.c ****   uint32_t sourceclock = 0;
 243              		.loc 1 224 0
 244 001e 0023     		movs	r3, #0
 245 0020 FB61     		str	r3, [r7, #28]
 225:/home/virusv/TDSAST_IOT/Libraries/src/stm32f10x_spi.c ****   
 226:/home/virusv/TDSAST_IOT/Libraries/src/stm32f10x_spi.c ****   /* Check the I2S parameters */
 227:/home/virusv/TDSAST_IOT/Libraries/src/stm32f10x_spi.c ****   assert_param(IS_SPI_23_PERIPH(SPIx));
 228:/home/virusv/TDSAST_IOT/Libraries/src/stm32f10x_spi.c ****   assert_param(IS_I2S_MODE(I2S_InitStruct->I2S_Mode));
 229:/home/virusv/TDSAST_IOT/Libraries/src/stm32f10x_spi.c ****   assert_param(IS_I2S_STANDARD(I2S_InitStruct->I2S_Standard));
 230:/home/virusv/TDSAST_IOT/Libraries/src/stm32f10x_spi.c ****   assert_param(IS_I2S_DATA_FORMAT(I2S_InitStruct->I2S_DataFormat));
 231:/home/virusv/TDSAST_IOT/Libraries/src/stm32f10x_spi.c ****   assert_param(IS_I2S_MCLK_OUTPUT(I2S_InitStruct->I2S_MCLKOutput));
 232:/home/virusv/TDSAST_IOT/Libraries/src/stm32f10x_spi.c ****   assert_param(IS_I2S_AUDIO_FREQ(I2S_InitStruct->I2S_AudioFreq));
 233:/home/virusv/TDSAST_IOT/Libraries/src/stm32f10x_spi.c ****   assert_param(IS_I2S_CPOL(I2S_InitStruct->I2S_CPOL));  
 234:/home/virusv/TDSAST_IOT/Libraries/src/stm32f10x_spi.c **** 
 235:/home/virusv/TDSAST_IOT/Libraries/src/stm32f10x_spi.c **** /*----------------------- SPIx I2SCFGR & I2SPR Configuration -----------------*/
 236:/home/virusv/TDSAST_IOT/Libraries/src/stm32f10x_spi.c ****   /* Clear I2SMOD, I2SE, I2SCFG, PCMSYNC, I2SSTD, CKPOL, DATLEN and CHLEN bits */
 237:/home/virusv/TDSAST_IOT/Libraries/src/stm32f10x_spi.c ****   SPIx->I2SCFGR &= I2SCFGR_CLEAR_Mask; 
 246              		.loc 1 237 0
 247 0022 7B68     		ldr	r3, [r7, #4]
 248 0024 9B8B     		ldrh	r3, [r3, #28]	@ movhi
 249 0026 9BB2     		uxth	r3, r3
 250 0028 23F47B63 		bic	r3, r3, #4016
 251 002c 23F00F03 		bic	r3, r3, #15
 252 0030 9AB2     		uxth	r2, r3
 253 0032 7B68     		ldr	r3, [r7, #4]
 254 0034 9A83     		strh	r2, [r3, #28]	@ movhi
 238:/home/virusv/TDSAST_IOT/Libraries/src/stm32f10x_spi.c ****   SPIx->I2SPR = 0x0002;
 255              		.loc 1 238 0
 256 0036 7B68     		ldr	r3, [r7, #4]
 257 0038 0222     		movs	r2, #2
 258 003a 1A84     		strh	r2, [r3, #32]	@ movhi
 239:/home/virusv/TDSAST_IOT/Libraries/src/stm32f10x_spi.c ****   
 240:/home/virusv/TDSAST_IOT/Libraries/src/stm32f10x_spi.c ****   /* Get the I2SCFGR register value */
 241:/home/virusv/TDSAST_IOT/Libraries/src/stm32f10x_spi.c ****   tmpreg = SPIx->I2SCFGR;
 259              		.loc 1 241 0
 260 003c 7B68     		ldr	r3, [r7, #4]
 261 003e 9B8B     		ldrh	r3, [r3, #28]	@ movhi
 262 0040 7B84     		strh	r3, [r7, #34]	@ movhi
 242:/home/virusv/TDSAST_IOT/Libraries/src/stm32f10x_spi.c ****   
 243:/home/virusv/TDSAST_IOT/Libraries/src/stm32f10x_spi.c ****   /* If the default value has to be written, reinitialize i2sdiv and i2sodd*/
 244:/home/virusv/TDSAST_IOT/Libraries/src/stm32f10x_spi.c ****   if(I2S_InitStruct->I2S_AudioFreq == I2S_AudioFreq_Default)
 263              		.loc 1 244 0
 264 0042 3B68     		ldr	r3, [r7]
 265 0044 9B68     		ldr	r3, [r3, #8]
 266 0046 022B     		cmp	r3, #2
 267 0048 04D1     		bne	.L9
 245:/home/virusv/TDSAST_IOT/Libraries/src/stm32f10x_spi.c ****   {
 246:/home/virusv/TDSAST_IOT/Libraries/src/stm32f10x_spi.c ****     i2sodd = (uint16_t)0;
 268              		.loc 1 246 0
 269 004a 0023     		movs	r3, #0
 270 004c BB85     		strh	r3, [r7, #44]	@ movhi
 247:/home/virusv/TDSAST_IOT/Libraries/src/stm32f10x_spi.c ****     i2sdiv = (uint16_t)2;   
 271              		.loc 1 247 0
 272 004e 0223     		movs	r3, #2
 273 0050 FB85     		strh	r3, [r7, #46]	@ movhi
 274 0052 55E0     		b	.L10
 275              	.L9:
 248:/home/virusv/TDSAST_IOT/Libraries/src/stm32f10x_spi.c ****   }
 249:/home/virusv/TDSAST_IOT/Libraries/src/stm32f10x_spi.c ****   /* If the requested audio frequency is not the default, compute the prescaler */
 250:/home/virusv/TDSAST_IOT/Libraries/src/stm32f10x_spi.c ****   else
 251:/home/virusv/TDSAST_IOT/Libraries/src/stm32f10x_spi.c ****   {
 252:/home/virusv/TDSAST_IOT/Libraries/src/stm32f10x_spi.c ****     /* Check the frame length (For the Prescaler computing) */
 253:/home/virusv/TDSAST_IOT/Libraries/src/stm32f10x_spi.c ****     if(I2S_InitStruct->I2S_DataFormat == I2S_DataFormat_16b)
 276              		.loc 1 253 0
 277 0054 3B68     		ldr	r3, [r7]
 278 0056 9B88     		ldrh	r3, [r3, #4]
 279 0058 002B     		cmp	r3, #0
 280 005a 02D1     		bne	.L11
 254:/home/virusv/TDSAST_IOT/Libraries/src/stm32f10x_spi.c ****     {
 255:/home/virusv/TDSAST_IOT/Libraries/src/stm32f10x_spi.c ****       /* Packet length is 16 bits */
 256:/home/virusv/TDSAST_IOT/Libraries/src/stm32f10x_spi.c ****       packetlength = 1;
 281              		.loc 1 256 0
 282 005c 0123     		movs	r3, #1
 283 005e 7B85     		strh	r3, [r7, #42]	@ movhi
 284 0060 01E0     		b	.L12
 285              	.L11:
 257:/home/virusv/TDSAST_IOT/Libraries/src/stm32f10x_spi.c ****     }
 258:/home/virusv/TDSAST_IOT/Libraries/src/stm32f10x_spi.c ****     else
 259:/home/virusv/TDSAST_IOT/Libraries/src/stm32f10x_spi.c ****     {
 260:/home/virusv/TDSAST_IOT/Libraries/src/stm32f10x_spi.c ****       /* Packet length is 32 bits */
 261:/home/virusv/TDSAST_IOT/Libraries/src/stm32f10x_spi.c ****       packetlength = 2;
 286              		.loc 1 261 0
 287 0062 0223     		movs	r3, #2
 288 0064 7B85     		strh	r3, [r7, #42]	@ movhi
 289              	.L12:
 262:/home/virusv/TDSAST_IOT/Libraries/src/stm32f10x_spi.c ****     }
 263:/home/virusv/TDSAST_IOT/Libraries/src/stm32f10x_spi.c **** 
 264:/home/virusv/TDSAST_IOT/Libraries/src/stm32f10x_spi.c ****     /* Get the I2S clock source mask depending on the peripheral number */
 265:/home/virusv/TDSAST_IOT/Libraries/src/stm32f10x_spi.c ****     if(((uint32_t)SPIx) == SPI2_BASE)
 290              		.loc 1 265 0
 291 0066 7B68     		ldr	r3, [r7, #4]
 292 0068 3C4A     		ldr	r2, .L19
 293 006a 9342     		cmp	r3, r2
 294 006c 03D1     		bne	.L13
 266:/home/virusv/TDSAST_IOT/Libraries/src/stm32f10x_spi.c ****     {
 267:/home/virusv/TDSAST_IOT/Libraries/src/stm32f10x_spi.c ****       /* The mask is relative to I2S2 */
 268:/home/virusv/TDSAST_IOT/Libraries/src/stm32f10x_spi.c ****       tmp = I2S2_CLOCK_SRC;
 295              		.loc 1 268 0
 296 006e 4FF40033 		mov	r3, #131072
 297 0072 7B62     		str	r3, [r7, #36]
 298 0074 02E0     		b	.L14
 299              	.L13:
 269:/home/virusv/TDSAST_IOT/Libraries/src/stm32f10x_spi.c ****     }
 270:/home/virusv/TDSAST_IOT/Libraries/src/stm32f10x_spi.c ****     else 
 271:/home/virusv/TDSAST_IOT/Libraries/src/stm32f10x_spi.c ****     {
 272:/home/virusv/TDSAST_IOT/Libraries/src/stm32f10x_spi.c ****       /* The mask is relative to I2S3 */      
 273:/home/virusv/TDSAST_IOT/Libraries/src/stm32f10x_spi.c ****       tmp = I2S3_CLOCK_SRC;
 300              		.loc 1 273 0
 301 0076 4FF48023 		mov	r3, #262144
 302 007a 7B62     		str	r3, [r7, #36]
 303              	.L14:
 274:/home/virusv/TDSAST_IOT/Libraries/src/stm32f10x_spi.c ****     }
 275:/home/virusv/TDSAST_IOT/Libraries/src/stm32f10x_spi.c **** 
 276:/home/virusv/TDSAST_IOT/Libraries/src/stm32f10x_spi.c ****     /* Check the I2S clock source configuration depending on the Device:
 277:/home/virusv/TDSAST_IOT/Libraries/src/stm32f10x_spi.c ****        Only Connectivity line devices have the PLL3 VCO clock */
 278:/home/virusv/TDSAST_IOT/Libraries/src/stm32f10x_spi.c **** #ifdef STM32F10X_CL
 279:/home/virusv/TDSAST_IOT/Libraries/src/stm32f10x_spi.c ****     if((RCC->CFGR2 & tmp) != 0)
 280:/home/virusv/TDSAST_IOT/Libraries/src/stm32f10x_spi.c ****     {
 281:/home/virusv/TDSAST_IOT/Libraries/src/stm32f10x_spi.c ****       /* Get the configuration bits of RCC PLL3 multiplier */
 282:/home/virusv/TDSAST_IOT/Libraries/src/stm32f10x_spi.c ****       tmp = (uint32_t)((RCC->CFGR2 & I2S_MUL_MASK) >> 12);
 283:/home/virusv/TDSAST_IOT/Libraries/src/stm32f10x_spi.c **** 
 284:/home/virusv/TDSAST_IOT/Libraries/src/stm32f10x_spi.c ****       /* Get the value of the PLL3 multiplier */      
 285:/home/virusv/TDSAST_IOT/Libraries/src/stm32f10x_spi.c ****       if((tmp > 5) && (tmp < 15))
 286:/home/virusv/TDSAST_IOT/Libraries/src/stm32f10x_spi.c ****       {
 287:/home/virusv/TDSAST_IOT/Libraries/src/stm32f10x_spi.c ****         /* Multiplier is between 8 and 14 (value 15 is forbidden) */
 288:/home/virusv/TDSAST_IOT/Libraries/src/stm32f10x_spi.c ****         tmp += 2;
 289:/home/virusv/TDSAST_IOT/Libraries/src/stm32f10x_spi.c ****       }
 290:/home/virusv/TDSAST_IOT/Libraries/src/stm32f10x_spi.c ****       else
 291:/home/virusv/TDSAST_IOT/Libraries/src/stm32f10x_spi.c ****       {
 292:/home/virusv/TDSAST_IOT/Libraries/src/stm32f10x_spi.c ****         if (tmp == 15)
 293:/home/virusv/TDSAST_IOT/Libraries/src/stm32f10x_spi.c ****         {
 294:/home/virusv/TDSAST_IOT/Libraries/src/stm32f10x_spi.c ****           /* Multiplier is 20 */
 295:/home/virusv/TDSAST_IOT/Libraries/src/stm32f10x_spi.c ****           tmp = 20;
 296:/home/virusv/TDSAST_IOT/Libraries/src/stm32f10x_spi.c ****         }
 297:/home/virusv/TDSAST_IOT/Libraries/src/stm32f10x_spi.c ****       }      
 298:/home/virusv/TDSAST_IOT/Libraries/src/stm32f10x_spi.c ****       /* Get the PREDIV2 value */
 299:/home/virusv/TDSAST_IOT/Libraries/src/stm32f10x_spi.c ****       sourceclock = (uint32_t)(((RCC->CFGR2 & I2S_DIV_MASK) >> 4) + 1);
 300:/home/virusv/TDSAST_IOT/Libraries/src/stm32f10x_spi.c ****       
 301:/home/virusv/TDSAST_IOT/Libraries/src/stm32f10x_spi.c ****       /* Calculate the Source Clock frequency based on PLL3 and PREDIV2 values */
 302:/home/virusv/TDSAST_IOT/Libraries/src/stm32f10x_spi.c ****       sourceclock = (uint32_t) ((HSE_Value / sourceclock) * tmp * 2); 
 303:/home/virusv/TDSAST_IOT/Libraries/src/stm32f10x_spi.c ****     }
 304:/home/virusv/TDSAST_IOT/Libraries/src/stm32f10x_spi.c ****     else
 305:/home/virusv/TDSAST_IOT/Libraries/src/stm32f10x_spi.c ****     {
 306:/home/virusv/TDSAST_IOT/Libraries/src/stm32f10x_spi.c ****       /* I2S Clock source is System clock: Get System Clock frequency */
 307:/home/virusv/TDSAST_IOT/Libraries/src/stm32f10x_spi.c ****       RCC_GetClocksFreq(&RCC_Clocks);      
 308:/home/virusv/TDSAST_IOT/Libraries/src/stm32f10x_spi.c ****       
 309:/home/virusv/TDSAST_IOT/Libraries/src/stm32f10x_spi.c ****       /* Get the source clock value: based on System Clock value */
 310:/home/virusv/TDSAST_IOT/Libraries/src/stm32f10x_spi.c ****       sourceclock = RCC_Clocks.SYSCLK_Frequency;
 311:/home/virusv/TDSAST_IOT/Libraries/src/stm32f10x_spi.c ****     }        
 312:/home/virusv/TDSAST_IOT/Libraries/src/stm32f10x_spi.c **** #else /* STM32F10X_HD */
 313:/home/virusv/TDSAST_IOT/Libraries/src/stm32f10x_spi.c ****     /* I2S Clock source is System clock: Get System Clock frequency */
 314:/home/virusv/TDSAST_IOT/Libraries/src/stm32f10x_spi.c ****     RCC_GetClocksFreq(&RCC_Clocks);      
 304              		.loc 1 314 0
 305 007c 07F10803 		add	r3, r7, #8
 306 0080 1846     		mov	r0, r3
 307 0082 FFF7FEFF 		bl	RCC_GetClocksFreq
 315:/home/virusv/TDSAST_IOT/Libraries/src/stm32f10x_spi.c ****       
 316:/home/virusv/TDSAST_IOT/Libraries/src/stm32f10x_spi.c ****     /* Get the source clock value: based on System Clock value */
 317:/home/virusv/TDSAST_IOT/Libraries/src/stm32f10x_spi.c ****     sourceclock = RCC_Clocks.SYSCLK_Frequency;    
 308              		.loc 1 317 0
 309 0086 BB68     		ldr	r3, [r7, #8]
 310 0088 FB61     		str	r3, [r7, #28]
 318:/home/virusv/TDSAST_IOT/Libraries/src/stm32f10x_spi.c **** #endif /* STM32F10X_CL */    
 319:/home/virusv/TDSAST_IOT/Libraries/src/stm32f10x_spi.c **** 
 320:/home/virusv/TDSAST_IOT/Libraries/src/stm32f10x_spi.c ****     /* Compute the Real divider depending on the MCLK output state with a floating point */
 321:/home/virusv/TDSAST_IOT/Libraries/src/stm32f10x_spi.c ****     if(I2S_InitStruct->I2S_MCLKOutput == I2S_MCLKOutput_Enable)
 311              		.loc 1 321 0
 312 008a 3B68     		ldr	r3, [r7]
 313 008c DB88     		ldrh	r3, [r3, #6]
 314 008e B3F5007F 		cmp	r3, #512
 315 0092 0FD1     		bne	.L15
 322:/home/virusv/TDSAST_IOT/Libraries/src/stm32f10x_spi.c ****     {
 323:/home/virusv/TDSAST_IOT/Libraries/src/stm32f10x_spi.c ****       /* MCLK output is enabled */
 324:/home/virusv/TDSAST_IOT/Libraries/src/stm32f10x_spi.c ****       tmp = (uint16_t)(((((sourceclock / 256) * 10) / I2S_InitStruct->I2S_AudioFreq)) + 5);
 316              		.loc 1 324 0
 317 0094 FB69     		ldr	r3, [r7, #28]
 318 0096 1A0A     		lsrs	r2, r3, #8
 319 0098 1346     		mov	r3, r2
 320 009a 9B00     		lsls	r3, r3, #2
 321 009c 1344     		add	r3, r3, r2
 322 009e 5B00     		lsls	r3, r3, #1
 323 00a0 1A46     		mov	r2, r3
 324 00a2 3B68     		ldr	r3, [r7]
 325 00a4 9B68     		ldr	r3, [r3, #8]
 326 00a6 B2FBF3F3 		udiv	r3, r2, r3
 327 00aa 9BB2     		uxth	r3, r3
 328 00ac 0533     		adds	r3, r3, #5
 329 00ae 9BB2     		uxth	r3, r3
 330 00b0 7B62     		str	r3, [r7, #36]
 331 00b2 12E0     		b	.L16
 332              	.L15:
 325:/home/virusv/TDSAST_IOT/Libraries/src/stm32f10x_spi.c ****     }
 326:/home/virusv/TDSAST_IOT/Libraries/src/stm32f10x_spi.c ****     else
 327:/home/virusv/TDSAST_IOT/Libraries/src/stm32f10x_spi.c ****     {
 328:/home/virusv/TDSAST_IOT/Libraries/src/stm32f10x_spi.c ****       /* MCLK output is disabled */
 329:/home/virusv/TDSAST_IOT/Libraries/src/stm32f10x_spi.c ****       tmp = (uint16_t)(((((sourceclock / (32 * packetlength)) *10 ) / I2S_InitStruct->I2S_AudioFreq
 333              		.loc 1 329 0
 334 00b4 7B8D     		ldrh	r3, [r7, #42]
 335 00b6 5B01     		lsls	r3, r3, #5
 336 00b8 1A46     		mov	r2, r3
 337 00ba FB69     		ldr	r3, [r7, #28]
 338 00bc B3FBF2F2 		udiv	r2, r3, r2
 339 00c0 1346     		mov	r3, r2
 340 00c2 9B00     		lsls	r3, r3, #2
 341 00c4 1344     		add	r3, r3, r2
 342 00c6 5B00     		lsls	r3, r3, #1
 343 00c8 1A46     		mov	r2, r3
 344 00ca 3B68     		ldr	r3, [r7]
 345 00cc 9B68     		ldr	r3, [r3, #8]
 346 00ce B2FBF3F3 		udiv	r3, r2, r3
 347 00d2 9BB2     		uxth	r3, r3
 348 00d4 0533     		adds	r3, r3, #5
 349 00d6 9BB2     		uxth	r3, r3
 350 00d8 7B62     		str	r3, [r7, #36]
 351              	.L16:
 330:/home/virusv/TDSAST_IOT/Libraries/src/stm32f10x_spi.c ****     }
 331:/home/virusv/TDSAST_IOT/Libraries/src/stm32f10x_spi.c ****     
 332:/home/virusv/TDSAST_IOT/Libraries/src/stm32f10x_spi.c ****     /* Remove the floating point */
 333:/home/virusv/TDSAST_IOT/Libraries/src/stm32f10x_spi.c ****     tmp = tmp / 10;  
 352              		.loc 1 333 0
 353 00da 7B6A     		ldr	r3, [r7, #36]
 354 00dc 204A     		ldr	r2, .L19+4
 355 00de A2FB0323 		umull	r2, r3, r2, r3
 356 00e2 DB08     		lsrs	r3, r3, #3
 357 00e4 7B62     		str	r3, [r7, #36]
 334:/home/virusv/TDSAST_IOT/Libraries/src/stm32f10x_spi.c ****       
 335:/home/virusv/TDSAST_IOT/Libraries/src/stm32f10x_spi.c ****     /* Check the parity of the divider */
 336:/home/virusv/TDSAST_IOT/Libraries/src/stm32f10x_spi.c ****     i2sodd = (uint16_t)(tmp & (uint16_t)0x0001);
 358              		.loc 1 336 0
 359 00e6 7B6A     		ldr	r3, [r7, #36]
 360 00e8 9BB2     		uxth	r3, r3
 361 00ea 03F00103 		and	r3, r3, #1
 362 00ee BB85     		strh	r3, [r7, #44]	@ movhi
 337:/home/virusv/TDSAST_IOT/Libraries/src/stm32f10x_spi.c ****    
 338:/home/virusv/TDSAST_IOT/Libraries/src/stm32f10x_spi.c ****     /* Compute the i2sdiv prescaler */
 339:/home/virusv/TDSAST_IOT/Libraries/src/stm32f10x_spi.c ****     i2sdiv = (uint16_t)((tmp - i2sodd) / 2);
 363              		.loc 1 339 0
 364 00f0 BB8D     		ldrh	r3, [r7, #44]
 365 00f2 7A6A     		ldr	r2, [r7, #36]
 366 00f4 D31A     		subs	r3, r2, r3
 367 00f6 5B08     		lsrs	r3, r3, #1
 368 00f8 FB85     		strh	r3, [r7, #46]	@ movhi
 340:/home/virusv/TDSAST_IOT/Libraries/src/stm32f10x_spi.c ****    
 341:/home/virusv/TDSAST_IOT/Libraries/src/stm32f10x_spi.c ****     /* Get the Mask for the Odd bit (SPI_I2SPR[8]) register */
 342:/home/virusv/TDSAST_IOT/Libraries/src/stm32f10x_spi.c ****     i2sodd = (uint16_t) (i2sodd << 8);
 369              		.loc 1 342 0
 370 00fa BB8D     		ldrh	r3, [r7, #44]	@ movhi
 371 00fc 1B02     		lsls	r3, r3, #8
 372 00fe BB85     		strh	r3, [r7, #44]	@ movhi
 373              	.L10:
 343:/home/virusv/TDSAST_IOT/Libraries/src/stm32f10x_spi.c ****   }
 344:/home/virusv/TDSAST_IOT/Libraries/src/stm32f10x_spi.c ****   
 345:/home/virusv/TDSAST_IOT/Libraries/src/stm32f10x_spi.c ****   /* Test if the divider is 1 or 0 or greater than 0xFF */
 346:/home/virusv/TDSAST_IOT/Libraries/src/stm32f10x_spi.c ****   if ((i2sdiv < 2) || (i2sdiv > 0xFF))
 374              		.loc 1 346 0
 375 0100 FB8D     		ldrh	r3, [r7, #46]
 376 0102 012B     		cmp	r3, #1
 377 0104 02D9     		bls	.L17
 378              		.loc 1 346 0 is_stmt 0 discriminator 1
 379 0106 FB8D     		ldrh	r3, [r7, #46]
 380 0108 FF2B     		cmp	r3, #255
 381 010a 03D9     		bls	.L18
 382              	.L17:
 347:/home/virusv/TDSAST_IOT/Libraries/src/stm32f10x_spi.c ****   {
 348:/home/virusv/TDSAST_IOT/Libraries/src/stm32f10x_spi.c ****     /* Set the default values */
 349:/home/virusv/TDSAST_IOT/Libraries/src/stm32f10x_spi.c ****     i2sdiv = 2;
 383              		.loc 1 349 0 is_stmt 1
 384 010c 0223     		movs	r3, #2
 385 010e FB85     		strh	r3, [r7, #46]	@ movhi
 350:/home/virusv/TDSAST_IOT/Libraries/src/stm32f10x_spi.c ****     i2sodd = 0;
 386              		.loc 1 350 0
 387 0110 0023     		movs	r3, #0
 388 0112 BB85     		strh	r3, [r7, #44]	@ movhi
 389              	.L18:
 351:/home/virusv/TDSAST_IOT/Libraries/src/stm32f10x_spi.c ****   }
 352:/home/virusv/TDSAST_IOT/Libraries/src/stm32f10x_spi.c **** 
 353:/home/virusv/TDSAST_IOT/Libraries/src/stm32f10x_spi.c ****   /* Write to SPIx I2SPR register the computed value */
 354:/home/virusv/TDSAST_IOT/Libraries/src/stm32f10x_spi.c ****   SPIx->I2SPR = (uint16_t)(i2sdiv | (uint16_t)(i2sodd | (uint16_t)I2S_InitStruct->I2S_MCLKOutput));
 390              		.loc 1 354 0
 391 0114 3B68     		ldr	r3, [r7]
 392 0116 DA88     		ldrh	r2, [r3, #6]
 393 0118 BB8D     		ldrh	r3, [r7, #44]	@ movhi
 394 011a 1343     		orrs	r3, r3, r2
 395 011c 9AB2     		uxth	r2, r3
 396 011e FB8D     		ldrh	r3, [r7, #46]	@ movhi
 397 0120 1343     		orrs	r3, r3, r2
 398 0122 9AB2     		uxth	r2, r3
 399 0124 7B68     		ldr	r3, [r7, #4]
 400 0126 1A84     		strh	r2, [r3, #32]	@ movhi
 355:/home/virusv/TDSAST_IOT/Libraries/src/stm32f10x_spi.c ****  
 356:/home/virusv/TDSAST_IOT/Libraries/src/stm32f10x_spi.c ****   /* Configure the I2S with the SPI_InitStruct values */
 357:/home/virusv/TDSAST_IOT/Libraries/src/stm32f10x_spi.c ****   tmpreg |= (uint16_t)(I2S_Mode_Select | (uint16_t)(I2S_InitStruct->I2S_Mode | \
 401              		.loc 1 357 0
 402 0128 3B68     		ldr	r3, [r7]
 403 012a 1A88     		ldrh	r2, [r3]
 358:/home/virusv/TDSAST_IOT/Libraries/src/stm32f10x_spi.c ****                   (uint16_t)(I2S_InitStruct->I2S_Standard | (uint16_t)(I2S_InitStruct->I2S_DataForm
 404              		.loc 1 358 0
 405 012c 3B68     		ldr	r3, [r7]
 406 012e 5988     		ldrh	r1, [r3, #2]
 407 0130 3B68     		ldr	r3, [r7]
 408 0132 9888     		ldrh	r0, [r3, #4]
 359:/home/virusv/TDSAST_IOT/Libraries/src/stm32f10x_spi.c ****                   (uint16_t)I2S_InitStruct->I2S_CPOL))));
 409              		.loc 1 359 0
 410 0134 3B68     		ldr	r3, [r7]
 411 0136 9B89     		ldrh	r3, [r3, #12]
 358:/home/virusv/TDSAST_IOT/Libraries/src/stm32f10x_spi.c ****                   (uint16_t)(I2S_InitStruct->I2S_Standard | (uint16_t)(I2S_InitStruct->I2S_DataForm
 412              		.loc 1 358 0
 413 0138 0343     		orrs	r3, r3, r0
 414 013a 9BB2     		uxth	r3, r3
 415 013c 0B43     		orrs	r3, r3, r1
 416 013e 9BB2     		uxth	r3, r3
 357:/home/virusv/TDSAST_IOT/Libraries/src/stm32f10x_spi.c ****                   (uint16_t)(I2S_InitStruct->I2S_Standard | (uint16_t)(I2S_InitStruct->I2S_DataForm
 417              		.loc 1 357 0
 418 0140 1343     		orrs	r3, r3, r2
 419 0142 9AB2     		uxth	r2, r3
 420 0144 7B8C     		ldrh	r3, [r7, #34]	@ movhi
 421 0146 1343     		orrs	r3, r3, r2
 422 0148 9BB2     		uxth	r3, r3
 423 014a 43F40063 		orr	r3, r3, #2048
 424 014e 7B84     		strh	r3, [r7, #34]	@ movhi
 360:/home/virusv/TDSAST_IOT/Libraries/src/stm32f10x_spi.c ****  
 361:/home/virusv/TDSAST_IOT/Libraries/src/stm32f10x_spi.c ****   /* Write to SPIx I2SCFGR */  
 362:/home/virusv/TDSAST_IOT/Libraries/src/stm32f10x_spi.c ****   SPIx->I2SCFGR = tmpreg;   
 425              		.loc 1 362 0
 426 0150 7B68     		ldr	r3, [r7, #4]
 427 0152 7A8C     		ldrh	r2, [r7, #34]	@ movhi
 428 0154 9A83     		strh	r2, [r3, #28]	@ movhi
 363:/home/virusv/TDSAST_IOT/Libraries/src/stm32f10x_spi.c **** }
 429              		.loc 1 363 0
 430 0156 3037     		adds	r7, r7, #48
 431              		.cfi_def_cfa_offset 8
 432 0158 BD46     		mov	sp, r7
 433              		.cfi_def_cfa_register 13
 434              		@ sp needed
 435 015a 80BD     		pop	{r7, pc}
 436              	.L20:
 437              		.align	2
 438              	.L19:
 439 015c 00380040 		.word	1073756160
 440 0160 CDCCCCCC 		.word	-858993459
 441              		.cfi_endproc
 442              	.LFE31:
 444              		.section	.text.SPI_StructInit,"ax",%progbits
 445              		.align	2
 446              		.global	SPI_StructInit
 447              		.thumb
 448              		.thumb_func
 450              	SPI_StructInit:
 451              	.LFB32:
 364:/home/virusv/TDSAST_IOT/Libraries/src/stm32f10x_spi.c **** 
 365:/home/virusv/TDSAST_IOT/Libraries/src/stm32f10x_spi.c **** /**
 366:/home/virusv/TDSAST_IOT/Libraries/src/stm32f10x_spi.c ****   * @brief  Fills each SPI_InitStruct member with its default value.
 367:/home/virusv/TDSAST_IOT/Libraries/src/stm32f10x_spi.c ****   * @param  SPI_InitStruct : pointer to a SPI_InitTypeDef structure which will be initialized.
 368:/home/virusv/TDSAST_IOT/Libraries/src/stm32f10x_spi.c ****   * @retval None
 369:/home/virusv/TDSAST_IOT/Libraries/src/stm32f10x_spi.c ****   */
 370:/home/virusv/TDSAST_IOT/Libraries/src/stm32f10x_spi.c **** void SPI_StructInit(SPI_InitTypeDef* SPI_InitStruct)
 371:/home/virusv/TDSAST_IOT/Libraries/src/stm32f10x_spi.c **** {
 452              		.loc 1 371 0
 453              		.cfi_startproc
 454              		@ args = 0, pretend = 0, frame = 8
 455              		@ frame_needed = 1, uses_anonymous_args = 0
 456              		@ link register save eliminated.
 457 0000 80B4     		push	{r7}
 458              		.cfi_def_cfa_offset 4
 459              		.cfi_offset 7, -4
 460 0002 83B0     		sub	sp, sp, #12
 461              		.cfi_def_cfa_offset 16
 462 0004 00AF     		add	r7, sp, #0
 463              		.cfi_def_cfa_register 7
 464 0006 7860     		str	r0, [r7, #4]
 372:/home/virusv/TDSAST_IOT/Libraries/src/stm32f10x_spi.c **** /*--------------- Reset SPI init structure parameters values -----------------*/
 373:/home/virusv/TDSAST_IOT/Libraries/src/stm32f10x_spi.c ****   /* Initialize the SPI_Direction member */
 374:/home/virusv/TDSAST_IOT/Libraries/src/stm32f10x_spi.c ****   SPI_InitStruct->SPI_Direction = SPI_Direction_2Lines_FullDuplex;
 465              		.loc 1 374 0
 466 0008 7B68     		ldr	r3, [r7, #4]
 467 000a 0022     		movs	r2, #0
 468 000c 1A80     		strh	r2, [r3]	@ movhi
 375:/home/virusv/TDSAST_IOT/Libraries/src/stm32f10x_spi.c ****   /* initialize the SPI_Mode member */
 376:/home/virusv/TDSAST_IOT/Libraries/src/stm32f10x_spi.c ****   SPI_InitStruct->SPI_Mode = SPI_Mode_Slave;
 469              		.loc 1 376 0
 470 000e 7B68     		ldr	r3, [r7, #4]
 471 0010 0022     		movs	r2, #0
 472 0012 5A80     		strh	r2, [r3, #2]	@ movhi
 377:/home/virusv/TDSAST_IOT/Libraries/src/stm32f10x_spi.c ****   /* initialize the SPI_DataSize member */
 378:/home/virusv/TDSAST_IOT/Libraries/src/stm32f10x_spi.c ****   SPI_InitStruct->SPI_DataSize = SPI_DataSize_8b;
 473              		.loc 1 378 0
 474 0014 7B68     		ldr	r3, [r7, #4]
 475 0016 0022     		movs	r2, #0
 476 0018 9A80     		strh	r2, [r3, #4]	@ movhi
 379:/home/virusv/TDSAST_IOT/Libraries/src/stm32f10x_spi.c ****   /* Initialize the SPI_CPOL member */
 380:/home/virusv/TDSAST_IOT/Libraries/src/stm32f10x_spi.c ****   SPI_InitStruct->SPI_CPOL = SPI_CPOL_Low;
 477              		.loc 1 380 0
 478 001a 7B68     		ldr	r3, [r7, #4]
 479 001c 0022     		movs	r2, #0
 480 001e DA80     		strh	r2, [r3, #6]	@ movhi
 381:/home/virusv/TDSAST_IOT/Libraries/src/stm32f10x_spi.c ****   /* Initialize the SPI_CPHA member */
 382:/home/virusv/TDSAST_IOT/Libraries/src/stm32f10x_spi.c ****   SPI_InitStruct->SPI_CPHA = SPI_CPHA_1Edge;
 481              		.loc 1 382 0
 482 0020 7B68     		ldr	r3, [r7, #4]
 483 0022 0022     		movs	r2, #0
 484 0024 1A81     		strh	r2, [r3, #8]	@ movhi
 383:/home/virusv/TDSAST_IOT/Libraries/src/stm32f10x_spi.c ****   /* Initialize the SPI_NSS member */
 384:/home/virusv/TDSAST_IOT/Libraries/src/stm32f10x_spi.c ****   SPI_InitStruct->SPI_NSS = SPI_NSS_Hard;
 485              		.loc 1 384 0
 486 0026 7B68     		ldr	r3, [r7, #4]
 487 0028 0022     		movs	r2, #0
 488 002a 5A81     		strh	r2, [r3, #10]	@ movhi
 385:/home/virusv/TDSAST_IOT/Libraries/src/stm32f10x_spi.c ****   /* Initialize the SPI_BaudRatePrescaler member */
 386:/home/virusv/TDSAST_IOT/Libraries/src/stm32f10x_spi.c ****   SPI_InitStruct->SPI_BaudRatePrescaler = SPI_BaudRatePrescaler_2;
 489              		.loc 1 386 0
 490 002c 7B68     		ldr	r3, [r7, #4]
 491 002e 0022     		movs	r2, #0
 492 0030 9A81     		strh	r2, [r3, #12]	@ movhi
 387:/home/virusv/TDSAST_IOT/Libraries/src/stm32f10x_spi.c ****   /* Initialize the SPI_FirstBit member */
 388:/home/virusv/TDSAST_IOT/Libraries/src/stm32f10x_spi.c ****   SPI_InitStruct->SPI_FirstBit = SPI_FirstBit_MSB;
 493              		.loc 1 388 0
 494 0032 7B68     		ldr	r3, [r7, #4]
 495 0034 0022     		movs	r2, #0
 496 0036 DA81     		strh	r2, [r3, #14]	@ movhi
 389:/home/virusv/TDSAST_IOT/Libraries/src/stm32f10x_spi.c ****   /* Initialize the SPI_CRCPolynomial member */
 390:/home/virusv/TDSAST_IOT/Libraries/src/stm32f10x_spi.c ****   SPI_InitStruct->SPI_CRCPolynomial = 7;
 497              		.loc 1 390 0
 498 0038 7B68     		ldr	r3, [r7, #4]
 499 003a 0722     		movs	r2, #7
 500 003c 1A82     		strh	r2, [r3, #16]	@ movhi
 391:/home/virusv/TDSAST_IOT/Libraries/src/stm32f10x_spi.c **** }
 501              		.loc 1 391 0
 502 003e 0C37     		adds	r7, r7, #12
 503              		.cfi_def_cfa_offset 4
 504 0040 BD46     		mov	sp, r7
 505              		.cfi_def_cfa_register 13
 506              		@ sp needed
 507 0042 5DF8047B 		ldr	r7, [sp], #4
 508              		.cfi_restore 7
 509              		.cfi_def_cfa_offset 0
 510 0046 7047     		bx	lr
 511              		.cfi_endproc
 512              	.LFE32:
 514              		.section	.text.I2S_StructInit,"ax",%progbits
 515              		.align	2
 516              		.global	I2S_StructInit
 517              		.thumb
 518              		.thumb_func
 520              	I2S_StructInit:
 521              	.LFB33:
 392:/home/virusv/TDSAST_IOT/Libraries/src/stm32f10x_spi.c **** 
 393:/home/virusv/TDSAST_IOT/Libraries/src/stm32f10x_spi.c **** /**
 394:/home/virusv/TDSAST_IOT/Libraries/src/stm32f10x_spi.c ****   * @brief  Fills each I2S_InitStruct member with its default value.
 395:/home/virusv/TDSAST_IOT/Libraries/src/stm32f10x_spi.c ****   * @param  I2S_InitStruct : pointer to a I2S_InitTypeDef structure which will be initialized.
 396:/home/virusv/TDSAST_IOT/Libraries/src/stm32f10x_spi.c ****   * @retval None
 397:/home/virusv/TDSAST_IOT/Libraries/src/stm32f10x_spi.c ****   */
 398:/home/virusv/TDSAST_IOT/Libraries/src/stm32f10x_spi.c **** void I2S_StructInit(I2S_InitTypeDef* I2S_InitStruct)
 399:/home/virusv/TDSAST_IOT/Libraries/src/stm32f10x_spi.c **** {
 522              		.loc 1 399 0
 523              		.cfi_startproc
 524              		@ args = 0, pretend = 0, frame = 8
 525              		@ frame_needed = 1, uses_anonymous_args = 0
 526              		@ link register save eliminated.
 527 0000 80B4     		push	{r7}
 528              		.cfi_def_cfa_offset 4
 529              		.cfi_offset 7, -4
 530 0002 83B0     		sub	sp, sp, #12
 531              		.cfi_def_cfa_offset 16
 532 0004 00AF     		add	r7, sp, #0
 533              		.cfi_def_cfa_register 7
 534 0006 7860     		str	r0, [r7, #4]
 400:/home/virusv/TDSAST_IOT/Libraries/src/stm32f10x_spi.c **** /*--------------- Reset I2S init structure parameters values -----------------*/
 401:/home/virusv/TDSAST_IOT/Libraries/src/stm32f10x_spi.c ****   /* Initialize the I2S_Mode member */
 402:/home/virusv/TDSAST_IOT/Libraries/src/stm32f10x_spi.c ****   I2S_InitStruct->I2S_Mode = I2S_Mode_SlaveTx;
 535              		.loc 1 402 0
 536 0008 7B68     		ldr	r3, [r7, #4]
 537 000a 0022     		movs	r2, #0
 538 000c 1A80     		strh	r2, [r3]	@ movhi
 403:/home/virusv/TDSAST_IOT/Libraries/src/stm32f10x_spi.c ****   
 404:/home/virusv/TDSAST_IOT/Libraries/src/stm32f10x_spi.c ****   /* Initialize the I2S_Standard member */
 405:/home/virusv/TDSAST_IOT/Libraries/src/stm32f10x_spi.c ****   I2S_InitStruct->I2S_Standard = I2S_Standard_Phillips;
 539              		.loc 1 405 0
 540 000e 7B68     		ldr	r3, [r7, #4]
 541 0010 0022     		movs	r2, #0
 542 0012 5A80     		strh	r2, [r3, #2]	@ movhi
 406:/home/virusv/TDSAST_IOT/Libraries/src/stm32f10x_spi.c ****   
 407:/home/virusv/TDSAST_IOT/Libraries/src/stm32f10x_spi.c ****   /* Initialize the I2S_DataFormat member */
 408:/home/virusv/TDSAST_IOT/Libraries/src/stm32f10x_spi.c ****   I2S_InitStruct->I2S_DataFormat = I2S_DataFormat_16b;
 543              		.loc 1 408 0
 544 0014 7B68     		ldr	r3, [r7, #4]
 545 0016 0022     		movs	r2, #0
 546 0018 9A80     		strh	r2, [r3, #4]	@ movhi
 409:/home/virusv/TDSAST_IOT/Libraries/src/stm32f10x_spi.c ****   
 410:/home/virusv/TDSAST_IOT/Libraries/src/stm32f10x_spi.c ****   /* Initialize the I2S_MCLKOutput member */
 411:/home/virusv/TDSAST_IOT/Libraries/src/stm32f10x_spi.c ****   I2S_InitStruct->I2S_MCLKOutput = I2S_MCLKOutput_Disable;
 547              		.loc 1 411 0
 548 001a 7B68     		ldr	r3, [r7, #4]
 549 001c 0022     		movs	r2, #0
 550 001e DA80     		strh	r2, [r3, #6]	@ movhi
 412:/home/virusv/TDSAST_IOT/Libraries/src/stm32f10x_spi.c ****   
 413:/home/virusv/TDSAST_IOT/Libraries/src/stm32f10x_spi.c ****   /* Initialize the I2S_AudioFreq member */
 414:/home/virusv/TDSAST_IOT/Libraries/src/stm32f10x_spi.c ****   I2S_InitStruct->I2S_AudioFreq = I2S_AudioFreq_Default;
 551              		.loc 1 414 0
 552 0020 7B68     		ldr	r3, [r7, #4]
 553 0022 0222     		movs	r2, #2
 554 0024 9A60     		str	r2, [r3, #8]
 415:/home/virusv/TDSAST_IOT/Libraries/src/stm32f10x_spi.c ****   
 416:/home/virusv/TDSAST_IOT/Libraries/src/stm32f10x_spi.c ****   /* Initialize the I2S_CPOL member */
 417:/home/virusv/TDSAST_IOT/Libraries/src/stm32f10x_spi.c ****   I2S_InitStruct->I2S_CPOL = I2S_CPOL_Low;
 555              		.loc 1 417 0
 556 0026 7B68     		ldr	r3, [r7, #4]
 557 0028 0022     		movs	r2, #0
 558 002a 9A81     		strh	r2, [r3, #12]	@ movhi
 418:/home/virusv/TDSAST_IOT/Libraries/src/stm32f10x_spi.c **** }
 559              		.loc 1 418 0
 560 002c 0C37     		adds	r7, r7, #12
 561              		.cfi_def_cfa_offset 4
 562 002e BD46     		mov	sp, r7
 563              		.cfi_def_cfa_register 13
 564              		@ sp needed
 565 0030 5DF8047B 		ldr	r7, [sp], #4
 566              		.cfi_restore 7
 567              		.cfi_def_cfa_offset 0
 568 0034 7047     		bx	lr
 569              		.cfi_endproc
 570              	.LFE33:
 572 0036 00BF     		.section	.text.SPI_Cmd,"ax",%progbits
 573              		.align	2
 574              		.global	SPI_Cmd
 575              		.thumb
 576              		.thumb_func
 578              	SPI_Cmd:
 579              	.LFB34:
 419:/home/virusv/TDSAST_IOT/Libraries/src/stm32f10x_spi.c **** 
 420:/home/virusv/TDSAST_IOT/Libraries/src/stm32f10x_spi.c **** /**
 421:/home/virusv/TDSAST_IOT/Libraries/src/stm32f10x_spi.c ****   * @brief  Enables or disables the specified SPI peripheral.
 422:/home/virusv/TDSAST_IOT/Libraries/src/stm32f10x_spi.c ****   * @param  SPIx: where x can be 1, 2 or 3 to select the SPI peripheral.
 423:/home/virusv/TDSAST_IOT/Libraries/src/stm32f10x_spi.c ****   * @param  NewState: new state of the SPIx peripheral. 
 424:/home/virusv/TDSAST_IOT/Libraries/src/stm32f10x_spi.c ****   *   This parameter can be: ENABLE or DISABLE.
 425:/home/virusv/TDSAST_IOT/Libraries/src/stm32f10x_spi.c ****   * @retval None
 426:/home/virusv/TDSAST_IOT/Libraries/src/stm32f10x_spi.c ****   */
 427:/home/virusv/TDSAST_IOT/Libraries/src/stm32f10x_spi.c **** void SPI_Cmd(SPI_TypeDef* SPIx, FunctionalState NewState)
 428:/home/virusv/TDSAST_IOT/Libraries/src/stm32f10x_spi.c **** {
 580              		.loc 1 428 0
 581              		.cfi_startproc
 582              		@ args = 0, pretend = 0, frame = 8
 583              		@ frame_needed = 1, uses_anonymous_args = 0
 584              		@ link register save eliminated.
 585 0000 80B4     		push	{r7}
 586              		.cfi_def_cfa_offset 4
 587              		.cfi_offset 7, -4
 588 0002 83B0     		sub	sp, sp, #12
 589              		.cfi_def_cfa_offset 16
 590 0004 00AF     		add	r7, sp, #0
 591              		.cfi_def_cfa_register 7
 592 0006 7860     		str	r0, [r7, #4]
 593 0008 0B46     		mov	r3, r1
 594 000a FB70     		strb	r3, [r7, #3]
 429:/home/virusv/TDSAST_IOT/Libraries/src/stm32f10x_spi.c ****   /* Check the parameters */
 430:/home/virusv/TDSAST_IOT/Libraries/src/stm32f10x_spi.c ****   assert_param(IS_SPI_ALL_PERIPH(SPIx));
 431:/home/virusv/TDSAST_IOT/Libraries/src/stm32f10x_spi.c ****   assert_param(IS_FUNCTIONAL_STATE(NewState));
 432:/home/virusv/TDSAST_IOT/Libraries/src/stm32f10x_spi.c ****   if (NewState != DISABLE)
 595              		.loc 1 432 0
 596 000c FB78     		ldrb	r3, [r7, #3]	@ zero_extendqisi2
 597 000e 002B     		cmp	r3, #0
 598 0010 08D0     		beq	.L24
 433:/home/virusv/TDSAST_IOT/Libraries/src/stm32f10x_spi.c ****   {
 434:/home/virusv/TDSAST_IOT/Libraries/src/stm32f10x_spi.c ****     /* Enable the selected SPI peripheral */
 435:/home/virusv/TDSAST_IOT/Libraries/src/stm32f10x_spi.c ****     SPIx->CR1 |= CR1_SPE_Set;
 599              		.loc 1 435 0
 600 0012 7B68     		ldr	r3, [r7, #4]
 601 0014 1B88     		ldrh	r3, [r3]	@ movhi
 602 0016 9BB2     		uxth	r3, r3
 603 0018 43F04003 		orr	r3, r3, #64
 604 001c 9AB2     		uxth	r2, r3
 605 001e 7B68     		ldr	r3, [r7, #4]
 606 0020 1A80     		strh	r2, [r3]	@ movhi
 607 0022 07E0     		b	.L23
 608              	.L24:
 436:/home/virusv/TDSAST_IOT/Libraries/src/stm32f10x_spi.c ****   }
 437:/home/virusv/TDSAST_IOT/Libraries/src/stm32f10x_spi.c ****   else
 438:/home/virusv/TDSAST_IOT/Libraries/src/stm32f10x_spi.c ****   {
 439:/home/virusv/TDSAST_IOT/Libraries/src/stm32f10x_spi.c ****     /* Disable the selected SPI peripheral */
 440:/home/virusv/TDSAST_IOT/Libraries/src/stm32f10x_spi.c ****     SPIx->CR1 &= CR1_SPE_Reset;
 609              		.loc 1 440 0
 610 0024 7B68     		ldr	r3, [r7, #4]
 611 0026 1B88     		ldrh	r3, [r3]	@ movhi
 612 0028 9BB2     		uxth	r3, r3
 613 002a 23F04003 		bic	r3, r3, #64
 614 002e 9AB2     		uxth	r2, r3
 615 0030 7B68     		ldr	r3, [r7, #4]
 616 0032 1A80     		strh	r2, [r3]	@ movhi
 617              	.L23:
 441:/home/virusv/TDSAST_IOT/Libraries/src/stm32f10x_spi.c ****   }
 442:/home/virusv/TDSAST_IOT/Libraries/src/stm32f10x_spi.c **** }
 618              		.loc 1 442 0
 619 0034 0C37     		adds	r7, r7, #12
 620              		.cfi_def_cfa_offset 4
 621 0036 BD46     		mov	sp, r7
 622              		.cfi_def_cfa_register 13
 623              		@ sp needed
 624 0038 5DF8047B 		ldr	r7, [sp], #4
 625              		.cfi_restore 7
 626              		.cfi_def_cfa_offset 0
 627 003c 7047     		bx	lr
 628              		.cfi_endproc
 629              	.LFE34:
 631 003e 00BF     		.section	.text.I2S_Cmd,"ax",%progbits
 632              		.align	2
 633              		.global	I2S_Cmd
 634              		.thumb
 635              		.thumb_func
 637              	I2S_Cmd:
 638              	.LFB35:
 443:/home/virusv/TDSAST_IOT/Libraries/src/stm32f10x_spi.c **** 
 444:/home/virusv/TDSAST_IOT/Libraries/src/stm32f10x_spi.c **** /**
 445:/home/virusv/TDSAST_IOT/Libraries/src/stm32f10x_spi.c ****   * @brief  Enables or disables the specified SPI peripheral (in I2S mode).
 446:/home/virusv/TDSAST_IOT/Libraries/src/stm32f10x_spi.c ****   * @param  SPIx: where x can be 2 or 3 to select the SPI peripheral.
 447:/home/virusv/TDSAST_IOT/Libraries/src/stm32f10x_spi.c ****   * @param  NewState: new state of the SPIx peripheral. 
 448:/home/virusv/TDSAST_IOT/Libraries/src/stm32f10x_spi.c ****   *   This parameter can be: ENABLE or DISABLE.
 449:/home/virusv/TDSAST_IOT/Libraries/src/stm32f10x_spi.c ****   * @retval None
 450:/home/virusv/TDSAST_IOT/Libraries/src/stm32f10x_spi.c ****   */
 451:/home/virusv/TDSAST_IOT/Libraries/src/stm32f10x_spi.c **** void I2S_Cmd(SPI_TypeDef* SPIx, FunctionalState NewState)
 452:/home/virusv/TDSAST_IOT/Libraries/src/stm32f10x_spi.c **** {
 639              		.loc 1 452 0
 640              		.cfi_startproc
 641              		@ args = 0, pretend = 0, frame = 8
 642              		@ frame_needed = 1, uses_anonymous_args = 0
 643              		@ link register save eliminated.
 644 0000 80B4     		push	{r7}
 645              		.cfi_def_cfa_offset 4
 646              		.cfi_offset 7, -4
 647 0002 83B0     		sub	sp, sp, #12
 648              		.cfi_def_cfa_offset 16
 649 0004 00AF     		add	r7, sp, #0
 650              		.cfi_def_cfa_register 7
 651 0006 7860     		str	r0, [r7, #4]
 652 0008 0B46     		mov	r3, r1
 653 000a FB70     		strb	r3, [r7, #3]
 453:/home/virusv/TDSAST_IOT/Libraries/src/stm32f10x_spi.c ****   /* Check the parameters */
 454:/home/virusv/TDSAST_IOT/Libraries/src/stm32f10x_spi.c ****   assert_param(IS_SPI_23_PERIPH(SPIx));
 455:/home/virusv/TDSAST_IOT/Libraries/src/stm32f10x_spi.c ****   assert_param(IS_FUNCTIONAL_STATE(NewState));
 456:/home/virusv/TDSAST_IOT/Libraries/src/stm32f10x_spi.c ****   if (NewState != DISABLE)
 654              		.loc 1 456 0
 655 000c FB78     		ldrb	r3, [r7, #3]	@ zero_extendqisi2
 656 000e 002B     		cmp	r3, #0
 657 0010 08D0     		beq	.L27
 457:/home/virusv/TDSAST_IOT/Libraries/src/stm32f10x_spi.c ****   {
 458:/home/virusv/TDSAST_IOT/Libraries/src/stm32f10x_spi.c ****     /* Enable the selected SPI peripheral (in I2S mode) */
 459:/home/virusv/TDSAST_IOT/Libraries/src/stm32f10x_spi.c ****     SPIx->I2SCFGR |= I2SCFGR_I2SE_Set;
 658              		.loc 1 459 0
 659 0012 7B68     		ldr	r3, [r7, #4]
 660 0014 9B8B     		ldrh	r3, [r3, #28]	@ movhi
 661 0016 9BB2     		uxth	r3, r3
 662 0018 43F48063 		orr	r3, r3, #1024
 663 001c 9AB2     		uxth	r2, r3
 664 001e 7B68     		ldr	r3, [r7, #4]
 665 0020 9A83     		strh	r2, [r3, #28]	@ movhi
 666 0022 07E0     		b	.L26
 667              	.L27:
 460:/home/virusv/TDSAST_IOT/Libraries/src/stm32f10x_spi.c ****   }
 461:/home/virusv/TDSAST_IOT/Libraries/src/stm32f10x_spi.c ****   else
 462:/home/virusv/TDSAST_IOT/Libraries/src/stm32f10x_spi.c ****   {
 463:/home/virusv/TDSAST_IOT/Libraries/src/stm32f10x_spi.c ****     /* Disable the selected SPI peripheral (in I2S mode) */
 464:/home/virusv/TDSAST_IOT/Libraries/src/stm32f10x_spi.c ****     SPIx->I2SCFGR &= I2SCFGR_I2SE_Reset;
 668              		.loc 1 464 0
 669 0024 7B68     		ldr	r3, [r7, #4]
 670 0026 9B8B     		ldrh	r3, [r3, #28]	@ movhi
 671 0028 9BB2     		uxth	r3, r3
 672 002a 23F48063 		bic	r3, r3, #1024
 673 002e 9AB2     		uxth	r2, r3
 674 0030 7B68     		ldr	r3, [r7, #4]
 675 0032 9A83     		strh	r2, [r3, #28]	@ movhi
 676              	.L26:
 465:/home/virusv/TDSAST_IOT/Libraries/src/stm32f10x_spi.c ****   }
 466:/home/virusv/TDSAST_IOT/Libraries/src/stm32f10x_spi.c **** }
 677              		.loc 1 466 0
 678 0034 0C37     		adds	r7, r7, #12
 679              		.cfi_def_cfa_offset 4
 680 0036 BD46     		mov	sp, r7
 681              		.cfi_def_cfa_register 13
 682              		@ sp needed
 683 0038 5DF8047B 		ldr	r7, [sp], #4
 684              		.cfi_restore 7
 685              		.cfi_def_cfa_offset 0
 686 003c 7047     		bx	lr
 687              		.cfi_endproc
 688              	.LFE35:
 690 003e 00BF     		.section	.text.SPI_I2S_ITConfig,"ax",%progbits
 691              		.align	2
 692              		.global	SPI_I2S_ITConfig
 693              		.thumb
 694              		.thumb_func
 696              	SPI_I2S_ITConfig:
 697              	.LFB36:
 467:/home/virusv/TDSAST_IOT/Libraries/src/stm32f10x_spi.c **** 
 468:/home/virusv/TDSAST_IOT/Libraries/src/stm32f10x_spi.c **** /**
 469:/home/virusv/TDSAST_IOT/Libraries/src/stm32f10x_spi.c ****   * @brief  Enables or disables the specified SPI/I2S interrupts.
 470:/home/virusv/TDSAST_IOT/Libraries/src/stm32f10x_spi.c ****   * @param  SPIx: where x can be
 471:/home/virusv/TDSAST_IOT/Libraries/src/stm32f10x_spi.c ****   *   - 1, 2 or 3 in SPI mode 
 472:/home/virusv/TDSAST_IOT/Libraries/src/stm32f10x_spi.c ****   *   - 2 or 3 in I2S mode
 473:/home/virusv/TDSAST_IOT/Libraries/src/stm32f10x_spi.c ****   * @param  SPI_I2S_IT: specifies the SPI/I2S interrupt source to be enabled or disabled. 
 474:/home/virusv/TDSAST_IOT/Libraries/src/stm32f10x_spi.c ****   *   This parameter can be one of the following values:
 475:/home/virusv/TDSAST_IOT/Libraries/src/stm32f10x_spi.c ****   *     @arg SPI_I2S_IT_TXE: Tx buffer empty interrupt mask
 476:/home/virusv/TDSAST_IOT/Libraries/src/stm32f10x_spi.c ****   *     @arg SPI_I2S_IT_RXNE: Rx buffer not empty interrupt mask
 477:/home/virusv/TDSAST_IOT/Libraries/src/stm32f10x_spi.c ****   *     @arg SPI_I2S_IT_ERR: Error interrupt mask
 478:/home/virusv/TDSAST_IOT/Libraries/src/stm32f10x_spi.c ****   * @param  NewState: new state of the specified SPI/I2S interrupt.
 479:/home/virusv/TDSAST_IOT/Libraries/src/stm32f10x_spi.c ****   *   This parameter can be: ENABLE or DISABLE.
 480:/home/virusv/TDSAST_IOT/Libraries/src/stm32f10x_spi.c ****   * @retval None
 481:/home/virusv/TDSAST_IOT/Libraries/src/stm32f10x_spi.c ****   */
 482:/home/virusv/TDSAST_IOT/Libraries/src/stm32f10x_spi.c **** void SPI_I2S_ITConfig(SPI_TypeDef* SPIx, uint8_t SPI_I2S_IT, FunctionalState NewState)
 483:/home/virusv/TDSAST_IOT/Libraries/src/stm32f10x_spi.c **** {
 698              		.loc 1 483 0
 699              		.cfi_startproc
 700              		@ args = 0, pretend = 0, frame = 16
 701              		@ frame_needed = 1, uses_anonymous_args = 0
 702              		@ link register save eliminated.
 703 0000 80B4     		push	{r7}
 704              		.cfi_def_cfa_offset 4
 705              		.cfi_offset 7, -4
 706 0002 85B0     		sub	sp, sp, #20
 707              		.cfi_def_cfa_offset 24
 708 0004 00AF     		add	r7, sp, #0
 709              		.cfi_def_cfa_register 7
 710 0006 7860     		str	r0, [r7, #4]
 711 0008 0B46     		mov	r3, r1
 712 000a FB70     		strb	r3, [r7, #3]
 713 000c 1346     		mov	r3, r2
 714 000e BB70     		strb	r3, [r7, #2]
 484:/home/virusv/TDSAST_IOT/Libraries/src/stm32f10x_spi.c ****   uint16_t itpos = 0, itmask = 0 ;
 715              		.loc 1 484 0
 716 0010 0023     		movs	r3, #0
 717 0012 FB81     		strh	r3, [r7, #14]	@ movhi
 718 0014 0023     		movs	r3, #0
 719 0016 BB81     		strh	r3, [r7, #12]	@ movhi
 485:/home/virusv/TDSAST_IOT/Libraries/src/stm32f10x_spi.c ****   /* Check the parameters */
 486:/home/virusv/TDSAST_IOT/Libraries/src/stm32f10x_spi.c ****   assert_param(IS_SPI_ALL_PERIPH(SPIx));
 487:/home/virusv/TDSAST_IOT/Libraries/src/stm32f10x_spi.c ****   assert_param(IS_FUNCTIONAL_STATE(NewState));
 488:/home/virusv/TDSAST_IOT/Libraries/src/stm32f10x_spi.c ****   assert_param(IS_SPI_I2S_CONFIG_IT(SPI_I2S_IT));
 489:/home/virusv/TDSAST_IOT/Libraries/src/stm32f10x_spi.c **** 
 490:/home/virusv/TDSAST_IOT/Libraries/src/stm32f10x_spi.c ****   /* Get the SPI/I2S IT index */
 491:/home/virusv/TDSAST_IOT/Libraries/src/stm32f10x_spi.c ****   itpos = SPI_I2S_IT >> 4;
 720              		.loc 1 491 0
 721 0018 FB78     		ldrb	r3, [r7, #3]	@ zero_extendqisi2
 722 001a 1B09     		lsrs	r3, r3, #4
 723 001c DBB2     		uxtb	r3, r3
 724 001e FB81     		strh	r3, [r7, #14]	@ movhi
 492:/home/virusv/TDSAST_IOT/Libraries/src/stm32f10x_spi.c **** 
 493:/home/virusv/TDSAST_IOT/Libraries/src/stm32f10x_spi.c ****   /* Set the IT mask */
 494:/home/virusv/TDSAST_IOT/Libraries/src/stm32f10x_spi.c ****   itmask = (uint16_t)1 << (uint16_t)itpos;
 725              		.loc 1 494 0
 726 0020 FB89     		ldrh	r3, [r7, #14]
 727 0022 0122     		movs	r2, #1
 728 0024 02FA03F3 		lsl	r3, r2, r3
 729 0028 BB81     		strh	r3, [r7, #12]	@ movhi
 495:/home/virusv/TDSAST_IOT/Libraries/src/stm32f10x_spi.c **** 
 496:/home/virusv/TDSAST_IOT/Libraries/src/stm32f10x_spi.c ****   if (NewState != DISABLE)
 730              		.loc 1 496 0
 731 002a BB78     		ldrb	r3, [r7, #2]	@ zero_extendqisi2
 732 002c 002B     		cmp	r3, #0
 733 002e 08D0     		beq	.L30
 497:/home/virusv/TDSAST_IOT/Libraries/src/stm32f10x_spi.c ****   {
 498:/home/virusv/TDSAST_IOT/Libraries/src/stm32f10x_spi.c ****     /* Enable the selected SPI/I2S interrupt */
 499:/home/virusv/TDSAST_IOT/Libraries/src/stm32f10x_spi.c ****     SPIx->CR2 |= itmask;
 734              		.loc 1 499 0
 735 0030 7B68     		ldr	r3, [r7, #4]
 736 0032 9B88     		ldrh	r3, [r3, #4]	@ movhi
 737 0034 9AB2     		uxth	r2, r3
 738 0036 BB89     		ldrh	r3, [r7, #12]	@ movhi
 739 0038 1343     		orrs	r3, r3, r2
 740 003a 9AB2     		uxth	r2, r3
 741 003c 7B68     		ldr	r3, [r7, #4]
 742 003e 9A80     		strh	r2, [r3, #4]	@ movhi
 743 0040 09E0     		b	.L29
 744              	.L30:
 500:/home/virusv/TDSAST_IOT/Libraries/src/stm32f10x_spi.c ****   }
 501:/home/virusv/TDSAST_IOT/Libraries/src/stm32f10x_spi.c ****   else
 502:/home/virusv/TDSAST_IOT/Libraries/src/stm32f10x_spi.c ****   {
 503:/home/virusv/TDSAST_IOT/Libraries/src/stm32f10x_spi.c ****     /* Disable the selected SPI/I2S interrupt */
 504:/home/virusv/TDSAST_IOT/Libraries/src/stm32f10x_spi.c ****     SPIx->CR2 &= (uint16_t)~itmask;
 745              		.loc 1 504 0
 746 0042 7B68     		ldr	r3, [r7, #4]
 747 0044 9B88     		ldrh	r3, [r3, #4]	@ movhi
 748 0046 9AB2     		uxth	r2, r3
 749 0048 BB89     		ldrh	r3, [r7, #12]	@ movhi
 750 004a DB43     		mvns	r3, r3
 751 004c 9BB2     		uxth	r3, r3
 752 004e 1340     		ands	r3, r3, r2
 753 0050 9AB2     		uxth	r2, r3
 754 0052 7B68     		ldr	r3, [r7, #4]
 755 0054 9A80     		strh	r2, [r3, #4]	@ movhi
 756              	.L29:
 505:/home/virusv/TDSAST_IOT/Libraries/src/stm32f10x_spi.c ****   }
 506:/home/virusv/TDSAST_IOT/Libraries/src/stm32f10x_spi.c **** }
 757              		.loc 1 506 0
 758 0056 1437     		adds	r7, r7, #20
 759              		.cfi_def_cfa_offset 4
 760 0058 BD46     		mov	sp, r7
 761              		.cfi_def_cfa_register 13
 762              		@ sp needed
 763 005a 5DF8047B 		ldr	r7, [sp], #4
 764              		.cfi_restore 7
 765              		.cfi_def_cfa_offset 0
 766 005e 7047     		bx	lr
 767              		.cfi_endproc
 768              	.LFE36:
 770              		.section	.text.SPI_I2S_DMACmd,"ax",%progbits
 771              		.align	2
 772              		.global	SPI_I2S_DMACmd
 773              		.thumb
 774              		.thumb_func
 776              	SPI_I2S_DMACmd:
 777              	.LFB37:
 507:/home/virusv/TDSAST_IOT/Libraries/src/stm32f10x_spi.c **** 
 508:/home/virusv/TDSAST_IOT/Libraries/src/stm32f10x_spi.c **** /**
 509:/home/virusv/TDSAST_IOT/Libraries/src/stm32f10x_spi.c ****   * @brief  Enables or disables the SPIx/I2Sx DMA interface.
 510:/home/virusv/TDSAST_IOT/Libraries/src/stm32f10x_spi.c ****   * @param  SPIx: where x can be
 511:/home/virusv/TDSAST_IOT/Libraries/src/stm32f10x_spi.c ****   *   - 1, 2 or 3 in SPI mode 
 512:/home/virusv/TDSAST_IOT/Libraries/src/stm32f10x_spi.c ****   *   - 2 or 3 in I2S mode
 513:/home/virusv/TDSAST_IOT/Libraries/src/stm32f10x_spi.c ****   * @param  SPI_I2S_DMAReq: specifies the SPI/I2S DMA transfer request to be enabled or disabled. 
 514:/home/virusv/TDSAST_IOT/Libraries/src/stm32f10x_spi.c ****   *   This parameter can be any combination of the following values:
 515:/home/virusv/TDSAST_IOT/Libraries/src/stm32f10x_spi.c ****   *     @arg SPI_I2S_DMAReq_Tx: Tx buffer DMA transfer request
 516:/home/virusv/TDSAST_IOT/Libraries/src/stm32f10x_spi.c ****   *     @arg SPI_I2S_DMAReq_Rx: Rx buffer DMA transfer request
 517:/home/virusv/TDSAST_IOT/Libraries/src/stm32f10x_spi.c ****   * @param  NewState: new state of the selected SPI/I2S DMA transfer request.
 518:/home/virusv/TDSAST_IOT/Libraries/src/stm32f10x_spi.c ****   *   This parameter can be: ENABLE or DISABLE.
 519:/home/virusv/TDSAST_IOT/Libraries/src/stm32f10x_spi.c ****   * @retval None
 520:/home/virusv/TDSAST_IOT/Libraries/src/stm32f10x_spi.c ****   */
 521:/home/virusv/TDSAST_IOT/Libraries/src/stm32f10x_spi.c **** void SPI_I2S_DMACmd(SPI_TypeDef* SPIx, uint16_t SPI_I2S_DMAReq, FunctionalState NewState)
 522:/home/virusv/TDSAST_IOT/Libraries/src/stm32f10x_spi.c **** {
 778              		.loc 1 522 0
 779              		.cfi_startproc
 780              		@ args = 0, pretend = 0, frame = 8
 781              		@ frame_needed = 1, uses_anonymous_args = 0
 782              		@ link register save eliminated.
 783 0000 80B4     		push	{r7}
 784              		.cfi_def_cfa_offset 4
 785              		.cfi_offset 7, -4
 786 0002 83B0     		sub	sp, sp, #12
 787              		.cfi_def_cfa_offset 16
 788 0004 00AF     		add	r7, sp, #0
 789              		.cfi_def_cfa_register 7
 790 0006 7860     		str	r0, [r7, #4]
 791 0008 0B46     		mov	r3, r1
 792 000a 7B80     		strh	r3, [r7, #2]	@ movhi
 793 000c 1346     		mov	r3, r2
 794 000e 7B70     		strb	r3, [r7, #1]
 523:/home/virusv/TDSAST_IOT/Libraries/src/stm32f10x_spi.c ****   /* Check the parameters */
 524:/home/virusv/TDSAST_IOT/Libraries/src/stm32f10x_spi.c ****   assert_param(IS_SPI_ALL_PERIPH(SPIx));
 525:/home/virusv/TDSAST_IOT/Libraries/src/stm32f10x_spi.c ****   assert_param(IS_FUNCTIONAL_STATE(NewState));
 526:/home/virusv/TDSAST_IOT/Libraries/src/stm32f10x_spi.c ****   assert_param(IS_SPI_I2S_DMAREQ(SPI_I2S_DMAReq));
 527:/home/virusv/TDSAST_IOT/Libraries/src/stm32f10x_spi.c ****   if (NewState != DISABLE)
 795              		.loc 1 527 0
 796 0010 7B78     		ldrb	r3, [r7, #1]	@ zero_extendqisi2
 797 0012 002B     		cmp	r3, #0
 798 0014 08D0     		beq	.L33
 528:/home/virusv/TDSAST_IOT/Libraries/src/stm32f10x_spi.c ****   {
 529:/home/virusv/TDSAST_IOT/Libraries/src/stm32f10x_spi.c ****     /* Enable the selected SPI/I2S DMA requests */
 530:/home/virusv/TDSAST_IOT/Libraries/src/stm32f10x_spi.c ****     SPIx->CR2 |= SPI_I2S_DMAReq;
 799              		.loc 1 530 0
 800 0016 7B68     		ldr	r3, [r7, #4]
 801 0018 9B88     		ldrh	r3, [r3, #4]	@ movhi
 802 001a 9AB2     		uxth	r2, r3
 803 001c 7B88     		ldrh	r3, [r7, #2]	@ movhi
 804 001e 1343     		orrs	r3, r3, r2
 805 0020 9AB2     		uxth	r2, r3
 806 0022 7B68     		ldr	r3, [r7, #4]
 807 0024 9A80     		strh	r2, [r3, #4]	@ movhi
 808 0026 09E0     		b	.L32
 809              	.L33:
 531:/home/virusv/TDSAST_IOT/Libraries/src/stm32f10x_spi.c ****   }
 532:/home/virusv/TDSAST_IOT/Libraries/src/stm32f10x_spi.c ****   else
 533:/home/virusv/TDSAST_IOT/Libraries/src/stm32f10x_spi.c ****   {
 534:/home/virusv/TDSAST_IOT/Libraries/src/stm32f10x_spi.c ****     /* Disable the selected SPI/I2S DMA requests */
 535:/home/virusv/TDSAST_IOT/Libraries/src/stm32f10x_spi.c ****     SPIx->CR2 &= (uint16_t)~SPI_I2S_DMAReq;
 810              		.loc 1 535 0
 811 0028 7B68     		ldr	r3, [r7, #4]
 812 002a 9B88     		ldrh	r3, [r3, #4]	@ movhi
 813 002c 9AB2     		uxth	r2, r3
 814 002e 7B88     		ldrh	r3, [r7, #2]	@ movhi
 815 0030 DB43     		mvns	r3, r3
 816 0032 9BB2     		uxth	r3, r3
 817 0034 1340     		ands	r3, r3, r2
 818 0036 9AB2     		uxth	r2, r3
 819 0038 7B68     		ldr	r3, [r7, #4]
 820 003a 9A80     		strh	r2, [r3, #4]	@ movhi
 821              	.L32:
 536:/home/virusv/TDSAST_IOT/Libraries/src/stm32f10x_spi.c ****   }
 537:/home/virusv/TDSAST_IOT/Libraries/src/stm32f10x_spi.c **** }
 822              		.loc 1 537 0
 823 003c 0C37     		adds	r7, r7, #12
 824              		.cfi_def_cfa_offset 4
 825 003e BD46     		mov	sp, r7
 826              		.cfi_def_cfa_register 13
 827              		@ sp needed
 828 0040 5DF8047B 		ldr	r7, [sp], #4
 829              		.cfi_restore 7
 830              		.cfi_def_cfa_offset 0
 831 0044 7047     		bx	lr
 832              		.cfi_endproc
 833              	.LFE37:
 835 0046 00BF     		.section	.text.SPI_I2S_SendData,"ax",%progbits
 836              		.align	2
 837              		.global	SPI_I2S_SendData
 838              		.thumb
 839              		.thumb_func
 841              	SPI_I2S_SendData:
 842              	.LFB38:
 538:/home/virusv/TDSAST_IOT/Libraries/src/stm32f10x_spi.c **** 
 539:/home/virusv/TDSAST_IOT/Libraries/src/stm32f10x_spi.c **** /**
 540:/home/virusv/TDSAST_IOT/Libraries/src/stm32f10x_spi.c ****   * @brief  Transmits a Data through the SPIx/I2Sx peripheral.
 541:/home/virusv/TDSAST_IOT/Libraries/src/stm32f10x_spi.c ****   * @param  SPIx: where x can be
 542:/home/virusv/TDSAST_IOT/Libraries/src/stm32f10x_spi.c ****   *   - 1, 2 or 3 in SPI mode 
 543:/home/virusv/TDSAST_IOT/Libraries/src/stm32f10x_spi.c ****   *   - 2 or 3 in I2S mode
 544:/home/virusv/TDSAST_IOT/Libraries/src/stm32f10x_spi.c ****   * @param  Data : Data to be transmitted.
 545:/home/virusv/TDSAST_IOT/Libraries/src/stm32f10x_spi.c ****   * @retval None
 546:/home/virusv/TDSAST_IOT/Libraries/src/stm32f10x_spi.c ****   */
 547:/home/virusv/TDSAST_IOT/Libraries/src/stm32f10x_spi.c **** void SPI_I2S_SendData(SPI_TypeDef* SPIx, uint16_t Data)
 548:/home/virusv/TDSAST_IOT/Libraries/src/stm32f10x_spi.c **** {
 843              		.loc 1 548 0
 844              		.cfi_startproc
 845              		@ args = 0, pretend = 0, frame = 8
 846              		@ frame_needed = 1, uses_anonymous_args = 0
 847              		@ link register save eliminated.
 848 0000 80B4     		push	{r7}
 849              		.cfi_def_cfa_offset 4
 850              		.cfi_offset 7, -4
 851 0002 83B0     		sub	sp, sp, #12
 852              		.cfi_def_cfa_offset 16
 853 0004 00AF     		add	r7, sp, #0
 854              		.cfi_def_cfa_register 7
 855 0006 7860     		str	r0, [r7, #4]
 856 0008 0B46     		mov	r3, r1
 857 000a 7B80     		strh	r3, [r7, #2]	@ movhi
 549:/home/virusv/TDSAST_IOT/Libraries/src/stm32f10x_spi.c ****   /* Check the parameters */
 550:/home/virusv/TDSAST_IOT/Libraries/src/stm32f10x_spi.c ****   assert_param(IS_SPI_ALL_PERIPH(SPIx));
 551:/home/virusv/TDSAST_IOT/Libraries/src/stm32f10x_spi.c ****   
 552:/home/virusv/TDSAST_IOT/Libraries/src/stm32f10x_spi.c ****   /* Write in the DR register the data to be sent */
 553:/home/virusv/TDSAST_IOT/Libraries/src/stm32f10x_spi.c ****   SPIx->DR = Data;
 858              		.loc 1 553 0
 859 000c 7B68     		ldr	r3, [r7, #4]
 860 000e 7A88     		ldrh	r2, [r7, #2]	@ movhi
 861 0010 9A81     		strh	r2, [r3, #12]	@ movhi
 554:/home/virusv/TDSAST_IOT/Libraries/src/stm32f10x_spi.c **** }
 862              		.loc 1 554 0
 863 0012 0C37     		adds	r7, r7, #12
 864              		.cfi_def_cfa_offset 4
 865 0014 BD46     		mov	sp, r7
 866              		.cfi_def_cfa_register 13
 867              		@ sp needed
 868 0016 5DF8047B 		ldr	r7, [sp], #4
 869              		.cfi_restore 7
 870              		.cfi_def_cfa_offset 0
 871 001a 7047     		bx	lr
 872              		.cfi_endproc
 873              	.LFE38:
 875              		.section	.text.SPI_I2S_ReceiveData,"ax",%progbits
 876              		.align	2
 877              		.global	SPI_I2S_ReceiveData
 878              		.thumb
 879              		.thumb_func
 881              	SPI_I2S_ReceiveData:
 882              	.LFB39:
 555:/home/virusv/TDSAST_IOT/Libraries/src/stm32f10x_spi.c **** 
 556:/home/virusv/TDSAST_IOT/Libraries/src/stm32f10x_spi.c **** /**
 557:/home/virusv/TDSAST_IOT/Libraries/src/stm32f10x_spi.c ****   * @brief  Returns the most recent received data by the SPIx/I2Sx peripheral. 
 558:/home/virusv/TDSAST_IOT/Libraries/src/stm32f10x_spi.c ****   * @param  SPIx: where x can be
 559:/home/virusv/TDSAST_IOT/Libraries/src/stm32f10x_spi.c ****   *   - 1, 2 or 3 in SPI mode 
 560:/home/virusv/TDSAST_IOT/Libraries/src/stm32f10x_spi.c ****   *   - 2 or 3 in I2S mode
 561:/home/virusv/TDSAST_IOT/Libraries/src/stm32f10x_spi.c ****   * @retval The value of the received data.
 562:/home/virusv/TDSAST_IOT/Libraries/src/stm32f10x_spi.c ****   */
 563:/home/virusv/TDSAST_IOT/Libraries/src/stm32f10x_spi.c **** uint16_t SPI_I2S_ReceiveData(SPI_TypeDef* SPIx)
 564:/home/virusv/TDSAST_IOT/Libraries/src/stm32f10x_spi.c **** {
 883              		.loc 1 564 0
 884              		.cfi_startproc
 885              		@ args = 0, pretend = 0, frame = 8
 886              		@ frame_needed = 1, uses_anonymous_args = 0
 887              		@ link register save eliminated.
 888 0000 80B4     		push	{r7}
 889              		.cfi_def_cfa_offset 4
 890              		.cfi_offset 7, -4
 891 0002 83B0     		sub	sp, sp, #12
 892              		.cfi_def_cfa_offset 16
 893 0004 00AF     		add	r7, sp, #0
 894              		.cfi_def_cfa_register 7
 895 0006 7860     		str	r0, [r7, #4]
 565:/home/virusv/TDSAST_IOT/Libraries/src/stm32f10x_spi.c ****   /* Check the parameters */
 566:/home/virusv/TDSAST_IOT/Libraries/src/stm32f10x_spi.c ****   assert_param(IS_SPI_ALL_PERIPH(SPIx));
 567:/home/virusv/TDSAST_IOT/Libraries/src/stm32f10x_spi.c ****   
 568:/home/virusv/TDSAST_IOT/Libraries/src/stm32f10x_spi.c ****   /* Return the data in the DR register */
 569:/home/virusv/TDSAST_IOT/Libraries/src/stm32f10x_spi.c ****   return SPIx->DR;
 896              		.loc 1 569 0
 897 0008 7B68     		ldr	r3, [r7, #4]
 898 000a 9B89     		ldrh	r3, [r3, #12]	@ movhi
 899 000c 9BB2     		uxth	r3, r3
 570:/home/virusv/TDSAST_IOT/Libraries/src/stm32f10x_spi.c **** }
 900              		.loc 1 570 0
 901 000e 1846     		mov	r0, r3
 902 0010 0C37     		adds	r7, r7, #12
 903              		.cfi_def_cfa_offset 4
 904 0012 BD46     		mov	sp, r7
 905              		.cfi_def_cfa_register 13
 906              		@ sp needed
 907 0014 5DF8047B 		ldr	r7, [sp], #4
 908              		.cfi_restore 7
 909              		.cfi_def_cfa_offset 0
 910 0018 7047     		bx	lr
 911              		.cfi_endproc
 912              	.LFE39:
 914 001a 00BF     		.section	.text.SPI_NSSInternalSoftwareConfig,"ax",%progbits
 915              		.align	2
 916              		.global	SPI_NSSInternalSoftwareConfig
 917              		.thumb
 918              		.thumb_func
 920              	SPI_NSSInternalSoftwareConfig:
 921              	.LFB40:
 571:/home/virusv/TDSAST_IOT/Libraries/src/stm32f10x_spi.c **** 
 572:/home/virusv/TDSAST_IOT/Libraries/src/stm32f10x_spi.c **** /**
 573:/home/virusv/TDSAST_IOT/Libraries/src/stm32f10x_spi.c ****   * @brief  Configures internally by software the NSS pin for the selected SPI.
 574:/home/virusv/TDSAST_IOT/Libraries/src/stm32f10x_spi.c ****   * @param  SPIx: where x can be 1, 2 or 3 to select the SPI peripheral.
 575:/home/virusv/TDSAST_IOT/Libraries/src/stm32f10x_spi.c ****   * @param  SPI_NSSInternalSoft: specifies the SPI NSS internal state.
 576:/home/virusv/TDSAST_IOT/Libraries/src/stm32f10x_spi.c ****   *   This parameter can be one of the following values:
 577:/home/virusv/TDSAST_IOT/Libraries/src/stm32f10x_spi.c ****   *     @arg SPI_NSSInternalSoft_Set: Set NSS pin internally
 578:/home/virusv/TDSAST_IOT/Libraries/src/stm32f10x_spi.c ****   *     @arg SPI_NSSInternalSoft_Reset: Reset NSS pin internally
 579:/home/virusv/TDSAST_IOT/Libraries/src/stm32f10x_spi.c ****   * @retval None
 580:/home/virusv/TDSAST_IOT/Libraries/src/stm32f10x_spi.c ****   */
 581:/home/virusv/TDSAST_IOT/Libraries/src/stm32f10x_spi.c **** void SPI_NSSInternalSoftwareConfig(SPI_TypeDef* SPIx, uint16_t SPI_NSSInternalSoft)
 582:/home/virusv/TDSAST_IOT/Libraries/src/stm32f10x_spi.c **** {
 922              		.loc 1 582 0
 923              		.cfi_startproc
 924              		@ args = 0, pretend = 0, frame = 8
 925              		@ frame_needed = 1, uses_anonymous_args = 0
 926              		@ link register save eliminated.
 927 0000 80B4     		push	{r7}
 928              		.cfi_def_cfa_offset 4
 929              		.cfi_offset 7, -4
 930 0002 83B0     		sub	sp, sp, #12
 931              		.cfi_def_cfa_offset 16
 932 0004 00AF     		add	r7, sp, #0
 933              		.cfi_def_cfa_register 7
 934 0006 7860     		str	r0, [r7, #4]
 935 0008 0B46     		mov	r3, r1
 936 000a 7B80     		strh	r3, [r7, #2]	@ movhi
 583:/home/virusv/TDSAST_IOT/Libraries/src/stm32f10x_spi.c ****   /* Check the parameters */
 584:/home/virusv/TDSAST_IOT/Libraries/src/stm32f10x_spi.c ****   assert_param(IS_SPI_ALL_PERIPH(SPIx));
 585:/home/virusv/TDSAST_IOT/Libraries/src/stm32f10x_spi.c ****   assert_param(IS_SPI_NSS_INTERNAL(SPI_NSSInternalSoft));
 586:/home/virusv/TDSAST_IOT/Libraries/src/stm32f10x_spi.c ****   if (SPI_NSSInternalSoft != SPI_NSSInternalSoft_Reset)
 937              		.loc 1 586 0
 938 000c 7B88     		ldrh	r3, [r7, #2]
 939 000e 4FF6FF62 		movw	r2, #65279
 940 0012 9342     		cmp	r3, r2
 941 0014 08D0     		beq	.L39
 587:/home/virusv/TDSAST_IOT/Libraries/src/stm32f10x_spi.c ****   {
 588:/home/virusv/TDSAST_IOT/Libraries/src/stm32f10x_spi.c ****     /* Set NSS pin internally by software */
 589:/home/virusv/TDSAST_IOT/Libraries/src/stm32f10x_spi.c ****     SPIx->CR1 |= SPI_NSSInternalSoft_Set;
 942              		.loc 1 589 0
 943 0016 7B68     		ldr	r3, [r7, #4]
 944 0018 1B88     		ldrh	r3, [r3]	@ movhi
 945 001a 9BB2     		uxth	r3, r3
 946 001c 43F48073 		orr	r3, r3, #256
 947 0020 9AB2     		uxth	r2, r3
 948 0022 7B68     		ldr	r3, [r7, #4]
 949 0024 1A80     		strh	r2, [r3]	@ movhi
 950 0026 07E0     		b	.L38
 951              	.L39:
 590:/home/virusv/TDSAST_IOT/Libraries/src/stm32f10x_spi.c ****   }
 591:/home/virusv/TDSAST_IOT/Libraries/src/stm32f10x_spi.c ****   else
 592:/home/virusv/TDSAST_IOT/Libraries/src/stm32f10x_spi.c ****   {
 593:/home/virusv/TDSAST_IOT/Libraries/src/stm32f10x_spi.c ****     /* Reset NSS pin internally by software */
 594:/home/virusv/TDSAST_IOT/Libraries/src/stm32f10x_spi.c ****     SPIx->CR1 &= SPI_NSSInternalSoft_Reset;
 952              		.loc 1 594 0
 953 0028 7B68     		ldr	r3, [r7, #4]
 954 002a 1B88     		ldrh	r3, [r3]	@ movhi
 955 002c 9BB2     		uxth	r3, r3
 956 002e 23F48073 		bic	r3, r3, #256
 957 0032 9AB2     		uxth	r2, r3
 958 0034 7B68     		ldr	r3, [r7, #4]
 959 0036 1A80     		strh	r2, [r3]	@ movhi
 960              	.L38:
 595:/home/virusv/TDSAST_IOT/Libraries/src/stm32f10x_spi.c ****   }
 596:/home/virusv/TDSAST_IOT/Libraries/src/stm32f10x_spi.c **** }
 961              		.loc 1 596 0
 962 0038 0C37     		adds	r7, r7, #12
 963              		.cfi_def_cfa_offset 4
 964 003a BD46     		mov	sp, r7
 965              		.cfi_def_cfa_register 13
 966              		@ sp needed
 967 003c 5DF8047B 		ldr	r7, [sp], #4
 968              		.cfi_restore 7
 969              		.cfi_def_cfa_offset 0
 970 0040 7047     		bx	lr
 971              		.cfi_endproc
 972              	.LFE40:
 974 0042 00BF     		.section	.text.SPI_SSOutputCmd,"ax",%progbits
 975              		.align	2
 976              		.global	SPI_SSOutputCmd
 977              		.thumb
 978              		.thumb_func
 980              	SPI_SSOutputCmd:
 981              	.LFB41:
 597:/home/virusv/TDSAST_IOT/Libraries/src/stm32f10x_spi.c **** 
 598:/home/virusv/TDSAST_IOT/Libraries/src/stm32f10x_spi.c **** /**
 599:/home/virusv/TDSAST_IOT/Libraries/src/stm32f10x_spi.c ****   * @brief  Enables or disables the SS output for the selected SPI.
 600:/home/virusv/TDSAST_IOT/Libraries/src/stm32f10x_spi.c ****   * @param  SPIx: where x can be 1, 2 or 3 to select the SPI peripheral.
 601:/home/virusv/TDSAST_IOT/Libraries/src/stm32f10x_spi.c ****   * @param  NewState: new state of the SPIx SS output. 
 602:/home/virusv/TDSAST_IOT/Libraries/src/stm32f10x_spi.c ****   *   This parameter can be: ENABLE or DISABLE.
 603:/home/virusv/TDSAST_IOT/Libraries/src/stm32f10x_spi.c ****   * @retval None
 604:/home/virusv/TDSAST_IOT/Libraries/src/stm32f10x_spi.c ****   */
 605:/home/virusv/TDSAST_IOT/Libraries/src/stm32f10x_spi.c **** void SPI_SSOutputCmd(SPI_TypeDef* SPIx, FunctionalState NewState)
 606:/home/virusv/TDSAST_IOT/Libraries/src/stm32f10x_spi.c **** {
 982              		.loc 1 606 0
 983              		.cfi_startproc
 984              		@ args = 0, pretend = 0, frame = 8
 985              		@ frame_needed = 1, uses_anonymous_args = 0
 986              		@ link register save eliminated.
 987 0000 80B4     		push	{r7}
 988              		.cfi_def_cfa_offset 4
 989              		.cfi_offset 7, -4
 990 0002 83B0     		sub	sp, sp, #12
 991              		.cfi_def_cfa_offset 16
 992 0004 00AF     		add	r7, sp, #0
 993              		.cfi_def_cfa_register 7
 994 0006 7860     		str	r0, [r7, #4]
 995 0008 0B46     		mov	r3, r1
 996 000a FB70     		strb	r3, [r7, #3]
 607:/home/virusv/TDSAST_IOT/Libraries/src/stm32f10x_spi.c ****   /* Check the parameters */
 608:/home/virusv/TDSAST_IOT/Libraries/src/stm32f10x_spi.c ****   assert_param(IS_SPI_ALL_PERIPH(SPIx));
 609:/home/virusv/TDSAST_IOT/Libraries/src/stm32f10x_spi.c ****   assert_param(IS_FUNCTIONAL_STATE(NewState));
 610:/home/virusv/TDSAST_IOT/Libraries/src/stm32f10x_spi.c ****   if (NewState != DISABLE)
 997              		.loc 1 610 0
 998 000c FB78     		ldrb	r3, [r7, #3]	@ zero_extendqisi2
 999 000e 002B     		cmp	r3, #0
 1000 0010 08D0     		beq	.L42
 611:/home/virusv/TDSAST_IOT/Libraries/src/stm32f10x_spi.c ****   {
 612:/home/virusv/TDSAST_IOT/Libraries/src/stm32f10x_spi.c ****     /* Enable the selected SPI SS output */
 613:/home/virusv/TDSAST_IOT/Libraries/src/stm32f10x_spi.c ****     SPIx->CR2 |= CR2_SSOE_Set;
 1001              		.loc 1 613 0
 1002 0012 7B68     		ldr	r3, [r7, #4]
 1003 0014 9B88     		ldrh	r3, [r3, #4]	@ movhi
 1004 0016 9BB2     		uxth	r3, r3
 1005 0018 43F00403 		orr	r3, r3, #4
 1006 001c 9AB2     		uxth	r2, r3
 1007 001e 7B68     		ldr	r3, [r7, #4]
 1008 0020 9A80     		strh	r2, [r3, #4]	@ movhi
 1009 0022 07E0     		b	.L41
 1010              	.L42:
 614:/home/virusv/TDSAST_IOT/Libraries/src/stm32f10x_spi.c ****   }
 615:/home/virusv/TDSAST_IOT/Libraries/src/stm32f10x_spi.c ****   else
 616:/home/virusv/TDSAST_IOT/Libraries/src/stm32f10x_spi.c ****   {
 617:/home/virusv/TDSAST_IOT/Libraries/src/stm32f10x_spi.c ****     /* Disable the selected SPI SS output */
 618:/home/virusv/TDSAST_IOT/Libraries/src/stm32f10x_spi.c ****     SPIx->CR2 &= CR2_SSOE_Reset;
 1011              		.loc 1 618 0
 1012 0024 7B68     		ldr	r3, [r7, #4]
 1013 0026 9B88     		ldrh	r3, [r3, #4]	@ movhi
 1014 0028 9BB2     		uxth	r3, r3
 1015 002a 23F00403 		bic	r3, r3, #4
 1016 002e 9AB2     		uxth	r2, r3
 1017 0030 7B68     		ldr	r3, [r7, #4]
 1018 0032 9A80     		strh	r2, [r3, #4]	@ movhi
 1019              	.L41:
 619:/home/virusv/TDSAST_IOT/Libraries/src/stm32f10x_spi.c ****   }
 620:/home/virusv/TDSAST_IOT/Libraries/src/stm32f10x_spi.c **** }
 1020              		.loc 1 620 0
 1021 0034 0C37     		adds	r7, r7, #12
 1022              		.cfi_def_cfa_offset 4
 1023 0036 BD46     		mov	sp, r7
 1024              		.cfi_def_cfa_register 13
 1025              		@ sp needed
 1026 0038 5DF8047B 		ldr	r7, [sp], #4
 1027              		.cfi_restore 7
 1028              		.cfi_def_cfa_offset 0
 1029 003c 7047     		bx	lr
 1030              		.cfi_endproc
 1031              	.LFE41:
 1033 003e 00BF     		.section	.text.SPI_DataSizeConfig,"ax",%progbits
 1034              		.align	2
 1035              		.global	SPI_DataSizeConfig
 1036              		.thumb
 1037              		.thumb_func
 1039              	SPI_DataSizeConfig:
 1040              	.LFB42:
 621:/home/virusv/TDSAST_IOT/Libraries/src/stm32f10x_spi.c **** 
 622:/home/virusv/TDSAST_IOT/Libraries/src/stm32f10x_spi.c **** /**
 623:/home/virusv/TDSAST_IOT/Libraries/src/stm32f10x_spi.c ****   * @brief  Configures the data size for the selected SPI.
 624:/home/virusv/TDSAST_IOT/Libraries/src/stm32f10x_spi.c ****   * @param  SPIx: where x can be 1, 2 or 3 to select the SPI peripheral.
 625:/home/virusv/TDSAST_IOT/Libraries/src/stm32f10x_spi.c ****   * @param  SPI_DataSize: specifies the SPI data size.
 626:/home/virusv/TDSAST_IOT/Libraries/src/stm32f10x_spi.c ****   *   This parameter can be one of the following values:
 627:/home/virusv/TDSAST_IOT/Libraries/src/stm32f10x_spi.c ****   *     @arg SPI_DataSize_16b: Set data frame format to 16bit
 628:/home/virusv/TDSAST_IOT/Libraries/src/stm32f10x_spi.c ****   *     @arg SPI_DataSize_8b: Set data frame format to 8bit
 629:/home/virusv/TDSAST_IOT/Libraries/src/stm32f10x_spi.c ****   * @retval None
 630:/home/virusv/TDSAST_IOT/Libraries/src/stm32f10x_spi.c ****   */
 631:/home/virusv/TDSAST_IOT/Libraries/src/stm32f10x_spi.c **** void SPI_DataSizeConfig(SPI_TypeDef* SPIx, uint16_t SPI_DataSize)
 632:/home/virusv/TDSAST_IOT/Libraries/src/stm32f10x_spi.c **** {
 1041              		.loc 1 632 0
 1042              		.cfi_startproc
 1043              		@ args = 0, pretend = 0, frame = 8
 1044              		@ frame_needed = 1, uses_anonymous_args = 0
 1045              		@ link register save eliminated.
 1046 0000 80B4     		push	{r7}
 1047              		.cfi_def_cfa_offset 4
 1048              		.cfi_offset 7, -4
 1049 0002 83B0     		sub	sp, sp, #12
 1050              		.cfi_def_cfa_offset 16
 1051 0004 00AF     		add	r7, sp, #0
 1052              		.cfi_def_cfa_register 7
 1053 0006 7860     		str	r0, [r7, #4]
 1054 0008 0B46     		mov	r3, r1
 1055 000a 7B80     		strh	r3, [r7, #2]	@ movhi
 633:/home/virusv/TDSAST_IOT/Libraries/src/stm32f10x_spi.c ****   /* Check the parameters */
 634:/home/virusv/TDSAST_IOT/Libraries/src/stm32f10x_spi.c ****   assert_param(IS_SPI_ALL_PERIPH(SPIx));
 635:/home/virusv/TDSAST_IOT/Libraries/src/stm32f10x_spi.c ****   assert_param(IS_SPI_DATASIZE(SPI_DataSize));
 636:/home/virusv/TDSAST_IOT/Libraries/src/stm32f10x_spi.c ****   /* Clear DFF bit */
 637:/home/virusv/TDSAST_IOT/Libraries/src/stm32f10x_spi.c ****   SPIx->CR1 &= (uint16_t)~SPI_DataSize_16b;
 1056              		.loc 1 637 0
 1057 000c 7B68     		ldr	r3, [r7, #4]
 1058 000e 1B88     		ldrh	r3, [r3]	@ movhi
 1059 0010 9BB2     		uxth	r3, r3
 1060 0012 23F40063 		bic	r3, r3, #2048
 1061 0016 9AB2     		uxth	r2, r3
 1062 0018 7B68     		ldr	r3, [r7, #4]
 1063 001a 1A80     		strh	r2, [r3]	@ movhi
 638:/home/virusv/TDSAST_IOT/Libraries/src/stm32f10x_spi.c ****   /* Set new DFF bit value */
 639:/home/virusv/TDSAST_IOT/Libraries/src/stm32f10x_spi.c ****   SPIx->CR1 |= SPI_DataSize;
 1064              		.loc 1 639 0
 1065 001c 7B68     		ldr	r3, [r7, #4]
 1066 001e 1B88     		ldrh	r3, [r3]	@ movhi
 1067 0020 9AB2     		uxth	r2, r3
 1068 0022 7B88     		ldrh	r3, [r7, #2]	@ movhi
 1069 0024 1343     		orrs	r3, r3, r2
 1070 0026 9AB2     		uxth	r2, r3
 1071 0028 7B68     		ldr	r3, [r7, #4]
 1072 002a 1A80     		strh	r2, [r3]	@ movhi
 640:/home/virusv/TDSAST_IOT/Libraries/src/stm32f10x_spi.c **** }
 1073              		.loc 1 640 0
 1074 002c 0C37     		adds	r7, r7, #12
 1075              		.cfi_def_cfa_offset 4
 1076 002e BD46     		mov	sp, r7
 1077              		.cfi_def_cfa_register 13
 1078              		@ sp needed
 1079 0030 5DF8047B 		ldr	r7, [sp], #4
 1080              		.cfi_restore 7
 1081              		.cfi_def_cfa_offset 0
 1082 0034 7047     		bx	lr
 1083              		.cfi_endproc
 1084              	.LFE42:
 1086 0036 00BF     		.section	.text.SPI_TransmitCRC,"ax",%progbits
 1087              		.align	2
 1088              		.global	SPI_TransmitCRC
 1089              		.thumb
 1090              		.thumb_func
 1092              	SPI_TransmitCRC:
 1093              	.LFB43:
 641:/home/virusv/TDSAST_IOT/Libraries/src/stm32f10x_spi.c **** 
 642:/home/virusv/TDSAST_IOT/Libraries/src/stm32f10x_spi.c **** /**
 643:/home/virusv/TDSAST_IOT/Libraries/src/stm32f10x_spi.c ****   * @brief  Transmit the SPIx CRC value.
 644:/home/virusv/TDSAST_IOT/Libraries/src/stm32f10x_spi.c ****   * @param  SPIx: where x can be 1, 2 or 3 to select the SPI peripheral.
 645:/home/virusv/TDSAST_IOT/Libraries/src/stm32f10x_spi.c ****   * @retval None
 646:/home/virusv/TDSAST_IOT/Libraries/src/stm32f10x_spi.c ****   */
 647:/home/virusv/TDSAST_IOT/Libraries/src/stm32f10x_spi.c **** void SPI_TransmitCRC(SPI_TypeDef* SPIx)
 648:/home/virusv/TDSAST_IOT/Libraries/src/stm32f10x_spi.c **** {
 1094              		.loc 1 648 0
 1095              		.cfi_startproc
 1096              		@ args = 0, pretend = 0, frame = 8
 1097              		@ frame_needed = 1, uses_anonymous_args = 0
 1098              		@ link register save eliminated.
 1099 0000 80B4     		push	{r7}
 1100              		.cfi_def_cfa_offset 4
 1101              		.cfi_offset 7, -4
 1102 0002 83B0     		sub	sp, sp, #12
 1103              		.cfi_def_cfa_offset 16
 1104 0004 00AF     		add	r7, sp, #0
 1105              		.cfi_def_cfa_register 7
 1106 0006 7860     		str	r0, [r7, #4]
 649:/home/virusv/TDSAST_IOT/Libraries/src/stm32f10x_spi.c ****   /* Check the parameters */
 650:/home/virusv/TDSAST_IOT/Libraries/src/stm32f10x_spi.c ****   assert_param(IS_SPI_ALL_PERIPH(SPIx));
 651:/home/virusv/TDSAST_IOT/Libraries/src/stm32f10x_spi.c ****   
 652:/home/virusv/TDSAST_IOT/Libraries/src/stm32f10x_spi.c ****   /* Enable the selected SPI CRC transmission */
 653:/home/virusv/TDSAST_IOT/Libraries/src/stm32f10x_spi.c ****   SPIx->CR1 |= CR1_CRCNext_Set;
 1107              		.loc 1 653 0
 1108 0008 7B68     		ldr	r3, [r7, #4]
 1109 000a 1B88     		ldrh	r3, [r3]	@ movhi
 1110 000c 9BB2     		uxth	r3, r3
 1111 000e 43F48053 		orr	r3, r3, #4096
 1112 0012 9AB2     		uxth	r2, r3
 1113 0014 7B68     		ldr	r3, [r7, #4]
 1114 0016 1A80     		strh	r2, [r3]	@ movhi
 654:/home/virusv/TDSAST_IOT/Libraries/src/stm32f10x_spi.c **** }
 1115              		.loc 1 654 0
 1116 0018 0C37     		adds	r7, r7, #12
 1117              		.cfi_def_cfa_offset 4
 1118 001a BD46     		mov	sp, r7
 1119              		.cfi_def_cfa_register 13
 1120              		@ sp needed
 1121 001c 5DF8047B 		ldr	r7, [sp], #4
 1122              		.cfi_restore 7
 1123              		.cfi_def_cfa_offset 0
 1124 0020 7047     		bx	lr
 1125              		.cfi_endproc
 1126              	.LFE43:
 1128 0022 00BF     		.section	.text.SPI_CalculateCRC,"ax",%progbits
 1129              		.align	2
 1130              		.global	SPI_CalculateCRC
 1131              		.thumb
 1132              		.thumb_func
 1134              	SPI_CalculateCRC:
 1135              	.LFB44:
 655:/home/virusv/TDSAST_IOT/Libraries/src/stm32f10x_spi.c **** 
 656:/home/virusv/TDSAST_IOT/Libraries/src/stm32f10x_spi.c **** /**
 657:/home/virusv/TDSAST_IOT/Libraries/src/stm32f10x_spi.c ****   * @brief  Enables or disables the CRC value calculation of the transferred bytes.
 658:/home/virusv/TDSAST_IOT/Libraries/src/stm32f10x_spi.c ****   * @param  SPIx: where x can be 1, 2 or 3 to select the SPI peripheral.
 659:/home/virusv/TDSAST_IOT/Libraries/src/stm32f10x_spi.c ****   * @param  NewState: new state of the SPIx CRC value calculation.
 660:/home/virusv/TDSAST_IOT/Libraries/src/stm32f10x_spi.c ****   *   This parameter can be: ENABLE or DISABLE.
 661:/home/virusv/TDSAST_IOT/Libraries/src/stm32f10x_spi.c ****   * @retval None
 662:/home/virusv/TDSAST_IOT/Libraries/src/stm32f10x_spi.c ****   */
 663:/home/virusv/TDSAST_IOT/Libraries/src/stm32f10x_spi.c **** void SPI_CalculateCRC(SPI_TypeDef* SPIx, FunctionalState NewState)
 664:/home/virusv/TDSAST_IOT/Libraries/src/stm32f10x_spi.c **** {
 1136              		.loc 1 664 0
 1137              		.cfi_startproc
 1138              		@ args = 0, pretend = 0, frame = 8
 1139              		@ frame_needed = 1, uses_anonymous_args = 0
 1140              		@ link register save eliminated.
 1141 0000 80B4     		push	{r7}
 1142              		.cfi_def_cfa_offset 4
 1143              		.cfi_offset 7, -4
 1144 0002 83B0     		sub	sp, sp, #12
 1145              		.cfi_def_cfa_offset 16
 1146 0004 00AF     		add	r7, sp, #0
 1147              		.cfi_def_cfa_register 7
 1148 0006 7860     		str	r0, [r7, #4]
 1149 0008 0B46     		mov	r3, r1
 1150 000a FB70     		strb	r3, [r7, #3]
 665:/home/virusv/TDSAST_IOT/Libraries/src/stm32f10x_spi.c ****   /* Check the parameters */
 666:/home/virusv/TDSAST_IOT/Libraries/src/stm32f10x_spi.c ****   assert_param(IS_SPI_ALL_PERIPH(SPIx));
 667:/home/virusv/TDSAST_IOT/Libraries/src/stm32f10x_spi.c ****   assert_param(IS_FUNCTIONAL_STATE(NewState));
 668:/home/virusv/TDSAST_IOT/Libraries/src/stm32f10x_spi.c ****   if (NewState != DISABLE)
 1151              		.loc 1 668 0
 1152 000c FB78     		ldrb	r3, [r7, #3]	@ zero_extendqisi2
 1153 000e 002B     		cmp	r3, #0
 1154 0010 08D0     		beq	.L47
 669:/home/virusv/TDSAST_IOT/Libraries/src/stm32f10x_spi.c ****   {
 670:/home/virusv/TDSAST_IOT/Libraries/src/stm32f10x_spi.c ****     /* Enable the selected SPI CRC calculation */
 671:/home/virusv/TDSAST_IOT/Libraries/src/stm32f10x_spi.c ****     SPIx->CR1 |= CR1_CRCEN_Set;
 1155              		.loc 1 671 0
 1156 0012 7B68     		ldr	r3, [r7, #4]
 1157 0014 1B88     		ldrh	r3, [r3]	@ movhi
 1158 0016 9BB2     		uxth	r3, r3
 1159 0018 43F40053 		orr	r3, r3, #8192
 1160 001c 9AB2     		uxth	r2, r3
 1161 001e 7B68     		ldr	r3, [r7, #4]
 1162 0020 1A80     		strh	r2, [r3]	@ movhi
 1163 0022 07E0     		b	.L46
 1164              	.L47:
 672:/home/virusv/TDSAST_IOT/Libraries/src/stm32f10x_spi.c ****   }
 673:/home/virusv/TDSAST_IOT/Libraries/src/stm32f10x_spi.c ****   else
 674:/home/virusv/TDSAST_IOT/Libraries/src/stm32f10x_spi.c ****   {
 675:/home/virusv/TDSAST_IOT/Libraries/src/stm32f10x_spi.c ****     /* Disable the selected SPI CRC calculation */
 676:/home/virusv/TDSAST_IOT/Libraries/src/stm32f10x_spi.c ****     SPIx->CR1 &= CR1_CRCEN_Reset;
 1165              		.loc 1 676 0
 1166 0024 7B68     		ldr	r3, [r7, #4]
 1167 0026 1B88     		ldrh	r3, [r3]	@ movhi
 1168 0028 9BB2     		uxth	r3, r3
 1169 002a 23F40053 		bic	r3, r3, #8192
 1170 002e 9AB2     		uxth	r2, r3
 1171 0030 7B68     		ldr	r3, [r7, #4]
 1172 0032 1A80     		strh	r2, [r3]	@ movhi
 1173              	.L46:
 677:/home/virusv/TDSAST_IOT/Libraries/src/stm32f10x_spi.c ****   }
 678:/home/virusv/TDSAST_IOT/Libraries/src/stm32f10x_spi.c **** }
 1174              		.loc 1 678 0
 1175 0034 0C37     		adds	r7, r7, #12
 1176              		.cfi_def_cfa_offset 4
 1177 0036 BD46     		mov	sp, r7
 1178              		.cfi_def_cfa_register 13
 1179              		@ sp needed
 1180 0038 5DF8047B 		ldr	r7, [sp], #4
 1181              		.cfi_restore 7
 1182              		.cfi_def_cfa_offset 0
 1183 003c 7047     		bx	lr
 1184              		.cfi_endproc
 1185              	.LFE44:
 1187 003e 00BF     		.section	.text.SPI_GetCRC,"ax",%progbits
 1188              		.align	2
 1189              		.global	SPI_GetCRC
 1190              		.thumb
 1191              		.thumb_func
 1193              	SPI_GetCRC:
 1194              	.LFB45:
 679:/home/virusv/TDSAST_IOT/Libraries/src/stm32f10x_spi.c **** 
 680:/home/virusv/TDSAST_IOT/Libraries/src/stm32f10x_spi.c **** /**
 681:/home/virusv/TDSAST_IOT/Libraries/src/stm32f10x_spi.c ****   * @brief  Returns the transmit or the receive CRC register value for the specified SPI.
 682:/home/virusv/TDSAST_IOT/Libraries/src/stm32f10x_spi.c ****   * @param  SPIx: where x can be 1, 2 or 3 to select the SPI peripheral.
 683:/home/virusv/TDSAST_IOT/Libraries/src/stm32f10x_spi.c ****   * @param  SPI_CRC: specifies the CRC register to be read.
 684:/home/virusv/TDSAST_IOT/Libraries/src/stm32f10x_spi.c ****   *   This parameter can be one of the following values:
 685:/home/virusv/TDSAST_IOT/Libraries/src/stm32f10x_spi.c ****   *     @arg SPI_CRC_Tx: Selects Tx CRC register
 686:/home/virusv/TDSAST_IOT/Libraries/src/stm32f10x_spi.c ****   *     @arg SPI_CRC_Rx: Selects Rx CRC register
 687:/home/virusv/TDSAST_IOT/Libraries/src/stm32f10x_spi.c ****   * @retval The selected CRC register value..
 688:/home/virusv/TDSAST_IOT/Libraries/src/stm32f10x_spi.c ****   */
 689:/home/virusv/TDSAST_IOT/Libraries/src/stm32f10x_spi.c **** uint16_t SPI_GetCRC(SPI_TypeDef* SPIx, uint8_t SPI_CRC)
 690:/home/virusv/TDSAST_IOT/Libraries/src/stm32f10x_spi.c **** {
 1195              		.loc 1 690 0
 1196              		.cfi_startproc
 1197              		@ args = 0, pretend = 0, frame = 16
 1198              		@ frame_needed = 1, uses_anonymous_args = 0
 1199              		@ link register save eliminated.
 1200 0000 80B4     		push	{r7}
 1201              		.cfi_def_cfa_offset 4
 1202              		.cfi_offset 7, -4
 1203 0002 85B0     		sub	sp, sp, #20
 1204              		.cfi_def_cfa_offset 24
 1205 0004 00AF     		add	r7, sp, #0
 1206              		.cfi_def_cfa_register 7
 1207 0006 7860     		str	r0, [r7, #4]
 1208 0008 0B46     		mov	r3, r1
 1209 000a FB70     		strb	r3, [r7, #3]
 691:/home/virusv/TDSAST_IOT/Libraries/src/stm32f10x_spi.c ****   uint16_t crcreg = 0;
 1210              		.loc 1 691 0
 1211 000c 0023     		movs	r3, #0
 1212 000e FB81     		strh	r3, [r7, #14]	@ movhi
 692:/home/virusv/TDSAST_IOT/Libraries/src/stm32f10x_spi.c ****   /* Check the parameters */
 693:/home/virusv/TDSAST_IOT/Libraries/src/stm32f10x_spi.c ****   assert_param(IS_SPI_ALL_PERIPH(SPIx));
 694:/home/virusv/TDSAST_IOT/Libraries/src/stm32f10x_spi.c ****   assert_param(IS_SPI_CRC(SPI_CRC));
 695:/home/virusv/TDSAST_IOT/Libraries/src/stm32f10x_spi.c ****   if (SPI_CRC != SPI_CRC_Rx)
 1213              		.loc 1 695 0
 1214 0010 FB78     		ldrb	r3, [r7, #3]	@ zero_extendqisi2
 1215 0012 012B     		cmp	r3, #1
 1216 0014 03D0     		beq	.L50
 696:/home/virusv/TDSAST_IOT/Libraries/src/stm32f10x_spi.c ****   {
 697:/home/virusv/TDSAST_IOT/Libraries/src/stm32f10x_spi.c ****     /* Get the Tx CRC register */
 698:/home/virusv/TDSAST_IOT/Libraries/src/stm32f10x_spi.c ****     crcreg = SPIx->TXCRCR;
 1217              		.loc 1 698 0
 1218 0016 7B68     		ldr	r3, [r7, #4]
 1219 0018 1B8B     		ldrh	r3, [r3, #24]	@ movhi
 1220 001a FB81     		strh	r3, [r7, #14]	@ movhi
 1221 001c 02E0     		b	.L51
 1222              	.L50:
 699:/home/virusv/TDSAST_IOT/Libraries/src/stm32f10x_spi.c ****   }
 700:/home/virusv/TDSAST_IOT/Libraries/src/stm32f10x_spi.c ****   else
 701:/home/virusv/TDSAST_IOT/Libraries/src/stm32f10x_spi.c ****   {
 702:/home/virusv/TDSAST_IOT/Libraries/src/stm32f10x_spi.c ****     /* Get the Rx CRC register */
 703:/home/virusv/TDSAST_IOT/Libraries/src/stm32f10x_spi.c ****     crcreg = SPIx->RXCRCR;
 1223              		.loc 1 703 0
 1224 001e 7B68     		ldr	r3, [r7, #4]
 1225 0020 9B8A     		ldrh	r3, [r3, #20]	@ movhi
 1226 0022 FB81     		strh	r3, [r7, #14]	@ movhi
 1227              	.L51:
 704:/home/virusv/TDSAST_IOT/Libraries/src/stm32f10x_spi.c ****   }
 705:/home/virusv/TDSAST_IOT/Libraries/src/stm32f10x_spi.c ****   /* Return the selected CRC register */
 706:/home/virusv/TDSAST_IOT/Libraries/src/stm32f10x_spi.c ****   return crcreg;
 1228              		.loc 1 706 0
 1229 0024 FB89     		ldrh	r3, [r7, #14]
 707:/home/virusv/TDSAST_IOT/Libraries/src/stm32f10x_spi.c **** }
 1230              		.loc 1 707 0
 1231 0026 1846     		mov	r0, r3
 1232 0028 1437     		adds	r7, r7, #20
 1233              		.cfi_def_cfa_offset 4
 1234 002a BD46     		mov	sp, r7
 1235              		.cfi_def_cfa_register 13
 1236              		@ sp needed
 1237 002c 5DF8047B 		ldr	r7, [sp], #4
 1238              		.cfi_restore 7
 1239              		.cfi_def_cfa_offset 0
 1240 0030 7047     		bx	lr
 1241              		.cfi_endproc
 1242              	.LFE45:
 1244 0032 00BF     		.section	.text.SPI_GetCRCPolynomial,"ax",%progbits
 1245              		.align	2
 1246              		.global	SPI_GetCRCPolynomial
 1247              		.thumb
 1248              		.thumb_func
 1250              	SPI_GetCRCPolynomial:
 1251              	.LFB46:
 708:/home/virusv/TDSAST_IOT/Libraries/src/stm32f10x_spi.c **** 
 709:/home/virusv/TDSAST_IOT/Libraries/src/stm32f10x_spi.c **** /**
 710:/home/virusv/TDSAST_IOT/Libraries/src/stm32f10x_spi.c ****   * @brief  Returns the CRC Polynomial register value for the specified SPI.
 711:/home/virusv/TDSAST_IOT/Libraries/src/stm32f10x_spi.c ****   * @param  SPIx: where x can be 1, 2 or 3 to select the SPI peripheral.
 712:/home/virusv/TDSAST_IOT/Libraries/src/stm32f10x_spi.c ****   * @retval The CRC Polynomial register value.
 713:/home/virusv/TDSAST_IOT/Libraries/src/stm32f10x_spi.c ****   */
 714:/home/virusv/TDSAST_IOT/Libraries/src/stm32f10x_spi.c **** uint16_t SPI_GetCRCPolynomial(SPI_TypeDef* SPIx)
 715:/home/virusv/TDSAST_IOT/Libraries/src/stm32f10x_spi.c **** {
 1252              		.loc 1 715 0
 1253              		.cfi_startproc
 1254              		@ args = 0, pretend = 0, frame = 8
 1255              		@ frame_needed = 1, uses_anonymous_args = 0
 1256              		@ link register save eliminated.
 1257 0000 80B4     		push	{r7}
 1258              		.cfi_def_cfa_offset 4
 1259              		.cfi_offset 7, -4
 1260 0002 83B0     		sub	sp, sp, #12
 1261              		.cfi_def_cfa_offset 16
 1262 0004 00AF     		add	r7, sp, #0
 1263              		.cfi_def_cfa_register 7
 1264 0006 7860     		str	r0, [r7, #4]
 716:/home/virusv/TDSAST_IOT/Libraries/src/stm32f10x_spi.c ****   /* Check the parameters */
 717:/home/virusv/TDSAST_IOT/Libraries/src/stm32f10x_spi.c ****   assert_param(IS_SPI_ALL_PERIPH(SPIx));
 718:/home/virusv/TDSAST_IOT/Libraries/src/stm32f10x_spi.c ****   
 719:/home/virusv/TDSAST_IOT/Libraries/src/stm32f10x_spi.c ****   /* Return the CRC polynomial register */
 720:/home/virusv/TDSAST_IOT/Libraries/src/stm32f10x_spi.c ****   return SPIx->CRCPR;
 1265              		.loc 1 720 0
 1266 0008 7B68     		ldr	r3, [r7, #4]
 1267 000a 1B8A     		ldrh	r3, [r3, #16]	@ movhi
 1268 000c 9BB2     		uxth	r3, r3
 721:/home/virusv/TDSAST_IOT/Libraries/src/stm32f10x_spi.c **** }
 1269              		.loc 1 721 0
 1270 000e 1846     		mov	r0, r3
 1271 0010 0C37     		adds	r7, r7, #12
 1272              		.cfi_def_cfa_offset 4
 1273 0012 BD46     		mov	sp, r7
 1274              		.cfi_def_cfa_register 13
 1275              		@ sp needed
 1276 0014 5DF8047B 		ldr	r7, [sp], #4
 1277              		.cfi_restore 7
 1278              		.cfi_def_cfa_offset 0
 1279 0018 7047     		bx	lr
 1280              		.cfi_endproc
 1281              	.LFE46:
 1283 001a 00BF     		.section	.text.SPI_BiDirectionalLineConfig,"ax",%progbits
 1284              		.align	2
 1285              		.global	SPI_BiDirectionalLineConfig
 1286              		.thumb
 1287              		.thumb_func
 1289              	SPI_BiDirectionalLineConfig:
 1290              	.LFB47:
 722:/home/virusv/TDSAST_IOT/Libraries/src/stm32f10x_spi.c **** 
 723:/home/virusv/TDSAST_IOT/Libraries/src/stm32f10x_spi.c **** /**
 724:/home/virusv/TDSAST_IOT/Libraries/src/stm32f10x_spi.c ****   * @brief  Selects the data transfer direction in bi-directional mode for the specified SPI.
 725:/home/virusv/TDSAST_IOT/Libraries/src/stm32f10x_spi.c ****   * @param  SPIx: where x can be 1, 2 or 3 to select the SPI peripheral.
 726:/home/virusv/TDSAST_IOT/Libraries/src/stm32f10x_spi.c ****   * @param  SPI_Direction: specifies the data transfer direction in bi-directional mode. 
 727:/home/virusv/TDSAST_IOT/Libraries/src/stm32f10x_spi.c ****   *   This parameter can be one of the following values:
 728:/home/virusv/TDSAST_IOT/Libraries/src/stm32f10x_spi.c ****   *     @arg SPI_Direction_Tx: Selects Tx transmission direction
 729:/home/virusv/TDSAST_IOT/Libraries/src/stm32f10x_spi.c ****   *     @arg SPI_Direction_Rx: Selects Rx receive direction
 730:/home/virusv/TDSAST_IOT/Libraries/src/stm32f10x_spi.c ****   * @retval None
 731:/home/virusv/TDSAST_IOT/Libraries/src/stm32f10x_spi.c ****   */
 732:/home/virusv/TDSAST_IOT/Libraries/src/stm32f10x_spi.c **** void SPI_BiDirectionalLineConfig(SPI_TypeDef* SPIx, uint16_t SPI_Direction)
 733:/home/virusv/TDSAST_IOT/Libraries/src/stm32f10x_spi.c **** {
 1291              		.loc 1 733 0
 1292              		.cfi_startproc
 1293              		@ args = 0, pretend = 0, frame = 8
 1294              		@ frame_needed = 1, uses_anonymous_args = 0
 1295              		@ link register save eliminated.
 1296 0000 80B4     		push	{r7}
 1297              		.cfi_def_cfa_offset 4
 1298              		.cfi_offset 7, -4
 1299 0002 83B0     		sub	sp, sp, #12
 1300              		.cfi_def_cfa_offset 16
 1301 0004 00AF     		add	r7, sp, #0
 1302              		.cfi_def_cfa_register 7
 1303 0006 7860     		str	r0, [r7, #4]
 1304 0008 0B46     		mov	r3, r1
 1305 000a 7B80     		strh	r3, [r7, #2]	@ movhi
 734:/home/virusv/TDSAST_IOT/Libraries/src/stm32f10x_spi.c ****   /* Check the parameters */
 735:/home/virusv/TDSAST_IOT/Libraries/src/stm32f10x_spi.c ****   assert_param(IS_SPI_ALL_PERIPH(SPIx));
 736:/home/virusv/TDSAST_IOT/Libraries/src/stm32f10x_spi.c ****   assert_param(IS_SPI_DIRECTION(SPI_Direction));
 737:/home/virusv/TDSAST_IOT/Libraries/src/stm32f10x_spi.c ****   if (SPI_Direction == SPI_Direction_Tx)
 1306              		.loc 1 737 0
 1307 000c 7B88     		ldrh	r3, [r7, #2]
 1308 000e B3F5804F 		cmp	r3, #16384
 1309 0012 08D1     		bne	.L56
 738:/home/virusv/TDSAST_IOT/Libraries/src/stm32f10x_spi.c ****   {
 739:/home/virusv/TDSAST_IOT/Libraries/src/stm32f10x_spi.c ****     /* Set the Tx only mode */
 740:/home/virusv/TDSAST_IOT/Libraries/src/stm32f10x_spi.c ****     SPIx->CR1 |= SPI_Direction_Tx;
 1310              		.loc 1 740 0
 1311 0014 7B68     		ldr	r3, [r7, #4]
 1312 0016 1B88     		ldrh	r3, [r3]	@ movhi
 1313 0018 9BB2     		uxth	r3, r3
 1314 001a 43F48043 		orr	r3, r3, #16384
 1315 001e 9AB2     		uxth	r2, r3
 1316 0020 7B68     		ldr	r3, [r7, #4]
 1317 0022 1A80     		strh	r2, [r3]	@ movhi
 1318 0024 07E0     		b	.L55
 1319              	.L56:
 741:/home/virusv/TDSAST_IOT/Libraries/src/stm32f10x_spi.c ****   }
 742:/home/virusv/TDSAST_IOT/Libraries/src/stm32f10x_spi.c ****   else
 743:/home/virusv/TDSAST_IOT/Libraries/src/stm32f10x_spi.c ****   {
 744:/home/virusv/TDSAST_IOT/Libraries/src/stm32f10x_spi.c ****     /* Set the Rx only mode */
 745:/home/virusv/TDSAST_IOT/Libraries/src/stm32f10x_spi.c ****     SPIx->CR1 &= SPI_Direction_Rx;
 1320              		.loc 1 745 0
 1321 0026 7B68     		ldr	r3, [r7, #4]
 1322 0028 1B88     		ldrh	r3, [r3]	@ movhi
 1323 002a 9BB2     		uxth	r3, r3
 1324 002c 23F48043 		bic	r3, r3, #16384
 1325 0030 9AB2     		uxth	r2, r3
 1326 0032 7B68     		ldr	r3, [r7, #4]
 1327 0034 1A80     		strh	r2, [r3]	@ movhi
 1328              	.L55:
 746:/home/virusv/TDSAST_IOT/Libraries/src/stm32f10x_spi.c ****   }
 747:/home/virusv/TDSAST_IOT/Libraries/src/stm32f10x_spi.c **** }
 1329              		.loc 1 747 0
 1330 0036 0C37     		adds	r7, r7, #12
 1331              		.cfi_def_cfa_offset 4
 1332 0038 BD46     		mov	sp, r7
 1333              		.cfi_def_cfa_register 13
 1334              		@ sp needed
 1335 003a 5DF8047B 		ldr	r7, [sp], #4
 1336              		.cfi_restore 7
 1337              		.cfi_def_cfa_offset 0
 1338 003e 7047     		bx	lr
 1339              		.cfi_endproc
 1340              	.LFE47:
 1342              		.section	.text.SPI_I2S_GetFlagStatus,"ax",%progbits
 1343              		.align	2
 1344              		.global	SPI_I2S_GetFlagStatus
 1345              		.thumb
 1346              		.thumb_func
 1348              	SPI_I2S_GetFlagStatus:
 1349              	.LFB48:
 748:/home/virusv/TDSAST_IOT/Libraries/src/stm32f10x_spi.c **** 
 749:/home/virusv/TDSAST_IOT/Libraries/src/stm32f10x_spi.c **** /**
 750:/home/virusv/TDSAST_IOT/Libraries/src/stm32f10x_spi.c ****   * @brief  Checks whether the specified SPI/I2S flag is set or not.
 751:/home/virusv/TDSAST_IOT/Libraries/src/stm32f10x_spi.c ****   * @param  SPIx: where x can be
 752:/home/virusv/TDSAST_IOT/Libraries/src/stm32f10x_spi.c ****   *   - 1, 2 or 3 in SPI mode 
 753:/home/virusv/TDSAST_IOT/Libraries/src/stm32f10x_spi.c ****   *   - 2 or 3 in I2S mode
 754:/home/virusv/TDSAST_IOT/Libraries/src/stm32f10x_spi.c ****   * @param  SPI_I2S_FLAG: specifies the SPI/I2S flag to check. 
 755:/home/virusv/TDSAST_IOT/Libraries/src/stm32f10x_spi.c ****   *   This parameter can be one of the following values:
 756:/home/virusv/TDSAST_IOT/Libraries/src/stm32f10x_spi.c ****   *     @arg SPI_I2S_FLAG_TXE: Transmit buffer empty flag.
 757:/home/virusv/TDSAST_IOT/Libraries/src/stm32f10x_spi.c ****   *     @arg SPI_I2S_FLAG_RXNE: Receive buffer not empty flag.
 758:/home/virusv/TDSAST_IOT/Libraries/src/stm32f10x_spi.c ****   *     @arg SPI_I2S_FLAG_BSY: Busy flag.
 759:/home/virusv/TDSAST_IOT/Libraries/src/stm32f10x_spi.c ****   *     @arg SPI_I2S_FLAG_OVR: Overrun flag.
 760:/home/virusv/TDSAST_IOT/Libraries/src/stm32f10x_spi.c ****   *     @arg SPI_FLAG_MODF: Mode Fault flag.
 761:/home/virusv/TDSAST_IOT/Libraries/src/stm32f10x_spi.c ****   *     @arg SPI_FLAG_CRCERR: CRC Error flag.
 762:/home/virusv/TDSAST_IOT/Libraries/src/stm32f10x_spi.c ****   *     @arg I2S_FLAG_UDR: Underrun Error flag.
 763:/home/virusv/TDSAST_IOT/Libraries/src/stm32f10x_spi.c ****   *     @arg I2S_FLAG_CHSIDE: Channel Side flag.
 764:/home/virusv/TDSAST_IOT/Libraries/src/stm32f10x_spi.c ****   * @retval The new state of SPI_I2S_FLAG (SET or RESET).
 765:/home/virusv/TDSAST_IOT/Libraries/src/stm32f10x_spi.c ****   */
 766:/home/virusv/TDSAST_IOT/Libraries/src/stm32f10x_spi.c **** FlagStatus SPI_I2S_GetFlagStatus(SPI_TypeDef* SPIx, uint16_t SPI_I2S_FLAG)
 767:/home/virusv/TDSAST_IOT/Libraries/src/stm32f10x_spi.c **** {
 1350              		.loc 1 767 0
 1351              		.cfi_startproc
 1352              		@ args = 0, pretend = 0, frame = 16
 1353              		@ frame_needed = 1, uses_anonymous_args = 0
 1354              		@ link register save eliminated.
 1355 0000 80B4     		push	{r7}
 1356              		.cfi_def_cfa_offset 4
 1357              		.cfi_offset 7, -4
 1358 0002 85B0     		sub	sp, sp, #20
 1359              		.cfi_def_cfa_offset 24
 1360 0004 00AF     		add	r7, sp, #0
 1361              		.cfi_def_cfa_register 7
 1362 0006 7860     		str	r0, [r7, #4]
 1363 0008 0B46     		mov	r3, r1
 1364 000a 7B80     		strh	r3, [r7, #2]	@ movhi
 768:/home/virusv/TDSAST_IOT/Libraries/src/stm32f10x_spi.c ****   FlagStatus bitstatus = RESET;
 1365              		.loc 1 768 0
 1366 000c 0023     		movs	r3, #0
 1367 000e FB73     		strb	r3, [r7, #15]
 769:/home/virusv/TDSAST_IOT/Libraries/src/stm32f10x_spi.c ****   /* Check the parameters */
 770:/home/virusv/TDSAST_IOT/Libraries/src/stm32f10x_spi.c ****   assert_param(IS_SPI_ALL_PERIPH(SPIx));
 771:/home/virusv/TDSAST_IOT/Libraries/src/stm32f10x_spi.c ****   assert_param(IS_SPI_I2S_GET_FLAG(SPI_I2S_FLAG));
 772:/home/virusv/TDSAST_IOT/Libraries/src/stm32f10x_spi.c ****   /* Check the status of the specified SPI/I2S flag */
 773:/home/virusv/TDSAST_IOT/Libraries/src/stm32f10x_spi.c ****   if ((SPIx->SR & SPI_I2S_FLAG) != (uint16_t)RESET)
 1368              		.loc 1 773 0
 1369 0010 7B68     		ldr	r3, [r7, #4]
 1370 0012 1B89     		ldrh	r3, [r3, #8]	@ movhi
 1371 0014 9AB2     		uxth	r2, r3
 1372 0016 7B88     		ldrh	r3, [r7, #2]	@ movhi
 1373 0018 1340     		ands	r3, r3, r2
 1374 001a 9BB2     		uxth	r3, r3
 1375 001c 002B     		cmp	r3, #0
 1376 001e 02D0     		beq	.L59
 774:/home/virusv/TDSAST_IOT/Libraries/src/stm32f10x_spi.c ****   {
 775:/home/virusv/TDSAST_IOT/Libraries/src/stm32f10x_spi.c ****     /* SPI_I2S_FLAG is set */
 776:/home/virusv/TDSAST_IOT/Libraries/src/stm32f10x_spi.c ****     bitstatus = SET;
 1377              		.loc 1 776 0
 1378 0020 0123     		movs	r3, #1
 1379 0022 FB73     		strb	r3, [r7, #15]
 1380 0024 01E0     		b	.L60
 1381              	.L59:
 777:/home/virusv/TDSAST_IOT/Libraries/src/stm32f10x_spi.c ****   }
 778:/home/virusv/TDSAST_IOT/Libraries/src/stm32f10x_spi.c ****   else
 779:/home/virusv/TDSAST_IOT/Libraries/src/stm32f10x_spi.c ****   {
 780:/home/virusv/TDSAST_IOT/Libraries/src/stm32f10x_spi.c ****     /* SPI_I2S_FLAG is reset */
 781:/home/virusv/TDSAST_IOT/Libraries/src/stm32f10x_spi.c ****     bitstatus = RESET;
 1382              		.loc 1 781 0
 1383 0026 0023     		movs	r3, #0
 1384 0028 FB73     		strb	r3, [r7, #15]
 1385              	.L60:
 782:/home/virusv/TDSAST_IOT/Libraries/src/stm32f10x_spi.c ****   }
 783:/home/virusv/TDSAST_IOT/Libraries/src/stm32f10x_spi.c ****   /* Return the SPI_I2S_FLAG status */
 784:/home/virusv/TDSAST_IOT/Libraries/src/stm32f10x_spi.c ****   return  bitstatus;
 1386              		.loc 1 784 0
 1387 002a FB7B     		ldrb	r3, [r7, #15]	@ zero_extendqisi2
 785:/home/virusv/TDSAST_IOT/Libraries/src/stm32f10x_spi.c **** }
 1388              		.loc 1 785 0
 1389 002c 1846     		mov	r0, r3
 1390 002e 1437     		adds	r7, r7, #20
 1391              		.cfi_def_cfa_offset 4
 1392 0030 BD46     		mov	sp, r7
 1393              		.cfi_def_cfa_register 13
 1394              		@ sp needed
 1395 0032 5DF8047B 		ldr	r7, [sp], #4
 1396              		.cfi_restore 7
 1397              		.cfi_def_cfa_offset 0
 1398 0036 7047     		bx	lr
 1399              		.cfi_endproc
 1400              	.LFE48:
 1402              		.section	.text.SPI_I2S_ClearFlag,"ax",%progbits
 1403              		.align	2
 1404              		.global	SPI_I2S_ClearFlag
 1405              		.thumb
 1406              		.thumb_func
 1408              	SPI_I2S_ClearFlag:
 1409              	.LFB49:
 786:/home/virusv/TDSAST_IOT/Libraries/src/stm32f10x_spi.c **** 
 787:/home/virusv/TDSAST_IOT/Libraries/src/stm32f10x_spi.c **** /**
 788:/home/virusv/TDSAST_IOT/Libraries/src/stm32f10x_spi.c ****   * @brief  Clears the SPIx CRC Error (CRCERR) flag.
 789:/home/virusv/TDSAST_IOT/Libraries/src/stm32f10x_spi.c ****   * @param  SPIx: where x can be
 790:/home/virusv/TDSAST_IOT/Libraries/src/stm32f10x_spi.c ****   *   - 1, 2 or 3 in SPI mode 
 791:/home/virusv/TDSAST_IOT/Libraries/src/stm32f10x_spi.c ****   * @param  SPI_I2S_FLAG: specifies the SPI flag to clear. 
 792:/home/virusv/TDSAST_IOT/Libraries/src/stm32f10x_spi.c ****   *   This function clears only CRCERR flag.
 793:/home/virusv/TDSAST_IOT/Libraries/src/stm32f10x_spi.c ****   * @note
 794:/home/virusv/TDSAST_IOT/Libraries/src/stm32f10x_spi.c ****   *   - OVR (OverRun error) flag is cleared by software sequence: a read 
 795:/home/virusv/TDSAST_IOT/Libraries/src/stm32f10x_spi.c ****   *     operation to SPI_DR register (SPI_I2S_ReceiveData()) followed by a read 
 796:/home/virusv/TDSAST_IOT/Libraries/src/stm32f10x_spi.c ****   *     operation to SPI_SR register (SPI_I2S_GetFlagStatus()).
 797:/home/virusv/TDSAST_IOT/Libraries/src/stm32f10x_spi.c ****   *   - UDR (UnderRun error) flag is cleared by a read operation to 
 798:/home/virusv/TDSAST_IOT/Libraries/src/stm32f10x_spi.c ****   *     SPI_SR register (SPI_I2S_GetFlagStatus()).
 799:/home/virusv/TDSAST_IOT/Libraries/src/stm32f10x_spi.c ****   *   - MODF (Mode Fault) flag is cleared by software sequence: a read/write 
 800:/home/virusv/TDSAST_IOT/Libraries/src/stm32f10x_spi.c ****   *     operation to SPI_SR register (SPI_I2S_GetFlagStatus()) followed by a 
 801:/home/virusv/TDSAST_IOT/Libraries/src/stm32f10x_spi.c ****   *     write operation to SPI_CR1 register (SPI_Cmd() to enable the SPI).
 802:/home/virusv/TDSAST_IOT/Libraries/src/stm32f10x_spi.c ****   * @retval None
 803:/home/virusv/TDSAST_IOT/Libraries/src/stm32f10x_spi.c ****   */
 804:/home/virusv/TDSAST_IOT/Libraries/src/stm32f10x_spi.c **** void SPI_I2S_ClearFlag(SPI_TypeDef* SPIx, uint16_t SPI_I2S_FLAG)
 805:/home/virusv/TDSAST_IOT/Libraries/src/stm32f10x_spi.c **** {
 1410              		.loc 1 805 0
 1411              		.cfi_startproc
 1412              		@ args = 0, pretend = 0, frame = 8
 1413              		@ frame_needed = 1, uses_anonymous_args = 0
 1414              		@ link register save eliminated.
 1415 0000 80B4     		push	{r7}
 1416              		.cfi_def_cfa_offset 4
 1417              		.cfi_offset 7, -4
 1418 0002 83B0     		sub	sp, sp, #12
 1419              		.cfi_def_cfa_offset 16
 1420 0004 00AF     		add	r7, sp, #0
 1421              		.cfi_def_cfa_register 7
 1422 0006 7860     		str	r0, [r7, #4]
 1423 0008 0B46     		mov	r3, r1
 1424 000a 7B80     		strh	r3, [r7, #2]	@ movhi
 806:/home/virusv/TDSAST_IOT/Libraries/src/stm32f10x_spi.c ****   /* Check the parameters */
 807:/home/virusv/TDSAST_IOT/Libraries/src/stm32f10x_spi.c ****   assert_param(IS_SPI_ALL_PERIPH(SPIx));
 808:/home/virusv/TDSAST_IOT/Libraries/src/stm32f10x_spi.c ****   assert_param(IS_SPI_I2S_CLEAR_FLAG(SPI_I2S_FLAG));
 809:/home/virusv/TDSAST_IOT/Libraries/src/stm32f10x_spi.c ****     
 810:/home/virusv/TDSAST_IOT/Libraries/src/stm32f10x_spi.c ****     /* Clear the selected SPI CRC Error (CRCERR) flag */
 811:/home/virusv/TDSAST_IOT/Libraries/src/stm32f10x_spi.c ****     SPIx->SR = (uint16_t)~SPI_I2S_FLAG;
 1425              		.loc 1 811 0
 1426 000c 7B88     		ldrh	r3, [r7, #2]	@ movhi
 1427 000e DB43     		mvns	r3, r3
 1428 0010 9AB2     		uxth	r2, r3
 1429 0012 7B68     		ldr	r3, [r7, #4]
 1430 0014 1A81     		strh	r2, [r3, #8]	@ movhi
 812:/home/virusv/TDSAST_IOT/Libraries/src/stm32f10x_spi.c **** }
 1431              		.loc 1 812 0
 1432 0016 0C37     		adds	r7, r7, #12
 1433              		.cfi_def_cfa_offset 4
 1434 0018 BD46     		mov	sp, r7
 1435              		.cfi_def_cfa_register 13
 1436              		@ sp needed
 1437 001a 5DF8047B 		ldr	r7, [sp], #4
 1438              		.cfi_restore 7
 1439              		.cfi_def_cfa_offset 0
 1440 001e 7047     		bx	lr
 1441              		.cfi_endproc
 1442              	.LFE49:
 1444              		.section	.text.SPI_I2S_GetITStatus,"ax",%progbits
 1445              		.align	2
 1446              		.global	SPI_I2S_GetITStatus
 1447              		.thumb
 1448              		.thumb_func
 1450              	SPI_I2S_GetITStatus:
 1451              	.LFB50:
 813:/home/virusv/TDSAST_IOT/Libraries/src/stm32f10x_spi.c **** 
 814:/home/virusv/TDSAST_IOT/Libraries/src/stm32f10x_spi.c **** /**
 815:/home/virusv/TDSAST_IOT/Libraries/src/stm32f10x_spi.c ****   * @brief  Checks whether the specified SPI/I2S interrupt has occurred or not.
 816:/home/virusv/TDSAST_IOT/Libraries/src/stm32f10x_spi.c ****   * @param  SPIx: where x can be
 817:/home/virusv/TDSAST_IOT/Libraries/src/stm32f10x_spi.c ****   *   - 1, 2 or 3 in SPI mode 
 818:/home/virusv/TDSAST_IOT/Libraries/src/stm32f10x_spi.c ****   *   - 2 or 3 in I2S mode
 819:/home/virusv/TDSAST_IOT/Libraries/src/stm32f10x_spi.c ****   * @param  SPI_I2S_IT: specifies the SPI/I2S interrupt source to check. 
 820:/home/virusv/TDSAST_IOT/Libraries/src/stm32f10x_spi.c ****   *   This parameter can be one of the following values:
 821:/home/virusv/TDSAST_IOT/Libraries/src/stm32f10x_spi.c ****   *     @arg SPI_I2S_IT_TXE: Transmit buffer empty interrupt.
 822:/home/virusv/TDSAST_IOT/Libraries/src/stm32f10x_spi.c ****   *     @arg SPI_I2S_IT_RXNE: Receive buffer not empty interrupt.
 823:/home/virusv/TDSAST_IOT/Libraries/src/stm32f10x_spi.c ****   *     @arg SPI_I2S_IT_OVR: Overrun interrupt.
 824:/home/virusv/TDSAST_IOT/Libraries/src/stm32f10x_spi.c ****   *     @arg SPI_IT_MODF: Mode Fault interrupt.
 825:/home/virusv/TDSAST_IOT/Libraries/src/stm32f10x_spi.c ****   *     @arg SPI_IT_CRCERR: CRC Error interrupt.
 826:/home/virusv/TDSAST_IOT/Libraries/src/stm32f10x_spi.c ****   *     @arg I2S_IT_UDR: Underrun Error interrupt.
 827:/home/virusv/TDSAST_IOT/Libraries/src/stm32f10x_spi.c ****   * @retval The new state of SPI_I2S_IT (SET or RESET).
 828:/home/virusv/TDSAST_IOT/Libraries/src/stm32f10x_spi.c ****   */
 829:/home/virusv/TDSAST_IOT/Libraries/src/stm32f10x_spi.c **** ITStatus SPI_I2S_GetITStatus(SPI_TypeDef* SPIx, uint8_t SPI_I2S_IT)
 830:/home/virusv/TDSAST_IOT/Libraries/src/stm32f10x_spi.c **** {
 1452              		.loc 1 830 0
 1453              		.cfi_startproc
 1454              		@ args = 0, pretend = 0, frame = 16
 1455              		@ frame_needed = 1, uses_anonymous_args = 0
 1456              		@ link register save eliminated.
 1457 0000 80B4     		push	{r7}
 1458              		.cfi_def_cfa_offset 4
 1459              		.cfi_offset 7, -4
 1460 0002 85B0     		sub	sp, sp, #20
 1461              		.cfi_def_cfa_offset 24
 1462 0004 00AF     		add	r7, sp, #0
 1463              		.cfi_def_cfa_register 7
 1464 0006 7860     		str	r0, [r7, #4]
 1465 0008 0B46     		mov	r3, r1
 1466 000a FB70     		strb	r3, [r7, #3]
 831:/home/virusv/TDSAST_IOT/Libraries/src/stm32f10x_spi.c ****   ITStatus bitstatus = RESET;
 1467              		.loc 1 831 0
 1468 000c 0023     		movs	r3, #0
 1469 000e FB73     		strb	r3, [r7, #15]
 832:/home/virusv/TDSAST_IOT/Libraries/src/stm32f10x_spi.c ****   uint16_t itpos = 0, itmask = 0, enablestatus = 0;
 1470              		.loc 1 832 0
 1471 0010 0023     		movs	r3, #0
 1472 0012 BB81     		strh	r3, [r7, #12]	@ movhi
 1473 0014 0023     		movs	r3, #0
 1474 0016 7B81     		strh	r3, [r7, #10]	@ movhi
 1475 0018 0023     		movs	r3, #0
 1476 001a 3B81     		strh	r3, [r7, #8]	@ movhi
 833:/home/virusv/TDSAST_IOT/Libraries/src/stm32f10x_spi.c **** 
 834:/home/virusv/TDSAST_IOT/Libraries/src/stm32f10x_spi.c ****   /* Check the parameters */
 835:/home/virusv/TDSAST_IOT/Libraries/src/stm32f10x_spi.c ****   assert_param(IS_SPI_ALL_PERIPH(SPIx));
 836:/home/virusv/TDSAST_IOT/Libraries/src/stm32f10x_spi.c ****   assert_param(IS_SPI_I2S_GET_IT(SPI_I2S_IT));
 837:/home/virusv/TDSAST_IOT/Libraries/src/stm32f10x_spi.c **** 
 838:/home/virusv/TDSAST_IOT/Libraries/src/stm32f10x_spi.c ****   /* Get the SPI/I2S IT index */
 839:/home/virusv/TDSAST_IOT/Libraries/src/stm32f10x_spi.c ****   itpos = 0x01 << (SPI_I2S_IT & 0x0F);
 1477              		.loc 1 839 0
 1478 001c FB78     		ldrb	r3, [r7, #3]	@ zero_extendqisi2
 1479 001e 03F00F03 		and	r3, r3, #15
 1480 0022 0122     		movs	r2, #1
 1481 0024 02FA03F3 		lsl	r3, r2, r3
 1482 0028 BB81     		strh	r3, [r7, #12]	@ movhi
 840:/home/virusv/TDSAST_IOT/Libraries/src/stm32f10x_spi.c **** 
 841:/home/virusv/TDSAST_IOT/Libraries/src/stm32f10x_spi.c ****   /* Get the SPI/I2S IT mask */
 842:/home/virusv/TDSAST_IOT/Libraries/src/stm32f10x_spi.c ****   itmask = SPI_I2S_IT >> 4;
 1483              		.loc 1 842 0
 1484 002a FB78     		ldrb	r3, [r7, #3]	@ zero_extendqisi2
 1485 002c 1B09     		lsrs	r3, r3, #4
 1486 002e DBB2     		uxtb	r3, r3
 1487 0030 7B81     		strh	r3, [r7, #10]	@ movhi
 843:/home/virusv/TDSAST_IOT/Libraries/src/stm32f10x_spi.c **** 
 844:/home/virusv/TDSAST_IOT/Libraries/src/stm32f10x_spi.c ****   /* Set the IT mask */
 845:/home/virusv/TDSAST_IOT/Libraries/src/stm32f10x_spi.c ****   itmask = 0x01 << itmask;
 1488              		.loc 1 845 0
 1489 0032 7B89     		ldrh	r3, [r7, #10]
 1490 0034 0122     		movs	r2, #1
 1491 0036 02FA03F3 		lsl	r3, r2, r3
 1492 003a 7B81     		strh	r3, [r7, #10]	@ movhi
 846:/home/virusv/TDSAST_IOT/Libraries/src/stm32f10x_spi.c **** 
 847:/home/virusv/TDSAST_IOT/Libraries/src/stm32f10x_spi.c ****   /* Get the SPI_I2S_IT enable bit status */
 848:/home/virusv/TDSAST_IOT/Libraries/src/stm32f10x_spi.c ****   enablestatus = (SPIx->CR2 & itmask) ;
 1493              		.loc 1 848 0
 1494 003c 7B68     		ldr	r3, [r7, #4]
 1495 003e 9B88     		ldrh	r3, [r3, #4]	@ movhi
 1496 0040 9AB2     		uxth	r2, r3
 1497 0042 7B89     		ldrh	r3, [r7, #10]	@ movhi
 1498 0044 1340     		ands	r3, r3, r2
 1499 0046 3B81     		strh	r3, [r7, #8]	@ movhi
 849:/home/virusv/TDSAST_IOT/Libraries/src/stm32f10x_spi.c **** 
 850:/home/virusv/TDSAST_IOT/Libraries/src/stm32f10x_spi.c ****   /* Check the status of the specified SPI/I2S interrupt */
 851:/home/virusv/TDSAST_IOT/Libraries/src/stm32f10x_spi.c ****   if (((SPIx->SR & itpos) != (uint16_t)RESET) && enablestatus)
 1500              		.loc 1 851 0
 1501 0048 7B68     		ldr	r3, [r7, #4]
 1502 004a 1B89     		ldrh	r3, [r3, #8]	@ movhi
 1503 004c 9AB2     		uxth	r2, r3
 1504 004e BB89     		ldrh	r3, [r7, #12]	@ movhi
 1505 0050 1340     		ands	r3, r3, r2
 1506 0052 9BB2     		uxth	r3, r3
 1507 0054 002B     		cmp	r3, #0
 1508 0056 05D0     		beq	.L64
 1509              		.loc 1 851 0 is_stmt 0 discriminator 1
 1510 0058 3B89     		ldrh	r3, [r7, #8]
 1511 005a 002B     		cmp	r3, #0
 1512 005c 02D0     		beq	.L64
 852:/home/virusv/TDSAST_IOT/Libraries/src/stm32f10x_spi.c ****   {
 853:/home/virusv/TDSAST_IOT/Libraries/src/stm32f10x_spi.c ****     /* SPI_I2S_IT is set */
 854:/home/virusv/TDSAST_IOT/Libraries/src/stm32f10x_spi.c ****     bitstatus = SET;
 1513              		.loc 1 854 0 is_stmt 1
 1514 005e 0123     		movs	r3, #1
 1515 0060 FB73     		strb	r3, [r7, #15]
 1516 0062 01E0     		b	.L65
 1517              	.L64:
 855:/home/virusv/TDSAST_IOT/Libraries/src/stm32f10x_spi.c ****   }
 856:/home/virusv/TDSAST_IOT/Libraries/src/stm32f10x_spi.c ****   else
 857:/home/virusv/TDSAST_IOT/Libraries/src/stm32f10x_spi.c ****   {
 858:/home/virusv/TDSAST_IOT/Libraries/src/stm32f10x_spi.c ****     /* SPI_I2S_IT is reset */
 859:/home/virusv/TDSAST_IOT/Libraries/src/stm32f10x_spi.c ****     bitstatus = RESET;
 1518              		.loc 1 859 0
 1519 0064 0023     		movs	r3, #0
 1520 0066 FB73     		strb	r3, [r7, #15]
 1521              	.L65:
 860:/home/virusv/TDSAST_IOT/Libraries/src/stm32f10x_spi.c ****   }
 861:/home/virusv/TDSAST_IOT/Libraries/src/stm32f10x_spi.c ****   /* Return the SPI_I2S_IT status */
 862:/home/virusv/TDSAST_IOT/Libraries/src/stm32f10x_spi.c ****   return bitstatus;
 1522              		.loc 1 862 0
 1523 0068 FB7B     		ldrb	r3, [r7, #15]	@ zero_extendqisi2
 863:/home/virusv/TDSAST_IOT/Libraries/src/stm32f10x_spi.c **** }
 1524              		.loc 1 863 0
 1525 006a 1846     		mov	r0, r3
 1526 006c 1437     		adds	r7, r7, #20
 1527              		.cfi_def_cfa_offset 4
 1528 006e BD46     		mov	sp, r7
 1529              		.cfi_def_cfa_register 13
 1530              		@ sp needed
 1531 0070 5DF8047B 		ldr	r7, [sp], #4
 1532              		.cfi_restore 7
 1533              		.cfi_def_cfa_offset 0
 1534 0074 7047     		bx	lr
 1535              		.cfi_endproc
 1536              	.LFE50:
 1538 0076 00BF     		.section	.text.SPI_I2S_ClearITPendingBit,"ax",%progbits
 1539              		.align	2
 1540              		.global	SPI_I2S_ClearITPendingBit
 1541              		.thumb
 1542              		.thumb_func
 1544              	SPI_I2S_ClearITPendingBit:
 1545              	.LFB51:
 864:/home/virusv/TDSAST_IOT/Libraries/src/stm32f10x_spi.c **** 
 865:/home/virusv/TDSAST_IOT/Libraries/src/stm32f10x_spi.c **** /**
 866:/home/virusv/TDSAST_IOT/Libraries/src/stm32f10x_spi.c ****   * @brief  Clears the SPIx CRC Error (CRCERR) interrupt pending bit.
 867:/home/virusv/TDSAST_IOT/Libraries/src/stm32f10x_spi.c ****   * @param  SPIx: where x can be
 868:/home/virusv/TDSAST_IOT/Libraries/src/stm32f10x_spi.c ****   *   - 1, 2 or 3 in SPI mode 
 869:/home/virusv/TDSAST_IOT/Libraries/src/stm32f10x_spi.c ****   * @param  SPI_I2S_IT: specifies the SPI interrupt pending bit to clear.
 870:/home/virusv/TDSAST_IOT/Libraries/src/stm32f10x_spi.c ****   *   This function clears only CRCERR interrupt pending bit.   
 871:/home/virusv/TDSAST_IOT/Libraries/src/stm32f10x_spi.c ****   * @note
 872:/home/virusv/TDSAST_IOT/Libraries/src/stm32f10x_spi.c ****   *   - OVR (OverRun Error) interrupt pending bit is cleared by software 
 873:/home/virusv/TDSAST_IOT/Libraries/src/stm32f10x_spi.c ****   *     sequence: a read operation to SPI_DR register (SPI_I2S_ReceiveData()) 
 874:/home/virusv/TDSAST_IOT/Libraries/src/stm32f10x_spi.c ****   *     followed by a read operation to SPI_SR register (SPI_I2S_GetITStatus()).
 875:/home/virusv/TDSAST_IOT/Libraries/src/stm32f10x_spi.c ****   *   - UDR (UnderRun Error) interrupt pending bit is cleared by a read 
 876:/home/virusv/TDSAST_IOT/Libraries/src/stm32f10x_spi.c ****   *     operation to SPI_SR register (SPI_I2S_GetITStatus()).
 877:/home/virusv/TDSAST_IOT/Libraries/src/stm32f10x_spi.c ****   *   - MODF (Mode Fault) interrupt pending bit is cleared by software sequence:
 878:/home/virusv/TDSAST_IOT/Libraries/src/stm32f10x_spi.c ****   *     a read/write operation to SPI_SR register (SPI_I2S_GetITStatus()) 
 879:/home/virusv/TDSAST_IOT/Libraries/src/stm32f10x_spi.c ****   *     followed by a write operation to SPI_CR1 register (SPI_Cmd() to enable 
 880:/home/virusv/TDSAST_IOT/Libraries/src/stm32f10x_spi.c ****   *     the SPI).
 881:/home/virusv/TDSAST_IOT/Libraries/src/stm32f10x_spi.c ****   * @retval None
 882:/home/virusv/TDSAST_IOT/Libraries/src/stm32f10x_spi.c ****   */
 883:/home/virusv/TDSAST_IOT/Libraries/src/stm32f10x_spi.c **** void SPI_I2S_ClearITPendingBit(SPI_TypeDef* SPIx, uint8_t SPI_I2S_IT)
 884:/home/virusv/TDSAST_IOT/Libraries/src/stm32f10x_spi.c **** {
 1546              		.loc 1 884 0
 1547              		.cfi_startproc
 1548              		@ args = 0, pretend = 0, frame = 16
 1549              		@ frame_needed = 1, uses_anonymous_args = 0
 1550              		@ link register save eliminated.
 1551 0000 80B4     		push	{r7}
 1552              		.cfi_def_cfa_offset 4
 1553              		.cfi_offset 7, -4
 1554 0002 85B0     		sub	sp, sp, #20
 1555              		.cfi_def_cfa_offset 24
 1556 0004 00AF     		add	r7, sp, #0
 1557              		.cfi_def_cfa_register 7
 1558 0006 7860     		str	r0, [r7, #4]
 1559 0008 0B46     		mov	r3, r1
 1560 000a FB70     		strb	r3, [r7, #3]
 885:/home/virusv/TDSAST_IOT/Libraries/src/stm32f10x_spi.c ****   uint16_t itpos = 0;
 1561              		.loc 1 885 0
 1562 000c 0023     		movs	r3, #0
 1563 000e FB81     		strh	r3, [r7, #14]	@ movhi
 886:/home/virusv/TDSAST_IOT/Libraries/src/stm32f10x_spi.c ****   /* Check the parameters */
 887:/home/virusv/TDSAST_IOT/Libraries/src/stm32f10x_spi.c ****   assert_param(IS_SPI_ALL_PERIPH(SPIx));
 888:/home/virusv/TDSAST_IOT/Libraries/src/stm32f10x_spi.c ****   assert_param(IS_SPI_I2S_CLEAR_IT(SPI_I2S_IT));
 889:/home/virusv/TDSAST_IOT/Libraries/src/stm32f10x_spi.c **** 
 890:/home/virusv/TDSAST_IOT/Libraries/src/stm32f10x_spi.c ****   /* Get the SPI IT index */
 891:/home/virusv/TDSAST_IOT/Libraries/src/stm32f10x_spi.c ****   itpos = 0x01 << (SPI_I2S_IT & 0x0F);
 1564              		.loc 1 891 0
 1565 0010 FB78     		ldrb	r3, [r7, #3]	@ zero_extendqisi2
 1566 0012 03F00F03 		and	r3, r3, #15
 1567 0016 0122     		movs	r2, #1
 1568 0018 02FA03F3 		lsl	r3, r2, r3
 1569 001c FB81     		strh	r3, [r7, #14]	@ movhi
 892:/home/virusv/TDSAST_IOT/Libraries/src/stm32f10x_spi.c **** 
 893:/home/virusv/TDSAST_IOT/Libraries/src/stm32f10x_spi.c ****   /* Clear the selected SPI CRC Error (CRCERR) interrupt pending bit */
 894:/home/virusv/TDSAST_IOT/Libraries/src/stm32f10x_spi.c ****   SPIx->SR = (uint16_t)~itpos;
 1570              		.loc 1 894 0
 1571 001e FB89     		ldrh	r3, [r7, #14]	@ movhi
 1572 0020 DB43     		mvns	r3, r3
 1573 0022 9AB2     		uxth	r2, r3
 1574 0024 7B68     		ldr	r3, [r7, #4]
 1575 0026 1A81     		strh	r2, [r3, #8]	@ movhi
 895:/home/virusv/TDSAST_IOT/Libraries/src/stm32f10x_spi.c **** }
 1576              		.loc 1 895 0
 1577 0028 1437     		adds	r7, r7, #20
 1578              		.cfi_def_cfa_offset 4
 1579 002a BD46     		mov	sp, r7
 1580              		.cfi_def_cfa_register 13
 1581              		@ sp needed
 1582 002c 5DF8047B 		ldr	r7, [sp], #4
 1583              		.cfi_restore 7
 1584              		.cfi_def_cfa_offset 0
 1585 0030 7047     		bx	lr
 1586              		.cfi_endproc
 1587              	.LFE51:
 1589 0032 00BF     		.text
 1590              	.Letext0:
 1591              		.file 2 "/usr/include/newlib/machine/_default_types.h"
 1592              		.file 3 "/usr/include/newlib/sys/_stdint.h"
 1593              		.file 4 "/home/virusv/TDSAST_IOT/CMSIS/CM3/DeviceSupport/ST/STM32F10x/stm32f10x.h"
 1594              		.file 5 "/home/virusv/TDSAST_IOT/Libraries/inc/stm32f10x_rcc.h"
 1595              		.file 6 "/home/virusv/TDSAST_IOT/Libraries/inc/stm32f10x_spi.h"
 1596              		.file 7 "/home/virusv/TDSAST_IOT/CMSIS/CM3/CoreSupport/core_cm3.h"