   1              		.syntax unified
   2              		.cpu cortex-m3
   3              		.fpu softvfp
   4              		.eabi_attribute 20, 1
   5              		.eabi_attribute 21, 1
   6              		.eabi_attribute 23, 3
   7              		.eabi_attribute 24, 1
   8              		.eabi_attribute 25, 1
   9              		.eabi_attribute 26, 1
  10              		.eabi_attribute 30, 6
  11              		.eabi_attribute 34, 1
  12              		.eabi_attribute 18, 4
  13              		.thumb
  14              		.syntax unified
  15              		.file	"stm32f10x_exti.c"
  16              		.text
  17              	.Ltext0:
  18              		.cfi_sections	.debug_frame
  19              		.section	.text.EXTI_DeInit,"ax",%progbits
  20              		.align	2
  21              		.global	EXTI_DeInit
  22              		.thumb
  23              		.thumb_func
  25              	EXTI_DeInit:
  26              	.LFB29:
  27              		.file 1 "/home/virusv/TDASAT-IOT/Libraries/src/stm32f10x_exti.c"
   1:/home/virusv/TDASAT-IOT/Libraries/src/stm32f10x_exti.c **** /**
   2:/home/virusv/TDASAT-IOT/Libraries/src/stm32f10x_exti.c ****   ******************************************************************************
   3:/home/virusv/TDASAT-IOT/Libraries/src/stm32f10x_exti.c ****   * @file    stm32f10x_exti.c
   4:/home/virusv/TDASAT-IOT/Libraries/src/stm32f10x_exti.c ****   * @author  MCD Application Team
   5:/home/virusv/TDASAT-IOT/Libraries/src/stm32f10x_exti.c ****   * @version V3.5.0
   6:/home/virusv/TDASAT-IOT/Libraries/src/stm32f10x_exti.c ****   * @date    11-March-2011
   7:/home/virusv/TDASAT-IOT/Libraries/src/stm32f10x_exti.c ****   * @brief   This file provides all the EXTI firmware functions.
   8:/home/virusv/TDASAT-IOT/Libraries/src/stm32f10x_exti.c ****   ******************************************************************************
   9:/home/virusv/TDASAT-IOT/Libraries/src/stm32f10x_exti.c ****   * @attention
  10:/home/virusv/TDASAT-IOT/Libraries/src/stm32f10x_exti.c ****   *
  11:/home/virusv/TDASAT-IOT/Libraries/src/stm32f10x_exti.c ****   * THE PRESENT FIRMWARE WHICH IS FOR GUIDANCE ONLY AIMS AT PROVIDING CUSTOMERS
  12:/home/virusv/TDASAT-IOT/Libraries/src/stm32f10x_exti.c ****   * WITH CODING INFORMATION REGARDING THEIR PRODUCTS IN ORDER FOR THEM TO SAVE
  13:/home/virusv/TDASAT-IOT/Libraries/src/stm32f10x_exti.c ****   * TIME. AS A RESULT, STMICROELECTRONICS SHALL NOT BE HELD LIABLE FOR ANY
  14:/home/virusv/TDASAT-IOT/Libraries/src/stm32f10x_exti.c ****   * DIRECT, INDIRECT OR CONSEQUENTIAL DAMAGES WITH RESPECT TO ANY CLAIMS ARISING
  15:/home/virusv/TDASAT-IOT/Libraries/src/stm32f10x_exti.c ****   * FROM THE CONTENT OF SUCH FIRMWARE AND/OR THE USE MADE BY CUSTOMERS OF THE
  16:/home/virusv/TDASAT-IOT/Libraries/src/stm32f10x_exti.c ****   * CODING INFORMATION CONTAINED HEREIN IN CONNECTION WITH THEIR PRODUCTS.
  17:/home/virusv/TDASAT-IOT/Libraries/src/stm32f10x_exti.c ****   *
  18:/home/virusv/TDASAT-IOT/Libraries/src/stm32f10x_exti.c ****   * <h2><center>&copy; COPYRIGHT 2011 STMicroelectronics</center></h2>
  19:/home/virusv/TDASAT-IOT/Libraries/src/stm32f10x_exti.c ****   ******************************************************************************
  20:/home/virusv/TDASAT-IOT/Libraries/src/stm32f10x_exti.c ****   */
  21:/home/virusv/TDASAT-IOT/Libraries/src/stm32f10x_exti.c **** 
  22:/home/virusv/TDASAT-IOT/Libraries/src/stm32f10x_exti.c **** /* Includes ------------------------------------------------------------------*/
  23:/home/virusv/TDASAT-IOT/Libraries/src/stm32f10x_exti.c **** #include "stm32f10x_exti.h"
  24:/home/virusv/TDASAT-IOT/Libraries/src/stm32f10x_exti.c **** 
  25:/home/virusv/TDASAT-IOT/Libraries/src/stm32f10x_exti.c **** /** @addtogroup STM32F10x_StdPeriph_Driver
  26:/home/virusv/TDASAT-IOT/Libraries/src/stm32f10x_exti.c ****   * @{
  27:/home/virusv/TDASAT-IOT/Libraries/src/stm32f10x_exti.c ****   */
  28:/home/virusv/TDASAT-IOT/Libraries/src/stm32f10x_exti.c **** 
  29:/home/virusv/TDASAT-IOT/Libraries/src/stm32f10x_exti.c **** /** @defgroup EXTI 
  30:/home/virusv/TDASAT-IOT/Libraries/src/stm32f10x_exti.c ****   * @brief EXTI driver modules
  31:/home/virusv/TDASAT-IOT/Libraries/src/stm32f10x_exti.c ****   * @{
  32:/home/virusv/TDASAT-IOT/Libraries/src/stm32f10x_exti.c ****   */
  33:/home/virusv/TDASAT-IOT/Libraries/src/stm32f10x_exti.c **** 
  34:/home/virusv/TDASAT-IOT/Libraries/src/stm32f10x_exti.c **** /** @defgroup EXTI_Private_TypesDefinitions
  35:/home/virusv/TDASAT-IOT/Libraries/src/stm32f10x_exti.c ****   * @{
  36:/home/virusv/TDASAT-IOT/Libraries/src/stm32f10x_exti.c ****   */
  37:/home/virusv/TDASAT-IOT/Libraries/src/stm32f10x_exti.c **** 
  38:/home/virusv/TDASAT-IOT/Libraries/src/stm32f10x_exti.c **** /**
  39:/home/virusv/TDASAT-IOT/Libraries/src/stm32f10x_exti.c ****   * @}
  40:/home/virusv/TDASAT-IOT/Libraries/src/stm32f10x_exti.c ****   */
  41:/home/virusv/TDASAT-IOT/Libraries/src/stm32f10x_exti.c **** 
  42:/home/virusv/TDASAT-IOT/Libraries/src/stm32f10x_exti.c **** /** @defgroup EXTI_Private_Defines
  43:/home/virusv/TDASAT-IOT/Libraries/src/stm32f10x_exti.c ****   * @{
  44:/home/virusv/TDASAT-IOT/Libraries/src/stm32f10x_exti.c ****   */
  45:/home/virusv/TDASAT-IOT/Libraries/src/stm32f10x_exti.c **** 
  46:/home/virusv/TDASAT-IOT/Libraries/src/stm32f10x_exti.c **** #define EXTI_LINENONE    ((uint32_t)0x00000)  /* No interrupt selected */
  47:/home/virusv/TDASAT-IOT/Libraries/src/stm32f10x_exti.c **** 
  48:/home/virusv/TDASAT-IOT/Libraries/src/stm32f10x_exti.c **** /**
  49:/home/virusv/TDASAT-IOT/Libraries/src/stm32f10x_exti.c ****   * @}
  50:/home/virusv/TDASAT-IOT/Libraries/src/stm32f10x_exti.c ****   */
  51:/home/virusv/TDASAT-IOT/Libraries/src/stm32f10x_exti.c **** 
  52:/home/virusv/TDASAT-IOT/Libraries/src/stm32f10x_exti.c **** /** @defgroup EXTI_Private_Macros
  53:/home/virusv/TDASAT-IOT/Libraries/src/stm32f10x_exti.c ****   * @{
  54:/home/virusv/TDASAT-IOT/Libraries/src/stm32f10x_exti.c ****   */
  55:/home/virusv/TDASAT-IOT/Libraries/src/stm32f10x_exti.c **** 
  56:/home/virusv/TDASAT-IOT/Libraries/src/stm32f10x_exti.c **** /**
  57:/home/virusv/TDASAT-IOT/Libraries/src/stm32f10x_exti.c ****   * @}
  58:/home/virusv/TDASAT-IOT/Libraries/src/stm32f10x_exti.c ****   */
  59:/home/virusv/TDASAT-IOT/Libraries/src/stm32f10x_exti.c **** 
  60:/home/virusv/TDASAT-IOT/Libraries/src/stm32f10x_exti.c **** /** @defgroup EXTI_Private_Variables
  61:/home/virusv/TDASAT-IOT/Libraries/src/stm32f10x_exti.c ****   * @{
  62:/home/virusv/TDASAT-IOT/Libraries/src/stm32f10x_exti.c ****   */
  63:/home/virusv/TDASAT-IOT/Libraries/src/stm32f10x_exti.c **** 
  64:/home/virusv/TDASAT-IOT/Libraries/src/stm32f10x_exti.c **** /**
  65:/home/virusv/TDASAT-IOT/Libraries/src/stm32f10x_exti.c ****   * @}
  66:/home/virusv/TDASAT-IOT/Libraries/src/stm32f10x_exti.c ****   */
  67:/home/virusv/TDASAT-IOT/Libraries/src/stm32f10x_exti.c **** 
  68:/home/virusv/TDASAT-IOT/Libraries/src/stm32f10x_exti.c **** /** @defgroup EXTI_Private_FunctionPrototypes
  69:/home/virusv/TDASAT-IOT/Libraries/src/stm32f10x_exti.c ****   * @{
  70:/home/virusv/TDASAT-IOT/Libraries/src/stm32f10x_exti.c ****   */
  71:/home/virusv/TDASAT-IOT/Libraries/src/stm32f10x_exti.c **** 
  72:/home/virusv/TDASAT-IOT/Libraries/src/stm32f10x_exti.c **** /**
  73:/home/virusv/TDASAT-IOT/Libraries/src/stm32f10x_exti.c ****   * @}
  74:/home/virusv/TDASAT-IOT/Libraries/src/stm32f10x_exti.c ****   */
  75:/home/virusv/TDASAT-IOT/Libraries/src/stm32f10x_exti.c **** 
  76:/home/virusv/TDASAT-IOT/Libraries/src/stm32f10x_exti.c **** /** @defgroup EXTI_Private_Functions
  77:/home/virusv/TDASAT-IOT/Libraries/src/stm32f10x_exti.c ****   * @{
  78:/home/virusv/TDASAT-IOT/Libraries/src/stm32f10x_exti.c ****   */
  79:/home/virusv/TDASAT-IOT/Libraries/src/stm32f10x_exti.c **** 
  80:/home/virusv/TDASAT-IOT/Libraries/src/stm32f10x_exti.c **** /**
  81:/home/virusv/TDASAT-IOT/Libraries/src/stm32f10x_exti.c ****   * @brief  Deinitializes the EXTI peripheral registers to their default reset values.
  82:/home/virusv/TDASAT-IOT/Libraries/src/stm32f10x_exti.c ****   * @param  None
  83:/home/virusv/TDASAT-IOT/Libraries/src/stm32f10x_exti.c ****   * @retval None
  84:/home/virusv/TDASAT-IOT/Libraries/src/stm32f10x_exti.c ****   */
  85:/home/virusv/TDASAT-IOT/Libraries/src/stm32f10x_exti.c **** void EXTI_DeInit(void)
  86:/home/virusv/TDASAT-IOT/Libraries/src/stm32f10x_exti.c **** {
  28              		.loc 1 86 0
  29              		.cfi_startproc
  30              		@ args = 0, pretend = 0, frame = 0
  31              		@ frame_needed = 1, uses_anonymous_args = 0
  32              		@ link register save eliminated.
  33 0000 80B4     		push	{r7}
  34              		.cfi_def_cfa_offset 4
  35              		.cfi_offset 7, -4
  36 0002 00AF     		add	r7, sp, #0
  37              		.cfi_def_cfa_register 7
  87:/home/virusv/TDASAT-IOT/Libraries/src/stm32f10x_exti.c ****   EXTI->IMR = 0x00000000;
  38              		.loc 1 87 0
  39 0004 094B     		ldr	r3, .L2
  40 0006 0022     		movs	r2, #0
  41 0008 1A60     		str	r2, [r3]
  88:/home/virusv/TDASAT-IOT/Libraries/src/stm32f10x_exti.c ****   EXTI->EMR = 0x00000000;
  42              		.loc 1 88 0
  43 000a 084B     		ldr	r3, .L2
  44 000c 0022     		movs	r2, #0
  45 000e 5A60     		str	r2, [r3, #4]
  89:/home/virusv/TDASAT-IOT/Libraries/src/stm32f10x_exti.c ****   EXTI->RTSR = 0x00000000; 
  46              		.loc 1 89 0
  47 0010 064B     		ldr	r3, .L2
  48 0012 0022     		movs	r2, #0
  49 0014 9A60     		str	r2, [r3, #8]
  90:/home/virusv/TDASAT-IOT/Libraries/src/stm32f10x_exti.c ****   EXTI->FTSR = 0x00000000; 
  50              		.loc 1 90 0
  51 0016 054B     		ldr	r3, .L2
  52 0018 0022     		movs	r2, #0
  53 001a DA60     		str	r2, [r3, #12]
  91:/home/virusv/TDASAT-IOT/Libraries/src/stm32f10x_exti.c ****   EXTI->PR = 0x000FFFFF;
  54              		.loc 1 91 0
  55 001c 034B     		ldr	r3, .L2
  56 001e 044A     		ldr	r2, .L2+4
  57 0020 5A61     		str	r2, [r3, #20]
  92:/home/virusv/TDASAT-IOT/Libraries/src/stm32f10x_exti.c **** }
  58              		.loc 1 92 0
  59 0022 00BF     		nop
  60 0024 BD46     		mov	sp, r7
  61              		.cfi_def_cfa_register 13
  62              		@ sp needed
  63 0026 80BC     		pop	{r7}
  64              		.cfi_restore 7
  65              		.cfi_def_cfa_offset 0
  66 0028 7047     		bx	lr
  67              	.L3:
  68 002a 00BF     		.align	2
  69              	.L2:
  70 002c 00040140 		.word	1073808384
  71 0030 FFFF0F00 		.word	1048575
  72              		.cfi_endproc
  73              	.LFE29:
  75              		.section	.text.EXTI_Init,"ax",%progbits
  76              		.align	2
  77              		.global	EXTI_Init
  78              		.thumb
  79              		.thumb_func
  81              	EXTI_Init:
  82              	.LFB30:
  93:/home/virusv/TDASAT-IOT/Libraries/src/stm32f10x_exti.c **** 
  94:/home/virusv/TDASAT-IOT/Libraries/src/stm32f10x_exti.c **** /**
  95:/home/virusv/TDASAT-IOT/Libraries/src/stm32f10x_exti.c ****   * @brief  Initializes the EXTI peripheral according to the specified
  96:/home/virusv/TDASAT-IOT/Libraries/src/stm32f10x_exti.c ****   *         parameters in the EXTI_InitStruct.
  97:/home/virusv/TDASAT-IOT/Libraries/src/stm32f10x_exti.c ****   * @param  EXTI_InitStruct: pointer to a EXTI_InitTypeDef structure
  98:/home/virusv/TDASAT-IOT/Libraries/src/stm32f10x_exti.c ****   *         that contains the configuration information for the EXTI peripheral.
  99:/home/virusv/TDASAT-IOT/Libraries/src/stm32f10x_exti.c ****   * @retval None
 100:/home/virusv/TDASAT-IOT/Libraries/src/stm32f10x_exti.c ****   */
 101:/home/virusv/TDASAT-IOT/Libraries/src/stm32f10x_exti.c **** void EXTI_Init(EXTI_InitTypeDef* EXTI_InitStruct)
 102:/home/virusv/TDASAT-IOT/Libraries/src/stm32f10x_exti.c **** {
  83              		.loc 1 102 0
  84              		.cfi_startproc
  85              		@ args = 0, pretend = 0, frame = 16
  86              		@ frame_needed = 1, uses_anonymous_args = 0
  87              		@ link register save eliminated.
  88 0000 80B4     		push	{r7}
  89              		.cfi_def_cfa_offset 4
  90              		.cfi_offset 7, -4
  91 0002 85B0     		sub	sp, sp, #20
  92              		.cfi_def_cfa_offset 24
  93 0004 00AF     		add	r7, sp, #0
  94              		.cfi_def_cfa_register 7
  95 0006 7860     		str	r0, [r7, #4]
 103:/home/virusv/TDASAT-IOT/Libraries/src/stm32f10x_exti.c ****   uint32_t tmp = 0;
  96              		.loc 1 103 0
  97 0008 0023     		movs	r3, #0
  98 000a FB60     		str	r3, [r7, #12]
 104:/home/virusv/TDASAT-IOT/Libraries/src/stm32f10x_exti.c **** 
 105:/home/virusv/TDASAT-IOT/Libraries/src/stm32f10x_exti.c ****   /* Check the parameters */
 106:/home/virusv/TDASAT-IOT/Libraries/src/stm32f10x_exti.c ****   assert_param(IS_EXTI_MODE(EXTI_InitStruct->EXTI_Mode));
 107:/home/virusv/TDASAT-IOT/Libraries/src/stm32f10x_exti.c ****   assert_param(IS_EXTI_TRIGGER(EXTI_InitStruct->EXTI_Trigger));
 108:/home/virusv/TDASAT-IOT/Libraries/src/stm32f10x_exti.c ****   assert_param(IS_EXTI_LINE(EXTI_InitStruct->EXTI_Line));  
 109:/home/virusv/TDASAT-IOT/Libraries/src/stm32f10x_exti.c ****   assert_param(IS_FUNCTIONAL_STATE(EXTI_InitStruct->EXTI_LineCmd));
 110:/home/virusv/TDASAT-IOT/Libraries/src/stm32f10x_exti.c **** 
 111:/home/virusv/TDASAT-IOT/Libraries/src/stm32f10x_exti.c ****   tmp = (uint32_t)EXTI_BASE;
  99              		.loc 1 111 0
 100 000c 344B     		ldr	r3, .L10
 101 000e FB60     		str	r3, [r7, #12]
 112:/home/virusv/TDASAT-IOT/Libraries/src/stm32f10x_exti.c ****      
 113:/home/virusv/TDASAT-IOT/Libraries/src/stm32f10x_exti.c ****   if (EXTI_InitStruct->EXTI_LineCmd != DISABLE)
 102              		.loc 1 113 0
 103 0010 7B68     		ldr	r3, [r7, #4]
 104 0012 9B79     		ldrb	r3, [r3, #6]	@ zero_extendqisi2
 105 0014 002B     		cmp	r3, #0
 106 0016 4FD0     		beq	.L5
 114:/home/virusv/TDASAT-IOT/Libraries/src/stm32f10x_exti.c ****   {
 115:/home/virusv/TDASAT-IOT/Libraries/src/stm32f10x_exti.c ****     /* Clear EXTI line configuration */
 116:/home/virusv/TDASAT-IOT/Libraries/src/stm32f10x_exti.c ****     EXTI->IMR &= ~EXTI_InitStruct->EXTI_Line;
 107              		.loc 1 116 0
 108 0018 3149     		ldr	r1, .L10
 109 001a 314B     		ldr	r3, .L10
 110 001c 1A68     		ldr	r2, [r3]
 111 001e 7B68     		ldr	r3, [r7, #4]
 112 0020 1B68     		ldr	r3, [r3]
 113 0022 DB43     		mvns	r3, r3
 114 0024 1340     		ands	r3, r3, r2
 115 0026 0B60     		str	r3, [r1]
 117:/home/virusv/TDASAT-IOT/Libraries/src/stm32f10x_exti.c ****     EXTI->EMR &= ~EXTI_InitStruct->EXTI_Line;
 116              		.loc 1 117 0
 117 0028 2D49     		ldr	r1, .L10
 118 002a 2D4B     		ldr	r3, .L10
 119 002c 5A68     		ldr	r2, [r3, #4]
 120 002e 7B68     		ldr	r3, [r7, #4]
 121 0030 1B68     		ldr	r3, [r3]
 122 0032 DB43     		mvns	r3, r3
 123 0034 1340     		ands	r3, r3, r2
 124 0036 4B60     		str	r3, [r1, #4]
 118:/home/virusv/TDASAT-IOT/Libraries/src/stm32f10x_exti.c ****     
 119:/home/virusv/TDASAT-IOT/Libraries/src/stm32f10x_exti.c ****     tmp += EXTI_InitStruct->EXTI_Mode;
 125              		.loc 1 119 0
 126 0038 7B68     		ldr	r3, [r7, #4]
 127 003a 1B79     		ldrb	r3, [r3, #4]	@ zero_extendqisi2
 128 003c 1A46     		mov	r2, r3
 129 003e FB68     		ldr	r3, [r7, #12]
 130 0040 1344     		add	r3, r3, r2
 131 0042 FB60     		str	r3, [r7, #12]
 120:/home/virusv/TDASAT-IOT/Libraries/src/stm32f10x_exti.c **** 
 121:/home/virusv/TDASAT-IOT/Libraries/src/stm32f10x_exti.c ****     *(__IO uint32_t *) tmp |= EXTI_InitStruct->EXTI_Line;
 132              		.loc 1 121 0
 133 0044 FB68     		ldr	r3, [r7, #12]
 134 0046 FA68     		ldr	r2, [r7, #12]
 135 0048 1168     		ldr	r1, [r2]
 136 004a 7A68     		ldr	r2, [r7, #4]
 137 004c 1268     		ldr	r2, [r2]
 138 004e 0A43     		orrs	r2, r2, r1
 139 0050 1A60     		str	r2, [r3]
 122:/home/virusv/TDASAT-IOT/Libraries/src/stm32f10x_exti.c **** 
 123:/home/virusv/TDASAT-IOT/Libraries/src/stm32f10x_exti.c ****     /* Clear Rising Falling edge configuration */
 124:/home/virusv/TDASAT-IOT/Libraries/src/stm32f10x_exti.c ****     EXTI->RTSR &= ~EXTI_InitStruct->EXTI_Line;
 140              		.loc 1 124 0
 141 0052 2349     		ldr	r1, .L10
 142 0054 224B     		ldr	r3, .L10
 143 0056 9A68     		ldr	r2, [r3, #8]
 144 0058 7B68     		ldr	r3, [r7, #4]
 145 005a 1B68     		ldr	r3, [r3]
 146 005c DB43     		mvns	r3, r3
 147 005e 1340     		ands	r3, r3, r2
 148 0060 8B60     		str	r3, [r1, #8]
 125:/home/virusv/TDASAT-IOT/Libraries/src/stm32f10x_exti.c ****     EXTI->FTSR &= ~EXTI_InitStruct->EXTI_Line;
 149              		.loc 1 125 0
 150 0062 1F49     		ldr	r1, .L10
 151 0064 1E4B     		ldr	r3, .L10
 152 0066 DA68     		ldr	r2, [r3, #12]
 153 0068 7B68     		ldr	r3, [r7, #4]
 154 006a 1B68     		ldr	r3, [r3]
 155 006c DB43     		mvns	r3, r3
 156 006e 1340     		ands	r3, r3, r2
 157 0070 CB60     		str	r3, [r1, #12]
 126:/home/virusv/TDASAT-IOT/Libraries/src/stm32f10x_exti.c ****     
 127:/home/virusv/TDASAT-IOT/Libraries/src/stm32f10x_exti.c ****     /* Select the trigger for the selected external interrupts */
 128:/home/virusv/TDASAT-IOT/Libraries/src/stm32f10x_exti.c ****     if (EXTI_InitStruct->EXTI_Trigger == EXTI_Trigger_Rising_Falling)
 158              		.loc 1 128 0
 159 0072 7B68     		ldr	r3, [r7, #4]
 160 0074 5B79     		ldrb	r3, [r3, #5]	@ zero_extendqisi2
 161 0076 102B     		cmp	r3, #16
 162 0078 0ED1     		bne	.L6
 129:/home/virusv/TDASAT-IOT/Libraries/src/stm32f10x_exti.c ****     {
 130:/home/virusv/TDASAT-IOT/Libraries/src/stm32f10x_exti.c ****       /* Rising Falling edge */
 131:/home/virusv/TDASAT-IOT/Libraries/src/stm32f10x_exti.c ****       EXTI->RTSR |= EXTI_InitStruct->EXTI_Line;
 163              		.loc 1 131 0
 164 007a 1949     		ldr	r1, .L10
 165 007c 184B     		ldr	r3, .L10
 166 007e 9A68     		ldr	r2, [r3, #8]
 167 0080 7B68     		ldr	r3, [r7, #4]
 168 0082 1B68     		ldr	r3, [r3]
 169 0084 1343     		orrs	r3, r3, r2
 170 0086 8B60     		str	r3, [r1, #8]
 132:/home/virusv/TDASAT-IOT/Libraries/src/stm32f10x_exti.c ****       EXTI->FTSR |= EXTI_InitStruct->EXTI_Line;
 171              		.loc 1 132 0
 172 0088 1549     		ldr	r1, .L10
 173 008a 154B     		ldr	r3, .L10
 174 008c DA68     		ldr	r2, [r3, #12]
 175 008e 7B68     		ldr	r3, [r7, #4]
 176 0090 1B68     		ldr	r3, [r3]
 177 0092 1343     		orrs	r3, r3, r2
 178 0094 CB60     		str	r3, [r1, #12]
 133:/home/virusv/TDASAT-IOT/Libraries/src/stm32f10x_exti.c ****     }
 134:/home/virusv/TDASAT-IOT/Libraries/src/stm32f10x_exti.c ****     else
 135:/home/virusv/TDASAT-IOT/Libraries/src/stm32f10x_exti.c ****     {
 136:/home/virusv/TDASAT-IOT/Libraries/src/stm32f10x_exti.c ****       tmp = (uint32_t)EXTI_BASE;
 137:/home/virusv/TDASAT-IOT/Libraries/src/stm32f10x_exti.c ****       tmp += EXTI_InitStruct->EXTI_Trigger;
 138:/home/virusv/TDASAT-IOT/Libraries/src/stm32f10x_exti.c **** 
 139:/home/virusv/TDASAT-IOT/Libraries/src/stm32f10x_exti.c ****       *(__IO uint32_t *) tmp |= EXTI_InitStruct->EXTI_Line;
 140:/home/virusv/TDASAT-IOT/Libraries/src/stm32f10x_exti.c ****     }
 141:/home/virusv/TDASAT-IOT/Libraries/src/stm32f10x_exti.c ****   }
 142:/home/virusv/TDASAT-IOT/Libraries/src/stm32f10x_exti.c ****   else
 143:/home/virusv/TDASAT-IOT/Libraries/src/stm32f10x_exti.c ****   {
 144:/home/virusv/TDASAT-IOT/Libraries/src/stm32f10x_exti.c ****     tmp += EXTI_InitStruct->EXTI_Mode;
 145:/home/virusv/TDASAT-IOT/Libraries/src/stm32f10x_exti.c **** 
 146:/home/virusv/TDASAT-IOT/Libraries/src/stm32f10x_exti.c ****     /* Disable the selected external lines */
 147:/home/virusv/TDASAT-IOT/Libraries/src/stm32f10x_exti.c ****     *(__IO uint32_t *) tmp &= ~EXTI_InitStruct->EXTI_Line;
 148:/home/virusv/TDASAT-IOT/Libraries/src/stm32f10x_exti.c ****   }
 149:/home/virusv/TDASAT-IOT/Libraries/src/stm32f10x_exti.c **** }
 179              		.loc 1 149 0
 180 0096 1DE0     		b	.L9
 181              	.L6:
 136:/home/virusv/TDASAT-IOT/Libraries/src/stm32f10x_exti.c ****       tmp += EXTI_InitStruct->EXTI_Trigger;
 182              		.loc 1 136 0
 183 0098 114B     		ldr	r3, .L10
 184 009a FB60     		str	r3, [r7, #12]
 137:/home/virusv/TDASAT-IOT/Libraries/src/stm32f10x_exti.c **** 
 185              		.loc 1 137 0
 186 009c 7B68     		ldr	r3, [r7, #4]
 187 009e 5B79     		ldrb	r3, [r3, #5]	@ zero_extendqisi2
 188 00a0 1A46     		mov	r2, r3
 189 00a2 FB68     		ldr	r3, [r7, #12]
 190 00a4 1344     		add	r3, r3, r2
 191 00a6 FB60     		str	r3, [r7, #12]
 139:/home/virusv/TDASAT-IOT/Libraries/src/stm32f10x_exti.c ****     }
 192              		.loc 1 139 0
 193 00a8 FB68     		ldr	r3, [r7, #12]
 194 00aa FA68     		ldr	r2, [r7, #12]
 195 00ac 1168     		ldr	r1, [r2]
 196 00ae 7A68     		ldr	r2, [r7, #4]
 197 00b0 1268     		ldr	r2, [r2]
 198 00b2 0A43     		orrs	r2, r2, r1
 199 00b4 1A60     		str	r2, [r3]
 200              		.loc 1 149 0
 201 00b6 0DE0     		b	.L9
 202              	.L5:
 144:/home/virusv/TDASAT-IOT/Libraries/src/stm32f10x_exti.c **** 
 203              		.loc 1 144 0
 204 00b8 7B68     		ldr	r3, [r7, #4]
 205 00ba 1B79     		ldrb	r3, [r3, #4]	@ zero_extendqisi2
 206 00bc 1A46     		mov	r2, r3
 207 00be FB68     		ldr	r3, [r7, #12]
 208 00c0 1344     		add	r3, r3, r2
 209 00c2 FB60     		str	r3, [r7, #12]
 147:/home/virusv/TDASAT-IOT/Libraries/src/stm32f10x_exti.c ****   }
 210              		.loc 1 147 0
 211 00c4 FB68     		ldr	r3, [r7, #12]
 212 00c6 FA68     		ldr	r2, [r7, #12]
 213 00c8 1168     		ldr	r1, [r2]
 214 00ca 7A68     		ldr	r2, [r7, #4]
 215 00cc 1268     		ldr	r2, [r2]
 216 00ce D243     		mvns	r2, r2
 217 00d0 0A40     		ands	r2, r2, r1
 218 00d2 1A60     		str	r2, [r3]
 219              	.L9:
 220              		.loc 1 149 0
 221 00d4 00BF     		nop
 222 00d6 1437     		adds	r7, r7, #20
 223              		.cfi_def_cfa_offset 4
 224 00d8 BD46     		mov	sp, r7
 225              		.cfi_def_cfa_register 13
 226              		@ sp needed
 227 00da 80BC     		pop	{r7}
 228              		.cfi_restore 7
 229              		.cfi_def_cfa_offset 0
 230 00dc 7047     		bx	lr
 231              	.L11:
 232 00de 00BF     		.align	2
 233              	.L10:
 234 00e0 00040140 		.word	1073808384
 235              		.cfi_endproc
 236              	.LFE30:
 238              		.section	.text.EXTI_StructInit,"ax",%progbits
 239              		.align	2
 240              		.global	EXTI_StructInit
 241              		.thumb
 242              		.thumb_func
 244              	EXTI_StructInit:
 245              	.LFB31:
 150:/home/virusv/TDASAT-IOT/Libraries/src/stm32f10x_exti.c **** 
 151:/home/virusv/TDASAT-IOT/Libraries/src/stm32f10x_exti.c **** /**
 152:/home/virusv/TDASAT-IOT/Libraries/src/stm32f10x_exti.c ****   * @brief  Fills each EXTI_InitStruct member with its reset value.
 153:/home/virusv/TDASAT-IOT/Libraries/src/stm32f10x_exti.c ****   * @param  EXTI_InitStruct: pointer to a EXTI_InitTypeDef structure which will
 154:/home/virusv/TDASAT-IOT/Libraries/src/stm32f10x_exti.c ****   *         be initialized.
 155:/home/virusv/TDASAT-IOT/Libraries/src/stm32f10x_exti.c ****   * @retval None
 156:/home/virusv/TDASAT-IOT/Libraries/src/stm32f10x_exti.c ****   */
 157:/home/virusv/TDASAT-IOT/Libraries/src/stm32f10x_exti.c **** void EXTI_StructInit(EXTI_InitTypeDef* EXTI_InitStruct)
 158:/home/virusv/TDASAT-IOT/Libraries/src/stm32f10x_exti.c **** {
 246              		.loc 1 158 0
 247              		.cfi_startproc
 248              		@ args = 0, pretend = 0, frame = 8
 249              		@ frame_needed = 1, uses_anonymous_args = 0
 250              		@ link register save eliminated.
 251 0000 80B4     		push	{r7}
 252              		.cfi_def_cfa_offset 4
 253              		.cfi_offset 7, -4
 254 0002 83B0     		sub	sp, sp, #12
 255              		.cfi_def_cfa_offset 16
 256 0004 00AF     		add	r7, sp, #0
 257              		.cfi_def_cfa_register 7
 258 0006 7860     		str	r0, [r7, #4]
 159:/home/virusv/TDASAT-IOT/Libraries/src/stm32f10x_exti.c ****   EXTI_InitStruct->EXTI_Line = EXTI_LINENONE;
 259              		.loc 1 159 0
 260 0008 7B68     		ldr	r3, [r7, #4]
 261 000a 0022     		movs	r2, #0
 262 000c 1A60     		str	r2, [r3]
 160:/home/virusv/TDASAT-IOT/Libraries/src/stm32f10x_exti.c ****   EXTI_InitStruct->EXTI_Mode = EXTI_Mode_Interrupt;
 263              		.loc 1 160 0
 264 000e 7B68     		ldr	r3, [r7, #4]
 265 0010 0022     		movs	r2, #0
 266 0012 1A71     		strb	r2, [r3, #4]
 161:/home/virusv/TDASAT-IOT/Libraries/src/stm32f10x_exti.c ****   EXTI_InitStruct->EXTI_Trigger = EXTI_Trigger_Falling;
 267              		.loc 1 161 0
 268 0014 7B68     		ldr	r3, [r7, #4]
 269 0016 0C22     		movs	r2, #12
 270 0018 5A71     		strb	r2, [r3, #5]
 162:/home/virusv/TDASAT-IOT/Libraries/src/stm32f10x_exti.c ****   EXTI_InitStruct->EXTI_LineCmd = DISABLE;
 271              		.loc 1 162 0
 272 001a 7B68     		ldr	r3, [r7, #4]
 273 001c 0022     		movs	r2, #0
 274 001e 9A71     		strb	r2, [r3, #6]
 163:/home/virusv/TDASAT-IOT/Libraries/src/stm32f10x_exti.c **** }
 275              		.loc 1 163 0
 276 0020 00BF     		nop
 277 0022 0C37     		adds	r7, r7, #12
 278              		.cfi_def_cfa_offset 4
 279 0024 BD46     		mov	sp, r7
 280              		.cfi_def_cfa_register 13
 281              		@ sp needed
 282 0026 80BC     		pop	{r7}
 283              		.cfi_restore 7
 284              		.cfi_def_cfa_offset 0
 285 0028 7047     		bx	lr
 286              		.cfi_endproc
 287              	.LFE31:
 289 002a 00BF     		.section	.text.EXTI_GenerateSWInterrupt,"ax",%progbits
 290              		.align	2
 291              		.global	EXTI_GenerateSWInterrupt
 292              		.thumb
 293              		.thumb_func
 295              	EXTI_GenerateSWInterrupt:
 296              	.LFB32:
 164:/home/virusv/TDASAT-IOT/Libraries/src/stm32f10x_exti.c **** 
 165:/home/virusv/TDASAT-IOT/Libraries/src/stm32f10x_exti.c **** /**
 166:/home/virusv/TDASAT-IOT/Libraries/src/stm32f10x_exti.c ****   * @brief  Generates a Software interrupt.
 167:/home/virusv/TDASAT-IOT/Libraries/src/stm32f10x_exti.c ****   * @param  EXTI_Line: specifies the EXTI lines to be enabled or disabled.
 168:/home/virusv/TDASAT-IOT/Libraries/src/stm32f10x_exti.c ****   *   This parameter can be any combination of EXTI_Linex where x can be (0..19).
 169:/home/virusv/TDASAT-IOT/Libraries/src/stm32f10x_exti.c ****   * @retval None
 170:/home/virusv/TDASAT-IOT/Libraries/src/stm32f10x_exti.c ****   */
 171:/home/virusv/TDASAT-IOT/Libraries/src/stm32f10x_exti.c **** void EXTI_GenerateSWInterrupt(uint32_t EXTI_Line)
 172:/home/virusv/TDASAT-IOT/Libraries/src/stm32f10x_exti.c **** {
 297              		.loc 1 172 0
 298              		.cfi_startproc
 299              		@ args = 0, pretend = 0, frame = 8
 300              		@ frame_needed = 1, uses_anonymous_args = 0
 301              		@ link register save eliminated.
 302 0000 80B4     		push	{r7}
 303              		.cfi_def_cfa_offset 4
 304              		.cfi_offset 7, -4
 305 0002 83B0     		sub	sp, sp, #12
 306              		.cfi_def_cfa_offset 16
 307 0004 00AF     		add	r7, sp, #0
 308              		.cfi_def_cfa_register 7
 309 0006 7860     		str	r0, [r7, #4]
 173:/home/virusv/TDASAT-IOT/Libraries/src/stm32f10x_exti.c ****   /* Check the parameters */
 174:/home/virusv/TDASAT-IOT/Libraries/src/stm32f10x_exti.c ****   assert_param(IS_EXTI_LINE(EXTI_Line));
 175:/home/virusv/TDASAT-IOT/Libraries/src/stm32f10x_exti.c ****   
 176:/home/virusv/TDASAT-IOT/Libraries/src/stm32f10x_exti.c ****   EXTI->SWIER |= EXTI_Line;
 310              		.loc 1 176 0
 311 0008 0549     		ldr	r1, .L14
 312 000a 054B     		ldr	r3, .L14
 313 000c 1A69     		ldr	r2, [r3, #16]
 314 000e 7B68     		ldr	r3, [r7, #4]
 315 0010 1343     		orrs	r3, r3, r2
 316 0012 0B61     		str	r3, [r1, #16]
 177:/home/virusv/TDASAT-IOT/Libraries/src/stm32f10x_exti.c **** }
 317              		.loc 1 177 0
 318 0014 00BF     		nop
 319 0016 0C37     		adds	r7, r7, #12
 320              		.cfi_def_cfa_offset 4
 321 0018 BD46     		mov	sp, r7
 322              		.cfi_def_cfa_register 13
 323              		@ sp needed
 324 001a 80BC     		pop	{r7}
 325              		.cfi_restore 7
 326              		.cfi_def_cfa_offset 0
 327 001c 7047     		bx	lr
 328              	.L15:
 329 001e 00BF     		.align	2
 330              	.L14:
 331 0020 00040140 		.word	1073808384
 332              		.cfi_endproc
 333              	.LFE32:
 335              		.section	.text.EXTI_GetFlagStatus,"ax",%progbits
 336              		.align	2
 337              		.global	EXTI_GetFlagStatus
 338              		.thumb
 339              		.thumb_func
 341              	EXTI_GetFlagStatus:
 342              	.LFB33:
 178:/home/virusv/TDASAT-IOT/Libraries/src/stm32f10x_exti.c **** 
 179:/home/virusv/TDASAT-IOT/Libraries/src/stm32f10x_exti.c **** /**
 180:/home/virusv/TDASAT-IOT/Libraries/src/stm32f10x_exti.c ****   * @brief  Checks whether the specified EXTI line flag is set or not.
 181:/home/virusv/TDASAT-IOT/Libraries/src/stm32f10x_exti.c ****   * @param  EXTI_Line: specifies the EXTI line flag to check.
 182:/home/virusv/TDASAT-IOT/Libraries/src/stm32f10x_exti.c ****   *   This parameter can be:
 183:/home/virusv/TDASAT-IOT/Libraries/src/stm32f10x_exti.c ****   *     @arg EXTI_Linex: External interrupt line x where x(0..19)
 184:/home/virusv/TDASAT-IOT/Libraries/src/stm32f10x_exti.c ****   * @retval The new state of EXTI_Line (SET or RESET).
 185:/home/virusv/TDASAT-IOT/Libraries/src/stm32f10x_exti.c ****   */
 186:/home/virusv/TDASAT-IOT/Libraries/src/stm32f10x_exti.c **** FlagStatus EXTI_GetFlagStatus(uint32_t EXTI_Line)
 187:/home/virusv/TDASAT-IOT/Libraries/src/stm32f10x_exti.c **** {
 343              		.loc 1 187 0
 344              		.cfi_startproc
 345              		@ args = 0, pretend = 0, frame = 16
 346              		@ frame_needed = 1, uses_anonymous_args = 0
 347              		@ link register save eliminated.
 348 0000 80B4     		push	{r7}
 349              		.cfi_def_cfa_offset 4
 350              		.cfi_offset 7, -4
 351 0002 85B0     		sub	sp, sp, #20
 352              		.cfi_def_cfa_offset 24
 353 0004 00AF     		add	r7, sp, #0
 354              		.cfi_def_cfa_register 7
 355 0006 7860     		str	r0, [r7, #4]
 188:/home/virusv/TDASAT-IOT/Libraries/src/stm32f10x_exti.c ****   FlagStatus bitstatus = RESET;
 356              		.loc 1 188 0
 357 0008 0023     		movs	r3, #0
 358 000a FB73     		strb	r3, [r7, #15]
 189:/home/virusv/TDASAT-IOT/Libraries/src/stm32f10x_exti.c ****   /* Check the parameters */
 190:/home/virusv/TDASAT-IOT/Libraries/src/stm32f10x_exti.c ****   assert_param(IS_GET_EXTI_LINE(EXTI_Line));
 191:/home/virusv/TDASAT-IOT/Libraries/src/stm32f10x_exti.c ****   
 192:/home/virusv/TDASAT-IOT/Libraries/src/stm32f10x_exti.c ****   if ((EXTI->PR & EXTI_Line) != (uint32_t)RESET)
 359              		.loc 1 192 0
 360 000c 084B     		ldr	r3, .L20
 361 000e 5A69     		ldr	r2, [r3, #20]
 362 0010 7B68     		ldr	r3, [r7, #4]
 363 0012 1340     		ands	r3, r3, r2
 364 0014 002B     		cmp	r3, #0
 365 0016 02D0     		beq	.L17
 193:/home/virusv/TDASAT-IOT/Libraries/src/stm32f10x_exti.c ****   {
 194:/home/virusv/TDASAT-IOT/Libraries/src/stm32f10x_exti.c ****     bitstatus = SET;
 366              		.loc 1 194 0
 367 0018 0123     		movs	r3, #1
 368 001a FB73     		strb	r3, [r7, #15]
 369 001c 01E0     		b	.L18
 370              	.L17:
 195:/home/virusv/TDASAT-IOT/Libraries/src/stm32f10x_exti.c ****   }
 196:/home/virusv/TDASAT-IOT/Libraries/src/stm32f10x_exti.c ****   else
 197:/home/virusv/TDASAT-IOT/Libraries/src/stm32f10x_exti.c ****   {
 198:/home/virusv/TDASAT-IOT/Libraries/src/stm32f10x_exti.c ****     bitstatus = RESET;
 371              		.loc 1 198 0
 372 001e 0023     		movs	r3, #0
 373 0020 FB73     		strb	r3, [r7, #15]
 374              	.L18:
 199:/home/virusv/TDASAT-IOT/Libraries/src/stm32f10x_exti.c ****   }
 200:/home/virusv/TDASAT-IOT/Libraries/src/stm32f10x_exti.c ****   return bitstatus;
 375              		.loc 1 200 0
 376 0022 FB7B     		ldrb	r3, [r7, #15]	@ zero_extendqisi2
 201:/home/virusv/TDASAT-IOT/Libraries/src/stm32f10x_exti.c **** }
 377              		.loc 1 201 0
 378 0024 1846     		mov	r0, r3
 379 0026 1437     		adds	r7, r7, #20
 380              		.cfi_def_cfa_offset 4
 381 0028 BD46     		mov	sp, r7
 382              		.cfi_def_cfa_register 13
 383              		@ sp needed
 384 002a 80BC     		pop	{r7}
 385              		.cfi_restore 7
 386              		.cfi_def_cfa_offset 0
 387 002c 7047     		bx	lr
 388              	.L21:
 389 002e 00BF     		.align	2
 390              	.L20:
 391 0030 00040140 		.word	1073808384
 392              		.cfi_endproc
 393              	.LFE33:
 395              		.section	.text.EXTI_ClearFlag,"ax",%progbits
 396              		.align	2
 397              		.global	EXTI_ClearFlag
 398              		.thumb
 399              		.thumb_func
 401              	EXTI_ClearFlag:
 402              	.LFB34:
 202:/home/virusv/TDASAT-IOT/Libraries/src/stm32f10x_exti.c **** 
 203:/home/virusv/TDASAT-IOT/Libraries/src/stm32f10x_exti.c **** /**
 204:/home/virusv/TDASAT-IOT/Libraries/src/stm32f10x_exti.c ****   * @brief  Clears the EXTI's line pending flags.
 205:/home/virusv/TDASAT-IOT/Libraries/src/stm32f10x_exti.c ****   * @param  EXTI_Line: specifies the EXTI lines flags to clear.
 206:/home/virusv/TDASAT-IOT/Libraries/src/stm32f10x_exti.c ****   *   This parameter can be any combination of EXTI_Linex where x can be (0..19).
 207:/home/virusv/TDASAT-IOT/Libraries/src/stm32f10x_exti.c ****   * @retval None
 208:/home/virusv/TDASAT-IOT/Libraries/src/stm32f10x_exti.c ****   */
 209:/home/virusv/TDASAT-IOT/Libraries/src/stm32f10x_exti.c **** void EXTI_ClearFlag(uint32_t EXTI_Line)
 210:/home/virusv/TDASAT-IOT/Libraries/src/stm32f10x_exti.c **** {
 403              		.loc 1 210 0
 404              		.cfi_startproc
 405              		@ args = 0, pretend = 0, frame = 8
 406              		@ frame_needed = 1, uses_anonymous_args = 0
 407              		@ link register save eliminated.
 408 0000 80B4     		push	{r7}
 409              		.cfi_def_cfa_offset 4
 410              		.cfi_offset 7, -4
 411 0002 83B0     		sub	sp, sp, #12
 412              		.cfi_def_cfa_offset 16
 413 0004 00AF     		add	r7, sp, #0
 414              		.cfi_def_cfa_register 7
 415 0006 7860     		str	r0, [r7, #4]
 211:/home/virusv/TDASAT-IOT/Libraries/src/stm32f10x_exti.c ****   /* Check the parameters */
 212:/home/virusv/TDASAT-IOT/Libraries/src/stm32f10x_exti.c ****   assert_param(IS_EXTI_LINE(EXTI_Line));
 213:/home/virusv/TDASAT-IOT/Libraries/src/stm32f10x_exti.c ****   
 214:/home/virusv/TDASAT-IOT/Libraries/src/stm32f10x_exti.c ****   EXTI->PR = EXTI_Line;
 416              		.loc 1 214 0
 417 0008 034A     		ldr	r2, .L23
 418 000a 7B68     		ldr	r3, [r7, #4]
 419 000c 5361     		str	r3, [r2, #20]
 215:/home/virusv/TDASAT-IOT/Libraries/src/stm32f10x_exti.c **** }
 420              		.loc 1 215 0
 421 000e 00BF     		nop
 422 0010 0C37     		adds	r7, r7, #12
 423              		.cfi_def_cfa_offset 4
 424 0012 BD46     		mov	sp, r7
 425              		.cfi_def_cfa_register 13
 426              		@ sp needed
 427 0014 80BC     		pop	{r7}
 428              		.cfi_restore 7
 429              		.cfi_def_cfa_offset 0
 430 0016 7047     		bx	lr
 431              	.L24:
 432              		.align	2
 433              	.L23:
 434 0018 00040140 		.word	1073808384
 435              		.cfi_endproc
 436              	.LFE34:
 438              		.section	.text.EXTI_GetITStatus,"ax",%progbits
 439              		.align	2
 440              		.global	EXTI_GetITStatus
 441              		.thumb
 442              		.thumb_func
 444              	EXTI_GetITStatus:
 445              	.LFB35:
 216:/home/virusv/TDASAT-IOT/Libraries/src/stm32f10x_exti.c **** 
 217:/home/virusv/TDASAT-IOT/Libraries/src/stm32f10x_exti.c **** /**
 218:/home/virusv/TDASAT-IOT/Libraries/src/stm32f10x_exti.c ****   * @brief  Checks whether the specified EXTI line is asserted or not.
 219:/home/virusv/TDASAT-IOT/Libraries/src/stm32f10x_exti.c ****   * @param  EXTI_Line: specifies the EXTI line to check.
 220:/home/virusv/TDASAT-IOT/Libraries/src/stm32f10x_exti.c ****   *   This parameter can be:
 221:/home/virusv/TDASAT-IOT/Libraries/src/stm32f10x_exti.c ****   *     @arg EXTI_Linex: External interrupt line x where x(0..19)
 222:/home/virusv/TDASAT-IOT/Libraries/src/stm32f10x_exti.c ****   * @retval The new state of EXTI_Line (SET or RESET).
 223:/home/virusv/TDASAT-IOT/Libraries/src/stm32f10x_exti.c ****   */
 224:/home/virusv/TDASAT-IOT/Libraries/src/stm32f10x_exti.c **** ITStatus EXTI_GetITStatus(uint32_t EXTI_Line)
 225:/home/virusv/TDASAT-IOT/Libraries/src/stm32f10x_exti.c **** {
 446              		.loc 1 225 0
 447              		.cfi_startproc
 448              		@ args = 0, pretend = 0, frame = 16
 449              		@ frame_needed = 1, uses_anonymous_args = 0
 450              		@ link register save eliminated.
 451 0000 80B4     		push	{r7}
 452              		.cfi_def_cfa_offset 4
 453              		.cfi_offset 7, -4
 454 0002 85B0     		sub	sp, sp, #20
 455              		.cfi_def_cfa_offset 24
 456 0004 00AF     		add	r7, sp, #0
 457              		.cfi_def_cfa_register 7
 458 0006 7860     		str	r0, [r7, #4]
 226:/home/virusv/TDASAT-IOT/Libraries/src/stm32f10x_exti.c ****   ITStatus bitstatus = RESET;
 459              		.loc 1 226 0
 460 0008 0023     		movs	r3, #0
 461 000a FB73     		strb	r3, [r7, #15]
 227:/home/virusv/TDASAT-IOT/Libraries/src/stm32f10x_exti.c ****   uint32_t enablestatus = 0;
 462              		.loc 1 227 0
 463 000c 0023     		movs	r3, #0
 464 000e BB60     		str	r3, [r7, #8]
 228:/home/virusv/TDASAT-IOT/Libraries/src/stm32f10x_exti.c ****   /* Check the parameters */
 229:/home/virusv/TDASAT-IOT/Libraries/src/stm32f10x_exti.c ****   assert_param(IS_GET_EXTI_LINE(EXTI_Line));
 230:/home/virusv/TDASAT-IOT/Libraries/src/stm32f10x_exti.c ****   
 231:/home/virusv/TDASAT-IOT/Libraries/src/stm32f10x_exti.c ****   enablestatus =  EXTI->IMR & EXTI_Line;
 465              		.loc 1 231 0
 466 0010 0C4B     		ldr	r3, .L29
 467 0012 1A68     		ldr	r2, [r3]
 468 0014 7B68     		ldr	r3, [r7, #4]
 469 0016 1340     		ands	r3, r3, r2
 470 0018 BB60     		str	r3, [r7, #8]
 232:/home/virusv/TDASAT-IOT/Libraries/src/stm32f10x_exti.c ****   if (((EXTI->PR & EXTI_Line) != (uint32_t)RESET) && (enablestatus != (uint32_t)RESET))
 471              		.loc 1 232 0
 472 001a 0A4B     		ldr	r3, .L29
 473 001c 5A69     		ldr	r2, [r3, #20]
 474 001e 7B68     		ldr	r3, [r7, #4]
 475 0020 1340     		ands	r3, r3, r2
 476 0022 002B     		cmp	r3, #0
 477 0024 05D0     		beq	.L26
 478              		.loc 1 232 0 is_stmt 0 discriminator 1
 479 0026 BB68     		ldr	r3, [r7, #8]
 480 0028 002B     		cmp	r3, #0
 481 002a 02D0     		beq	.L26
 233:/home/virusv/TDASAT-IOT/Libraries/src/stm32f10x_exti.c ****   {
 234:/home/virusv/TDASAT-IOT/Libraries/src/stm32f10x_exti.c ****     bitstatus = SET;
 482              		.loc 1 234 0 is_stmt 1
 483 002c 0123     		movs	r3, #1
 484 002e FB73     		strb	r3, [r7, #15]
 485 0030 01E0     		b	.L27
 486              	.L26:
 235:/home/virusv/TDASAT-IOT/Libraries/src/stm32f10x_exti.c ****   }
 236:/home/virusv/TDASAT-IOT/Libraries/src/stm32f10x_exti.c ****   else
 237:/home/virusv/TDASAT-IOT/Libraries/src/stm32f10x_exti.c ****   {
 238:/home/virusv/TDASAT-IOT/Libraries/src/stm32f10x_exti.c ****     bitstatus = RESET;
 487              		.loc 1 238 0
 488 0032 0023     		movs	r3, #0
 489 0034 FB73     		strb	r3, [r7, #15]
 490              	.L27:
 239:/home/virusv/TDASAT-IOT/Libraries/src/stm32f10x_exti.c ****   }
 240:/home/virusv/TDASAT-IOT/Libraries/src/stm32f10x_exti.c ****   return bitstatus;
 491              		.loc 1 240 0
 492 0036 FB7B     		ldrb	r3, [r7, #15]	@ zero_extendqisi2
 241:/home/virusv/TDASAT-IOT/Libraries/src/stm32f10x_exti.c **** }
 493              		.loc 1 241 0
 494 0038 1846     		mov	r0, r3
 495 003a 1437     		adds	r7, r7, #20
 496              		.cfi_def_cfa_offset 4
 497 003c BD46     		mov	sp, r7
 498              		.cfi_def_cfa_register 13
 499              		@ sp needed
 500 003e 80BC     		pop	{r7}
 501              		.cfi_restore 7
 502              		.cfi_def_cfa_offset 0
 503 0040 7047     		bx	lr
 504              	.L30:
 505 0042 00BF     		.align	2
 506              	.L29:
 507 0044 00040140 		.word	1073808384
 508              		.cfi_endproc
 509              	.LFE35:
 511              		.section	.text.EXTI_ClearITPendingBit,"ax",%progbits
 512              		.align	2
 513              		.global	EXTI_ClearITPendingBit
 514              		.thumb
 515              		.thumb_func
 517              	EXTI_ClearITPendingBit:
 518              	.LFB36:
 242:/home/virusv/TDASAT-IOT/Libraries/src/stm32f10x_exti.c **** 
 243:/home/virusv/TDASAT-IOT/Libraries/src/stm32f10x_exti.c **** /**
 244:/home/virusv/TDASAT-IOT/Libraries/src/stm32f10x_exti.c ****   * @brief  Clears the EXTI's line pending bits.
 245:/home/virusv/TDASAT-IOT/Libraries/src/stm32f10x_exti.c ****   * @param  EXTI_Line: specifies the EXTI lines to clear.
 246:/home/virusv/TDASAT-IOT/Libraries/src/stm32f10x_exti.c ****   *   This parameter can be any combination of EXTI_Linex where x can be (0..19).
 247:/home/virusv/TDASAT-IOT/Libraries/src/stm32f10x_exti.c ****   * @retval None
 248:/home/virusv/TDASAT-IOT/Libraries/src/stm32f10x_exti.c ****   */
 249:/home/virusv/TDASAT-IOT/Libraries/src/stm32f10x_exti.c **** void EXTI_ClearITPendingBit(uint32_t EXTI_Line)
 250:/home/virusv/TDASAT-IOT/Libraries/src/stm32f10x_exti.c **** {
 519              		.loc 1 250 0
 520              		.cfi_startproc
 521              		@ args = 0, pretend = 0, frame = 8
 522              		@ frame_needed = 1, uses_anonymous_args = 0
 523              		@ link register save eliminated.
 524 0000 80B4     		push	{r7}
 525              		.cfi_def_cfa_offset 4
 526              		.cfi_offset 7, -4
 527 0002 83B0     		sub	sp, sp, #12
 528              		.cfi_def_cfa_offset 16
 529 0004 00AF     		add	r7, sp, #0
 530              		.cfi_def_cfa_register 7
 531 0006 7860     		str	r0, [r7, #4]
 251:/home/virusv/TDASAT-IOT/Libraries/src/stm32f10x_exti.c ****   /* Check the parameters */
 252:/home/virusv/TDASAT-IOT/Libraries/src/stm32f10x_exti.c ****   assert_param(IS_EXTI_LINE(EXTI_Line));
 253:/home/virusv/TDASAT-IOT/Libraries/src/stm32f10x_exti.c ****   
 254:/home/virusv/TDASAT-IOT/Libraries/src/stm32f10x_exti.c ****   EXTI->PR = EXTI_Line;
 532              		.loc 1 254 0
 533 0008 034A     		ldr	r2, .L32
 534 000a 7B68     		ldr	r3, [r7, #4]
 535 000c 5361     		str	r3, [r2, #20]
 255:/home/virusv/TDASAT-IOT/Libraries/src/stm32f10x_exti.c **** }
 536              		.loc 1 255 0
 537 000e 00BF     		nop
 538 0010 0C37     		adds	r7, r7, #12
 539              		.cfi_def_cfa_offset 4
 540 0012 BD46     		mov	sp, r7
 541              		.cfi_def_cfa_register 13
 542              		@ sp needed
 543 0014 80BC     		pop	{r7}
 544              		.cfi_restore 7
 545              		.cfi_def_cfa_offset 0
 546 0016 7047     		bx	lr
 547              	.L33:
 548              		.align	2
 549              	.L32:
 550 0018 00040140 		.word	1073808384
 551              		.cfi_endproc
 552              	.LFE36:
 554              		.text
 555              	.Letext0:
 556              		.file 2 "/usr/include/newlib/machine/_default_types.h"
 557              		.file 3 "/usr/include/newlib/sys/_stdint.h"
 558              		.file 4 "/home/virusv/TDASAT-IOT/CMSIS/CM3/DeviceSupport/ST/STM32F10x/stm32f10x.h"
 559              		.file 5 "/home/virusv/TDASAT-IOT/Libraries/inc/stm32f10x_exti.h"
 560              		.file 6 "/home/virusv/TDASAT-IOT/CMSIS/CM3/CoreSupport/core_cm3.h"